
Pacemaker.elf:     file format elf32-littlenios2
Pacemaker.elf
architecture: nios2:r1, flags 0x00000112:
EXEC_P, HAS_SYMS, D_PAGED
start address 0x00800244

Program Header:
    LOAD off    0x00001000 vaddr 0x00800000 paddr 0x00800000 align 2**12
         filesz 0x00000020 memsz 0x00000020 flags r-x
    LOAD off    0x00001020 vaddr 0x00800020 paddr 0x00800020 align 2**12
         filesz 0x00017464 memsz 0x00017464 flags r-x
    LOAD off    0x00018484 vaddr 0x00817484 paddr 0x00819160 align 2**12
         filesz 0x00001cdc memsz 0x00001cdc flags rw-
    LOAD off    0x0001ae3c vaddr 0x0081ae3c paddr 0x0081ae3c align 2**12
         filesz 0x00000000 memsz 0x00000308 flags rw-

Sections:
Idx Name          Size      VMA       LMA       File off  Algn
  0 .entry        00000020  00800000  00800000  00001000  2**5
                  CONTENTS, ALLOC, LOAD, READONLY, CODE
  1 .exceptions   00000224  00800020  00800020  00001020  2**2
                  CONTENTS, ALLOC, LOAD, READONLY, CODE
  2 .text         00016bf0  00800244  00800244  00001244  2**2
                  CONTENTS, ALLOC, LOAD, READONLY, CODE
  3 .rodata       00000650  00816e34  00816e34  00017e34  2**2
                  CONTENTS, ALLOC, LOAD, READONLY, DATA
  4 .rwdata       00001cdc  00817484  00819160  00018484  2**2
                  CONTENTS, ALLOC, LOAD, DATA, SMALL_DATA
  5 .bss          00000308  0081ae3c  0081ae3c  0001ae3c  2**2
                  ALLOC, SMALL_DATA
  6 .sdram        00000000  0081b144  0081b144  0001a160  2**0
                  CONTENTS
  7 .onchip_mem   00000000  01008000  01008000  0001a160  2**0
                  CONTENTS
  8 .comment      00000023  00000000  00000000  0001a160  2**0
                  CONTENTS, READONLY
  9 .debug_aranges 000011e8  00000000  00000000  0001a188  2**3
                  CONTENTS, READONLY, DEBUGGING
 10 .debug_info   0002e981  00000000  00000000  0001b370  2**0
                  CONTENTS, READONLY, DEBUGGING
 11 .debug_abbrev 0000b8d5  00000000  00000000  00049cf1  2**0
                  CONTENTS, READONLY, DEBUGGING
 12 .debug_line   0000f270  00000000  00000000  000555c6  2**0
                  CONTENTS, READONLY, DEBUGGING
 13 .debug_frame  00002ab4  00000000  00000000  00064838  2**2
                  CONTENTS, READONLY, DEBUGGING
 14 .debug_str    000049b3  00000000  00000000  000672ec  2**0
                  CONTENTS, READONLY, DEBUGGING
 15 .debug_loc    000186bc  00000000  00000000  0006bc9f  2**0
                  CONTENTS, READONLY, DEBUGGING
 16 .debug_alt_sim_info 00000060  00000000  00000000  0008435c  2**2
                  CONTENTS, READONLY, DEBUGGING
 17 .debug_ranges 00001a28  00000000  00000000  000843c0  2**3
                  CONTENTS, READONLY, DEBUGGING
 18 .thread_model 00000003  00000000  00000000  000899cd  2**0
                  CONTENTS, READONLY
 19 .cpu          00000003  00000000  00000000  000899d0  2**0
                  CONTENTS, READONLY
 20 .qsys         00000001  00000000  00000000  000899d3  2**0
                  CONTENTS, READONLY
 21 .simulation_enabled 00000001  00000000  00000000  000899d4  2**0
                  CONTENTS, READONLY
 22 .stderr_dev   00000009  00000000  00000000  000899d5  2**0
                  CONTENTS, READONLY
 23 .stdin_dev    00000009  00000000  00000000  000899de  2**0
                  CONTENTS, READONLY
 24 .stdout_dev   00000009  00000000  00000000  000899e7  2**0
                  CONTENTS, READONLY
 25 .sopc_system_name 0000000c  00000000  00000000  000899f0  2**0
                  CONTENTS, READONLY
 26 .quartus_project_dir 00000040  00000000  00000000  000899fc  2**0
                  CONTENTS, READONLY
 27 .sopcinfo     0006b17b  00000000  00000000  00089a3c  2**0
                  CONTENTS, READONLY
SYMBOL TABLE:
00800000 l    d  .entry	00000000 .entry
00800020 l    d  .exceptions	00000000 .exceptions
00800244 l    d  .text	00000000 .text
00816e34 l    d  .rodata	00000000 .rodata
00817484 l    d  .rwdata	00000000 .rwdata
0081ae3c l    d  .bss	00000000 .bss
0081b144 l    d  .sdram	00000000 .sdram
01008000 l    d  .onchip_mem	00000000 .onchip_mem
00000000 l    d  .comment	00000000 .comment
00000000 l    d  .debug_aranges	00000000 .debug_aranges
00000000 l    d  .debug_info	00000000 .debug_info
00000000 l    d  .debug_abbrev	00000000 .debug_abbrev
00000000 l    d  .debug_line	00000000 .debug_line
00000000 l    d  .debug_frame	00000000 .debug_frame
00000000 l    d  .debug_str	00000000 .debug_str
00000000 l    d  .debug_loc	00000000 .debug_loc
00000000 l    d  .debug_alt_sim_info	00000000 .debug_alt_sim_info
00000000 l    d  .debug_ranges	00000000 .debug_ranges
00000000 l    df *ABS*	00000000 ../Pacemaker_bsp//obj/HAL/src/crt0.o
0080028c l       .text	00000000 alt_after_alt_main
00000000 l    df *ABS*	00000000 alt_irq_handler.c
00000000 l    df *ABS*	00000000 alt_instruction_exception_entry.c
00000000 l    df *ABS*	00000000 lcd.c
00000000 l    df *ABS*	00000000 main.c
00000000 l    df *ABS*	00000000 sccharts.c
00000000 l    df *ABS*	00000000 timers.c
00000000 l    df *ABS*	00000000 uart.c
00000000 l    df *ABS*	00000000 adddf3.c
00000000 l    df *ABS*	00000000 gedf2.c
00000000 l    df *ABS*	00000000 ledf2.c
00000000 l    df *ABS*	00000000 subdf3.c
00000000 l    df *ABS*	00000000 floatsidf.c
00000000 l    df *ABS*	00000000 libgcc2.c
00000000 l    df *ABS*	00000000 libgcc2.c
00000000 l    df *ABS*	00000000 fclose.c
00000000 l    df *ABS*	00000000 fflush.c
00000000 l    df *ABS*	00000000 findfp.c
00806ff8 l     F .text	00000008 __fp_unlock
0080700c l     F .text	0000019c __sinit.part.1
008071a8 l     F .text	00000008 __fp_lock
00000000 l    df *ABS*	00000000 fopen.c
00000000 l    df *ABS*	00000000 fprintf.c
00000000 l    df *ABS*	00000000 fputc.c
00000000 l    df *ABS*	00000000 mallocr.c
00000000 l    df *ABS*	00000000 fseek.c
00000000 l    df *ABS*	00000000 fseeko.c
00000000 l    df *ABS*	00000000 fstatr.c
00000000 l    df *ABS*	00000000 fwalk.c
00000000 l    df *ABS*	00000000 impure.c
00817484 l     O .rwdata	00000424 impure_data
00000000 l    df *ABS*	00000000 int_errno.c
00000000 l    df *ABS*	00000000 makebuf.c
00000000 l    df *ABS*	00000000 mallocr.c
00000000 l    df *ABS*	00000000 memset.c
00000000 l    df *ABS*	00000000 openr.c
00000000 l    df *ABS*	00000000 printf.c
00000000 l    df *ABS*	00000000 putc.c
00000000 l    df *ABS*	00000000 puts.c
00000000 l    df *ABS*	00000000 refill.c
00808e20 l     F .text	0000001c lflush
00000000 l    df *ABS*	00000000 sbrkr.c
00000000 l    df *ABS*	00000000 stdio.c
00000000 l    df *ABS*	00000000 strlen.c
00000000 l    df *ABS*	00000000 vfprintf.c
0081703e l     O .rodata	00000010 zeroes.4404
0080b44c l     F .text	000000bc __sbprintf
0081704e l     O .rodata	00000010 blanks.4403
00000000 l    df *ABS*	00000000 vfprintf_1.c
00000000 l    df *ABS*	00000000 wbuf.c
00000000 l    df *ABS*	00000000 writer.c
00000000 l    df *ABS*	00000000 wsetup.c
00000000 l    df *ABS*	00000000 closer.c
00000000 l    df *ABS*	00000000 dtoa.c
0080b86c l     F .text	00000200 quorem
00000000 l    df *ABS*	00000000 flags.c
00000000 l    df *ABS*	00000000 fvwrite.c
00000000 l    df *ABS*	00000000 isattyr.c
00000000 l    df *ABS*	00000000 locale.c
00817cd0 l     O .rwdata	00000020 lc_ctype_charset
00817cb0 l     O .rwdata	00000020 lc_message_charset
00817cf0 l     O .rwdata	00000038 lconv
00000000 l    df *ABS*	00000000 lseekr.c
00000000 l    df *ABS*	00000000 memchr.c
00000000 l    df *ABS*	00000000 memcpy.c
00000000 l    df *ABS*	00000000 memmove.c
00000000 l    df *ABS*	00000000 mprec.c
0081707c l     O .rodata	0000000c p05.2768
00000000 l    df *ABS*	00000000 readr.c
00000000 l    df *ABS*	00000000 mallocr.c
00000000 l    df *ABS*	00000000 s_fpclassify.c
00000000 l    df *ABS*	00000000 strcmp.c
00000000 l    df *ABS*	00000000 vfprintf.c
0080f284 l     F .text	000000fc __sprint_r.part.0
008171b0 l     O .rodata	00000010 blanks.4348
008171a0 l     O .rodata	00000010 zeroes.4349
00810810 l     F .text	000000bc __sbprintf
00000000 l    df *ABS*	00000000 mallocr.c
00000000 l    df *ABS*	00000000 fputwc.c
00000000 l    df *ABS*	00000000 wcrtomb.c
00000000 l    df *ABS*	00000000 wctomb_r.c
00000000 l    df *ABS*	00000000 libgcc2.c
00000000 l    df *ABS*	00000000 libgcc2.c
00000000 l    df *ABS*	00000000 lib2-divmod.c
00000000 l    df *ABS*	00000000 divdf3.c
00000000 l    df *ABS*	00000000 eqdf2.c
00000000 l    df *ABS*	00000000 muldf3.c
00000000 l    df *ABS*	00000000 fixdfsi.c
00000000 l    df *ABS*	00000000 floatunsidf.c
00000000 l    df *ABS*	00000000 alt_alarm_start.c
00000000 l    df *ABS*	00000000 alt_close.c
00812cc0 l     F .text	0000003c alt_get_errno
00000000 l    df *ABS*	00000000 alt_dev.c
00812dcc l     F .text	0000002c alt_dev_null_write
00000000 l    df *ABS*	00000000 alt_errno.c
00000000 l    df *ABS*	00000000 alt_fstat.c
00812df8 l     F .text	0000003c alt_get_errno
00000000 l    df *ABS*	00000000 alt_irq_register.c
00000000 l    df *ABS*	00000000 alt_irq_vars.c
00000000 l    df *ABS*	00000000 alt_isatty.c
00813064 l     F .text	0000003c alt_get_errno
00000000 l    df *ABS*	00000000 alt_load.c
00813144 l     F .text	00000068 alt_load_section
00000000 l    df *ABS*	00000000 alt_lseek.c
00813230 l     F .text	0000003c alt_get_errno
00000000 l    df *ABS*	00000000 alt_main.c
00000000 l    df *ABS*	00000000 alt_malloc_lock.c
00000000 l    df *ABS*	00000000 alt_open.c
00813404 l     F .text	0000003c alt_get_errno
00813440 l     F .text	000000c4 alt_file_locked
00000000 l    df *ABS*	00000000 alt_read.c
00813658 l     F .text	0000003c alt_get_errno
00000000 l    df *ABS*	00000000 alt_release_fd.c
00000000 l    df *ABS*	00000000 alt_sbrk.c
0081914c l     O .rwdata	00000004 heap_end
00000000 l    df *ABS*	00000000 alt_tick.c
00000000 l    df *ABS*	00000000 alt_usleep.c
00000000 l    df *ABS*	00000000 alt_write.c
00813a78 l     F .text	0000003c alt_get_errno
00000000 l    df *ABS*	00000000 alt_sys_init.c
00813bac l     F .text	00000034 alt_dev_reg
00817ed0 l     O .rwdata	00001060 jtag_uart
00818f30 l     O .rwdata	00000120 lcd
00819050 l     O .rwdata	000000c4 uart
00000000 l    df *ABS*	00000000 altera_avalon_jtag_uart_fd.c
00000000 l    df *ABS*	00000000 altera_avalon_jtag_uart_init.c
00813ed4 l     F .text	0000020c altera_avalon_jtag_uart_irq
008140e0 l     F .text	000000a0 altera_avalon_jtag_uart_timeout
00000000 l    df *ABS*	00000000 altera_avalon_jtag_uart_ioctl.c
00000000 l    df *ABS*	00000000 altera_avalon_jtag_uart_read.c
00000000 l    df *ABS*	00000000 altera_avalon_jtag_uart_write.c
00000000 l    df *ABS*	00000000 altera_avalon_lcd_16207.c
00819158 l     O .rwdata	00000004 colstart
00814718 l     F .text	000000b8 lcd_write_command
008147d0 l     F .text	000000d8 lcd_write_data
008148a8 l     F .text	000000d0 lcd_clear_screen
00814978 l     F .text	000001ec lcd_repaint_screen
00814b64 l     F .text	000000cc lcd_scroll_up
00814c30 l     F .text	000002ac lcd_handle_escape
008153b4 l     F .text	000000ac alt_lcd_16207_timeout
00000000 l    df *ABS*	00000000 altera_avalon_lcd_16207_fd.c
00000000 l    df *ABS*	00000000 altera_avalon_timer_sc.c
008155f4 l     F .text	00000078 alt_avalon_timer_sc_irq
00000000 l    df *ABS*	00000000 altera_avalon_uart_fd.c
00000000 l    df *ABS*	00000000 altera_avalon_uart_init.c
008158a4 l     F .text	0000009c altera_avalon_uart_irq
00815940 l     F .text	000000e4 altera_avalon_uart_rxirq
00815a24 l     F .text	00000148 altera_avalon_uart_txirq
00000000 l    df *ABS*	00000000 altera_avalon_uart_read.c
00815bc0 l     F .text	0000003c alt_get_errno
00000000 l    df *ABS*	00000000 altera_avalon_uart_write.c
00815dd8 l     F .text	0000003c alt_get_errno
00000000 l    df *ABS*	00000000 alt_busy_sleep.c
00000000 l    df *ABS*	00000000 alt_dcache_flush_all.c
00000000 l    df *ABS*	00000000 alt_dev_llist_insert.c
00816160 l     F .text	0000003c alt_get_errno
00000000 l    df *ABS*	00000000 alt_do_ctors.c
00000000 l    df *ABS*	00000000 alt_do_dtors.c
00000000 l    df *ABS*	00000000 alt_find_dev.c
00000000 l    df *ABS*	00000000 alt_find_file.c
00000000 l    df *ABS*	00000000 alt_get_fd.c
00000000 l    df *ABS*	00000000 alt_icache_flush_all.c
00000000 l    df *ABS*	00000000 alt_iic.c
00000000 l    df *ABS*	00000000 alt_iic_isr_register.c
00000000 l    df *ABS*	00000000 alt_io_redirect.c
00816810 l     F .text	000000c4 alt_open_fd
00000000 l    df *ABS*	00000000 altera_nios2_gen2_irq.c
00000000 l    df *ABS*	00000000 alt_icache_flush.c
00000000 l    df *ABS*	00000000 atexit.c
00000000 l    df *ABS*	00000000 ctype_.c
00817303 l     O .rodata	00000180 _ctype_b
00000000 l    df *ABS*	00000000 exit.c
00000000 l    df *ABS*	00000000 memcmp.c
00000000 l    df *ABS*	00000000 __atexit.c
00000000 l    df *ABS*	00000000 __call_atexit.c
00000000 l    df *ABS*	00000000 alt_exit.c
0081ae88 g     O .bss	00000004 alt_instruction_exception_handler
0080e9f8 g     F .text	00000074 _mprec_log10
0080eae4 g     F .text	0000008c __any_on
0080d65c g     F .text	00000054 _isatty_r
00817088 g     O .rodata	00000028 __mprec_tinytens
00813340 g     F .text	0000007c alt_main
00808d4c g     F .text	000000c0 _puts_r
0081b044 g     O .bss	00000100 alt_irq
0080d78c g     F .text	00000060 _lseek_r
00819160 g       *ABS*	00000000 __flash_rwdata_start
0080d0f4 g     F .text	000000ac __sflags
008122cc g     F .text	00000088 .hidden __eqdf2
00800290 g     F .text	00000040 setup_lcd
0081b144 g       *ABS*	00000000 __alt_heap_start
0081aeb4 g     O .bss	00000018 ticker
00808ba8 g     F .text	0000003c printf
00810b98 g     F .text	0000009c _wcrtomb_r
0080913c g     F .text	0000005c __sseek
00807348 g     F .text	00000010 __sinit
0080b50c g     F .text	00000140 __swbuf_r
0081ae3c g     O .bss	00000004 lcd
0080d6b0 g     F .text	0000007c _setlocale_r
008071b0 g     F .text	00000068 __sfmoreglue
008133e0 g     F .text	00000024 __malloc_unlock
0080da18 g     F .text	0000015c memmove
00800358 g     F .text	00000034 close_lcd
00807330 g     F .text	00000018 _cleanup
0080db74 g     F .text	000000a8 _Balloc
00806040 g     F .text	000000dc .hidden __gtdf2
00816950 g     F .text	00000024 altera_nios2_gen2_irq_init
00800000 g     F .entry	0000001c __reset
00800020 g       *ABS*	00000000 __flash_exceptions_start
00807e44 g     F .text	0000005c _fstat_r
0081ae54 g     O .bss	00000004 errno
008090b8 g     F .text	00000008 __seofread
0081ae78 g     O .bss	00000004 alt_argv
00821114 g       *ABS*	00000000 _gp
00813a48 g     F .text	00000030 usleep
00805054 g     F .text	00000200 reset
00817d50 g     O .rwdata	00000180 alt_fd_list
00816300 g     F .text	00000090 alt_find_dev
0080d8d0 g     F .text	00000148 memcpy
0081b014 g     O .bss	00000018 timer_ap
00807000 g     F .text	0000000c _cleanup_r
00806b0c g     F .text	000000dc .hidden __floatsidf
008168d4 g     F .text	0000007c alt_io_redirect
0080611c g     F .text	000000f4 .hidden __ltdf2
00816e34 g       *ABS*	00000000 __DTOR_END__
00808e0c g     F .text	00000014 puts
00816a04 g     F .text	0000009c alt_exception_cause_generated_bad_addr
0080068c g     F .text	00000084 key_interrupt
0080f134 g     F .text	00000074 __fpclassifyd
0080e954 g     F .text	000000a4 __ratio
008107f4 g     F .text	0000001c __vfiprintf_internal
008142d8 g     F .text	0000021c altera_avalon_jtag_uart_read
00808b78 g     F .text	00000030 _printf_r
00811928 g     F .text	00000064 .hidden __udivsi3
008130a0 g     F .text	000000a4 isatty
008170d8 g     O .rodata	000000c8 __mprec_tens
0080d72c g     F .text	0000000c __locale_charset
00816974 g     F .text	00000090 alt_icache_flush
0081ae60 g     O .bss	00000004 __malloc_top_pad
00819128 g     O .rwdata	00000004 __mb_cur_max
0080d75c g     F .text	0000000c _localeconv_r
0080df80 g     F .text	0000003c __i2b
0080d1a0 g     F .text	000004bc __sfvwrite_r
00809010 g     F .text	00000054 _sbrk_r
008002d0 g     F .text	00000088 write_to_lcd
0080eb70 g     F .text	00000060 _read_r
00819140 g     O .rwdata	00000004 alt_max_fd
00806c4c g     F .text	000000f0 _fclose_r
00806fc8 g     F .text	00000030 fflush
0081ae5c g     O .bss	00000004 __malloc_max_sbrked_mem
00812ee4 g     F .text	00000180 alt_irq_register
00805794 g     F .text	000008ac .hidden __adddf3
0080e6fc g     F .text	0000010c __b2d
008112f8 g     F .text	00000538 .hidden __umoddi3
0081326c g     F .text	000000d4 lseek
00819118 g     O .rwdata	00000004 _global_impure_ptr
0080ebd0 g     F .text	00000564 _realloc_r
0081b144 g       *ABS*	00000000 __bss_end
00816720 g     F .text	000000f0 alt_iic_isr_register
00813940 g     F .text	00000108 alt_tick
00810d80 g     F .text	00000578 .hidden __udivdi3
00810af4 g     F .text	00000024 _fputwc_r
008170b0 g     O .rodata	00000028 __mprec_bigtens
0080dd64 g     F .text	00000104 __s2b
008055d4 g     F .text	00000074 ap_light_timer
00812aec g     F .text	000000a8 .hidden __floatunsidf
0080e43c g     F .text	00000060 __mcmp
008157f8 g     F .text	000000ac altera_avalon_uart_init
00807368 g     F .text	00000018 __fp_lock_all
008166d4 g     F .text	0000004c alt_ic_irq_enabled
008138a4 g     F .text	0000009c alt_alarm_stop
0081ae70 g     O .bss	00000004 alt_irq_active
008079e4 g     F .text	00000444 _fseeko_r
01008000 g       *ABS*	00000000 __alt_mem_onchip_mem
008000fc g     F .exceptions	000000d4 alt_irq_handler
00817d28 g     O .rwdata	00000028 alt_dev_null
00816118 g     F .text	00000048 alt_dcache_flush_all
0080de68 g     F .text	00000068 __hi0bits
00812a6c g     F .text	00000080 .hidden __fixdfsi
00819160 g       *ABS*	00000000 __ram_rwdata_end
008004e0 g     F .text	00000080 start_ticker
00819138 g     O .rwdata	00000008 alt_dev_list
008074f0 g     F .text	00000044 _fputc_r
00813ab4 g     F .text	000000f8 write
00808be4 g     F .text	000000a0 _putc_r
00817484 g       *ABS*	00000000 __ram_rodata_end
00812e34 g     F .text	000000b0 fstat
008074cc g     F .text	00000024 fprintf
0081ae4d g     O .bss	00000001 VSBuffer
0080611c g     F .text	000000f4 .hidden __ledf2
0080e1b4 g     F .text	00000140 __pow5mult
0080f398 g     F .text	0000145c ___vfiprintf_internal_r
0081ae6c g     O .bss	00000004 __nlocale_changed
0081198c g     F .text	00000058 .hidden __umodsi3
0081b144 g       *ABS*	00000000 end
00814edc g     F .text	000004d8 altera_avalon_lcd_16207_write
00807e28 g     F .text	0000001c fseeko
00819114 g     O .rwdata	00000004 mode
00815e14 g     F .text	000001ac altera_avalon_uart_write
008079c8 g     F .text	0000001c fseek
00800560 g     F .text	00000034 stop_ticker
00813e14 g     F .text	000000c0 altera_avalon_jtag_uart_init
008001d0 g     F .exceptions	00000074 alt_instruction_exception_entry
00816e34 g       *ABS*	00000000 __CTOR_LIST__
01000000 g       *ABS*	00000000 __alt_stack_pointer
0081566c g     F .text	0000007c alt_avalon_timer_sc_init
00815748 g     F .text	00000060 altera_avalon_uart_write_fd
00806be8 g     F .text	00000064 .hidden __clzsi2
008157a8 g     F .text	00000050 altera_avalon_uart_close_fd
008144f4 g     F .text	00000224 altera_avalon_jtag_uart_write
00807358 g     F .text	00000004 __sfp_lock_acquire
0080d7ec g     F .text	000000e4 memchr
00809238 g     F .text	000021f8 ___vfprintf_internal_r
008076b4 g     F .text	00000310 _free_r
0080d738 g     F .text	00000010 __locale_mb_cur_max
00816c80 g     F .text	00000180 __call_exitprocs
0081ae68 g     O .bss	00000004 __mlocale_changed
00819120 g     O .rwdata	00000004 __malloc_sbrk_base
00800244 g     F .text	0000004c _start
0081ae80 g     O .bss	00000004 _alt_tick_rate
0080e2f4 g     F .text	00000148 __lshift
0081ae84 g     O .bss	00000004 _alt_nticks
00813694 g     F .text	000000fc read
00813c18 g     F .text	00000098 alt_sys_init
00808b18 g     F .text	00000060 _open_r
00816b68 g     F .text	00000118 __register_exitproc
0080dfbc g     F .text	000001f8 __multiply
00814180 g     F .text	00000068 altera_avalon_jtag_uart_close
00817484 g       *ABS*	00000000 __ram_rwdata_start
00816e34 g       *ABS*	00000000 __ram_rodata_start
0081ae8c g     O .bss	00000028 __malloc_current_mallinfo
0080e808 g     F .text	0000014c __d2b
00813cb0 g     F .text	00000060 altera_avalon_jtag_uart_read_fd
00816498 g     F .text	000000a4 alt_get_fd
00815fc0 g     F .text	00000158 alt_busy_sleep
0080b818 g     F .text	00000054 _close_r
00805560 g     F .text	00000074 vp_light_timer
00816aec g     F .text	0000007c memcmp
008054d0 g     F .text	00000048 vp_light_timer_isr
00813d70 g     F .text	00000050 altera_avalon_jtag_uart_close_fd
0081b144 g       *ABS*	00000000 __alt_stack_base
00813dc0 g     F .text	00000054 altera_avalon_jtag_uart_ioctl_fd
0080b6c4 g     F .text	00000154 __swsetup_r
00805254 g     F .text	0000027c tick
008119e4 g     F .text	000008e8 .hidden __divdf3
00807218 g     F .text	00000118 __sfp
0080ea6c g     F .text	00000078 __copybits
008178a8 g     O .rwdata	00000408 __malloc_av_
00807364 g     F .text	00000004 __sinit_lock_release
00812354 g     F .text	00000718 .hidden __muldf3
00809064 g     F .text	00000054 __sread
00816390 g     F .text	00000108 alt_find_file
0081619c g     F .text	000000a4 alt_dev_llist_insert
008133bc g     F .text	00000024 __malloc_lock
008074a4 g     F .text	00000028 _fprintf_r
008137f4 g     F .text	000000b0 sbrk
00806f6c g     F .text	0000005c _fflush_r
008108cc g     F .text	000000c4 _calloc_r
0080748c g     F .text	00000018 fopen
0081ae3c g       *ABS*	00000000 __bss_start
008089f0 g     F .text	00000128 memset
0080038c g     F .text	00000154 main
0081ae7c g     O .bss	00000004 alt_envp
0081ae58 g     O .bss	00000004 __malloc_max_total_mem
00813d10 g     F .text	00000060 altera_avalon_jtag_uart_write_fd
0080b64c g     F .text	00000018 __swbuf
0080064c g     F .text	00000040 reset_leds
0081ae4c g     O .bss	00000001 ASBuffer
00815460 g     F .text	00000134 altera_avalon_lcd_16207_init
00809198 g     F .text	00000008 __sclose
01000000 g       *ABS*	00000000 __alt_heap_limit
00806d3c g     F .text	00000014 fclose
0080ba6c g     F .text	00001688 _dtoa_r
008081e4 g     F .text	0000080c _malloc_r
00810cf4 g     F .text	00000030 __ascii_wctomb
00819144 g     O .rwdata	00000004 alt_errno
0081aecc g     O .bss	00000148 tickData
00807ea0 g     F .text	000000c4 _fwalk
00808c84 g     F .text	000000c8 putc
00811830 g     F .text	00000084 .hidden __divsi3
00805648 g     F .text	00000050 setup_uart
00807590 g     F .text	00000124 _malloc_trim_r
00816e34 g       *ABS*	00000000 __CTOR_END__
0080f1a8 g     F .text	000000dc strcmp
00816e34 g       *ABS*	00000000 __flash_rodata_start
00816e34 g       *ABS*	00000000 __DTOR_LIST__
008122cc g     F .text	00000088 .hidden __nedf2
0081ae44 g     O .bss	00000004 vp_timer_started
00813be0 g     F .text	00000038 alt_irq_init
00813790 g     F .text	00000064 alt_release_fd
00816ef4 g     O .rodata	00000100 .hidden __clz_tab
0081ae64 g     O .bss	00000004 _PathLocale
00816aa0 g     F .text	00000014 atexit
0080b664 g     F .text	00000060 _write_r
0080d768 g     F .text	00000018 setlocale
0081b02c g     O .bss	00000018 timer_vp
0081911c g     O .rwdata	00000004 _impure_ptr
0081ae74 g     O .bss	00000004 alt_argc
00806d50 g     F .text	0000021c __sflush_r
008162a0 g     F .text	00000060 _do_dtors
0080d754 g     F .text	00000008 __locale_cjk_lang
008079c4 g     F .text	00000004 _fseek_r
00805698 g     F .text	000000c8 check_uart
00808e3c g     F .text	000001d4 __srefill_r
00800020 g       .exceptions	00000000 alt_irq_entry
0080e698 g     F .text	00000064 __ulp
00807380 g     F .text	00000018 __fp_unlock_all
00815594 g     F .text	00000060 altera_avalon_lcd_16207_write_fd
00807534 g     F .text	0000005c fputc
00819130 g     O .rwdata	00000008 alt_fs_list
0081ae40 g     O .bss	00000001 VP
00800020 g       *ABS*	00000000 __ram_exceptions_start
0080d780 g     F .text	0000000c localeconv
0081ae48 g     O .bss	00000004 ap_timer_started
00805760 g     F .text	00000034 close_uart
00800594 g     F .text	000000b8 timerISR
00816570 g     F .text	00000050 alt_ic_isr_register
00819160 g       *ABS*	00000000 _edata
008156e8 g     F .text	00000060 altera_avalon_uart_read_fd
0081b144 g       *ABS*	00000000 _end
00810990 g     F .text	00000164 __fputwc
00800244 g       *ABS*	00000000 __ram_exceptions_end
008141e8 g     F .text	000000f0 altera_avalon_jtag_uart_ioctl
00816648 g     F .text	0000008c alt_ic_irq_disable
008090c0 g     F .text	0000007c __swrite
00819124 g     O .rwdata	00000004 __malloc_trim_threshold
0080d748 g     F .text	0000000c __locale_msgcharset
00816ab4 g     F .text	00000038 exit
00807f64 g     F .text	000000c4 _fwalk_reent
0080e49c g     F .text	000001fc __mdiff
008118b4 g     F .text	00000074 .hidden __modsi3
0080077c g     F .text	000048d8 logic
0081915c g     O .rwdata	00000004 __ctype_ptr__
01000000 g       *ABS*	00000000 __alt_data_end
00800020 g     F .exceptions	00000000 alt_exception
0081ae50 g     O .bss	00000004 uart
0080735c g     F .text	00000004 __sfp_lock_release
00800000 g       *ABS*	00000000 __alt_mem_sdram
00817202 g     O .rodata	00000101 _ctype_
00800710 g     F .text	0000006c setup_keys
00805518 g     F .text	00000048 ap_light_timer_isr
00815b6c g     F .text	00000054 altera_avalon_uart_close
00807398 g     F .text	000000f4 _fopen_r
00816e00 g     F .text	00000034 _exit
00812b94 g     F .text	0000012c alt_alarm_start
00808028 g     F .text	000001bc __smakebuf_r
0081ae41 g     O .bss	00000001 AP
008091a0 g     F .text	00000098 strlen
00813504 g     F .text	00000154 open
00806040 g     F .text	000000dc .hidden __gedf2
0081912c g     O .rwdata	00000004 __wctomb
0080f380 g     F .text	00000018 __sprint_r
0081653c g     F .text	00000034 alt_icache_flush_all
00819148 g     O .rwdata	00000004 alt_priority_mask
008165c0 g     F .text	00000088 alt_ic_irq_enable
0080b430 g     F .text	0000001c __vfprintf_internal
00815bfc g     F .text	000001dc altera_avalon_uart_read
00810d24 g     F .text	0000005c _wctomb_r
00806210 g     F .text	000008fc .hidden __subdf3
0080ded0 g     F .text	000000b0 __lo0bits
00819150 g     O .rwdata	00000008 alt_alarm_list
00816240 g     F .text	00000060 _do_ctors
00810c34 g     F .text	000000c0 wcrtomb
00812cfc g     F .text	000000d0 close
008131ac g     F .text	00000084 alt_load
0080b508 g     F .text	00000004 vfprintf
00810b18 g     F .text	00000080 fputwc
00807360 g     F .text	00000004 __sinit_lock_acquire
0080dc44 g     F .text	00000120 __multadd
0080dc1c g     F .text	00000028 _Bfree



Disassembly of section .entry:

00800000 <__reset>:
#if NIOS2_ICACHE_SIZE > 0 && defined(ALT_ALLOW_CODE_AT_RESET) && (!defined(ALT_SIM_OPTIMIZE) || defined(NIOS2_ECC_PRESENT))
    /* Assume the instruction cache size is always a power of two. */
#if NIOS2_ICACHE_SIZE > 0x8000
    movhi r2, %hi(NIOS2_ICACHE_SIZE)
#else
    movui r2, NIOS2_ICACHE_SIZE
  800000:	00840014 	movui	r2,4096
#endif

0:
    initi r2
  800004:	1001483a 	initi	r2
    addi r2, r2, -NIOS2_ICACHE_LINE_SIZE
  800008:	10bff804 	addi	r2,r2,-32
    bgt r2, zero, 0b
  80000c:	00bffd16 	blt	zero,r2,800004 <__alt_mem_onchip_mem+0xff7f8004>
 * Jump to the _start entry point in the .text section if reset code
 * is allowed or if optimizing for RTL simulation.
 */
#if defined(ALT_ALLOW_CODE_AT_RESET) || defined(ALT_SIM_OPTIMIZE)
    /* Jump to the _start entry point in the .text section. */
    movhi r1, %hi(_start)
  800010:	00402034 	movhi	at,128
    ori r1, r1, %lo(_start)
  800014:	08409114 	ori	at,at,580
    jmp r1
  800018:	0800683a 	jmp	at
  80001c:	00000000 	call	0 <__alt_mem_sdram-0x800000>

Disassembly of section .exceptions:

00800020 <alt_exception>:
  800020:	deffed04 	addi	sp,sp,-76
  800024:	dfc00015 	stw	ra,0(sp)
  800028:	d8400215 	stw	at,8(sp)
  80002c:	d8800315 	stw	r2,12(sp)
  800030:	d8c00415 	stw	r3,16(sp)
  800034:	d9000515 	stw	r4,20(sp)
  800038:	d9400615 	stw	r5,24(sp)
  80003c:	d9800715 	stw	r6,28(sp)
  800040:	d9c00815 	stw	r7,32(sp)
  800044:	000b307a 	rdctl	r5,estatus
  800048:	da000915 	stw	r8,36(sp)
  80004c:	da400a15 	stw	r9,40(sp)
  800050:	da800b15 	stw	r10,44(sp)
  800054:	dac00c15 	stw	r11,48(sp)
  800058:	db000d15 	stw	r12,52(sp)
  80005c:	db400e15 	stw	r13,56(sp)
  800060:	db800f15 	stw	r14,60(sp)
  800064:	dbc01015 	stw	r15,64(sp)
  800068:	d9401115 	stw	r5,68(sp)
  80006c:	ebffff04 	addi	r15,ea,-4
  800070:	dbc01215 	stw	r15,72(sp)
  800074:	0009313a 	rdctl	r4,ipending
  800078:	2880004c 	andi	r2,r5,1
  80007c:	10000326 	beq	r2,zero,80008c <alt_exception+0x6c>
  800080:	20000226 	beq	r4,zero,80008c <alt_exception+0x6c>
  800084:	08000fc0 	call	8000fc <alt_irq_handler>
  800088:	00000706 	br	8000a8 <alt_exception+0x88>
  80008c:	df401215 	stw	ea,72(sp)
  800090:	e8bfff17 	ldw	r2,-4(ea)
  800094:	e93fff04 	addi	r4,ea,-4
  800098:	08001d00 	call	8001d0 <alt_instruction_exception_entry>
  80009c:	1000021e 	bne	r2,zero,8000a8 <alt_exception+0x88>
  8000a0:	ebffff04 	addi	r15,ea,-4
  8000a4:	dbc01215 	stw	r15,72(sp)
  8000a8:	d9401117 	ldw	r5,68(sp)
  8000ac:	df401217 	ldw	ea,72(sp)
  8000b0:	dfc00017 	ldw	ra,0(sp)
  8000b4:	2801707a 	wrctl	estatus,r5
  8000b8:	d8400217 	ldw	at,8(sp)
  8000bc:	d8800317 	ldw	r2,12(sp)
  8000c0:	d8c00417 	ldw	r3,16(sp)
  8000c4:	d9000517 	ldw	r4,20(sp)
  8000c8:	d9400617 	ldw	r5,24(sp)
  8000cc:	d9800717 	ldw	r6,28(sp)
  8000d0:	d9c00817 	ldw	r7,32(sp)
  8000d4:	da000917 	ldw	r8,36(sp)
  8000d8:	da400a17 	ldw	r9,40(sp)
  8000dc:	da800b17 	ldw	r10,44(sp)
  8000e0:	dac00c17 	ldw	r11,48(sp)
  8000e4:	db000d17 	ldw	r12,52(sp)
  8000e8:	db400e17 	ldw	r13,56(sp)
  8000ec:	db800f17 	ldw	r14,60(sp)
  8000f0:	dbc01017 	ldw	r15,64(sp)
  8000f4:	dec01304 	addi	sp,sp,76
  8000f8:	ef80083a 	eret

008000fc <alt_irq_handler>:
  8000fc:	defff904 	addi	sp,sp,-28
  800100:	dfc00615 	stw	ra,24(sp)
  800104:	df000515 	stw	fp,20(sp)
  800108:	df000504 	addi	fp,sp,20
  80010c:	0001883a 	nop
  800110:	0005313a 	rdctl	r2,ipending
  800114:	e0bffe15 	stw	r2,-8(fp)
  800118:	e0bffe17 	ldw	r2,-8(fp)
  80011c:	e0bffb15 	stw	r2,-20(fp)
  800120:	e03ffd15 	stw	zero,-12(fp)
  800124:	00800044 	movi	r2,1
  800128:	e0bffc15 	stw	r2,-16(fp)
  80012c:	e0fffb17 	ldw	r3,-20(fp)
  800130:	e0bffc17 	ldw	r2,-16(fp)
  800134:	1884703a 	and	r2,r3,r2
  800138:	10001426 	beq	r2,zero,80018c <alt_irq_handler+0x90>
  80013c:	008020b4 	movhi	r2,130
  800140:	10ac1104 	addi	r2,r2,-20412
  800144:	e0fffd17 	ldw	r3,-12(fp)
  800148:	180690fa 	slli	r3,r3,3
  80014c:	10c5883a 	add	r2,r2,r3
  800150:	10c00017 	ldw	r3,0(r2)
  800154:	008020b4 	movhi	r2,130
  800158:	10ac1104 	addi	r2,r2,-20412
  80015c:	e13ffd17 	ldw	r4,-12(fp)
  800160:	200890fa 	slli	r4,r4,3
  800164:	1105883a 	add	r2,r2,r4
  800168:	10800104 	addi	r2,r2,4
  80016c:	10800017 	ldw	r2,0(r2)
  800170:	1009883a 	mov	r4,r2
  800174:	183ee83a 	callr	r3
  800178:	0001883a 	nop
  80017c:	0005313a 	rdctl	r2,ipending
  800180:	e0bfff15 	stw	r2,-4(fp)
  800184:	e0bfff17 	ldw	r2,-4(fp)
  800188:	00000706 	br	8001a8 <alt_irq_handler+0xac>
  80018c:	e0bffc17 	ldw	r2,-16(fp)
  800190:	1085883a 	add	r2,r2,r2
  800194:	e0bffc15 	stw	r2,-16(fp)
  800198:	e0bffd17 	ldw	r2,-12(fp)
  80019c:	10800044 	addi	r2,r2,1
  8001a0:	e0bffd15 	stw	r2,-12(fp)
  8001a4:	003fe106 	br	80012c <__alt_mem_onchip_mem+0xff7f812c>
  8001a8:	e0bffb15 	stw	r2,-20(fp)
  8001ac:	e0bffb17 	ldw	r2,-20(fp)
  8001b0:	103fdb1e 	bne	r2,zero,800120 <__alt_mem_onchip_mem+0xff7f8120>
  8001b4:	0001883a 	nop
  8001b8:	0001883a 	nop
  8001bc:	e037883a 	mov	sp,fp
  8001c0:	dfc00117 	ldw	ra,4(sp)
  8001c4:	df000017 	ldw	fp,0(sp)
  8001c8:	dec00204 	addi	sp,sp,8
  8001cc:	f800283a 	ret

008001d0 <alt_instruction_exception_entry>:
  8001d0:	defffb04 	addi	sp,sp,-20
  8001d4:	dfc00415 	stw	ra,16(sp)
  8001d8:	df000315 	stw	fp,12(sp)
  8001dc:	df000304 	addi	fp,sp,12
  8001e0:	e13fff15 	stw	r4,-4(fp)
  8001e4:	000531fa 	rdctl	r2,exception
  8001e8:	e0bffd15 	stw	r2,-12(fp)
  8001ec:	e0bffd17 	ldw	r2,-12(fp)
  8001f0:	10801f0c 	andi	r2,r2,124
  8001f4:	1004d0ba 	srli	r2,r2,2
  8001f8:	e0bffd15 	stw	r2,-12(fp)
  8001fc:	0005333a 	rdctl	r2,badaddr
  800200:	e0bffe15 	stw	r2,-8(fp)
  800204:	d0a75d17 	ldw	r2,-25228(gp)
  800208:	10000726 	beq	r2,zero,800228 <alt_instruction_exception_entry+0x58>
  80020c:	d0a75d17 	ldw	r2,-25228(gp)
  800210:	e0fffd17 	ldw	r3,-12(fp)
  800214:	e1bffe17 	ldw	r6,-8(fp)
  800218:	e17fff17 	ldw	r5,-4(fp)
  80021c:	1809883a 	mov	r4,r3
  800220:	103ee83a 	callr	r2
  800224:	00000206 	br	800230 <alt_instruction_exception_entry+0x60>
  800228:	003da03a 	break	0
  80022c:	0005883a 	mov	r2,zero
  800230:	e037883a 	mov	sp,fp
  800234:	dfc00117 	ldw	ra,4(sp)
  800238:	df000017 	ldw	fp,0(sp)
  80023c:	dec00204 	addi	sp,sp,8
  800240:	f800283a 	ret

Disassembly of section .text:

00800244 <_start>:

    /* Assume the data cache size is always a power of two. */
#if NIOS2_DCACHE_SIZE > 0x8000
    movhi r2, %hi(NIOS2_DCACHE_SIZE)
#else
    movui r2, NIOS2_DCACHE_SIZE
  800244:	00820014 	movui	r2,2048
#endif

0:
    initd 0(r2)
  800248:	10000033 	initd	0(r2)
#ifdef NIOS2_ECC_PRESENT
    addi r2, r2, -4
#else
    addi r2, r2, -NIOS2_DCACHE_LINE_SIZE
  80024c:	10bff804 	addi	r2,r2,-32
#endif
    bgt r2, zero, 0b
  800250:	00bffd16 	blt	zero,r2,800248 <__alt_mem_onchip_mem+0xff7f8248>

    /*
     * Now that the caches are initialized, set up the stack pointer and global pointer.
     * The values provided by the linker are assumed to be correctly aligned.
     */
    movhi sp, %hi(__alt_stack_pointer)
  800254:	06c04034 	movhi	sp,256
    ori sp, sp, %lo(__alt_stack_pointer)
  800258:	dec00014 	ori	sp,sp,0
    movhi gp, %hi(_gp)
  80025c:	068020b4 	movhi	gp,130
    ori gp, gp, %lo(_gp)
  800260:	d6844514 	ori	gp,gp,4372
 */
#ifndef ALT_SIM_OPTIMIZE
    /* Log that the BSS is about to be cleared. */
    ALT_LOG_PUTS(alt_log_msg_bss)

    movhi r2, %hi(__bss_start)
  800264:	00802074 	movhi	r2,129
    ori r2, r2, %lo(__bss_start)
  800268:	10ab8f14 	ori	r2,r2,44604

    movhi r3, %hi(__bss_end)
  80026c:	00c02074 	movhi	r3,129
    ori r3, r3, %lo(__bss_end)
  800270:	18ec5114 	ori	r3,r3,45380

    beq r2, r3, 1f
  800274:	10c00326 	beq	r2,r3,800284 <_start+0x40>

0:
    stw zero, (r2)
  800278:	10000015 	stw	zero,0(r2)
    addi r2, r2, 4
  80027c:	10800104 	addi	r2,r2,4
    bltu r2, r3, 0b
  800280:	10fffd36 	bltu	r2,r3,800278 <__alt_mem_onchip_mem+0xff7f8278>
     * section aren't defined until alt_load() has been called).
     */
    mov   et, zero
#endif

    call alt_load
  800284:	08131ac0 	call	8131ac <alt_load>

    /* Log that alt_main is about to be called. */
    ALT_LOG_PUTS(alt_log_msg_alt_main)

    /* Call the C entry point. It should never return. */
    call alt_main
  800288:	08133400 	call	813340 <alt_main>

0080028c <alt_after_alt_main>:

    /* Wait in infinite loop in case alt_main does return. */
alt_after_alt_main:
    br alt_after_alt_main
  80028c:	003fff06 	br	80028c <__alt_mem_onchip_mem+0xff7f828c>

00800290 <setup_lcd>:
 */
#include "lcd.h"

FILE *lcd;

void setup_lcd(){
  800290:	defffe04 	addi	sp,sp,-8
  800294:	dfc00115 	stw	ra,4(sp)
  800298:	df000015 	stw	fp,0(sp)
  80029c:	d839883a 	mov	fp,sp
	lcd = fopen(LCD_NAME, "w");
  8002a0:	01402074 	movhi	r5,129
  8002a4:	295b8d04 	addi	r5,r5,28212
  8002a8:	01002074 	movhi	r4,129
  8002ac:	211b8e04 	addi	r4,r4,28216
  8002b0:	080748c0 	call	80748c <fopen>
  8002b4:	d0a74a15 	stw	r2,-25304(gp)
}
  8002b8:	0001883a 	nop
  8002bc:	e037883a 	mov	sp,fp
  8002c0:	dfc00117 	ldw	ra,4(sp)
  8002c4:	df000017 	ldw	fp,0(sp)
  8002c8:	dec00204 	addi	sp,sp,8
  8002cc:	f800283a 	ret

008002d0 <write_to_lcd>:

void write_to_lcd(const char *format, ...){
  8002d0:	defff904 	addi	sp,sp,-28
  8002d4:	dfc00315 	stw	ra,12(sp)
  8002d8:	df000215 	stw	fp,8(sp)
  8002dc:	df000204 	addi	fp,sp,8
  8002e0:	e13fff15 	stw	r4,-4(fp)
  8002e4:	e1400215 	stw	r5,8(fp)
  8002e8:	e1800315 	stw	r6,12(fp)
  8002ec:	e1c00415 	stw	r7,16(fp)
	#define ESC 27
	#define CLEAR_LCD_STRING "[2J"

    // Print the ESC and CLEAR_LCD_STRING
	fprintf(lcd, "%c%s", ESC, CLEAR_LCD_STRING);
  8002f0:	d0a74a17 	ldw	r2,-25304(gp)
  8002f4:	01c02074 	movhi	r7,129
  8002f8:	39db9104 	addi	r7,r7,28228
  8002fc:	018006c4 	movi	r6,27
  800300:	01402074 	movhi	r5,129
  800304:	295b9204 	addi	r5,r5,28232
  800308:	1009883a 	mov	r4,r2
  80030c:	08074cc0 	call	8074cc <fprintf>

	// Use variadic arguments to print the formatted string
	va_list args;
	va_start(args, format);
  800310:	e0800204 	addi	r2,fp,8
  800314:	e0bffe15 	stw	r2,-8(fp)
	vfprintf(lcd, format, args);
  800318:	d0a74a17 	ldw	r2,-25304(gp)
  80031c:	e0fffe17 	ldw	r3,-8(fp)
  800320:	180d883a 	mov	r6,r3
  800324:	e17fff17 	ldw	r5,-4(fp)
  800328:	1009883a 	mov	r4,r2
  80032c:	080b5080 	call	80b508 <vfprintf>
	va_end(args);

	// Print a newline character
	fprintf(lcd, "\n");
  800330:	d0a74a17 	ldw	r2,-25304(gp)
  800334:	100b883a 	mov	r5,r2
  800338:	01000284 	movi	r4,10
  80033c:	08075340 	call	807534 <fputc>
}
  800340:	0001883a 	nop
  800344:	e037883a 	mov	sp,fp
  800348:	dfc00117 	ldw	ra,4(sp)
  80034c:	df000017 	ldw	fp,0(sp)
  800350:	dec00504 	addi	sp,sp,20
  800354:	f800283a 	ret

00800358 <close_lcd>:

void close_lcd(){
  800358:	defffe04 	addi	sp,sp,-8
  80035c:	dfc00115 	stw	ra,4(sp)
  800360:	df000015 	stw	fp,0(sp)
  800364:	d839883a 	mov	fp,sp
	fclose(lcd);
  800368:	d0a74a17 	ldw	r2,-25304(gp)
  80036c:	1009883a 	mov	r4,r2
  800370:	0806d3c0 	call	806d3c <fclose>
}
  800374:	0001883a 	nop
  800378:	e037883a 	mov	sp,fp
  80037c:	dfc00117 	ldw	ra,4(sp)
  800380:	df000017 	ldw	fp,0(sp)
  800384:	dec00204 	addi	sp,sp,8
  800388:	f800283a 	ret

0080038c <main>:

enum MODE mode = UART;


int main()
{
  80038c:	defffe04 	addi	sp,sp,-8
  800390:	dfc00115 	stw	ra,4(sp)
  800394:	df000015 	stw	fp,0(sp)
  800398:	d839883a 	mov	fp,sp
	reset_leds();
  80039c:	080064c0 	call	80064c <reset_leds>
	printf("Hello from Nios II!\n");
  8003a0:	01002074 	movhi	r4,129
  8003a4:	211b9404 	addi	r4,r4,28240
  8003a8:	0808e0c0 	call	808e0c <puts>
	// start a non blocking UART with read and write
	setup_keys();
  8003ac:	08007100 	call	800710 <setup_keys>
	setup_lcd();
  8003b0:	08002900 	call	800290 <setup_lcd>

	write_to_lcd("hello \n%s %s", "joshua", "morley");
  8003b4:	01802074 	movhi	r6,129
  8003b8:	319b9904 	addi	r6,r6,28260
  8003bc:	01402074 	movhi	r5,129
  8003c0:	295b9b04 	addi	r5,r5,28268
  8003c4:	01002074 	movhi	r4,129
  8003c8:	211b9d04 	addi	r4,r4,28276
  8003cc:	08002d00 	call	8002d0 <write_to_lcd>


	while(1) {
		if (UART_MODE) {
  8003d0:	00804074 	movhi	r2,257
  8003d4:	10842404 	addi	r2,r2,4240
  8003d8:	10800037 	ldwio	r2,0(r2)
  8003dc:	1080004c 	andi	r2,r2,1
  8003e0:	10001926 	beq	r2,zero,800448 <main+0xbc>
			if (mode != UART){
  8003e4:	d0a00017 	ldw	r2,-32768(gp)
  8003e8:	10800060 	cmpeqi	r2,r2,1
  8003ec:	1000141e 	bne	r2,zero,800440 <main+0xb4>
				close_uart();
  8003f0:	08057600 	call	805760 <close_uart>
				stop_ticker();
  8003f4:	08005600 	call	800560 <stop_ticker>

				// disable interrupts for all buttons
				IOWR_ALTERA_AVALON_PIO_IRQ_MASK(KEYS_BASE, 0x0);
  8003f8:	0007883a 	mov	r3,zero
  8003fc:	00804074 	movhi	r2,257
  800400:	10842a04 	addi	r2,r2,4264
  800404:	10c00035 	stwio	r3,0(r2)

				write_to_lcd("PaceMaker\n%s mode", "UART");
  800408:	01402074 	movhi	r5,129
  80040c:	295ba104 	addi	r5,r5,28292
  800410:	01002074 	movhi	r4,129
  800414:	211ba304 	addi	r4,r4,28300
  800418:	08002d00 	call	8002d0 <write_to_lcd>
				printf("UART Enabled\n");
  80041c:	01002074 	movhi	r4,129
  800420:	211ba804 	addi	r4,r4,28320
  800424:	0808e0c0 	call	808e0c <puts>

				mode = UART;
  800428:	00800044 	movi	r2,1
  80042c:	d0a00015 	stw	r2,-32768(gp)

				setup_uart();
  800430:	08056480 	call	805648 <setup_uart>
				usleep(500); // To remove bouncing
  800434:	01007d04 	movi	r4,500
  800438:	0813a480 	call	813a48 <usleep>
				start_ticker();
  80043c:	08004e00 	call	8004e0 <start_ticker>
			}
			check_uart();
  800440:	08056980 	call	805698 <check_uart>
  800444:	00001706 	br	8004a4 <main+0x118>
		} else {
			if (mode != BUTTON){
  800448:	d0a00017 	ldw	r2,-32768(gp)
  80044c:	10001526 	beq	r2,zero,8004a4 <main+0x118>
				stop_ticker();
  800450:	08005600 	call	800560 <stop_ticker>

				// clears the edge capture register
				IOWR_ALTERA_AVALON_PIO_EDGE_CAP(KEYS_BASE, 0);
  800454:	0007883a 	mov	r3,zero
  800458:	00804074 	movhi	r2,257
  80045c:	10842b04 	addi	r2,r2,4268
  800460:	10c00035 	stwio	r3,0(r2)
				// enable interrupts for all buttons
				IOWR_ALTERA_AVALON_PIO_IRQ_MASK(KEYS_BASE, 0x7);
  800464:	00c001c4 	movi	r3,7
  800468:	00804074 	movhi	r2,257
  80046c:	10842a04 	addi	r2,r2,4264
  800470:	10c00035 	stwio	r3,0(r2)

				printf("UART Disabled\n");
  800474:	01002074 	movhi	r4,129
  800478:	211bac04 	addi	r4,r4,28336
  80047c:	0808e0c0 	call	808e0c <puts>
				write_to_lcd("PaceMaker\n%s mode", "BUTTON");
  800480:	01402074 	movhi	r5,129
  800484:	295bb004 	addi	r5,r5,28352
  800488:	01002074 	movhi	r4,129
  80048c:	211ba304 	addi	r4,r4,28300
  800490:	08002d00 	call	8002d0 <write_to_lcd>

				mode = BUTTON;
  800494:	d0200015 	stw	zero,-32768(gp)

				usleep(500); // To remove bouncing
  800498:	01007d04 	movi	r4,500
  80049c:	0813a480 	call	813a48 <usleep>
				start_ticker();
  8004a0:	08004e00 	call	8004e0 <start_ticker>
			}
		}

		if (AP) {
  8004a4:	d0a74b43 	ldbu	r2,-25299(gp)
  8004a8:	10803fcc 	andi	r2,r2,255
  8004ac:	10000426 	beq	r2,zero,8004c0 <main+0x134>
			printf("A\n");
  8004b0:	01002074 	movhi	r4,129
  8004b4:	211bb204 	addi	r4,r4,28360
  8004b8:	0808e0c0 	call	808e0c <puts>
			AP = false;
  8004bc:	d0274b45 	stb	zero,-25299(gp)
		}


		if (VP) {
  8004c0:	d0a74b03 	ldbu	r2,-25300(gp)
  8004c4:	10803fcc 	andi	r2,r2,255
  8004c8:	103fc126 	beq	r2,zero,8003d0 <__alt_mem_onchip_mem+0xff7f83d0>
			printf("V\n");
  8004cc:	01002074 	movhi	r4,129
  8004d0:	211bb304 	addi	r4,r4,28364
  8004d4:	0808e0c0 	call	808e0c <puts>
			VP = false;
  8004d8:	d0274b05 	stb	zero,-25300(gp)
		}
	}
  8004dc:	003fbc06 	br	8003d0 <__alt_mem_onchip_mem+0xff7f83d0>

008004e0 <start_ticker>:
	close_uart();
	close_lcd();
	return 0;
}

void start_ticker(){
  8004e0:	defffb04 	addi	sp,sp,-20
  8004e4:	dfc00415 	stw	ra,16(sp)
  8004e8:	df000315 	stw	fp,12(sp)
  8004ec:	df000304 	addi	fp,sp,12
	reset(&tickData);
  8004f0:	010020b4 	movhi	r4,130
  8004f4:	212bb304 	addi	r4,r4,-20788
  8004f8:	08050540 	call	805054 <reset>
	tick(&tickData); // init tick
  8004fc:	010020b4 	movhi	r4,130
  800500:	212bb304 	addi	r4,r4,-20788
  800504:	08052540 	call	805254 <tick>

	// Timer Init
	uint64_t systemTime = 0;
  800508:	e03ffe15 	stw	zero,-8(fp)
  80050c:	e03fff15 	stw	zero,-4(fp)
	void* timerContext = (void*) &systemTime;
  800510:	e0bffe04 	addi	r2,fp,-8
  800514:	e0bffd15 	stw	r2,-12(fp)
	alt_alarm_start(&ticker, 1, timerISR, timerContext);
  800518:	e1fffd17 	ldw	r7,-12(fp)
  80051c:	01802034 	movhi	r6,128
  800520:	31816504 	addi	r6,r6,1428
  800524:	01400044 	movi	r5,1
  800528:	010020b4 	movhi	r4,130
  80052c:	212bad04 	addi	r4,r4,-20812
  800530:	0812b940 	call	812b94 <alt_alarm_start>
	tickData.deltaT = 1;
  800534:	008020b4 	movhi	r2,130
  800538:	10abb304 	addi	r2,r2,-20788
  80053c:	10001315 	stw	zero,76(r2)
  800540:	00cffc34 	movhi	r3,16368
  800544:	10c01415 	stw	r3,80(r2)
}
  800548:	0001883a 	nop
  80054c:	e037883a 	mov	sp,fp
  800550:	dfc00117 	ldw	ra,4(sp)
  800554:	df000017 	ldw	fp,0(sp)
  800558:	dec00204 	addi	sp,sp,8
  80055c:	f800283a 	ret

00800560 <stop_ticker>:

void stop_ticker(){
  800560:	defffe04 	addi	sp,sp,-8
  800564:	dfc00115 	stw	ra,4(sp)
  800568:	df000015 	stw	fp,0(sp)
  80056c:	d839883a 	mov	fp,sp
	alt_alarm_stop(&ticker);
  800570:	010020b4 	movhi	r4,130
  800574:	212bad04 	addi	r4,r4,-20812
  800578:	08138a40 	call	8138a4 <alt_alarm_stop>
}
  80057c:	0001883a 	nop
  800580:	e037883a 	mov	sp,fp
  800584:	dfc00117 	ldw	ra,4(sp)
  800588:	df000017 	ldw	fp,0(sp)
  80058c:	dec00204 	addi	sp,sp,8
  800590:	f800283a 	ret

00800594 <timerISR>:


alt_u32 timerISR(void* context){
  800594:	defffd04 	addi	sp,sp,-12
  800598:	dfc00215 	stw	ra,8(sp)
  80059c:	df000115 	stw	fp,4(sp)
  8005a0:	df000104 	addi	fp,sp,4
  8005a4:	e13fff15 	stw	r4,-4(fp)

	tickData.VS = VSBuffer;
  8005a8:	d0a74e43 	ldbu	r2,-25287(gp)
  8005ac:	1007883a 	mov	r3,r2
  8005b0:	008020b4 	movhi	r2,130
  8005b4:	10abb304 	addi	r2,r2,-20788
  8005b8:	10c00045 	stb	r3,1(r2)
	tickData.AS = ASBuffer;
  8005bc:	d0a74e03 	ldbu	r2,-25288(gp)
  8005c0:	1007883a 	mov	r3,r2
  8005c4:	008020b4 	movhi	r2,130
  8005c8:	10abb304 	addi	r2,r2,-20788
  8005cc:	10c00005 	stb	r3,0(r2)

	VSBuffer = 0;
  8005d0:	d0274e45 	stb	zero,-25287(gp)
	ASBuffer = 0;
  8005d4:	d0274e05 	stb	zero,-25288(gp)

	tick(&tickData);
  8005d8:	010020b4 	movhi	r4,130
  8005dc:	212bb304 	addi	r4,r4,-20788
  8005e0:	08052540 	call	805254 <tick>


	if (tickData.AP){
  8005e4:	008020b4 	movhi	r2,130
  8005e8:	10abb304 	addi	r2,r2,-20788
  8005ec:	10801703 	ldbu	r2,92(r2)
  8005f0:	10803fcc 	andi	r2,r2,255
  8005f4:	1080201c 	xori	r2,r2,128
  8005f8:	10bfe004 	addi	r2,r2,-128
  8005fc:	10000326 	beq	r2,zero,80060c <timerISR+0x78>
		ap_light_timer();
  800600:	08055d40 	call	8055d4 <ap_light_timer>
		AP = true;
  800604:	00800044 	movi	r2,1
  800608:	d0a74b45 	stb	r2,-25299(gp)
	}

	if (tickData.VP){
  80060c:	008020b4 	movhi	r2,130
  800610:	10abb304 	addi	r2,r2,-20788
  800614:	10801743 	ldbu	r2,93(r2)
  800618:	10803fcc 	andi	r2,r2,255
  80061c:	1080201c 	xori	r2,r2,128
  800620:	10bfe004 	addi	r2,r2,-128
  800624:	10000326 	beq	r2,zero,800634 <timerISR+0xa0>
		vp_light_timer();
  800628:	08055600 	call	805560 <vp_light_timer>
		VP = true;
  80062c:	00800044 	movi	r2,1
  800630:	d0a74b05 	stb	r2,-25300(gp)
	}

	return 1; // next tick is a fter 1ms
  800634:	00800044 	movi	r2,1
}
  800638:	e037883a 	mov	sp,fp
  80063c:	dfc00117 	ldw	ra,4(sp)
  800640:	df000017 	ldw	fp,0(sp)
  800644:	dec00204 	addi	sp,sp,8
  800648:	f800283a 	ret

0080064c <reset_leds>:

void reset_leds(){
  80064c:	deffff04 	addi	sp,sp,-4
  800650:	df000015 	stw	fp,0(sp)
  800654:	d839883a 	mov	fp,sp
	IOWR_ALTERA_AVALON_PIO_DATA(LEDS_RED_BASE, 0x0);
  800658:	0007883a 	mov	r3,zero
  80065c:	00804074 	movhi	r2,257
  800660:	10842004 	addi	r2,r2,4224
  800664:	10c00035 	stwio	r3,0(r2)
	IOWR_ALTERA_AVALON_PIO_DATA(LEDS_GREEN_BASE, 0x0);
  800668:	0007883a 	mov	r3,zero
  80066c:	00804074 	movhi	r2,257
  800670:	10841c04 	addi	r2,r2,4208
  800674:	10c00035 	stwio	r3,0(r2)
}
  800678:	0001883a 	nop
  80067c:	e037883a 	mov	sp,fp
  800680:	df000017 	ldw	fp,0(sp)
  800684:	dec00104 	addi	sp,sp,4
  800688:	f800283a 	ret

0080068c <key_interrupt>:


void key_interrupt(void* context, alt_u32 id) {
  80068c:	defffc04 	addi	sp,sp,-16
  800690:	df000315 	stw	fp,12(sp)
  800694:	df000304 	addi	fp,sp,12
  800698:	e13ffe15 	stw	r4,-8(fp)
  80069c:	e17fff15 	stw	r5,-4(fp)
	int* temp = (int*) context; // need to cast the context first before using it
  8006a0:	e0bffe17 	ldw	r2,-8(fp)
  8006a4:	e0bffd15 	stw	r2,-12(fp)
	(*temp) = IORD_ALTERA_AVALON_PIO_EDGE_CAP(KEYS_BASE);
  8006a8:	00804074 	movhi	r2,257
  8006ac:	10842b04 	addi	r2,r2,4268
  8006b0:	10c00037 	ldwio	r3,0(r2)
  8006b4:	e0bffd17 	ldw	r2,-12(fp)
  8006b8:	10c00015 	stw	r3,0(r2)
	// clear the edge capture register
	IOWR_ALTERA_AVALON_PIO_EDGE_CAP(KEYS_BASE, 0);
  8006bc:	0007883a 	mov	r3,zero
  8006c0:	00804074 	movhi	r2,257
  8006c4:	10842b04 	addi	r2,r2,4268
  8006c8:	10c00035 	stwio	r3,0(r2)
	if (*temp == 1){
  8006cc:	e0bffd17 	ldw	r2,-12(fp)
  8006d0:	10800017 	ldw	r2,0(r2)
  8006d4:	10800058 	cmpnei	r2,r2,1
  8006d8:	1000021e 	bne	r2,zero,8006e4 <key_interrupt+0x58>
		VSBuffer = 1;
  8006dc:	00800044 	movi	r2,1
  8006e0:	d0a74e45 	stb	r2,-25287(gp)
	}
	if (*temp == 2){
  8006e4:	e0bffd17 	ldw	r2,-12(fp)
  8006e8:	10800017 	ldw	r2,0(r2)
  8006ec:	10800098 	cmpnei	r2,r2,2
  8006f0:	1000021e 	bne	r2,zero,8006fc <key_interrupt+0x70>
		ASBuffer = 1;
  8006f4:	00800044 	movi	r2,1
  8006f8:	d0a74e05 	stb	r2,-25288(gp)
	}
}
  8006fc:	0001883a 	nop
  800700:	e037883a 	mov	sp,fp
  800704:	df000017 	ldw	fp,0(sp)
  800708:	dec00104 	addi	sp,sp,4
  80070c:	f800283a 	ret

00800710 <setup_keys>:

void setup_keys(){
  800710:	defffc04 	addi	sp,sp,-16
  800714:	dfc00315 	stw	ra,12(sp)
  800718:	df000215 	stw	fp,8(sp)
  80071c:	df000204 	addi	fp,sp,8
	int keyValue = 1;
  800720:	00800044 	movi	r2,1
  800724:	e0bfff15 	stw	r2,-4(fp)
	void* contextKeyInterrupt =(void*) &keyValue; // cast before passing to ISR
  800728:	e0bfff04 	addi	r2,fp,-4
  80072c:	e0bffe15 	stw	r2,-8(fp)


	// clears the edge capture register
	IOWR_ALTERA_AVALON_PIO_EDGE_CAP(KEYS_BASE, 0);
  800730:	0007883a 	mov	r3,zero
  800734:	00804074 	movhi	r2,257
  800738:	10842b04 	addi	r2,r2,4268
  80073c:	10c00035 	stwio	r3,0(r2)

	// enable interrupts for all buttons
	IOWR_ALTERA_AVALON_PIO_IRQ_MASK(KEYS_BASE, 0x7);
  800740:	00c001c4 	movi	r3,7
  800744:	00804074 	movhi	r2,257
  800748:	10842a04 	addi	r2,r2,4264
  80074c:	10c00035 	stwio	r3,0(r2)

	// register the ISR
	alt_irq_register(KEYS_IRQ, contextKeyInterrupt, key_interrupt);
  800750:	01802034 	movhi	r6,128
  800754:	3181a304 	addi	r6,r6,1676
  800758:	e17ffe17 	ldw	r5,-8(fp)
  80075c:	01000104 	movi	r4,4
  800760:	0812ee40 	call	812ee4 <alt_irq_register>
}
  800764:	0001883a 	nop
  800768:	e037883a 	mov	sp,fp
  80076c:	dfc00117 	ldw	ra,4(sp)
  800770:	df000017 	ldw	fp,0(sp)
  800774:	dec00204 	addi	sp,sp,8
  800778:	f800283a 	ret

0080077c <logic>:

#include "timing.h"

#include "sccharts.h"

void logic(TickData* d) {
  80077c:	defffa04 	addi	sp,sp,-24
  800780:	dfc00515 	stw	ra,20(sp)
  800784:	df000415 	stw	fp,16(sp)
  800788:	dc800315 	stw	r18,12(sp)
  80078c:	dc400215 	stw	r17,8(sp)
  800790:	dc000115 	stw	r16,4(sp)
  800794:	df000404 	addi	fp,sp,16
  800798:	e13ffc15 	stw	r4,-16(fp)
  d->AP = 0;
  80079c:	e0bffc17 	ldw	r2,-16(fp)
  8007a0:	10001705 	stb	zero,92(r2)
  d->VP = 0;
  8007a4:	e0bffc17 	ldw	r2,-16(fp)
  8007a8:	10001745 	stb	zero,93(r2)
  d->AVI = 0;
  8007ac:	e0bffc17 	ldw	r2,-16(fp)
  8007b0:	10001785 	stb	zero,94(r2)
  d->PVARP = 0;
  8007b4:	e0bffc17 	ldw	r2,-16(fp)
  8007b8:	100017c5 	stb	zero,95(r2)
  d->VRP = 0;
  8007bc:	e0bffc17 	ldw	r2,-16(fp)
  8007c0:	10001805 	stb	zero,96(r2)
  d->AEI = 0;
  8007c4:	e0bffc17 	ldw	r2,-16(fp)
  8007c8:	10001845 	stb	zero,97(r2)
  d->LRI = 0;
  8007cc:	e0bffc17 	ldw	r2,-16(fp)
  8007d0:	10001885 	stb	zero,98(r2)
  d->URI = 0;
  8007d4:	e0bffc17 	ldw	r2,-16(fp)
  8007d8:	100018c5 	stb	zero,99(r2)
  d->_g8 = d->_pg93;
  8007dc:	e0bffc17 	ldw	r2,-16(fp)
  8007e0:	10c04843 	ldbu	r3,289(r2)
  8007e4:	e0bffc17 	ldw	r2,-16(fp)
  8007e8:	10c01bc5 	stb	r3,111(r2)
  d->_g9_e1 = !d->_g8;
  8007ec:	e0bffc17 	ldw	r2,-16(fp)
  8007f0:	10801bc3 	ldbu	r2,111(r2)
  8007f4:	10803fcc 	andi	r2,r2,255
  8007f8:	1080201c 	xori	r2,r2,128
  8007fc:	10bfe004 	addi	r2,r2,-128
  800800:	1005003a 	cmpeq	r2,r2,zero
  800804:	1007883a 	mov	r3,r2
  800808:	e0bffc17 	ldw	r2,-16(fp)
  80080c:	10c04385 	stb	r3,270(r2)
  if (d->_g8) {
  800810:	e0bffc17 	ldw	r2,-16(fp)
  800814:	10801bc3 	ldbu	r2,111(r2)
  800818:	10803fcc 	andi	r2,r2,255
  80081c:	1080201c 	xori	r2,r2,128
  800820:	10bfe004 	addi	r2,r2,-128
  800824:	10000626 	beq	r2,zero,800840 <logic+0xc4>
    d->AVI |= 1;
  800828:	e0bffc17 	ldw	r2,-16(fp)
  80082c:	10801783 	ldbu	r2,94(r2)
  800830:	10800054 	ori	r2,r2,1
  800834:	1007883a 	mov	r3,r2
  800838:	e0bffc17 	ldw	r2,-16(fp)
  80083c:	10c01785 	stb	r3,94(r2)
  }
  d->_g145 = d->_pg126;
  800840:	e0bffc17 	ldw	r2,-16(fp)
  800844:	10c04883 	ldbu	r3,290(r2)
  800848:	e0bffc17 	ldw	r2,-16(fp)
  80084c:	10c03285 	stb	r3,202(r2)
  if (d->_g145) {
  800850:	e0bffc17 	ldw	r2,-16(fp)
  800854:	10803283 	ldbu	r2,202(r2)
  800858:	10803fcc 	andi	r2,r2,255
  80085c:	1080201c 	xori	r2,r2,128
  800860:	10bfe004 	addi	r2,r2,-128
  800864:	10000626 	beq	r2,zero,800880 <logic+0x104>
    d->URI |= 1;
  800868:	e0bffc17 	ldw	r2,-16(fp)
  80086c:	108018c3 	ldbu	r2,99(r2)
  800870:	10800054 	ori	r2,r2,1
  800874:	1007883a 	mov	r3,r2
  800878:	e0bffc17 	ldw	r2,-16(fp)
  80087c:	10c018c5 	stb	r3,99(r2)
  }
  d->_g167 = d->_pg143;
  800880:	e0bffc17 	ldw	r2,-16(fp)
  800884:	10c048c3 	ldbu	r3,291(r2)
  800888:	e0bffc17 	ldw	r2,-16(fp)
  80088c:	10c03545 	stb	r3,213(r2)
  if (d->_g167) {
  800890:	e0bffc17 	ldw	r2,-16(fp)
  800894:	10803543 	ldbu	r2,213(r2)
  800898:	10803fcc 	andi	r2,r2,255
  80089c:	1080201c 	xori	r2,r2,128
  8008a0:	10bfe004 	addi	r2,r2,-128
  8008a4:	10001226 	beq	r2,zero,8008f0 <logic+0x174>
    d->_region0_AVI_cAVI += d->deltaT;
  8008a8:	e13ffc17 	ldw	r4,-16(fp)
  8008ac:	20800717 	ldw	r2,28(r4)
  8008b0:	20c00817 	ldw	r3,32(r4)
  8008b4:	e1bffc17 	ldw	r6,-16(fp)
  8008b8:	31001317 	ldw	r4,76(r6)
  8008bc:	31401417 	ldw	r5,80(r6)
  8008c0:	200d883a 	mov	r6,r4
  8008c4:	280f883a 	mov	r7,r5
  8008c8:	1009883a 	mov	r4,r2
  8008cc:	180b883a 	mov	r5,r3
  8008d0:	08057940 	call	805794 <__adddf3>
  8008d4:	1009883a 	mov	r4,r2
  8008d8:	180b883a 	mov	r5,r3
  8008dc:	2005883a 	mov	r2,r4
  8008e0:	2807883a 	mov	r3,r5
  8008e4:	e13ffc17 	ldw	r4,-16(fp)
  8008e8:	20800715 	stw	r2,28(r4)
  8008ec:	20c00815 	stw	r3,32(r4)
  }
  d->_g23 = d->_pg8;
  8008f0:	e0bffc17 	ldw	r2,-16(fp)
  8008f4:	10c04903 	ldbu	r3,292(r2)
  8008f8:	e0bffc17 	ldw	r2,-16(fp)
  8008fc:	10c01e45 	stb	r3,121(r2)
  d->_cg23 = d->_region0_AVI_cAVI >= d->AVI_Constraint && !d->URI;
  800900:	e0bffc17 	ldw	r2,-16(fp)
  800904:	14000717 	ldw	r16,28(r2)
  800908:	14400817 	ldw	r17,32(r2)
  80090c:	e0bffc17 	ldw	r2,-16(fp)
  800910:	10800117 	ldw	r2,4(r2)
  800914:	1009883a 	mov	r4,r2
  800918:	0806b0c0 	call	806b0c <__floatsidf>
  80091c:	1009883a 	mov	r4,r2
  800920:	180b883a 	mov	r5,r3
  800924:	200d883a 	mov	r6,r4
  800928:	280f883a 	mov	r7,r5
  80092c:	8009883a 	mov	r4,r16
  800930:	880b883a 	mov	r5,r17
  800934:	08060400 	call	806040 <__gedf2>
  800938:	10000816 	blt	r2,zero,80095c <logic+0x1e0>
  80093c:	e0bffc17 	ldw	r2,-16(fp)
  800940:	108018c3 	ldbu	r2,99(r2)
  800944:	10803fcc 	andi	r2,r2,255
  800948:	1080201c 	xori	r2,r2,128
  80094c:	10bfe004 	addi	r2,r2,-128
  800950:	1000021e 	bne	r2,zero,80095c <logic+0x1e0>
  800954:	00800044 	movi	r2,1
  800958:	00000106 	br	800960 <logic+0x1e4>
  80095c:	0005883a 	mov	r2,zero
  800960:	1007883a 	mov	r3,r2
  800964:	e0bffc17 	ldw	r2,-16(fp)
  800968:	10c038c5 	stb	r3,227(r2)
  d->_g24 = d->_g23 && d->_cg23;
  80096c:	e0bffc17 	ldw	r2,-16(fp)
  800970:	10801e43 	ldbu	r2,121(r2)
  800974:	10803fcc 	andi	r2,r2,255
  800978:	1080201c 	xori	r2,r2,128
  80097c:	10bfe004 	addi	r2,r2,-128
  800980:	10000826 	beq	r2,zero,8009a4 <logic+0x228>
  800984:	e0bffc17 	ldw	r2,-16(fp)
  800988:	108038c3 	ldbu	r2,227(r2)
  80098c:	10803fcc 	andi	r2,r2,255
  800990:	1080201c 	xori	r2,r2,128
  800994:	10bfe004 	addi	r2,r2,-128
  800998:	10000226 	beq	r2,zero,8009a4 <logic+0x228>
  80099c:	00800044 	movi	r2,1
  8009a0:	00000106 	br	8009a8 <logic+0x22c>
  8009a4:	0005883a 	mov	r2,zero
  8009a8:	1007883a 	mov	r3,r2
  8009ac:	e0bffc17 	ldw	r2,-16(fp)
  8009b0:	10c01e85 	stb	r3,122(r2)
  if (d->_g24) {
  8009b4:	e0bffc17 	ldw	r2,-16(fp)
  8009b8:	10801e83 	ldbu	r2,122(r2)
  8009bc:	10803fcc 	andi	r2,r2,255
  8009c0:	1080201c 	xori	r2,r2,128
  8009c4:	10bfe004 	addi	r2,r2,-128
  8009c8:	10000326 	beq	r2,zero,8009d8 <logic+0x25c>
    d->_Pacemaker_local__Atrig = 1;
  8009cc:	e0bffc17 	ldw	r2,-16(fp)
  8009d0:	00c00044 	movi	r3,1
  8009d4:	10c01905 	stb	r3,100(r2)
  }
  d->_g26 = d->_g23 && !d->_cg23;
  8009d8:	e0bffc17 	ldw	r2,-16(fp)
  8009dc:	10801e43 	ldbu	r2,121(r2)
  8009e0:	10803fcc 	andi	r2,r2,255
  8009e4:	1080201c 	xori	r2,r2,128
  8009e8:	10bfe004 	addi	r2,r2,-128
  8009ec:	10000826 	beq	r2,zero,800a10 <logic+0x294>
  8009f0:	e0bffc17 	ldw	r2,-16(fp)
  8009f4:	108038c3 	ldbu	r2,227(r2)
  8009f8:	10803fcc 	andi	r2,r2,255
  8009fc:	1080201c 	xori	r2,r2,128
  800a00:	10bfe004 	addi	r2,r2,-128
  800a04:	1000021e 	bne	r2,zero,800a10 <logic+0x294>
  800a08:	00800044 	movi	r2,1
  800a0c:	00000106 	br	800a14 <logic+0x298>
  800a10:	0005883a 	mov	r2,zero
  800a14:	1007883a 	mov	r3,r2
  800a18:	e0bffc17 	ldw	r2,-16(fp)
  800a1c:	10c01f05 	stb	r3,124(r2)
  d->_g27 = d->_g26 && d->VS;
  800a20:	e0bffc17 	ldw	r2,-16(fp)
  800a24:	10801f03 	ldbu	r2,124(r2)
  800a28:	10803fcc 	andi	r2,r2,255
  800a2c:	1080201c 	xori	r2,r2,128
  800a30:	10bfe004 	addi	r2,r2,-128
  800a34:	10000826 	beq	r2,zero,800a58 <logic+0x2dc>
  800a38:	e0bffc17 	ldw	r2,-16(fp)
  800a3c:	10800043 	ldbu	r2,1(r2)
  800a40:	10803fcc 	andi	r2,r2,255
  800a44:	1080201c 	xori	r2,r2,128
  800a48:	10bfe004 	addi	r2,r2,-128
  800a4c:	10000226 	beq	r2,zero,800a58 <logic+0x2dc>
  800a50:	00800044 	movi	r2,1
  800a54:	00000106 	br	800a5c <logic+0x2e0>
  800a58:	0005883a 	mov	r2,zero
  800a5c:	1007883a 	mov	r3,r2
  800a60:	e0bffc17 	ldw	r2,-16(fp)
  800a64:	10c01f45 	stb	r3,125(r2)
  if (d->_g27) {
  800a68:	e0bffc17 	ldw	r2,-16(fp)
  800a6c:	10801f43 	ldbu	r2,125(r2)
  800a70:	10803fcc 	andi	r2,r2,255
  800a74:	1080201c 	xori	r2,r2,128
  800a78:	10bfe004 	addi	r2,r2,-128
  800a7c:	10000326 	beq	r2,zero,800a8c <logic+0x310>
    d->_Pacemaker_local__Atrig1 = 1;
  800a80:	e0bffc17 	ldw	r2,-16(fp)
  800a84:	00c00044 	movi	r3,1
  800a88:	10c01945 	stb	r3,101(r2)
  }
  d->_cg8 = d->_Pacemaker_local__Atrig || d->_Pacemaker_local__Atrig1;
  800a8c:	e0bffc17 	ldw	r2,-16(fp)
  800a90:	10801903 	ldbu	r2,100(r2)
  800a94:	10803fcc 	andi	r2,r2,255
  800a98:	1080201c 	xori	r2,r2,128
  800a9c:	10bfe004 	addi	r2,r2,-128
  800aa0:	1000061e 	bne	r2,zero,800abc <logic+0x340>
  800aa4:	e0bffc17 	ldw	r2,-16(fp)
  800aa8:	10801943 	ldbu	r2,101(r2)
  800aac:	10803fcc 	andi	r2,r2,255
  800ab0:	1080201c 	xori	r2,r2,128
  800ab4:	10bfe004 	addi	r2,r2,-128
  800ab8:	10000226 	beq	r2,zero,800ac4 <logic+0x348>
  800abc:	00800044 	movi	r2,1
  800ac0:	00000106 	br	800ac8 <logic+0x34c>
  800ac4:	0005883a 	mov	r2,zero
  800ac8:	1007883a 	mov	r3,r2
  800acc:	e0bffc17 	ldw	r2,-16(fp)
  800ad0:	10c036c5 	stb	r3,219(r2)
  d->_g9 = d->_g8 && d->_cg8;
  800ad4:	e0bffc17 	ldw	r2,-16(fp)
  800ad8:	10801bc3 	ldbu	r2,111(r2)
  800adc:	10803fcc 	andi	r2,r2,255
  800ae0:	1080201c 	xori	r2,r2,128
  800ae4:	10bfe004 	addi	r2,r2,-128
  800ae8:	10000826 	beq	r2,zero,800b0c <logic+0x390>
  800aec:	e0bffc17 	ldw	r2,-16(fp)
  800af0:	108036c3 	ldbu	r2,219(r2)
  800af4:	10803fcc 	andi	r2,r2,255
  800af8:	1080201c 	xori	r2,r2,128
  800afc:	10bfe004 	addi	r2,r2,-128
  800b00:	10000226 	beq	r2,zero,800b0c <logic+0x390>
  800b04:	00800044 	movi	r2,1
  800b08:	00000106 	br	800b10 <logic+0x394>
  800b0c:	0005883a 	mov	r2,zero
  800b10:	1007883a 	mov	r3,r2
  800b14:	e0bffc17 	ldw	r2,-16(fp)
  800b18:	10c01c05 	stb	r3,112(r2)
  d->_g19 = d->_pg4;
  800b1c:	e0bffc17 	ldw	r2,-16(fp)
  800b20:	10c04943 	ldbu	r3,293(r2)
  800b24:	e0bffc17 	ldw	r2,-16(fp)
  800b28:	10c01dc5 	stb	r3,119(r2)
  d->_g13 = d->_pg28;
  800b2c:	e0bffc17 	ldw	r2,-16(fp)
  800b30:	10c04983 	ldbu	r3,294(r2)
  800b34:	e0bffc17 	ldw	r2,-16(fp)
  800b38:	10c01c85 	stb	r3,114(r2)
  d->_g16_e2 = !(d->_g19 || d->_g13);
  800b3c:	e0bffc17 	ldw	r2,-16(fp)
  800b40:	10801dc3 	ldbu	r2,119(r2)
  800b44:	10803fcc 	andi	r2,r2,255
  800b48:	1080201c 	xori	r2,r2,128
  800b4c:	10bfe004 	addi	r2,r2,-128
  800b50:	1000081e 	bne	r2,zero,800b74 <logic+0x3f8>
  800b54:	e0bffc17 	ldw	r2,-16(fp)
  800b58:	10801c83 	ldbu	r2,114(r2)
  800b5c:	10803fcc 	andi	r2,r2,255
  800b60:	1080201c 	xori	r2,r2,128
  800b64:	10bfe004 	addi	r2,r2,-128
  800b68:	1000021e 	bne	r2,zero,800b74 <logic+0x3f8>
  800b6c:	00800044 	movi	r2,1
  800b70:	00000106 	br	800b78 <logic+0x3fc>
  800b74:	0005883a 	mov	r2,zero
  800b78:	1007883a 	mov	r3,r2
  800b7c:	e0bffc17 	ldw	r2,-16(fp)
  800b80:	10c043c5 	stb	r3,271(r2)
  d->sleepT = 1000.0;
  800b84:	e0fffc17 	ldw	r3,-16(fp)
  800b88:	18001515 	stw	zero,84(r3)
  800b8c:	009023f4 	movhi	r2,16527
  800b90:	10900004 	addi	r2,r2,16384
  800b94:	18801615 	stw	r2,88(r3)
  d->_g19 = d->_g13 || d->_g19;
  800b98:	e0bffc17 	ldw	r2,-16(fp)
  800b9c:	10801c83 	ldbu	r2,114(r2)
  800ba0:	10803fcc 	andi	r2,r2,255
  800ba4:	1080201c 	xori	r2,r2,128
  800ba8:	10bfe004 	addi	r2,r2,-128
  800bac:	1000061e 	bne	r2,zero,800bc8 <logic+0x44c>
  800bb0:	e0bffc17 	ldw	r2,-16(fp)
  800bb4:	10801dc3 	ldbu	r2,119(r2)
  800bb8:	10803fcc 	andi	r2,r2,255
  800bbc:	1080201c 	xori	r2,r2,128
  800bc0:	10bfe004 	addi	r2,r2,-128
  800bc4:	10000226 	beq	r2,zero,800bd0 <logic+0x454>
  800bc8:	00800044 	movi	r2,1
  800bcc:	00000106 	br	800bd4 <logic+0x458>
  800bd0:	0005883a 	mov	r2,zero
  800bd4:	1007883a 	mov	r3,r2
  800bd8:	e0bffc17 	ldw	r2,-16(fp)
  800bdc:	10c01dc5 	stb	r3,119(r2)
  d->_cg14 = d->_region0_AVI_cAVI < d->AVI_Constraint;
  800be0:	e0bffc17 	ldw	r2,-16(fp)
  800be4:	14000717 	ldw	r16,28(r2)
  800be8:	14400817 	ldw	r17,32(r2)
  800bec:	e0bffc17 	ldw	r2,-16(fp)
  800bf0:	10800117 	ldw	r2,4(r2)
  800bf4:	1009883a 	mov	r4,r2
  800bf8:	0806b0c0 	call	806b0c <__floatsidf>
  800bfc:	1009883a 	mov	r4,r2
  800c00:	180b883a 	mov	r5,r3
  800c04:	04800044 	movi	r18,1
  800c08:	200d883a 	mov	r6,r4
  800c0c:	280f883a 	mov	r7,r5
  800c10:	8009883a 	mov	r4,r16
  800c14:	880b883a 	mov	r5,r17
  800c18:	080611c0 	call	80611c <__ledf2>
  800c1c:	10000116 	blt	r2,zero,800c24 <logic+0x4a8>
  800c20:	0025883a 	mov	r18,zero
  800c24:	9007883a 	mov	r3,r18
  800c28:	e0bffc17 	ldw	r2,-16(fp)
  800c2c:	10c037c5 	stb	r3,223(r2)
  d->_g13 = d->_g19 && d->_cg14;
  800c30:	e0bffc17 	ldw	r2,-16(fp)
  800c34:	10801dc3 	ldbu	r2,119(r2)
  800c38:	10803fcc 	andi	r2,r2,255
  800c3c:	1080201c 	xori	r2,r2,128
  800c40:	10bfe004 	addi	r2,r2,-128
  800c44:	10000826 	beq	r2,zero,800c68 <logic+0x4ec>
  800c48:	e0bffc17 	ldw	r2,-16(fp)
  800c4c:	108037c3 	ldbu	r2,223(r2)
  800c50:	10803fcc 	andi	r2,r2,255
  800c54:	1080201c 	xori	r2,r2,128
  800c58:	10bfe004 	addi	r2,r2,-128
  800c5c:	10000226 	beq	r2,zero,800c68 <logic+0x4ec>
  800c60:	00800044 	movi	r2,1
  800c64:	00000106 	br	800c6c <logic+0x4f0>
  800c68:	0005883a 	mov	r2,zero
  800c6c:	1007883a 	mov	r3,r2
  800c70:	e0bffc17 	ldw	r2,-16(fp)
  800c74:	10c01c85 	stb	r3,114(r2)
  if (d->_g13) {
  800c78:	e0bffc17 	ldw	r2,-16(fp)
  800c7c:	10801c83 	ldbu	r2,114(r2)
  800c80:	10803fcc 	andi	r2,r2,255
  800c84:	1080201c 	xori	r2,r2,128
  800c88:	10bfe004 	addi	r2,r2,-128
  800c8c:	10003426 	beq	r2,zero,800d60 <logic+0x5e4>
    d->sleepT = (d->sleepT < (d->AVI_Constraint - d->_region0_AVI_cAVI)) ? d->sleepT : (d->AVI_Constraint - d->_region0_AVI_cAVI);
  800c90:	e0bffc17 	ldw	r2,-16(fp)
  800c94:	14001517 	ldw	r16,84(r2)
  800c98:	14401617 	ldw	r17,88(r2)
  800c9c:	e0bffc17 	ldw	r2,-16(fp)
  800ca0:	10800117 	ldw	r2,4(r2)
  800ca4:	1009883a 	mov	r4,r2
  800ca8:	0806b0c0 	call	806b0c <__floatsidf>
  800cac:	1011883a 	mov	r8,r2
  800cb0:	1813883a 	mov	r9,r3
  800cb4:	e13ffc17 	ldw	r4,-16(fp)
  800cb8:	20800717 	ldw	r2,28(r4)
  800cbc:	20c00817 	ldw	r3,32(r4)
  800cc0:	100d883a 	mov	r6,r2
  800cc4:	180f883a 	mov	r7,r3
  800cc8:	4009883a 	mov	r4,r8
  800ccc:	480b883a 	mov	r5,r9
  800cd0:	08062100 	call	806210 <__subdf3>
  800cd4:	1009883a 	mov	r4,r2
  800cd8:	180b883a 	mov	r5,r3
  800cdc:	2005883a 	mov	r2,r4
  800ce0:	2807883a 	mov	r3,r5
  800ce4:	100d883a 	mov	r6,r2
  800ce8:	180f883a 	mov	r7,r3
  800cec:	8009883a 	mov	r4,r16
  800cf0:	880b883a 	mov	r5,r17
  800cf4:	080611c0 	call	80611c <__ledf2>
  800cf8:	1000040e 	bge	r2,zero,800d0c <logic+0x590>
  800cfc:	e13ffc17 	ldw	r4,-16(fp)
  800d00:	20801517 	ldw	r2,84(r4)
  800d04:	20c01617 	ldw	r3,88(r4)
  800d08:	00001206 	br	800d54 <logic+0x5d8>
  800d0c:	e0bffc17 	ldw	r2,-16(fp)
  800d10:	10800117 	ldw	r2,4(r2)
  800d14:	1009883a 	mov	r4,r2
  800d18:	0806b0c0 	call	806b0c <__floatsidf>
  800d1c:	1011883a 	mov	r8,r2
  800d20:	1813883a 	mov	r9,r3
  800d24:	e13ffc17 	ldw	r4,-16(fp)
  800d28:	20800717 	ldw	r2,28(r4)
  800d2c:	20c00817 	ldw	r3,32(r4)
  800d30:	100d883a 	mov	r6,r2
  800d34:	180f883a 	mov	r7,r3
  800d38:	4009883a 	mov	r4,r8
  800d3c:	480b883a 	mov	r5,r9
  800d40:	08062100 	call	806210 <__subdf3>
  800d44:	1009883a 	mov	r4,r2
  800d48:	180b883a 	mov	r5,r3
  800d4c:	2005883a 	mov	r2,r4
  800d50:	2807883a 	mov	r3,r5
  800d54:	e13ffc17 	ldw	r4,-16(fp)
  800d58:	20801515 	stw	r2,84(r4)
  800d5c:	20c01615 	stw	r3,88(r4)
  }
  d->_cg15 = d->_Pacemaker_local__Atrig || d->_Pacemaker_local__Atrig1;
  800d60:	e0bffc17 	ldw	r2,-16(fp)
  800d64:	10801903 	ldbu	r2,100(r2)
  800d68:	10803fcc 	andi	r2,r2,255
  800d6c:	1080201c 	xori	r2,r2,128
  800d70:	10bfe004 	addi	r2,r2,-128
  800d74:	1000061e 	bne	r2,zero,800d90 <logic+0x614>
  800d78:	e0bffc17 	ldw	r2,-16(fp)
  800d7c:	10801943 	ldbu	r2,101(r2)
  800d80:	10803fcc 	andi	r2,r2,255
  800d84:	1080201c 	xori	r2,r2,128
  800d88:	10bfe004 	addi	r2,r2,-128
  800d8c:	10000226 	beq	r2,zero,800d98 <logic+0x61c>
  800d90:	00800044 	movi	r2,1
  800d94:	00000106 	br	800d9c <logic+0x620>
  800d98:	0005883a 	mov	r2,zero
  800d9c:	1007883a 	mov	r3,r2
  800da0:	e0bffc17 	ldw	r2,-16(fp)
  800da4:	10c03785 	stb	r3,222(r2)
  d->_g14 = d->_g19 && !d->_cg14;
  800da8:	e0bffc17 	ldw	r2,-16(fp)
  800dac:	10801dc3 	ldbu	r2,119(r2)
  800db0:	10803fcc 	andi	r2,r2,255
  800db4:	1080201c 	xori	r2,r2,128
  800db8:	10bfe004 	addi	r2,r2,-128
  800dbc:	10000826 	beq	r2,zero,800de0 <logic+0x664>
  800dc0:	e0bffc17 	ldw	r2,-16(fp)
  800dc4:	108037c3 	ldbu	r2,223(r2)
  800dc8:	10803fcc 	andi	r2,r2,255
  800dcc:	1080201c 	xori	r2,r2,128
  800dd0:	10bfe004 	addi	r2,r2,-128
  800dd4:	1000021e 	bne	r2,zero,800de0 <logic+0x664>
  800dd8:	00800044 	movi	r2,1
  800ddc:	00000106 	br	800de4 <logic+0x668>
  800de0:	0005883a 	mov	r2,zero
  800de4:	1007883a 	mov	r3,r2
  800de8:	e0bffc17 	ldw	r2,-16(fp)
  800dec:	10c01cc5 	stb	r3,115(r2)
  d->_cg17 = d->_Pacemaker_local__Atrig || d->_Pacemaker_local__Atrig1;
  800df0:	e0bffc17 	ldw	r2,-16(fp)
  800df4:	10801903 	ldbu	r2,100(r2)
  800df8:	10803fcc 	andi	r2,r2,255
  800dfc:	1080201c 	xori	r2,r2,128
  800e00:	10bfe004 	addi	r2,r2,-128
  800e04:	1000061e 	bne	r2,zero,800e20 <logic+0x6a4>
  800e08:	e0bffc17 	ldw	r2,-16(fp)
  800e0c:	10801943 	ldbu	r2,101(r2)
  800e10:	10803fcc 	andi	r2,r2,255
  800e14:	1080201c 	xori	r2,r2,128
  800e18:	10bfe004 	addi	r2,r2,-128
  800e1c:	10000226 	beq	r2,zero,800e28 <logic+0x6ac>
  800e20:	00800044 	movi	r2,1
  800e24:	00000106 	br	800e2c <logic+0x6b0>
  800e28:	0005883a 	mov	r2,zero
  800e2c:	1007883a 	mov	r3,r2
  800e30:	e0bffc17 	ldw	r2,-16(fp)
  800e34:	10c03805 	stb	r3,224(r2)
  d->_g16 = d->_g13 && d->_cg15 || d->_g14 && d->_cg17;
  800e38:	e0bffc17 	ldw	r2,-16(fp)
  800e3c:	10801c83 	ldbu	r2,114(r2)
  800e40:	10803fcc 	andi	r2,r2,255
  800e44:	1080201c 	xori	r2,r2,128
  800e48:	10bfe004 	addi	r2,r2,-128
  800e4c:	10000626 	beq	r2,zero,800e68 <logic+0x6ec>
  800e50:	e0bffc17 	ldw	r2,-16(fp)
  800e54:	10803783 	ldbu	r2,222(r2)
  800e58:	10803fcc 	andi	r2,r2,255
  800e5c:	1080201c 	xori	r2,r2,128
  800e60:	10bfe004 	addi	r2,r2,-128
  800e64:	10000c1e 	bne	r2,zero,800e98 <logic+0x71c>
  800e68:	e0bffc17 	ldw	r2,-16(fp)
  800e6c:	10801cc3 	ldbu	r2,115(r2)
  800e70:	10803fcc 	andi	r2,r2,255
  800e74:	1080201c 	xori	r2,r2,128
  800e78:	10bfe004 	addi	r2,r2,-128
  800e7c:	10000826 	beq	r2,zero,800ea0 <logic+0x724>
  800e80:	e0bffc17 	ldw	r2,-16(fp)
  800e84:	10803803 	ldbu	r2,224(r2)
  800e88:	10803fcc 	andi	r2,r2,255
  800e8c:	1080201c 	xori	r2,r2,128
  800e90:	10bfe004 	addi	r2,r2,-128
  800e94:	10000226 	beq	r2,zero,800ea0 <logic+0x724>
  800e98:	00800044 	movi	r2,1
  800e9c:	00000106 	br	800ea4 <logic+0x728>
  800ea0:	0005883a 	mov	r2,zero
  800ea4:	1007883a 	mov	r3,r2
  800ea8:	e0bffc17 	ldw	r2,-16(fp)
  800eac:	10c01d45 	stb	r3,117(r2)
  d->_g23 = !d->_g23;
  800eb0:	e0bffc17 	ldw	r2,-16(fp)
  800eb4:	10801e43 	ldbu	r2,121(r2)
  800eb8:	10803fcc 	andi	r2,r2,255
  800ebc:	1080201c 	xori	r2,r2,128
  800ec0:	10bfe004 	addi	r2,r2,-128
  800ec4:	1005003a 	cmpeq	r2,r2,zero
  800ec8:	1007883a 	mov	r3,r2
  800ecc:	e0bffc17 	ldw	r2,-16(fp)
  800ed0:	10c01e45 	stb	r3,121(r2)
  d->_g27 = d->_g24 || d->_g27;
  800ed4:	e0bffc17 	ldw	r2,-16(fp)
  800ed8:	10801e83 	ldbu	r2,122(r2)
  800edc:	10803fcc 	andi	r2,r2,255
  800ee0:	1080201c 	xori	r2,r2,128
  800ee4:	10bfe004 	addi	r2,r2,-128
  800ee8:	1000061e 	bne	r2,zero,800f04 <logic+0x788>
  800eec:	e0bffc17 	ldw	r2,-16(fp)
  800ef0:	10801f43 	ldbu	r2,125(r2)
  800ef4:	10803fcc 	andi	r2,r2,255
  800ef8:	1080201c 	xori	r2,r2,128
  800efc:	10bfe004 	addi	r2,r2,-128
  800f00:	10000226 	beq	r2,zero,800f0c <logic+0x790>
  800f04:	00800044 	movi	r2,1
  800f08:	00000106 	br	800f10 <logic+0x794>
  800f0c:	0005883a 	mov	r2,zero
  800f10:	1007883a 	mov	r3,r2
  800f14:	e0bffc17 	ldw	r2,-16(fp)
  800f18:	10c01f45 	stb	r3,125(r2)
  d->_g24 = (d->_g9_e1 || d->_g9) && (d->_g16_e2 || d->_g16) && (d->_g23 || d->_g27) && (d->_g9 || d->_g16 || d->_g27);
  800f1c:	e0bffc17 	ldw	r2,-16(fp)
  800f20:	10804383 	ldbu	r2,270(r2)
  800f24:	10803fcc 	andi	r2,r2,255
  800f28:	1080201c 	xori	r2,r2,128
  800f2c:	10bfe004 	addi	r2,r2,-128
  800f30:	1000061e 	bne	r2,zero,800f4c <logic+0x7d0>
  800f34:	e0bffc17 	ldw	r2,-16(fp)
  800f38:	10801c03 	ldbu	r2,112(r2)
  800f3c:	10803fcc 	andi	r2,r2,255
  800f40:	1080201c 	xori	r2,r2,128
  800f44:	10bfe004 	addi	r2,r2,-128
  800f48:	10002c26 	beq	r2,zero,800ffc <logic+0x880>
  800f4c:	e0bffc17 	ldw	r2,-16(fp)
  800f50:	108043c3 	ldbu	r2,271(r2)
  800f54:	10803fcc 	andi	r2,r2,255
  800f58:	1080201c 	xori	r2,r2,128
  800f5c:	10bfe004 	addi	r2,r2,-128
  800f60:	1000061e 	bne	r2,zero,800f7c <logic+0x800>
  800f64:	e0bffc17 	ldw	r2,-16(fp)
  800f68:	10801d43 	ldbu	r2,117(r2)
  800f6c:	10803fcc 	andi	r2,r2,255
  800f70:	1080201c 	xori	r2,r2,128
  800f74:	10bfe004 	addi	r2,r2,-128
  800f78:	10002026 	beq	r2,zero,800ffc <logic+0x880>
  800f7c:	e0bffc17 	ldw	r2,-16(fp)
  800f80:	10801e43 	ldbu	r2,121(r2)
  800f84:	10803fcc 	andi	r2,r2,255
  800f88:	1080201c 	xori	r2,r2,128
  800f8c:	10bfe004 	addi	r2,r2,-128
  800f90:	1000061e 	bne	r2,zero,800fac <logic+0x830>
  800f94:	e0bffc17 	ldw	r2,-16(fp)
  800f98:	10801f43 	ldbu	r2,125(r2)
  800f9c:	10803fcc 	andi	r2,r2,255
  800fa0:	1080201c 	xori	r2,r2,128
  800fa4:	10bfe004 	addi	r2,r2,-128
  800fa8:	10001426 	beq	r2,zero,800ffc <logic+0x880>
  800fac:	e0bffc17 	ldw	r2,-16(fp)
  800fb0:	10801c03 	ldbu	r2,112(r2)
  800fb4:	10803fcc 	andi	r2,r2,255
  800fb8:	1080201c 	xori	r2,r2,128
  800fbc:	10bfe004 	addi	r2,r2,-128
  800fc0:	10000c1e 	bne	r2,zero,800ff4 <logic+0x878>
  800fc4:	e0bffc17 	ldw	r2,-16(fp)
  800fc8:	10801d43 	ldbu	r2,117(r2)
  800fcc:	10803fcc 	andi	r2,r2,255
  800fd0:	1080201c 	xori	r2,r2,128
  800fd4:	10bfe004 	addi	r2,r2,-128
  800fd8:	1000061e 	bne	r2,zero,800ff4 <logic+0x878>
  800fdc:	e0bffc17 	ldw	r2,-16(fp)
  800fe0:	10801f43 	ldbu	r2,125(r2)
  800fe4:	10803fcc 	andi	r2,r2,255
  800fe8:	1080201c 	xori	r2,r2,128
  800fec:	10bfe004 	addi	r2,r2,-128
  800ff0:	10000226 	beq	r2,zero,800ffc <logic+0x880>
  800ff4:	00800044 	movi	r2,1
  800ff8:	00000106 	br	801000 <logic+0x884>
  800ffc:	0005883a 	mov	r2,zero
  801000:	1007883a 	mov	r3,r2
  801004:	e0bffc17 	ldw	r2,-16(fp)
  801008:	10c01e85 	stb	r3,122(r2)
  d->_cg28 = d->_Pacemaker_local__Atrig;
  80100c:	e0bffc17 	ldw	r2,-16(fp)
  801010:	10c01903 	ldbu	r3,100(r2)
  801014:	e0bffc17 	ldw	r2,-16(fp)
  801018:	10c03605 	stb	r3,216(r2)
  d->_g16_e2 = d->_g24 && d->_cg28;
  80101c:	e0bffc17 	ldw	r2,-16(fp)
  801020:	10801e83 	ldbu	r2,122(r2)
  801024:	10803fcc 	andi	r2,r2,255
  801028:	1080201c 	xori	r2,r2,128
  80102c:	10bfe004 	addi	r2,r2,-128
  801030:	10000826 	beq	r2,zero,801054 <logic+0x8d8>
  801034:	e0bffc17 	ldw	r2,-16(fp)
  801038:	10803603 	ldbu	r2,216(r2)
  80103c:	10803fcc 	andi	r2,r2,255
  801040:	1080201c 	xori	r2,r2,128
  801044:	10bfe004 	addi	r2,r2,-128
  801048:	10000226 	beq	r2,zero,801054 <logic+0x8d8>
  80104c:	00800044 	movi	r2,1
  801050:	00000106 	br	801058 <logic+0x8dc>
  801054:	0005883a 	mov	r2,zero
  801058:	1007883a 	mov	r3,r2
  80105c:	e0bffc17 	ldw	r2,-16(fp)
  801060:	10c043c5 	stb	r3,271(r2)
  if (d->_g16_e2) {
  801064:	e0bffc17 	ldw	r2,-16(fp)
  801068:	108043c3 	ldbu	r2,271(r2)
  80106c:	10803fcc 	andi	r2,r2,255
  801070:	1080201c 	xori	r2,r2,128
  801074:	10bfe004 	addi	r2,r2,-128
  801078:	10000626 	beq	r2,zero,801094 <logic+0x918>
    d->VP |= 1;
  80107c:	e0bffc17 	ldw	r2,-16(fp)
  801080:	10801743 	ldbu	r2,93(r2)
  801084:	10800054 	ori	r2,r2,1
  801088:	1007883a 	mov	r3,r2
  80108c:	e0bffc17 	ldw	r2,-16(fp)
  801090:	10c01745 	stb	r3,93(r2)
  }
  d->_g9 = d->_pg131;
  801094:	e0bffc17 	ldw	r2,-16(fp)
  801098:	10c049c3 	ldbu	r3,295(r2)
  80109c:	e0bffc17 	ldw	r2,-16(fp)
  8010a0:	10c01c05 	stb	r3,112(r2)
  if (d->_g9) {
  8010a4:	e0bffc17 	ldw	r2,-16(fp)
  8010a8:	10801c03 	ldbu	r2,112(r2)
  8010ac:	10803fcc 	andi	r2,r2,255
  8010b0:	1080201c 	xori	r2,r2,128
  8010b4:	10bfe004 	addi	r2,r2,-128
  8010b8:	10000626 	beq	r2,zero,8010d4 <logic+0x958>
    d->PVARP |= 1;
  8010bc:	e0bffc17 	ldw	r2,-16(fp)
  8010c0:	108017c3 	ldbu	r2,95(r2)
  8010c4:	10800054 	ori	r2,r2,1
  8010c8:	1007883a 	mov	r3,r2
  8010cc:	e0bffc17 	ldw	r2,-16(fp)
  8010d0:	10c017c5 	stb	r3,95(r2)
  }
  d->_g16 = d->_pg67;
  8010d4:	e0bffc17 	ldw	r2,-16(fp)
  8010d8:	10c04a03 	ldbu	r3,296(r2)
  8010dc:	e0bffc17 	ldw	r2,-16(fp)
  8010e0:	10c01d45 	stb	r3,117(r2)
  d->_g9_e1 = !d->_g16;
  8010e4:	e0bffc17 	ldw	r2,-16(fp)
  8010e8:	10801d43 	ldbu	r2,117(r2)
  8010ec:	10803fcc 	andi	r2,r2,255
  8010f0:	1080201c 	xori	r2,r2,128
  8010f4:	10bfe004 	addi	r2,r2,-128
  8010f8:	1005003a 	cmpeq	r2,r2,zero
  8010fc:	1007883a 	mov	r3,r2
  801100:	e0bffc17 	ldw	r2,-16(fp)
  801104:	10c04385 	stb	r3,270(r2)
  if (d->_g16) {
  801108:	e0bffc17 	ldw	r2,-16(fp)
  80110c:	10801d43 	ldbu	r2,117(r2)
  801110:	10803fcc 	andi	r2,r2,255
  801114:	1080201c 	xori	r2,r2,128
  801118:	10bfe004 	addi	r2,r2,-128
  80111c:	10000626 	beq	r2,zero,801138 <logic+0x9bc>
    d->AEI |= 1;
  801120:	e0bffc17 	ldw	r2,-16(fp)
  801124:	10801843 	ldbu	r2,97(r2)
  801128:	10800054 	ori	r2,r2,1
  80112c:	1007883a 	mov	r3,r2
  801130:	e0bffc17 	ldw	r2,-16(fp)
  801134:	10c01845 	stb	r3,97(r2)
  }
  d->_g25 = d->_pg158;
  801138:	e0bffc17 	ldw	r2,-16(fp)
  80113c:	10c04a43 	ldbu	r3,297(r2)
  801140:	e0bffc17 	ldw	r2,-16(fp)
  801144:	10c01ec5 	stb	r3,123(r2)
  if (d->_g25) {
  801148:	e0bffc17 	ldw	r2,-16(fp)
  80114c:	10801ec3 	ldbu	r2,123(r2)
  801150:	10803fcc 	andi	r2,r2,255
  801154:	1080201c 	xori	r2,r2,128
  801158:	10bfe004 	addi	r2,r2,-128
  80115c:	10001226 	beq	r2,zero,8011a8 <logic+0xa2c>
    d->_region3_AEI_cAEI += d->deltaT;
  801160:	e13ffc17 	ldw	r4,-16(fp)
  801164:	20800d17 	ldw	r2,52(r4)
  801168:	20c00e17 	ldw	r3,56(r4)
  80116c:	e1bffc17 	ldw	r6,-16(fp)
  801170:	31001317 	ldw	r4,76(r6)
  801174:	31401417 	ldw	r5,80(r6)
  801178:	200d883a 	mov	r6,r4
  80117c:	280f883a 	mov	r7,r5
  801180:	1009883a 	mov	r4,r2
  801184:	180b883a 	mov	r5,r3
  801188:	08057940 	call	805794 <__adddf3>
  80118c:	1009883a 	mov	r4,r2
  801190:	180b883a 	mov	r5,r3
  801194:	2005883a 	mov	r2,r4
  801198:	2807883a 	mov	r3,r5
  80119c:	e13ffc17 	ldw	r4,-16(fp)
  8011a0:	20800d15 	stw	r2,52(r4)
  8011a4:	20c00e15 	stw	r3,56(r4)
  }
  d->_g25_e3 = d->_pg106;
  8011a8:	e0bffc17 	ldw	r2,-16(fp)
  8011ac:	10c04a83 	ldbu	r3,298(r2)
  8011b0:	e0bffc17 	ldw	r2,-16(fp)
  8011b4:	10c04405 	stb	r3,272(r2)
  d->_cg100 = d->_region3_AEI_cAEI >= d->AEI_Constraint;
  8011b8:	e0bffc17 	ldw	r2,-16(fp)
  8011bc:	14000d17 	ldw	r16,52(r2)
  8011c0:	14400e17 	ldw	r17,56(r2)
  8011c4:	e0bffc17 	ldw	r2,-16(fp)
  8011c8:	10800417 	ldw	r2,16(r2)
  8011cc:	1009883a 	mov	r4,r2
  8011d0:	0806b0c0 	call	806b0c <__floatsidf>
  8011d4:	1009883a 	mov	r4,r2
  8011d8:	180b883a 	mov	r5,r3
  8011dc:	04800044 	movi	r18,1
  8011e0:	200d883a 	mov	r6,r4
  8011e4:	280f883a 	mov	r7,r5
  8011e8:	8009883a 	mov	r4,r16
  8011ec:	880b883a 	mov	r5,r17
  8011f0:	08060400 	call	806040 <__gedf2>
  8011f4:	1000010e 	bge	r2,zero,8011fc <logic+0xa80>
  8011f8:	0025883a 	mov	r18,zero
  8011fc:	9007883a 	mov	r3,r18
  801200:	e0bffc17 	ldw	r2,-16(fp)
  801204:	10c03ec5 	stb	r3,251(r2)
  d->_g101 = d->_g25_e3 && d->_cg100;
  801208:	e0bffc17 	ldw	r2,-16(fp)
  80120c:	10804403 	ldbu	r2,272(r2)
  801210:	10803fcc 	andi	r2,r2,255
  801214:	1080201c 	xori	r2,r2,128
  801218:	10bfe004 	addi	r2,r2,-128
  80121c:	10000826 	beq	r2,zero,801240 <logic+0xac4>
  801220:	e0bffc17 	ldw	r2,-16(fp)
  801224:	10803ec3 	ldbu	r2,251(r2)
  801228:	10803fcc 	andi	r2,r2,255
  80122c:	1080201c 	xori	r2,r2,128
  801230:	10bfe004 	addi	r2,r2,-128
  801234:	10000226 	beq	r2,zero,801240 <logic+0xac4>
  801238:	00800044 	movi	r2,1
  80123c:	00000106 	br	801244 <logic+0xac8>
  801240:	0005883a 	mov	r2,zero
  801244:	1007883a 	mov	r3,r2
  801248:	e0bffc17 	ldw	r2,-16(fp)
  80124c:	10c02b45 	stb	r3,173(r2)
  if (d->_g101) {
  801250:	e0bffc17 	ldw	r2,-16(fp)
  801254:	10802b43 	ldbu	r2,173(r2)
  801258:	10803fcc 	andi	r2,r2,255
  80125c:	1080201c 	xori	r2,r2,128
  801260:	10bfe004 	addi	r2,r2,-128
  801264:	10000326 	beq	r2,zero,801274 <logic+0xaf8>
    d->_Pacemaker_local__Atrig4 = 1;
  801268:	e0bffc17 	ldw	r2,-16(fp)
  80126c:	00c00044 	movi	r3,1
  801270:	10c01a05 	stb	r3,104(r2)
  }
  d->_g103 = d->_g25_e3 && !d->_cg100;
  801274:	e0bffc17 	ldw	r2,-16(fp)
  801278:	10804403 	ldbu	r2,272(r2)
  80127c:	10803fcc 	andi	r2,r2,255
  801280:	1080201c 	xori	r2,r2,128
  801284:	10bfe004 	addi	r2,r2,-128
  801288:	10000826 	beq	r2,zero,8012ac <logic+0xb30>
  80128c:	e0bffc17 	ldw	r2,-16(fp)
  801290:	10803ec3 	ldbu	r2,251(r2)
  801294:	10803fcc 	andi	r2,r2,255
  801298:	1080201c 	xori	r2,r2,128
  80129c:	10bfe004 	addi	r2,r2,-128
  8012a0:	1000021e 	bne	r2,zero,8012ac <logic+0xb30>
  8012a4:	00800044 	movi	r2,1
  8012a8:	00000106 	br	8012b0 <logic+0xb34>
  8012ac:	0005883a 	mov	r2,zero
  8012b0:	1007883a 	mov	r3,r2
  8012b4:	e0bffc17 	ldw	r2,-16(fp)
  8012b8:	10c02bc5 	stb	r3,175(r2)
  d->_cg103 = d->AS && !d->PVARP;
  8012bc:	e0bffc17 	ldw	r2,-16(fp)
  8012c0:	10800003 	ldbu	r2,0(r2)
  8012c4:	10803fcc 	andi	r2,r2,255
  8012c8:	1080201c 	xori	r2,r2,128
  8012cc:	10bfe004 	addi	r2,r2,-128
  8012d0:	10000826 	beq	r2,zero,8012f4 <logic+0xb78>
  8012d4:	e0bffc17 	ldw	r2,-16(fp)
  8012d8:	108017c3 	ldbu	r2,95(r2)
  8012dc:	10803fcc 	andi	r2,r2,255
  8012e0:	1080201c 	xori	r2,r2,128
  8012e4:	10bfe004 	addi	r2,r2,-128
  8012e8:	1000021e 	bne	r2,zero,8012f4 <logic+0xb78>
  8012ec:	00800044 	movi	r2,1
  8012f0:	00000106 	br	8012f8 <logic+0xb7c>
  8012f4:	0005883a 	mov	r2,zero
  8012f8:	1007883a 	mov	r3,r2
  8012fc:	e0bffc17 	ldw	r2,-16(fp)
  801300:	10c03e85 	stb	r3,250(r2)
  d->_g104 = d->_g103 && d->_cg103;
  801304:	e0bffc17 	ldw	r2,-16(fp)
  801308:	10802bc3 	ldbu	r2,175(r2)
  80130c:	10803fcc 	andi	r2,r2,255
  801310:	1080201c 	xori	r2,r2,128
  801314:	10bfe004 	addi	r2,r2,-128
  801318:	10000826 	beq	r2,zero,80133c <logic+0xbc0>
  80131c:	e0bffc17 	ldw	r2,-16(fp)
  801320:	10803e83 	ldbu	r2,250(r2)
  801324:	10803fcc 	andi	r2,r2,255
  801328:	1080201c 	xori	r2,r2,128
  80132c:	10bfe004 	addi	r2,r2,-128
  801330:	10000226 	beq	r2,zero,80133c <logic+0xbc0>
  801334:	00800044 	movi	r2,1
  801338:	00000106 	br	801340 <logic+0xbc4>
  80133c:	0005883a 	mov	r2,zero
  801340:	1007883a 	mov	r3,r2
  801344:	e0bffc17 	ldw	r2,-16(fp)
  801348:	10c02c05 	stb	r3,176(r2)
  if (d->_g104) {
  80134c:	e0bffc17 	ldw	r2,-16(fp)
  801350:	10802c03 	ldbu	r2,176(r2)
  801354:	10803fcc 	andi	r2,r2,255
  801358:	1080201c 	xori	r2,r2,128
  80135c:	10bfe004 	addi	r2,r2,-128
  801360:	10000326 	beq	r2,zero,801370 <logic+0xbf4>
    d->_Pacemaker_local__Atrig5 = 1;
  801364:	e0bffc17 	ldw	r2,-16(fp)
  801368:	00c00044 	movi	r3,1
  80136c:	10c01a45 	stb	r3,105(r2)
  }
  d->_cg85 = d->_Pacemaker_local__Atrig4 || d->_Pacemaker_local__Atrig5;
  801370:	e0bffc17 	ldw	r2,-16(fp)
  801374:	10801a03 	ldbu	r2,104(r2)
  801378:	10803fcc 	andi	r2,r2,255
  80137c:	1080201c 	xori	r2,r2,128
  801380:	10bfe004 	addi	r2,r2,-128
  801384:	1000061e 	bne	r2,zero,8013a0 <logic+0xc24>
  801388:	e0bffc17 	ldw	r2,-16(fp)
  80138c:	10801a43 	ldbu	r2,105(r2)
  801390:	10803fcc 	andi	r2,r2,255
  801394:	1080201c 	xori	r2,r2,128
  801398:	10bfe004 	addi	r2,r2,-128
  80139c:	10000226 	beq	r2,zero,8013a8 <logic+0xc2c>
  8013a0:	00800044 	movi	r2,1
  8013a4:	00000106 	br	8013ac <logic+0xc30>
  8013a8:	0005883a 	mov	r2,zero
  8013ac:	1007883a 	mov	r3,r2
  8013b0:	e0bffc17 	ldw	r2,-16(fp)
  8013b4:	10c03cc5 	stb	r3,243(r2)
  d->_g86 = d->_g16 && d->_cg85;
  8013b8:	e0bffc17 	ldw	r2,-16(fp)
  8013bc:	10801d43 	ldbu	r2,117(r2)
  8013c0:	10803fcc 	andi	r2,r2,255
  8013c4:	1080201c 	xori	r2,r2,128
  8013c8:	10bfe004 	addi	r2,r2,-128
  8013cc:	10000826 	beq	r2,zero,8013f0 <logic+0xc74>
  8013d0:	e0bffc17 	ldw	r2,-16(fp)
  8013d4:	10803cc3 	ldbu	r2,243(r2)
  8013d8:	10803fcc 	andi	r2,r2,255
  8013dc:	1080201c 	xori	r2,r2,128
  8013e0:	10bfe004 	addi	r2,r2,-128
  8013e4:	10000226 	beq	r2,zero,8013f0 <logic+0xc74>
  8013e8:	00800044 	movi	r2,1
  8013ec:	00000106 	br	8013f4 <logic+0xc78>
  8013f0:	0005883a 	mov	r2,zero
  8013f4:	1007883a 	mov	r3,r2
  8013f8:	e0bffc17 	ldw	r2,-16(fp)
  8013fc:	10c028c5 	stb	r3,163(r2)
  d->_g96 = d->_pg105;
  801400:	e0bffc17 	ldw	r2,-16(fp)
  801404:	10c04ac3 	ldbu	r3,299(r2)
  801408:	e0bffc17 	ldw	r2,-16(fp)
  80140c:	10c02a85 	stb	r3,170(r2)
  d->_g90 = d->_pg77;
  801410:	e0bffc17 	ldw	r2,-16(fp)
  801414:	10c04b03 	ldbu	r3,300(r2)
  801418:	e0bffc17 	ldw	r2,-16(fp)
  80141c:	10c02945 	stb	r3,165(r2)
  d->_g93_e2 = !(d->_g96 || d->_g90);
  801420:	e0bffc17 	ldw	r2,-16(fp)
  801424:	10802a83 	ldbu	r2,170(r2)
  801428:	10803fcc 	andi	r2,r2,255
  80142c:	1080201c 	xori	r2,r2,128
  801430:	10bfe004 	addi	r2,r2,-128
  801434:	1000081e 	bne	r2,zero,801458 <logic+0xcdc>
  801438:	e0bffc17 	ldw	r2,-16(fp)
  80143c:	10802943 	ldbu	r2,165(r2)
  801440:	10803fcc 	andi	r2,r2,255
  801444:	1080201c 	xori	r2,r2,128
  801448:	10bfe004 	addi	r2,r2,-128
  80144c:	1000021e 	bne	r2,zero,801458 <logic+0xcdc>
  801450:	00800044 	movi	r2,1
  801454:	00000106 	br	80145c <logic+0xce0>
  801458:	0005883a 	mov	r2,zero
  80145c:	1007883a 	mov	r3,r2
  801460:	e0bffc17 	ldw	r2,-16(fp)
  801464:	10c04605 	stb	r3,280(r2)
  d->_g96 = d->_g90 || d->_g96;
  801468:	e0bffc17 	ldw	r2,-16(fp)
  80146c:	10802943 	ldbu	r2,165(r2)
  801470:	10803fcc 	andi	r2,r2,255
  801474:	1080201c 	xori	r2,r2,128
  801478:	10bfe004 	addi	r2,r2,-128
  80147c:	1000061e 	bne	r2,zero,801498 <logic+0xd1c>
  801480:	e0bffc17 	ldw	r2,-16(fp)
  801484:	10802a83 	ldbu	r2,170(r2)
  801488:	10803fcc 	andi	r2,r2,255
  80148c:	1080201c 	xori	r2,r2,128
  801490:	10bfe004 	addi	r2,r2,-128
  801494:	10000226 	beq	r2,zero,8014a0 <logic+0xd24>
  801498:	00800044 	movi	r2,1
  80149c:	00000106 	br	8014a4 <logic+0xd28>
  8014a0:	0005883a 	mov	r2,zero
  8014a4:	1007883a 	mov	r3,r2
  8014a8:	e0bffc17 	ldw	r2,-16(fp)
  8014ac:	10c02a85 	stb	r3,170(r2)
  d->_cg91 = d->_region3_AEI_cAEI < d->AEI_Constraint;
  8014b0:	e0bffc17 	ldw	r2,-16(fp)
  8014b4:	14000d17 	ldw	r16,52(r2)
  8014b8:	14400e17 	ldw	r17,56(r2)
  8014bc:	e0bffc17 	ldw	r2,-16(fp)
  8014c0:	10800417 	ldw	r2,16(r2)
  8014c4:	1009883a 	mov	r4,r2
  8014c8:	0806b0c0 	call	806b0c <__floatsidf>
  8014cc:	1009883a 	mov	r4,r2
  8014d0:	180b883a 	mov	r5,r3
  8014d4:	04800044 	movi	r18,1
  8014d8:	200d883a 	mov	r6,r4
  8014dc:	280f883a 	mov	r7,r5
  8014e0:	8009883a 	mov	r4,r16
  8014e4:	880b883a 	mov	r5,r17
  8014e8:	080611c0 	call	80611c <__ledf2>
  8014ec:	10000116 	blt	r2,zero,8014f4 <logic+0xd78>
  8014f0:	0025883a 	mov	r18,zero
  8014f4:	9007883a 	mov	r3,r18
  8014f8:	e0bffc17 	ldw	r2,-16(fp)
  8014fc:	10c03dc5 	stb	r3,247(r2)
  d->_g90 = d->_g96 && d->_cg91;
  801500:	e0bffc17 	ldw	r2,-16(fp)
  801504:	10802a83 	ldbu	r2,170(r2)
  801508:	10803fcc 	andi	r2,r2,255
  80150c:	1080201c 	xori	r2,r2,128
  801510:	10bfe004 	addi	r2,r2,-128
  801514:	10000826 	beq	r2,zero,801538 <logic+0xdbc>
  801518:	e0bffc17 	ldw	r2,-16(fp)
  80151c:	10803dc3 	ldbu	r2,247(r2)
  801520:	10803fcc 	andi	r2,r2,255
  801524:	1080201c 	xori	r2,r2,128
  801528:	10bfe004 	addi	r2,r2,-128
  80152c:	10000226 	beq	r2,zero,801538 <logic+0xdbc>
  801530:	00800044 	movi	r2,1
  801534:	00000106 	br	80153c <logic+0xdc0>
  801538:	0005883a 	mov	r2,zero
  80153c:	1007883a 	mov	r3,r2
  801540:	e0bffc17 	ldw	r2,-16(fp)
  801544:	10c02945 	stb	r3,165(r2)
  if (d->_g90) {
  801548:	e0bffc17 	ldw	r2,-16(fp)
  80154c:	10802943 	ldbu	r2,165(r2)
  801550:	10803fcc 	andi	r2,r2,255
  801554:	1080201c 	xori	r2,r2,128
  801558:	10bfe004 	addi	r2,r2,-128
  80155c:	10003426 	beq	r2,zero,801630 <logic+0xeb4>
    d->sleepT = (d->sleepT < (d->AEI_Constraint - d->_region3_AEI_cAEI)) ? d->sleepT : (d->AEI_Constraint - d->_region3_AEI_cAEI);
  801560:	e0bffc17 	ldw	r2,-16(fp)
  801564:	14001517 	ldw	r16,84(r2)
  801568:	14401617 	ldw	r17,88(r2)
  80156c:	e0bffc17 	ldw	r2,-16(fp)
  801570:	10800417 	ldw	r2,16(r2)
  801574:	1009883a 	mov	r4,r2
  801578:	0806b0c0 	call	806b0c <__floatsidf>
  80157c:	1011883a 	mov	r8,r2
  801580:	1813883a 	mov	r9,r3
  801584:	e13ffc17 	ldw	r4,-16(fp)
  801588:	20800d17 	ldw	r2,52(r4)
  80158c:	20c00e17 	ldw	r3,56(r4)
  801590:	100d883a 	mov	r6,r2
  801594:	180f883a 	mov	r7,r3
  801598:	4009883a 	mov	r4,r8
  80159c:	480b883a 	mov	r5,r9
  8015a0:	08062100 	call	806210 <__subdf3>
  8015a4:	1009883a 	mov	r4,r2
  8015a8:	180b883a 	mov	r5,r3
  8015ac:	2005883a 	mov	r2,r4
  8015b0:	2807883a 	mov	r3,r5
  8015b4:	100d883a 	mov	r6,r2
  8015b8:	180f883a 	mov	r7,r3
  8015bc:	8009883a 	mov	r4,r16
  8015c0:	880b883a 	mov	r5,r17
  8015c4:	080611c0 	call	80611c <__ledf2>
  8015c8:	1000040e 	bge	r2,zero,8015dc <logic+0xe60>
  8015cc:	e13ffc17 	ldw	r4,-16(fp)
  8015d0:	20801517 	ldw	r2,84(r4)
  8015d4:	20c01617 	ldw	r3,88(r4)
  8015d8:	00001206 	br	801624 <logic+0xea8>
  8015dc:	e0bffc17 	ldw	r2,-16(fp)
  8015e0:	10800417 	ldw	r2,16(r2)
  8015e4:	1009883a 	mov	r4,r2
  8015e8:	0806b0c0 	call	806b0c <__floatsidf>
  8015ec:	1011883a 	mov	r8,r2
  8015f0:	1813883a 	mov	r9,r3
  8015f4:	e13ffc17 	ldw	r4,-16(fp)
  8015f8:	20800d17 	ldw	r2,52(r4)
  8015fc:	20c00e17 	ldw	r3,56(r4)
  801600:	100d883a 	mov	r6,r2
  801604:	180f883a 	mov	r7,r3
  801608:	4009883a 	mov	r4,r8
  80160c:	480b883a 	mov	r5,r9
  801610:	08062100 	call	806210 <__subdf3>
  801614:	1009883a 	mov	r4,r2
  801618:	180b883a 	mov	r5,r3
  80161c:	2005883a 	mov	r2,r4
  801620:	2807883a 	mov	r3,r5
  801624:	e13ffc17 	ldw	r4,-16(fp)
  801628:	20801515 	stw	r2,84(r4)
  80162c:	20c01615 	stw	r3,88(r4)
  }
  d->_cg92 = d->_Pacemaker_local__Atrig4 || d->_Pacemaker_local__Atrig5;
  801630:	e0bffc17 	ldw	r2,-16(fp)
  801634:	10801a03 	ldbu	r2,104(r2)
  801638:	10803fcc 	andi	r2,r2,255
  80163c:	1080201c 	xori	r2,r2,128
  801640:	10bfe004 	addi	r2,r2,-128
  801644:	1000061e 	bne	r2,zero,801660 <logic+0xee4>
  801648:	e0bffc17 	ldw	r2,-16(fp)
  80164c:	10801a43 	ldbu	r2,105(r2)
  801650:	10803fcc 	andi	r2,r2,255
  801654:	1080201c 	xori	r2,r2,128
  801658:	10bfe004 	addi	r2,r2,-128
  80165c:	10000226 	beq	r2,zero,801668 <logic+0xeec>
  801660:	00800044 	movi	r2,1
  801664:	00000106 	br	80166c <logic+0xef0>
  801668:	0005883a 	mov	r2,zero
  80166c:	1007883a 	mov	r3,r2
  801670:	e0bffc17 	ldw	r2,-16(fp)
  801674:	10c03d85 	stb	r3,246(r2)
  d->_g91 = d->_g96 && !d->_cg91;
  801678:	e0bffc17 	ldw	r2,-16(fp)
  80167c:	10802a83 	ldbu	r2,170(r2)
  801680:	10803fcc 	andi	r2,r2,255
  801684:	1080201c 	xori	r2,r2,128
  801688:	10bfe004 	addi	r2,r2,-128
  80168c:	10000826 	beq	r2,zero,8016b0 <logic+0xf34>
  801690:	e0bffc17 	ldw	r2,-16(fp)
  801694:	10803dc3 	ldbu	r2,247(r2)
  801698:	10803fcc 	andi	r2,r2,255
  80169c:	1080201c 	xori	r2,r2,128
  8016a0:	10bfe004 	addi	r2,r2,-128
  8016a4:	1000021e 	bne	r2,zero,8016b0 <logic+0xf34>
  8016a8:	00800044 	movi	r2,1
  8016ac:	00000106 	br	8016b4 <logic+0xf38>
  8016b0:	0005883a 	mov	r2,zero
  8016b4:	1007883a 	mov	r3,r2
  8016b8:	e0bffc17 	ldw	r2,-16(fp)
  8016bc:	10c02985 	stb	r3,166(r2)
  d->_cg94 = d->_Pacemaker_local__Atrig4 || d->_Pacemaker_local__Atrig5;
  8016c0:	e0bffc17 	ldw	r2,-16(fp)
  8016c4:	10801a03 	ldbu	r2,104(r2)
  8016c8:	10803fcc 	andi	r2,r2,255
  8016cc:	1080201c 	xori	r2,r2,128
  8016d0:	10bfe004 	addi	r2,r2,-128
  8016d4:	1000061e 	bne	r2,zero,8016f0 <logic+0xf74>
  8016d8:	e0bffc17 	ldw	r2,-16(fp)
  8016dc:	10801a43 	ldbu	r2,105(r2)
  8016e0:	10803fcc 	andi	r2,r2,255
  8016e4:	1080201c 	xori	r2,r2,128
  8016e8:	10bfe004 	addi	r2,r2,-128
  8016ec:	10000226 	beq	r2,zero,8016f8 <logic+0xf7c>
  8016f0:	00800044 	movi	r2,1
  8016f4:	00000106 	br	8016fc <logic+0xf80>
  8016f8:	0005883a 	mov	r2,zero
  8016fc:	1007883a 	mov	r3,r2
  801700:	e0bffc17 	ldw	r2,-16(fp)
  801704:	10c03e05 	stb	r3,248(r2)
  d->_g93 = d->_g90 && d->_cg92 || d->_g91 && d->_cg94;
  801708:	e0bffc17 	ldw	r2,-16(fp)
  80170c:	10802943 	ldbu	r2,165(r2)
  801710:	10803fcc 	andi	r2,r2,255
  801714:	1080201c 	xori	r2,r2,128
  801718:	10bfe004 	addi	r2,r2,-128
  80171c:	10000626 	beq	r2,zero,801738 <logic+0xfbc>
  801720:	e0bffc17 	ldw	r2,-16(fp)
  801724:	10803d83 	ldbu	r2,246(r2)
  801728:	10803fcc 	andi	r2,r2,255
  80172c:	1080201c 	xori	r2,r2,128
  801730:	10bfe004 	addi	r2,r2,-128
  801734:	10000c1e 	bne	r2,zero,801768 <logic+0xfec>
  801738:	e0bffc17 	ldw	r2,-16(fp)
  80173c:	10802983 	ldbu	r2,166(r2)
  801740:	10803fcc 	andi	r2,r2,255
  801744:	1080201c 	xori	r2,r2,128
  801748:	10bfe004 	addi	r2,r2,-128
  80174c:	10000826 	beq	r2,zero,801770 <logic+0xff4>
  801750:	e0bffc17 	ldw	r2,-16(fp)
  801754:	10803e03 	ldbu	r2,248(r2)
  801758:	10803fcc 	andi	r2,r2,255
  80175c:	1080201c 	xori	r2,r2,128
  801760:	10bfe004 	addi	r2,r2,-128
  801764:	10000226 	beq	r2,zero,801770 <logic+0xff4>
  801768:	00800044 	movi	r2,1
  80176c:	00000106 	br	801774 <logic+0xff8>
  801770:	0005883a 	mov	r2,zero
  801774:	1007883a 	mov	r3,r2
  801778:	e0bffc17 	ldw	r2,-16(fp)
  80177c:	10c02a05 	stb	r3,168(r2)
  d->_g100 = !d->_g25_e3;
  801780:	e0bffc17 	ldw	r2,-16(fp)
  801784:	10804403 	ldbu	r2,272(r2)
  801788:	10803fcc 	andi	r2,r2,255
  80178c:	1080201c 	xori	r2,r2,128
  801790:	10bfe004 	addi	r2,r2,-128
  801794:	1005003a 	cmpeq	r2,r2,zero
  801798:	1007883a 	mov	r3,r2
  80179c:	e0bffc17 	ldw	r2,-16(fp)
  8017a0:	10c02b05 	stb	r3,172(r2)
  d->_g101 = d->_g101 || d->_g104;
  8017a4:	e0bffc17 	ldw	r2,-16(fp)
  8017a8:	10802b43 	ldbu	r2,173(r2)
  8017ac:	10803fcc 	andi	r2,r2,255
  8017b0:	1080201c 	xori	r2,r2,128
  8017b4:	10bfe004 	addi	r2,r2,-128
  8017b8:	1000061e 	bne	r2,zero,8017d4 <logic+0x1058>
  8017bc:	e0bffc17 	ldw	r2,-16(fp)
  8017c0:	10802c03 	ldbu	r2,176(r2)
  8017c4:	10803fcc 	andi	r2,r2,255
  8017c8:	1080201c 	xori	r2,r2,128
  8017cc:	10bfe004 	addi	r2,r2,-128
  8017d0:	10000226 	beq	r2,zero,8017dc <logic+0x1060>
  8017d4:	00800044 	movi	r2,1
  8017d8:	00000106 	br	8017e0 <logic+0x1064>
  8017dc:	0005883a 	mov	r2,zero
  8017e0:	1007883a 	mov	r3,r2
  8017e4:	e0bffc17 	ldw	r2,-16(fp)
  8017e8:	10c02b45 	stb	r3,173(r2)
  d->_g104 = (d->_g9_e1 || d->_g86) && (d->_g93_e2 || d->_g93) && (d->_g100 || d->_g101) && (d->_g86 || d->_g93 || d->_g101);
  8017ec:	e0bffc17 	ldw	r2,-16(fp)
  8017f0:	10804383 	ldbu	r2,270(r2)
  8017f4:	10803fcc 	andi	r2,r2,255
  8017f8:	1080201c 	xori	r2,r2,128
  8017fc:	10bfe004 	addi	r2,r2,-128
  801800:	1000061e 	bne	r2,zero,80181c <logic+0x10a0>
  801804:	e0bffc17 	ldw	r2,-16(fp)
  801808:	108028c3 	ldbu	r2,163(r2)
  80180c:	10803fcc 	andi	r2,r2,255
  801810:	1080201c 	xori	r2,r2,128
  801814:	10bfe004 	addi	r2,r2,-128
  801818:	10002c26 	beq	r2,zero,8018cc <logic+0x1150>
  80181c:	e0bffc17 	ldw	r2,-16(fp)
  801820:	10804603 	ldbu	r2,280(r2)
  801824:	10803fcc 	andi	r2,r2,255
  801828:	1080201c 	xori	r2,r2,128
  80182c:	10bfe004 	addi	r2,r2,-128
  801830:	1000061e 	bne	r2,zero,80184c <logic+0x10d0>
  801834:	e0bffc17 	ldw	r2,-16(fp)
  801838:	10802a03 	ldbu	r2,168(r2)
  80183c:	10803fcc 	andi	r2,r2,255
  801840:	1080201c 	xori	r2,r2,128
  801844:	10bfe004 	addi	r2,r2,-128
  801848:	10002026 	beq	r2,zero,8018cc <logic+0x1150>
  80184c:	e0bffc17 	ldw	r2,-16(fp)
  801850:	10802b03 	ldbu	r2,172(r2)
  801854:	10803fcc 	andi	r2,r2,255
  801858:	1080201c 	xori	r2,r2,128
  80185c:	10bfe004 	addi	r2,r2,-128
  801860:	1000061e 	bne	r2,zero,80187c <logic+0x1100>
  801864:	e0bffc17 	ldw	r2,-16(fp)
  801868:	10802b43 	ldbu	r2,173(r2)
  80186c:	10803fcc 	andi	r2,r2,255
  801870:	1080201c 	xori	r2,r2,128
  801874:	10bfe004 	addi	r2,r2,-128
  801878:	10001426 	beq	r2,zero,8018cc <logic+0x1150>
  80187c:	e0bffc17 	ldw	r2,-16(fp)
  801880:	108028c3 	ldbu	r2,163(r2)
  801884:	10803fcc 	andi	r2,r2,255
  801888:	1080201c 	xori	r2,r2,128
  80188c:	10bfe004 	addi	r2,r2,-128
  801890:	10000c1e 	bne	r2,zero,8018c4 <logic+0x1148>
  801894:	e0bffc17 	ldw	r2,-16(fp)
  801898:	10802a03 	ldbu	r2,168(r2)
  80189c:	10803fcc 	andi	r2,r2,255
  8018a0:	1080201c 	xori	r2,r2,128
  8018a4:	10bfe004 	addi	r2,r2,-128
  8018a8:	1000061e 	bne	r2,zero,8018c4 <logic+0x1148>
  8018ac:	e0bffc17 	ldw	r2,-16(fp)
  8018b0:	10802b43 	ldbu	r2,173(r2)
  8018b4:	10803fcc 	andi	r2,r2,255
  8018b8:	1080201c 	xori	r2,r2,128
  8018bc:	10bfe004 	addi	r2,r2,-128
  8018c0:	10000226 	beq	r2,zero,8018cc <logic+0x1150>
  8018c4:	00800044 	movi	r2,1
  8018c8:	00000106 	br	8018d0 <logic+0x1154>
  8018cc:	0005883a 	mov	r2,zero
  8018d0:	1007883a 	mov	r3,r2
  8018d4:	e0bffc17 	ldw	r2,-16(fp)
  8018d8:	10c02c05 	stb	r3,176(r2)
  d->_cg105 = d->_Pacemaker_local__Atrig4;
  8018dc:	e0bffc17 	ldw	r2,-16(fp)
  8018e0:	10c01a03 	ldbu	r3,104(r2)
  8018e4:	e0bffc17 	ldw	r2,-16(fp)
  8018e8:	10c03c05 	stb	r3,240(r2)
  d->_g102 = d->_g104 && d->_cg105;
  8018ec:	e0bffc17 	ldw	r2,-16(fp)
  8018f0:	10802c03 	ldbu	r2,176(r2)
  8018f4:	10803fcc 	andi	r2,r2,255
  8018f8:	1080201c 	xori	r2,r2,128
  8018fc:	10bfe004 	addi	r2,r2,-128
  801900:	10000826 	beq	r2,zero,801924 <logic+0x11a8>
  801904:	e0bffc17 	ldw	r2,-16(fp)
  801908:	10803c03 	ldbu	r2,240(r2)
  80190c:	10803fcc 	andi	r2,r2,255
  801910:	1080201c 	xori	r2,r2,128
  801914:	10bfe004 	addi	r2,r2,-128
  801918:	10000226 	beq	r2,zero,801924 <logic+0x11a8>
  80191c:	00800044 	movi	r2,1
  801920:	00000106 	br	801928 <logic+0x11ac>
  801924:	0005883a 	mov	r2,zero
  801928:	1007883a 	mov	r3,r2
  80192c:	e0bffc17 	ldw	r2,-16(fp)
  801930:	10c02b85 	stb	r3,174(r2)
  if (d->_g102) {
  801934:	e0bffc17 	ldw	r2,-16(fp)
  801938:	10802b83 	ldbu	r2,174(r2)
  80193c:	10803fcc 	andi	r2,r2,255
  801940:	1080201c 	xori	r2,r2,128
  801944:	10bfe004 	addi	r2,r2,-128
  801948:	10000626 	beq	r2,zero,801964 <logic+0x11e8>
    d->AP |= 1;
  80194c:	e0bffc17 	ldw	r2,-16(fp)
  801950:	10801703 	ldbu	r2,92(r2)
  801954:	10800054 	ori	r2,r2,1
  801958:	1007883a 	mov	r3,r2
  80195c:	e0bffc17 	ldw	r2,-16(fp)
  801960:	10c01705 	stb	r3,92(r2)
  }
  d->_g102_e3 = d->_pg86;
  801964:	e0bffc17 	ldw	r2,-16(fp)
  801968:	10c04b43 	ldbu	r3,301(r2)
  80196c:	e0bffc17 	ldw	r2,-16(fp)
  801970:	10c04645 	stb	r3,281(r2)
  d->_cg4 = (d->AS || d->AP) && !d->PVARP;
  801974:	e0bffc17 	ldw	r2,-16(fp)
  801978:	10800003 	ldbu	r2,0(r2)
  80197c:	10803fcc 	andi	r2,r2,255
  801980:	1080201c 	xori	r2,r2,128
  801984:	10bfe004 	addi	r2,r2,-128
  801988:	1000061e 	bne	r2,zero,8019a4 <logic+0x1228>
  80198c:	e0bffc17 	ldw	r2,-16(fp)
  801990:	10801703 	ldbu	r2,92(r2)
  801994:	10803fcc 	andi	r2,r2,255
  801998:	1080201c 	xori	r2,r2,128
  80199c:	10bfe004 	addi	r2,r2,-128
  8019a0:	10000826 	beq	r2,zero,8019c4 <logic+0x1248>
  8019a4:	e0bffc17 	ldw	r2,-16(fp)
  8019a8:	108017c3 	ldbu	r2,95(r2)
  8019ac:	10803fcc 	andi	r2,r2,255
  8019b0:	1080201c 	xori	r2,r2,128
  8019b4:	10bfe004 	addi	r2,r2,-128
  8019b8:	1000021e 	bne	r2,zero,8019c4 <logic+0x1248>
  8019bc:	00800044 	movi	r2,1
  8019c0:	00000106 	br	8019c8 <logic+0x124c>
  8019c4:	0005883a 	mov	r2,zero
  8019c8:	1007883a 	mov	r3,r2
  8019cc:	e0bffc17 	ldw	r2,-16(fp)
  8019d0:	10c03645 	stb	r3,217(r2)
  d->_g86 = d->_GO || d->_g16_e2 || d->_g24 && !d->_cg28 || d->_g102_e3 && !d->_cg4;
  8019d4:	e0bffc17 	ldw	r2,-16(fp)
  8019d8:	108035c3 	ldbu	r2,215(r2)
  8019dc:	10803fcc 	andi	r2,r2,255
  8019e0:	1080201c 	xori	r2,r2,128
  8019e4:	10bfe004 	addi	r2,r2,-128
  8019e8:	10001e1e 	bne	r2,zero,801a64 <logic+0x12e8>
  8019ec:	e0bffc17 	ldw	r2,-16(fp)
  8019f0:	108043c3 	ldbu	r2,271(r2)
  8019f4:	10803fcc 	andi	r2,r2,255
  8019f8:	1080201c 	xori	r2,r2,128
  8019fc:	10bfe004 	addi	r2,r2,-128
  801a00:	1000181e 	bne	r2,zero,801a64 <logic+0x12e8>
  801a04:	e0bffc17 	ldw	r2,-16(fp)
  801a08:	10801e83 	ldbu	r2,122(r2)
  801a0c:	10803fcc 	andi	r2,r2,255
  801a10:	1080201c 	xori	r2,r2,128
  801a14:	10bfe004 	addi	r2,r2,-128
  801a18:	10000626 	beq	r2,zero,801a34 <logic+0x12b8>
  801a1c:	e0bffc17 	ldw	r2,-16(fp)
  801a20:	10803603 	ldbu	r2,216(r2)
  801a24:	10803fcc 	andi	r2,r2,255
  801a28:	1080201c 	xori	r2,r2,128
  801a2c:	10bfe004 	addi	r2,r2,-128
  801a30:	10000c26 	beq	r2,zero,801a64 <logic+0x12e8>
  801a34:	e0bffc17 	ldw	r2,-16(fp)
  801a38:	10804643 	ldbu	r2,281(r2)
  801a3c:	10803fcc 	andi	r2,r2,255
  801a40:	1080201c 	xori	r2,r2,128
  801a44:	10bfe004 	addi	r2,r2,-128
  801a48:	10000826 	beq	r2,zero,801a6c <logic+0x12f0>
  801a4c:	e0bffc17 	ldw	r2,-16(fp)
  801a50:	10803643 	ldbu	r2,217(r2)
  801a54:	10803fcc 	andi	r2,r2,255
  801a58:	1080201c 	xori	r2,r2,128
  801a5c:	10bfe004 	addi	r2,r2,-128
  801a60:	1000021e 	bne	r2,zero,801a6c <logic+0x12f0>
  801a64:	00800044 	movi	r2,1
  801a68:	00000106 	br	801a70 <logic+0x12f4>
  801a6c:	0005883a 	mov	r2,zero
  801a70:	1007883a 	mov	r3,r2
  801a74:	e0bffc17 	ldw	r2,-16(fp)
  801a78:	10c028c5 	stb	r3,163(r2)
  d->_g93_e2 = d->_g102_e3 && d->_cg4;
  801a7c:	e0bffc17 	ldw	r2,-16(fp)
  801a80:	10804643 	ldbu	r2,281(r2)
  801a84:	10803fcc 	andi	r2,r2,255
  801a88:	1080201c 	xori	r2,r2,128
  801a8c:	10bfe004 	addi	r2,r2,-128
  801a90:	10000826 	beq	r2,zero,801ab4 <logic+0x1338>
  801a94:	e0bffc17 	ldw	r2,-16(fp)
  801a98:	10803643 	ldbu	r2,217(r2)
  801a9c:	10803fcc 	andi	r2,r2,255
  801aa0:	1080201c 	xori	r2,r2,128
  801aa4:	10bfe004 	addi	r2,r2,-128
  801aa8:	10000226 	beq	r2,zero,801ab4 <logic+0x1338>
  801aac:	00800044 	movi	r2,1
  801ab0:	00000106 	br	801ab8 <logic+0x133c>
  801ab4:	0005883a 	mov	r2,zero
  801ab8:	1007883a 	mov	r3,r2
  801abc:	e0bffc17 	ldw	r2,-16(fp)
  801ac0:	10c04605 	stb	r3,280(r2)
  if (d->_g93_e2) {
  801ac4:	e0bffc17 	ldw	r2,-16(fp)
  801ac8:	10804603 	ldbu	r2,280(r2)
  801acc:	10803fcc 	andi	r2,r2,255
  801ad0:	1080201c 	xori	r2,r2,128
  801ad4:	10bfe004 	addi	r2,r2,-128
  801ad8:	10000726 	beq	r2,zero,801af8 <logic+0x137c>
    d->_region0_AVI_cAVI = 0;
  801adc:	e0bffc17 	ldw	r2,-16(fp)
  801ae0:	10000715 	stw	zero,28(r2)
  801ae4:	10000815 	stw	zero,32(r2)
    d->_Pacemaker_local__Atrig = 0;
  801ae8:	e0bffc17 	ldw	r2,-16(fp)
  801aec:	10001905 	stb	zero,100(r2)
    d->_Pacemaker_local__Atrig1 = 0;
  801af0:	e0bffc17 	ldw	r2,-16(fp)
  801af4:	10001945 	stb	zero,101(r2)
  }
  d->_cg6 = d->_Pacemaker_local__Atrig || d->_Pacemaker_local__Atrig1;
  801af8:	e0bffc17 	ldw	r2,-16(fp)
  801afc:	10801903 	ldbu	r2,100(r2)
  801b00:	10803fcc 	andi	r2,r2,255
  801b04:	1080201c 	xori	r2,r2,128
  801b08:	10bfe004 	addi	r2,r2,-128
  801b0c:	1000061e 	bne	r2,zero,801b28 <logic+0x13ac>
  801b10:	e0bffc17 	ldw	r2,-16(fp)
  801b14:	10801943 	ldbu	r2,101(r2)
  801b18:	10803fcc 	andi	r2,r2,255
  801b1c:	1080201c 	xori	r2,r2,128
  801b20:	10bfe004 	addi	r2,r2,-128
  801b24:	10000226 	beq	r2,zero,801b30 <logic+0x13b4>
  801b28:	00800044 	movi	r2,1
  801b2c:	00000106 	br	801b34 <logic+0x13b8>
  801b30:	0005883a 	mov	r2,zero
  801b34:	1007883a 	mov	r3,r2
  801b38:	e0bffc17 	ldw	r2,-16(fp)
  801b3c:	10c03685 	stb	r3,218(r2)
  d->_g93 = d->_g93_e2 && !d->_cg6 || d->_g8 && !d->_cg8;
  801b40:	e0bffc17 	ldw	r2,-16(fp)
  801b44:	10804603 	ldbu	r2,280(r2)
  801b48:	10803fcc 	andi	r2,r2,255
  801b4c:	1080201c 	xori	r2,r2,128
  801b50:	10bfe004 	addi	r2,r2,-128
  801b54:	10000626 	beq	r2,zero,801b70 <logic+0x13f4>
  801b58:	e0bffc17 	ldw	r2,-16(fp)
  801b5c:	10803683 	ldbu	r2,218(r2)
  801b60:	10803fcc 	andi	r2,r2,255
  801b64:	1080201c 	xori	r2,r2,128
  801b68:	10bfe004 	addi	r2,r2,-128
  801b6c:	10000c26 	beq	r2,zero,801ba0 <logic+0x1424>
  801b70:	e0bffc17 	ldw	r2,-16(fp)
  801b74:	10801bc3 	ldbu	r2,111(r2)
  801b78:	10803fcc 	andi	r2,r2,255
  801b7c:	1080201c 	xori	r2,r2,128
  801b80:	10bfe004 	addi	r2,r2,-128
  801b84:	10000826 	beq	r2,zero,801ba8 <logic+0x142c>
  801b88:	e0bffc17 	ldw	r2,-16(fp)
  801b8c:	108036c3 	ldbu	r2,219(r2)
  801b90:	10803fcc 	andi	r2,r2,255
  801b94:	1080201c 	xori	r2,r2,128
  801b98:	10bfe004 	addi	r2,r2,-128
  801b9c:	1000021e 	bne	r2,zero,801ba8 <logic+0x142c>
  801ba0:	00800044 	movi	r2,1
  801ba4:	00000106 	br	801bac <logic+0x1430>
  801ba8:	0005883a 	mov	r2,zero
  801bac:	1007883a 	mov	r3,r2
  801bb0:	e0bffc17 	ldw	r2,-16(fp)
  801bb4:	10c02a05 	stb	r3,168(r2)
  d->_cg10 = d->_region0_AVI_cAVI < d->AVI_Constraint;
  801bb8:	e0bffc17 	ldw	r2,-16(fp)
  801bbc:	14000717 	ldw	r16,28(r2)
  801bc0:	14400817 	ldw	r17,32(r2)
  801bc4:	e0bffc17 	ldw	r2,-16(fp)
  801bc8:	10800117 	ldw	r2,4(r2)
  801bcc:	1009883a 	mov	r4,r2
  801bd0:	0806b0c0 	call	806b0c <__floatsidf>
  801bd4:	1009883a 	mov	r4,r2
  801bd8:	180b883a 	mov	r5,r3
  801bdc:	04800044 	movi	r18,1
  801be0:	200d883a 	mov	r6,r4
  801be4:	280f883a 	mov	r7,r5
  801be8:	8009883a 	mov	r4,r16
  801bec:	880b883a 	mov	r5,r17
  801bf0:	080611c0 	call	80611c <__ledf2>
  801bf4:	10000116 	blt	r2,zero,801bfc <logic+0x1480>
  801bf8:	0025883a 	mov	r18,zero
  801bfc:	9007883a 	mov	r3,r18
  801c00:	e0bffc17 	ldw	r2,-16(fp)
  801c04:	10c03705 	stb	r3,220(r2)
  d->_g86_e1 = d->_g93_e2 && d->_cg10;
  801c08:	e0bffc17 	ldw	r2,-16(fp)
  801c0c:	10804603 	ldbu	r2,280(r2)
  801c10:	10803fcc 	andi	r2,r2,255
  801c14:	1080201c 	xori	r2,r2,128
  801c18:	10bfe004 	addi	r2,r2,-128
  801c1c:	10000826 	beq	r2,zero,801c40 <logic+0x14c4>
  801c20:	e0bffc17 	ldw	r2,-16(fp)
  801c24:	10803703 	ldbu	r2,220(r2)
  801c28:	10803fcc 	andi	r2,r2,255
  801c2c:	1080201c 	xori	r2,r2,128
  801c30:	10bfe004 	addi	r2,r2,-128
  801c34:	10000226 	beq	r2,zero,801c40 <logic+0x14c4>
  801c38:	00800044 	movi	r2,1
  801c3c:	00000106 	br	801c44 <logic+0x14c8>
  801c40:	0005883a 	mov	r2,zero
  801c44:	1007883a 	mov	r3,r2
  801c48:	e0bffc17 	ldw	r2,-16(fp)
  801c4c:	10c045c5 	stb	r3,279(r2)
  if (d->_g86_e1) {
  801c50:	e0bffc17 	ldw	r2,-16(fp)
  801c54:	108045c3 	ldbu	r2,279(r2)
  801c58:	10803fcc 	andi	r2,r2,255
  801c5c:	1080201c 	xori	r2,r2,128
  801c60:	10bfe004 	addi	r2,r2,-128
  801c64:	10003426 	beq	r2,zero,801d38 <logic+0x15bc>
    d->sleepT = (d->sleepT < (d->AVI_Constraint - d->_region0_AVI_cAVI)) ? d->sleepT : (d->AVI_Constraint - d->_region0_AVI_cAVI);
  801c68:	e0bffc17 	ldw	r2,-16(fp)
  801c6c:	14001517 	ldw	r16,84(r2)
  801c70:	14401617 	ldw	r17,88(r2)
  801c74:	e0bffc17 	ldw	r2,-16(fp)
  801c78:	10800117 	ldw	r2,4(r2)
  801c7c:	1009883a 	mov	r4,r2
  801c80:	0806b0c0 	call	806b0c <__floatsidf>
  801c84:	1011883a 	mov	r8,r2
  801c88:	1813883a 	mov	r9,r3
  801c8c:	e13ffc17 	ldw	r4,-16(fp)
  801c90:	20800717 	ldw	r2,28(r4)
  801c94:	20c00817 	ldw	r3,32(r4)
  801c98:	100d883a 	mov	r6,r2
  801c9c:	180f883a 	mov	r7,r3
  801ca0:	4009883a 	mov	r4,r8
  801ca4:	480b883a 	mov	r5,r9
  801ca8:	08062100 	call	806210 <__subdf3>
  801cac:	1009883a 	mov	r4,r2
  801cb0:	180b883a 	mov	r5,r3
  801cb4:	2005883a 	mov	r2,r4
  801cb8:	2807883a 	mov	r3,r5
  801cbc:	100d883a 	mov	r6,r2
  801cc0:	180f883a 	mov	r7,r3
  801cc4:	8009883a 	mov	r4,r16
  801cc8:	880b883a 	mov	r5,r17
  801ccc:	080611c0 	call	80611c <__ledf2>
  801cd0:	1000040e 	bge	r2,zero,801ce4 <logic+0x1568>
  801cd4:	e13ffc17 	ldw	r4,-16(fp)
  801cd8:	20801517 	ldw	r2,84(r4)
  801cdc:	20c01617 	ldw	r3,88(r4)
  801ce0:	00001206 	br	801d2c <logic+0x15b0>
  801ce4:	e0bffc17 	ldw	r2,-16(fp)
  801ce8:	10800117 	ldw	r2,4(r2)
  801cec:	1009883a 	mov	r4,r2
  801cf0:	0806b0c0 	call	806b0c <__floatsidf>
  801cf4:	1011883a 	mov	r8,r2
  801cf8:	1813883a 	mov	r9,r3
  801cfc:	e13ffc17 	ldw	r4,-16(fp)
  801d00:	20800717 	ldw	r2,28(r4)
  801d04:	20c00817 	ldw	r3,32(r4)
  801d08:	100d883a 	mov	r6,r2
  801d0c:	180f883a 	mov	r7,r3
  801d10:	4009883a 	mov	r4,r8
  801d14:	480b883a 	mov	r5,r9
  801d18:	08062100 	call	806210 <__subdf3>
  801d1c:	1009883a 	mov	r4,r2
  801d20:	180b883a 	mov	r5,r3
  801d24:	2005883a 	mov	r2,r4
  801d28:	2807883a 	mov	r3,r5
  801d2c:	e13ffc17 	ldw	r4,-16(fp)
  801d30:	20801515 	stw	r2,84(r4)
  801d34:	20c01615 	stw	r3,88(r4)
  }
  d->_cg11 = d->_Pacemaker_local__Atrig || d->_Pacemaker_local__Atrig1;
  801d38:	e0bffc17 	ldw	r2,-16(fp)
  801d3c:	10801903 	ldbu	r2,100(r2)
  801d40:	10803fcc 	andi	r2,r2,255
  801d44:	1080201c 	xori	r2,r2,128
  801d48:	10bfe004 	addi	r2,r2,-128
  801d4c:	1000061e 	bne	r2,zero,801d68 <logic+0x15ec>
  801d50:	e0bffc17 	ldw	r2,-16(fp)
  801d54:	10801943 	ldbu	r2,101(r2)
  801d58:	10803fcc 	andi	r2,r2,255
  801d5c:	1080201c 	xori	r2,r2,128
  801d60:	10bfe004 	addi	r2,r2,-128
  801d64:	10000226 	beq	r2,zero,801d70 <logic+0x15f4>
  801d68:	00800044 	movi	r2,1
  801d6c:	00000106 	br	801d74 <logic+0x15f8>
  801d70:	0005883a 	mov	r2,zero
  801d74:	1007883a 	mov	r3,r2
  801d78:	e0bffc17 	ldw	r2,-16(fp)
  801d7c:	10c03745 	stb	r3,221(r2)
  d->_g28 = d->_g86_e1 && !d->_cg11 || d->_g13 && !d->_cg15;
  801d80:	e0bffc17 	ldw	r2,-16(fp)
  801d84:	108045c3 	ldbu	r2,279(r2)
  801d88:	10803fcc 	andi	r2,r2,255
  801d8c:	1080201c 	xori	r2,r2,128
  801d90:	10bfe004 	addi	r2,r2,-128
  801d94:	10000626 	beq	r2,zero,801db0 <logic+0x1634>
  801d98:	e0bffc17 	ldw	r2,-16(fp)
  801d9c:	10803743 	ldbu	r2,221(r2)
  801da0:	10803fcc 	andi	r2,r2,255
  801da4:	1080201c 	xori	r2,r2,128
  801da8:	10bfe004 	addi	r2,r2,-128
  801dac:	10000c26 	beq	r2,zero,801de0 <logic+0x1664>
  801db0:	e0bffc17 	ldw	r2,-16(fp)
  801db4:	10801c83 	ldbu	r2,114(r2)
  801db8:	10803fcc 	andi	r2,r2,255
  801dbc:	1080201c 	xori	r2,r2,128
  801dc0:	10bfe004 	addi	r2,r2,-128
  801dc4:	10000826 	beq	r2,zero,801de8 <logic+0x166c>
  801dc8:	e0bffc17 	ldw	r2,-16(fp)
  801dcc:	10803783 	ldbu	r2,222(r2)
  801dd0:	10803fcc 	andi	r2,r2,255
  801dd4:	1080201c 	xori	r2,r2,128
  801dd8:	10bfe004 	addi	r2,r2,-128
  801ddc:	1000021e 	bne	r2,zero,801de8 <logic+0x166c>
  801de0:	00800044 	movi	r2,1
  801de4:	00000106 	br	801dec <logic+0x1670>
  801de8:	0005883a 	mov	r2,zero
  801dec:	1007883a 	mov	r3,r2
  801df0:	e0bffc17 	ldw	r2,-16(fp)
  801df4:	10c01f85 	stb	r3,126(r2)
  d->_g29 = d->_g93_e2 && !d->_cg10;
  801df8:	e0bffc17 	ldw	r2,-16(fp)
  801dfc:	10804603 	ldbu	r2,280(r2)
  801e00:	10803fcc 	andi	r2,r2,255
  801e04:	1080201c 	xori	r2,r2,128
  801e08:	10bfe004 	addi	r2,r2,-128
  801e0c:	10000826 	beq	r2,zero,801e30 <logic+0x16b4>
  801e10:	e0bffc17 	ldw	r2,-16(fp)
  801e14:	10803703 	ldbu	r2,220(r2)
  801e18:	10803fcc 	andi	r2,r2,255
  801e1c:	1080201c 	xori	r2,r2,128
  801e20:	10bfe004 	addi	r2,r2,-128
  801e24:	1000021e 	bne	r2,zero,801e30 <logic+0x16b4>
  801e28:	00800044 	movi	r2,1
  801e2c:	00000106 	br	801e34 <logic+0x16b8>
  801e30:	0005883a 	mov	r2,zero
  801e34:	1007883a 	mov	r3,r2
  801e38:	e0bffc17 	ldw	r2,-16(fp)
  801e3c:	10c01fc5 	stb	r3,127(r2)
  d->_cg20 = d->_Pacemaker_local__Atrig || d->_Pacemaker_local__Atrig1;
  801e40:	e0bffc17 	ldw	r2,-16(fp)
  801e44:	10801903 	ldbu	r2,100(r2)
  801e48:	10803fcc 	andi	r2,r2,255
  801e4c:	1080201c 	xori	r2,r2,128
  801e50:	10bfe004 	addi	r2,r2,-128
  801e54:	1000061e 	bne	r2,zero,801e70 <logic+0x16f4>
  801e58:	e0bffc17 	ldw	r2,-16(fp)
  801e5c:	10801943 	ldbu	r2,101(r2)
  801e60:	10803fcc 	andi	r2,r2,255
  801e64:	1080201c 	xori	r2,r2,128
  801e68:	10bfe004 	addi	r2,r2,-128
  801e6c:	10000226 	beq	r2,zero,801e78 <logic+0x16fc>
  801e70:	00800044 	movi	r2,1
  801e74:	00000106 	br	801e7c <logic+0x1700>
  801e78:	0005883a 	mov	r2,zero
  801e7c:	1007883a 	mov	r3,r2
  801e80:	e0bffc17 	ldw	r2,-16(fp)
  801e84:	10c03845 	stb	r3,225(r2)
  d->_g4 = d->_g14 && !d->_cg17 || d->_g29 && !d->_cg20;
  801e88:	e0bffc17 	ldw	r2,-16(fp)
  801e8c:	10801cc3 	ldbu	r2,115(r2)
  801e90:	10803fcc 	andi	r2,r2,255
  801e94:	1080201c 	xori	r2,r2,128
  801e98:	10bfe004 	addi	r2,r2,-128
  801e9c:	10000626 	beq	r2,zero,801eb8 <logic+0x173c>
  801ea0:	e0bffc17 	ldw	r2,-16(fp)
  801ea4:	10803803 	ldbu	r2,224(r2)
  801ea8:	10803fcc 	andi	r2,r2,255
  801eac:	1080201c 	xori	r2,r2,128
  801eb0:	10bfe004 	addi	r2,r2,-128
  801eb4:	10000c26 	beq	r2,zero,801ee8 <logic+0x176c>
  801eb8:	e0bffc17 	ldw	r2,-16(fp)
  801ebc:	10801fc3 	ldbu	r2,127(r2)
  801ec0:	10803fcc 	andi	r2,r2,255
  801ec4:	1080201c 	xori	r2,r2,128
  801ec8:	10bfe004 	addi	r2,r2,-128
  801ecc:	10000826 	beq	r2,zero,801ef0 <logic+0x1774>
  801ed0:	e0bffc17 	ldw	r2,-16(fp)
  801ed4:	10803843 	ldbu	r2,225(r2)
  801ed8:	10803fcc 	andi	r2,r2,255
  801edc:	1080201c 	xori	r2,r2,128
  801ee0:	10bfe004 	addi	r2,r2,-128
  801ee4:	1000021e 	bne	r2,zero,801ef0 <logic+0x1774>
  801ee8:	00800044 	movi	r2,1
  801eec:	00000106 	br	801ef4 <logic+0x1778>
  801ef0:	0005883a 	mov	r2,zero
  801ef4:	1007883a 	mov	r3,r2
  801ef8:	e0bffc17 	ldw	r2,-16(fp)
  801efc:	10c01b45 	stb	r3,109(r2)
  d->_g8 = d->_g93_e2 || d->_g26 && !d->VS;
  801f00:	e0bffc17 	ldw	r2,-16(fp)
  801f04:	10804603 	ldbu	r2,280(r2)
  801f08:	10803fcc 	andi	r2,r2,255
  801f0c:	1080201c 	xori	r2,r2,128
  801f10:	10bfe004 	addi	r2,r2,-128
  801f14:	10000c1e 	bne	r2,zero,801f48 <logic+0x17cc>
  801f18:	e0bffc17 	ldw	r2,-16(fp)
  801f1c:	10801f03 	ldbu	r2,124(r2)
  801f20:	10803fcc 	andi	r2,r2,255
  801f24:	1080201c 	xori	r2,r2,128
  801f28:	10bfe004 	addi	r2,r2,-128
  801f2c:	10000826 	beq	r2,zero,801f50 <logic+0x17d4>
  801f30:	e0bffc17 	ldw	r2,-16(fp)
  801f34:	10800043 	ldbu	r2,1(r2)
  801f38:	10803fcc 	andi	r2,r2,255
  801f3c:	1080201c 	xori	r2,r2,128
  801f40:	10bfe004 	addi	r2,r2,-128
  801f44:	1000021e 	bne	r2,zero,801f50 <logic+0x17d4>
  801f48:	00800044 	movi	r2,1
  801f4c:	00000106 	br	801f54 <logic+0x17d8>
  801f50:	0005883a 	mov	r2,zero
  801f54:	1007883a 	mov	r3,r2
  801f58:	e0bffc17 	ldw	r2,-16(fp)
  801f5c:	10c01bc5 	stb	r3,111(r2)
  d->_g15 = d->_pg149;
  801f60:	e0bffc17 	ldw	r2,-16(fp)
  801f64:	10c04b83 	ldbu	r3,302(r2)
  801f68:	e0bffc17 	ldw	r2,-16(fp)
  801f6c:	10c01d05 	stb	r3,116(r2)
  if (d->_g15) {
  801f70:	e0bffc17 	ldw	r2,-16(fp)
  801f74:	10801d03 	ldbu	r2,116(r2)
  801f78:	10803fcc 	andi	r2,r2,255
  801f7c:	1080201c 	xori	r2,r2,128
  801f80:	10bfe004 	addi	r2,r2,-128
  801f84:	10001226 	beq	r2,zero,801fd0 <logic+0x1854>
    d->_region1_PVARP_cPVARP += d->deltaT;
  801f88:	e13ffc17 	ldw	r4,-16(fp)
  801f8c:	20800917 	ldw	r2,36(r4)
  801f90:	20c00a17 	ldw	r3,40(r4)
  801f94:	e1bffc17 	ldw	r6,-16(fp)
  801f98:	31001317 	ldw	r4,76(r6)
  801f9c:	31401417 	ldw	r5,80(r6)
  801fa0:	200d883a 	mov	r6,r4
  801fa4:	280f883a 	mov	r7,r5
  801fa8:	1009883a 	mov	r4,r2
  801fac:	180b883a 	mov	r5,r3
  801fb0:	08057940 	call	805794 <__adddf3>
  801fb4:	1009883a 	mov	r4,r2
  801fb8:	180b883a 	mov	r5,r3
  801fbc:	2005883a 	mov	r2,r4
  801fc0:	2807883a 	mov	r3,r5
  801fc4:	e13ffc17 	ldw	r4,-16(fp)
  801fc8:	20800915 	stw	r2,36(r4)
  801fcc:	20c00a15 	stw	r3,40(r4)
  }
  d->_g11 = d->_pg42;
  801fd0:	e0bffc17 	ldw	r2,-16(fp)
  801fd4:	10c04bc3 	ldbu	r3,303(r2)
  801fd8:	e0bffc17 	ldw	r2,-16(fp)
  801fdc:	10c01c45 	stb	r3,113(r2)
  d->_cg51 = d->_region1_PVARP_cPVARP >= d->PVARP_Constraint;
  801fe0:	e0bffc17 	ldw	r2,-16(fp)
  801fe4:	14000917 	ldw	r16,36(r2)
  801fe8:	14400a17 	ldw	r17,40(r2)
  801fec:	e0bffc17 	ldw	r2,-16(fp)
  801ff0:	10800217 	ldw	r2,8(r2)
  801ff4:	1009883a 	mov	r4,r2
  801ff8:	0806b0c0 	call	806b0c <__floatsidf>
  801ffc:	1009883a 	mov	r4,r2
  802000:	180b883a 	mov	r5,r3
  802004:	04800044 	movi	r18,1
  802008:	200d883a 	mov	r6,r4
  80200c:	280f883a 	mov	r7,r5
  802010:	8009883a 	mov	r4,r16
  802014:	880b883a 	mov	r5,r17
  802018:	08060400 	call	806040 <__gedf2>
  80201c:	1000010e 	bge	r2,zero,802024 <logic+0x18a8>
  802020:	0025883a 	mov	r18,zero
  802024:	9007883a 	mov	r3,r18
  802028:	e0bffc17 	ldw	r2,-16(fp)
  80202c:	10c03a45 	stb	r3,233(r2)
  d->_g20 = d->_g11 && d->_cg51;
  802030:	e0bffc17 	ldw	r2,-16(fp)
  802034:	10801c43 	ldbu	r2,113(r2)
  802038:	10803fcc 	andi	r2,r2,255
  80203c:	1080201c 	xori	r2,r2,128
  802040:	10bfe004 	addi	r2,r2,-128
  802044:	10000826 	beq	r2,zero,802068 <logic+0x18ec>
  802048:	e0bffc17 	ldw	r2,-16(fp)
  80204c:	10803a43 	ldbu	r2,233(r2)
  802050:	10803fcc 	andi	r2,r2,255
  802054:	1080201c 	xori	r2,r2,128
  802058:	10bfe004 	addi	r2,r2,-128
  80205c:	10000226 	beq	r2,zero,802068 <logic+0x18ec>
  802060:	00800044 	movi	r2,1
  802064:	00000106 	br	80206c <logic+0x18f0>
  802068:	0005883a 	mov	r2,zero
  80206c:	1007883a 	mov	r3,r2
  802070:	e0bffc17 	ldw	r2,-16(fp)
  802074:	10c01e05 	stb	r3,120(r2)
  if (d->_g20) {
  802078:	e0bffc17 	ldw	r2,-16(fp)
  80207c:	10801e03 	ldbu	r2,120(r2)
  802080:	10803fcc 	andi	r2,r2,255
  802084:	1080201c 	xori	r2,r2,128
  802088:	10bfe004 	addi	r2,r2,-128
  80208c:	10000326 	beq	r2,zero,80209c <logic+0x1920>
    d->_Pacemaker_local__Atrig2 = 1;
  802090:	e0bffc17 	ldw	r2,-16(fp)
  802094:	00c00044 	movi	r3,1
  802098:	10c01985 	stb	r3,102(r2)
  }
  d->_g17 = d->_pg92;
  80209c:	e0bffc17 	ldw	r2,-16(fp)
  8020a0:	10c04c03 	ldbu	r3,304(r2)
  8020a4:	e0bffc17 	ldw	r2,-16(fp)
  8020a8:	10c01d85 	stb	r3,118(r2)
  d->_g26 = !d->_g17;
  8020ac:	e0bffc17 	ldw	r2,-16(fp)
  8020b0:	10801d83 	ldbu	r2,118(r2)
  8020b4:	10803fcc 	andi	r2,r2,255
  8020b8:	1080201c 	xori	r2,r2,128
  8020bc:	10bfe004 	addi	r2,r2,-128
  8020c0:	1005003a 	cmpeq	r2,r2,zero
  8020c4:	1007883a 	mov	r3,r2
  8020c8:	e0bffc17 	ldw	r2,-16(fp)
  8020cc:	10c01f05 	stb	r3,124(r2)
  if (d->_g17) {
  8020d0:	e0bffc17 	ldw	r2,-16(fp)
  8020d4:	10801d83 	ldbu	r2,118(r2)
  8020d8:	10803fcc 	andi	r2,r2,255
  8020dc:	1080201c 	xori	r2,r2,128
  8020e0:	10bfe004 	addi	r2,r2,-128
  8020e4:	10000626 	beq	r2,zero,802100 <logic+0x1984>
    d->LRI |= 1;
  8020e8:	e0bffc17 	ldw	r2,-16(fp)
  8020ec:	10801883 	ldbu	r2,98(r2)
  8020f0:	10800054 	ori	r2,r2,1
  8020f4:	1007883a 	mov	r3,r2
  8020f8:	e0bffc17 	ldw	r2,-16(fp)
  8020fc:	10c01885 	stb	r3,98(r2)
  }
  d->_g5 = d->_pg53;
  802100:	e0bffc17 	ldw	r2,-16(fp)
  802104:	10c04c43 	ldbu	r3,305(r2)
  802108:	e0bffc17 	ldw	r2,-16(fp)
  80210c:	10c01b85 	stb	r3,110(r2)
  if (d->_g5) {
  802110:	e0bffc17 	ldw	r2,-16(fp)
  802114:	10801b83 	ldbu	r2,110(r2)
  802118:	10803fcc 	andi	r2,r2,255
  80211c:	1080201c 	xori	r2,r2,128
  802120:	10bfe004 	addi	r2,r2,-128
  802124:	10000626 	beq	r2,zero,802140 <logic+0x19c4>
    d->VRP |= 1;
  802128:	e0bffc17 	ldw	r2,-16(fp)
  80212c:	10801803 	ldbu	r2,96(r2)
  802130:	10800054 	ori	r2,r2,1
  802134:	1007883a 	mov	r3,r2
  802138:	e0bffc17 	ldw	r2,-16(fp)
  80213c:	10c01805 	stb	r3,96(r2)
  }
  d->_g129 = d->_pg134;
  802140:	e0bffc17 	ldw	r2,-16(fp)
  802144:	10c04c83 	ldbu	r3,306(r2)
  802148:	e0bffc17 	ldw	r2,-16(fp)
  80214c:	10c02fc5 	stb	r3,191(r2)
  d->_cg129 = (d->VS || d->VP) && !d->VRP;
  802150:	e0bffc17 	ldw	r2,-16(fp)
  802154:	10800043 	ldbu	r2,1(r2)
  802158:	10803fcc 	andi	r2,r2,255
  80215c:	1080201c 	xori	r2,r2,128
  802160:	10bfe004 	addi	r2,r2,-128
  802164:	1000061e 	bne	r2,zero,802180 <logic+0x1a04>
  802168:	e0bffc17 	ldw	r2,-16(fp)
  80216c:	10801743 	ldbu	r2,93(r2)
  802170:	10803fcc 	andi	r2,r2,255
  802174:	1080201c 	xori	r2,r2,128
  802178:	10bfe004 	addi	r2,r2,-128
  80217c:	10000826 	beq	r2,zero,8021a0 <logic+0x1a24>
  802180:	e0bffc17 	ldw	r2,-16(fp)
  802184:	10801803 	ldbu	r2,96(r2)
  802188:	10803fcc 	andi	r2,r2,255
  80218c:	1080201c 	xori	r2,r2,128
  802190:	10bfe004 	addi	r2,r2,-128
  802194:	1000021e 	bne	r2,zero,8021a0 <logic+0x1a24>
  802198:	00800044 	movi	r2,1
  80219c:	00000106 	br	8021a4 <logic+0x1a28>
  8021a0:	0005883a 	mov	r2,zero
  8021a4:	1007883a 	mov	r3,r2
  8021a8:	e0bffc17 	ldw	r2,-16(fp)
  8021ac:	10c041c5 	stb	r3,263(r2)
  d->_g130 = d->_g129 && d->_cg129;
  8021b0:	e0bffc17 	ldw	r2,-16(fp)
  8021b4:	10802fc3 	ldbu	r2,191(r2)
  8021b8:	10803fcc 	andi	r2,r2,255
  8021bc:	1080201c 	xori	r2,r2,128
  8021c0:	10bfe004 	addi	r2,r2,-128
  8021c4:	10000826 	beq	r2,zero,8021e8 <logic+0x1a6c>
  8021c8:	e0bffc17 	ldw	r2,-16(fp)
  8021cc:	108041c3 	ldbu	r2,263(r2)
  8021d0:	10803fcc 	andi	r2,r2,255
  8021d4:	1080201c 	xori	r2,r2,128
  8021d8:	10bfe004 	addi	r2,r2,-128
  8021dc:	10000226 	beq	r2,zero,8021e8 <logic+0x1a6c>
  8021e0:	00800044 	movi	r2,1
  8021e4:	00000106 	br	8021ec <logic+0x1a70>
  8021e8:	0005883a 	mov	r2,zero
  8021ec:	1007883a 	mov	r3,r2
  8021f0:	e0bffc17 	ldw	r2,-16(fp)
  8021f4:	10c03005 	stb	r3,192(r2)
  if (d->_g130) {
  8021f8:	e0bffc17 	ldw	r2,-16(fp)
  8021fc:	10803003 	ldbu	r2,192(r2)
  802200:	10803fcc 	andi	r2,r2,255
  802204:	1080201c 	xori	r2,r2,128
  802208:	10bfe004 	addi	r2,r2,-128
  80220c:	10000326 	beq	r2,zero,80221c <logic+0x1aa0>
    d->_Pacemaker_local__Atrig6 = 1;
  802210:	e0bffc17 	ldw	r2,-16(fp)
  802214:	00c00044 	movi	r3,1
  802218:	10c01a85 	stb	r3,106(r2)
  }
  d->_g183 = d->_pg143_e1;
  80221c:	e0bffc17 	ldw	r2,-16(fp)
  802220:	10c04cc3 	ldbu	r3,307(r2)
  802224:	e0bffc17 	ldw	r2,-16(fp)
  802228:	10c03585 	stb	r3,214(r2)
  if (d->_g183) {
  80222c:	e0bffc17 	ldw	r2,-16(fp)
  802230:	10803583 	ldbu	r2,214(r2)
  802234:	10803fcc 	andi	r2,r2,255
  802238:	1080201c 	xori	r2,r2,128
  80223c:	10bfe004 	addi	r2,r2,-128
  802240:	10001226 	beq	r2,zero,80228c <logic+0x1b10>
    d->_region4_LRI_cLRI += d->deltaT;
  802244:	e13ffc17 	ldw	r4,-16(fp)
  802248:	20800f17 	ldw	r2,60(r4)
  80224c:	20c01017 	ldw	r3,64(r4)
  802250:	e1bffc17 	ldw	r6,-16(fp)
  802254:	31001317 	ldw	r4,76(r6)
  802258:	31401417 	ldw	r5,80(r6)
  80225c:	200d883a 	mov	r6,r4
  802260:	280f883a 	mov	r7,r5
  802264:	1009883a 	mov	r4,r2
  802268:	180b883a 	mov	r5,r3
  80226c:	08057940 	call	805794 <__adddf3>
  802270:	1009883a 	mov	r4,r2
  802274:	180b883a 	mov	r5,r3
  802278:	2005883a 	mov	r2,r4
  80227c:	2807883a 	mov	r3,r5
  802280:	e13ffc17 	ldw	r4,-16(fp)
  802284:	20800f15 	stw	r2,60(r4)
  802288:	20c01015 	stw	r3,64(r4)
  }
  d->_g132 = d->_g129 && !d->_cg129;
  80228c:	e0bffc17 	ldw	r2,-16(fp)
  802290:	10802fc3 	ldbu	r2,191(r2)
  802294:	10803fcc 	andi	r2,r2,255
  802298:	1080201c 	xori	r2,r2,128
  80229c:	10bfe004 	addi	r2,r2,-128
  8022a0:	10000826 	beq	r2,zero,8022c4 <logic+0x1b48>
  8022a4:	e0bffc17 	ldw	r2,-16(fp)
  8022a8:	108041c3 	ldbu	r2,263(r2)
  8022ac:	10803fcc 	andi	r2,r2,255
  8022b0:	1080201c 	xori	r2,r2,128
  8022b4:	10bfe004 	addi	r2,r2,-128
  8022b8:	1000021e 	bne	r2,zero,8022c4 <logic+0x1b48>
  8022bc:	00800044 	movi	r2,1
  8022c0:	00000106 	br	8022c8 <logic+0x1b4c>
  8022c4:	0005883a 	mov	r2,zero
  8022c8:	1007883a 	mov	r3,r2
  8022cc:	e0bffc17 	ldw	r2,-16(fp)
  8022d0:	10c03085 	stb	r3,194(r2)
  d->_cg132 = d->_region4_LRI_cLRI >= d->LRI_Constraint;
  8022d4:	e0bffc17 	ldw	r2,-16(fp)
  8022d8:	14000f17 	ldw	r16,60(r2)
  8022dc:	14401017 	ldw	r17,64(r2)
  8022e0:	e0bffc17 	ldw	r2,-16(fp)
  8022e4:	10800517 	ldw	r2,20(r2)
  8022e8:	1009883a 	mov	r4,r2
  8022ec:	0806b0c0 	call	806b0c <__floatsidf>
  8022f0:	1009883a 	mov	r4,r2
  8022f4:	180b883a 	mov	r5,r3
  8022f8:	04800044 	movi	r18,1
  8022fc:	200d883a 	mov	r6,r4
  802300:	280f883a 	mov	r7,r5
  802304:	8009883a 	mov	r4,r16
  802308:	880b883a 	mov	r5,r17
  80230c:	08060400 	call	806040 <__gedf2>
  802310:	1000010e 	bge	r2,zero,802318 <logic+0x1b9c>
  802314:	0025883a 	mov	r18,zero
  802318:	9007883a 	mov	r3,r18
  80231c:	e0bffc17 	ldw	r2,-16(fp)
  802320:	10c04185 	stb	r3,262(r2)
  d->_g133 = d->_g132 && d->_cg132;
  802324:	e0bffc17 	ldw	r2,-16(fp)
  802328:	10803083 	ldbu	r2,194(r2)
  80232c:	10803fcc 	andi	r2,r2,255
  802330:	1080201c 	xori	r2,r2,128
  802334:	10bfe004 	addi	r2,r2,-128
  802338:	10000826 	beq	r2,zero,80235c <logic+0x1be0>
  80233c:	e0bffc17 	ldw	r2,-16(fp)
  802340:	10804183 	ldbu	r2,262(r2)
  802344:	10803fcc 	andi	r2,r2,255
  802348:	1080201c 	xori	r2,r2,128
  80234c:	10bfe004 	addi	r2,r2,-128
  802350:	10000226 	beq	r2,zero,80235c <logic+0x1be0>
  802354:	00800044 	movi	r2,1
  802358:	00000106 	br	802360 <logic+0x1be4>
  80235c:	0005883a 	mov	r2,zero
  802360:	1007883a 	mov	r3,r2
  802364:	e0bffc17 	ldw	r2,-16(fp)
  802368:	10c030c5 	stb	r3,195(r2)
  if (d->_g133) {
  80236c:	e0bffc17 	ldw	r2,-16(fp)
  802370:	108030c3 	ldbu	r2,195(r2)
  802374:	10803fcc 	andi	r2,r2,255
  802378:	1080201c 	xori	r2,r2,128
  80237c:	10bfe004 	addi	r2,r2,-128
  802380:	10000326 	beq	r2,zero,802390 <logic+0x1c14>
    d->_Pacemaker_local__Atrig7 = 1;
  802384:	e0bffc17 	ldw	r2,-16(fp)
  802388:	00c00044 	movi	r3,1
  80238c:	10c01ac5 	stb	r3,107(r2)
  }
  d->_cg114 = d->_Pacemaker_local__Atrig6 || d->_Pacemaker_local__Atrig7;
  802390:	e0bffc17 	ldw	r2,-16(fp)
  802394:	10801a83 	ldbu	r2,106(r2)
  802398:	10803fcc 	andi	r2,r2,255
  80239c:	1080201c 	xori	r2,r2,128
  8023a0:	10bfe004 	addi	r2,r2,-128
  8023a4:	1000061e 	bne	r2,zero,8023c0 <logic+0x1c44>
  8023a8:	e0bffc17 	ldw	r2,-16(fp)
  8023ac:	10801ac3 	ldbu	r2,107(r2)
  8023b0:	10803fcc 	andi	r2,r2,255
  8023b4:	1080201c 	xori	r2,r2,128
  8023b8:	10bfe004 	addi	r2,r2,-128
  8023bc:	10000226 	beq	r2,zero,8023c8 <logic+0x1c4c>
  8023c0:	00800044 	movi	r2,1
  8023c4:	00000106 	br	8023cc <logic+0x1c50>
  8023c8:	0005883a 	mov	r2,zero
  8023cc:	1007883a 	mov	r3,r2
  8023d0:	e0bffc17 	ldw	r2,-16(fp)
  8023d4:	10c03fc5 	stb	r3,255(r2)
  d->_g115 = d->_g17 && d->_cg114;
  8023d8:	e0bffc17 	ldw	r2,-16(fp)
  8023dc:	10801d83 	ldbu	r2,118(r2)
  8023e0:	10803fcc 	andi	r2,r2,255
  8023e4:	1080201c 	xori	r2,r2,128
  8023e8:	10bfe004 	addi	r2,r2,-128
  8023ec:	10000826 	beq	r2,zero,802410 <logic+0x1c94>
  8023f0:	e0bffc17 	ldw	r2,-16(fp)
  8023f4:	10803fc3 	ldbu	r2,255(r2)
  8023f8:	10803fcc 	andi	r2,r2,255
  8023fc:	1080201c 	xori	r2,r2,128
  802400:	10bfe004 	addi	r2,r2,-128
  802404:	10000226 	beq	r2,zero,802410 <logic+0x1c94>
  802408:	00800044 	movi	r2,1
  80240c:	00000106 	br	802414 <logic+0x1c98>
  802410:	0005883a 	mov	r2,zero
  802414:	1007883a 	mov	r3,r2
  802418:	e0bffc17 	ldw	r2,-16(fp)
  80241c:	10c02d85 	stb	r3,182(r2)
  d->_g125 = d->_pg82;
  802420:	e0bffc17 	ldw	r2,-16(fp)
  802424:	10c04d03 	ldbu	r3,308(r2)
  802428:	e0bffc17 	ldw	r2,-16(fp)
  80242c:	10c02f45 	stb	r3,189(r2)
  d->_g119 = d->_pg94;
  802430:	e0bffc17 	ldw	r2,-16(fp)
  802434:	10c04d43 	ldbu	r3,309(r2)
  802438:	e0bffc17 	ldw	r2,-16(fp)
  80243c:	10c02e05 	stb	r3,184(r2)
  d->_g122_e2 = !(d->_g125 || d->_g119);
  802440:	e0bffc17 	ldw	r2,-16(fp)
  802444:	10802f43 	ldbu	r2,189(r2)
  802448:	10803fcc 	andi	r2,r2,255
  80244c:	1080201c 	xori	r2,r2,128
  802450:	10bfe004 	addi	r2,r2,-128
  802454:	1000081e 	bne	r2,zero,802478 <logic+0x1cfc>
  802458:	e0bffc17 	ldw	r2,-16(fp)
  80245c:	10802e03 	ldbu	r2,184(r2)
  802460:	10803fcc 	andi	r2,r2,255
  802464:	1080201c 	xori	r2,r2,128
  802468:	10bfe004 	addi	r2,r2,-128
  80246c:	1000021e 	bne	r2,zero,802478 <logic+0x1cfc>
  802470:	00800044 	movi	r2,1
  802474:	00000106 	br	80247c <logic+0x1d00>
  802478:	0005883a 	mov	r2,zero
  80247c:	1007883a 	mov	r3,r2
  802480:	e0bffc17 	ldw	r2,-16(fp)
  802484:	10c046c5 	stb	r3,283(r2)
  d->_g125 = d->_g119 || d->_g125;
  802488:	e0bffc17 	ldw	r2,-16(fp)
  80248c:	10802e03 	ldbu	r2,184(r2)
  802490:	10803fcc 	andi	r2,r2,255
  802494:	1080201c 	xori	r2,r2,128
  802498:	10bfe004 	addi	r2,r2,-128
  80249c:	1000061e 	bne	r2,zero,8024b8 <logic+0x1d3c>
  8024a0:	e0bffc17 	ldw	r2,-16(fp)
  8024a4:	10802f43 	ldbu	r2,189(r2)
  8024a8:	10803fcc 	andi	r2,r2,255
  8024ac:	1080201c 	xori	r2,r2,128
  8024b0:	10bfe004 	addi	r2,r2,-128
  8024b4:	10000226 	beq	r2,zero,8024c0 <logic+0x1d44>
  8024b8:	00800044 	movi	r2,1
  8024bc:	00000106 	br	8024c4 <logic+0x1d48>
  8024c0:	0005883a 	mov	r2,zero
  8024c4:	1007883a 	mov	r3,r2
  8024c8:	e0bffc17 	ldw	r2,-16(fp)
  8024cc:	10c02f45 	stb	r3,189(r2)
  d->_cg120 = d->_region4_LRI_cLRI < d->LRI_Constraint;
  8024d0:	e0bffc17 	ldw	r2,-16(fp)
  8024d4:	14000f17 	ldw	r16,60(r2)
  8024d8:	14401017 	ldw	r17,64(r2)
  8024dc:	e0bffc17 	ldw	r2,-16(fp)
  8024e0:	10800517 	ldw	r2,20(r2)
  8024e4:	1009883a 	mov	r4,r2
  8024e8:	0806b0c0 	call	806b0c <__floatsidf>
  8024ec:	1009883a 	mov	r4,r2
  8024f0:	180b883a 	mov	r5,r3
  8024f4:	04800044 	movi	r18,1
  8024f8:	200d883a 	mov	r6,r4
  8024fc:	280f883a 	mov	r7,r5
  802500:	8009883a 	mov	r4,r16
  802504:	880b883a 	mov	r5,r17
  802508:	080611c0 	call	80611c <__ledf2>
  80250c:	10000116 	blt	r2,zero,802514 <logic+0x1d98>
  802510:	0025883a 	mov	r18,zero
  802514:	9007883a 	mov	r3,r18
  802518:	e0bffc17 	ldw	r2,-16(fp)
  80251c:	10c040c5 	stb	r3,259(r2)
  d->_g119 = d->_g125 && d->_cg120;
  802520:	e0bffc17 	ldw	r2,-16(fp)
  802524:	10802f43 	ldbu	r2,189(r2)
  802528:	10803fcc 	andi	r2,r2,255
  80252c:	1080201c 	xori	r2,r2,128
  802530:	10bfe004 	addi	r2,r2,-128
  802534:	10000826 	beq	r2,zero,802558 <logic+0x1ddc>
  802538:	e0bffc17 	ldw	r2,-16(fp)
  80253c:	108040c3 	ldbu	r2,259(r2)
  802540:	10803fcc 	andi	r2,r2,255
  802544:	1080201c 	xori	r2,r2,128
  802548:	10bfe004 	addi	r2,r2,-128
  80254c:	10000226 	beq	r2,zero,802558 <logic+0x1ddc>
  802550:	00800044 	movi	r2,1
  802554:	00000106 	br	80255c <logic+0x1de0>
  802558:	0005883a 	mov	r2,zero
  80255c:	1007883a 	mov	r3,r2
  802560:	e0bffc17 	ldw	r2,-16(fp)
  802564:	10c02e05 	stb	r3,184(r2)
  if (d->_g119) {
  802568:	e0bffc17 	ldw	r2,-16(fp)
  80256c:	10802e03 	ldbu	r2,184(r2)
  802570:	10803fcc 	andi	r2,r2,255
  802574:	1080201c 	xori	r2,r2,128
  802578:	10bfe004 	addi	r2,r2,-128
  80257c:	10003426 	beq	r2,zero,802650 <logic+0x1ed4>
    d->sleepT = (d->sleepT < (d->LRI_Constraint - d->_region4_LRI_cLRI)) ? d->sleepT : (d->LRI_Constraint - d->_region4_LRI_cLRI);
  802580:	e0bffc17 	ldw	r2,-16(fp)
  802584:	14001517 	ldw	r16,84(r2)
  802588:	14401617 	ldw	r17,88(r2)
  80258c:	e0bffc17 	ldw	r2,-16(fp)
  802590:	10800517 	ldw	r2,20(r2)
  802594:	1009883a 	mov	r4,r2
  802598:	0806b0c0 	call	806b0c <__floatsidf>
  80259c:	1011883a 	mov	r8,r2
  8025a0:	1813883a 	mov	r9,r3
  8025a4:	e13ffc17 	ldw	r4,-16(fp)
  8025a8:	20800f17 	ldw	r2,60(r4)
  8025ac:	20c01017 	ldw	r3,64(r4)
  8025b0:	100d883a 	mov	r6,r2
  8025b4:	180f883a 	mov	r7,r3
  8025b8:	4009883a 	mov	r4,r8
  8025bc:	480b883a 	mov	r5,r9
  8025c0:	08062100 	call	806210 <__subdf3>
  8025c4:	1009883a 	mov	r4,r2
  8025c8:	180b883a 	mov	r5,r3
  8025cc:	2005883a 	mov	r2,r4
  8025d0:	2807883a 	mov	r3,r5
  8025d4:	100d883a 	mov	r6,r2
  8025d8:	180f883a 	mov	r7,r3
  8025dc:	8009883a 	mov	r4,r16
  8025e0:	880b883a 	mov	r5,r17
  8025e4:	080611c0 	call	80611c <__ledf2>
  8025e8:	1000040e 	bge	r2,zero,8025fc <logic+0x1e80>
  8025ec:	e13ffc17 	ldw	r4,-16(fp)
  8025f0:	20801517 	ldw	r2,84(r4)
  8025f4:	20c01617 	ldw	r3,88(r4)
  8025f8:	00001206 	br	802644 <logic+0x1ec8>
  8025fc:	e0bffc17 	ldw	r2,-16(fp)
  802600:	10800517 	ldw	r2,20(r2)
  802604:	1009883a 	mov	r4,r2
  802608:	0806b0c0 	call	806b0c <__floatsidf>
  80260c:	1011883a 	mov	r8,r2
  802610:	1813883a 	mov	r9,r3
  802614:	e13ffc17 	ldw	r4,-16(fp)
  802618:	20800f17 	ldw	r2,60(r4)
  80261c:	20c01017 	ldw	r3,64(r4)
  802620:	100d883a 	mov	r6,r2
  802624:	180f883a 	mov	r7,r3
  802628:	4009883a 	mov	r4,r8
  80262c:	480b883a 	mov	r5,r9
  802630:	08062100 	call	806210 <__subdf3>
  802634:	1009883a 	mov	r4,r2
  802638:	180b883a 	mov	r5,r3
  80263c:	2005883a 	mov	r2,r4
  802640:	2807883a 	mov	r3,r5
  802644:	e13ffc17 	ldw	r4,-16(fp)
  802648:	20801515 	stw	r2,84(r4)
  80264c:	20c01615 	stw	r3,88(r4)
  }
  d->_cg121 = d->_Pacemaker_local__Atrig6 || d->_Pacemaker_local__Atrig7;
  802650:	e0bffc17 	ldw	r2,-16(fp)
  802654:	10801a83 	ldbu	r2,106(r2)
  802658:	10803fcc 	andi	r2,r2,255
  80265c:	1080201c 	xori	r2,r2,128
  802660:	10bfe004 	addi	r2,r2,-128
  802664:	1000061e 	bne	r2,zero,802680 <logic+0x1f04>
  802668:	e0bffc17 	ldw	r2,-16(fp)
  80266c:	10801ac3 	ldbu	r2,107(r2)
  802670:	10803fcc 	andi	r2,r2,255
  802674:	1080201c 	xori	r2,r2,128
  802678:	10bfe004 	addi	r2,r2,-128
  80267c:	10000226 	beq	r2,zero,802688 <logic+0x1f0c>
  802680:	00800044 	movi	r2,1
  802684:	00000106 	br	80268c <logic+0x1f10>
  802688:	0005883a 	mov	r2,zero
  80268c:	1007883a 	mov	r3,r2
  802690:	e0bffc17 	ldw	r2,-16(fp)
  802694:	10c04085 	stb	r3,258(r2)
  d->_g120 = d->_g125 && !d->_cg120;
  802698:	e0bffc17 	ldw	r2,-16(fp)
  80269c:	10802f43 	ldbu	r2,189(r2)
  8026a0:	10803fcc 	andi	r2,r2,255
  8026a4:	1080201c 	xori	r2,r2,128
  8026a8:	10bfe004 	addi	r2,r2,-128
  8026ac:	10000826 	beq	r2,zero,8026d0 <logic+0x1f54>
  8026b0:	e0bffc17 	ldw	r2,-16(fp)
  8026b4:	108040c3 	ldbu	r2,259(r2)
  8026b8:	10803fcc 	andi	r2,r2,255
  8026bc:	1080201c 	xori	r2,r2,128
  8026c0:	10bfe004 	addi	r2,r2,-128
  8026c4:	1000021e 	bne	r2,zero,8026d0 <logic+0x1f54>
  8026c8:	00800044 	movi	r2,1
  8026cc:	00000106 	br	8026d4 <logic+0x1f58>
  8026d0:	0005883a 	mov	r2,zero
  8026d4:	1007883a 	mov	r3,r2
  8026d8:	e0bffc17 	ldw	r2,-16(fp)
  8026dc:	10c02e45 	stb	r3,185(r2)
  d->_cg123 = d->_Pacemaker_local__Atrig6 || d->_Pacemaker_local__Atrig7;
  8026e0:	e0bffc17 	ldw	r2,-16(fp)
  8026e4:	10801a83 	ldbu	r2,106(r2)
  8026e8:	10803fcc 	andi	r2,r2,255
  8026ec:	1080201c 	xori	r2,r2,128
  8026f0:	10bfe004 	addi	r2,r2,-128
  8026f4:	1000061e 	bne	r2,zero,802710 <logic+0x1f94>
  8026f8:	e0bffc17 	ldw	r2,-16(fp)
  8026fc:	10801ac3 	ldbu	r2,107(r2)
  802700:	10803fcc 	andi	r2,r2,255
  802704:	1080201c 	xori	r2,r2,128
  802708:	10bfe004 	addi	r2,r2,-128
  80270c:	10000226 	beq	r2,zero,802718 <logic+0x1f9c>
  802710:	00800044 	movi	r2,1
  802714:	00000106 	br	80271c <logic+0x1fa0>
  802718:	0005883a 	mov	r2,zero
  80271c:	1007883a 	mov	r3,r2
  802720:	e0bffc17 	ldw	r2,-16(fp)
  802724:	10c04105 	stb	r3,260(r2)
  d->_g122 = d->_g119 && d->_cg121 || d->_g120 && d->_cg123;
  802728:	e0bffc17 	ldw	r2,-16(fp)
  80272c:	10802e03 	ldbu	r2,184(r2)
  802730:	10803fcc 	andi	r2,r2,255
  802734:	1080201c 	xori	r2,r2,128
  802738:	10bfe004 	addi	r2,r2,-128
  80273c:	10000626 	beq	r2,zero,802758 <logic+0x1fdc>
  802740:	e0bffc17 	ldw	r2,-16(fp)
  802744:	10804083 	ldbu	r2,258(r2)
  802748:	10803fcc 	andi	r2,r2,255
  80274c:	1080201c 	xori	r2,r2,128
  802750:	10bfe004 	addi	r2,r2,-128
  802754:	10000c1e 	bne	r2,zero,802788 <logic+0x200c>
  802758:	e0bffc17 	ldw	r2,-16(fp)
  80275c:	10802e43 	ldbu	r2,185(r2)
  802760:	10803fcc 	andi	r2,r2,255
  802764:	1080201c 	xori	r2,r2,128
  802768:	10bfe004 	addi	r2,r2,-128
  80276c:	10000826 	beq	r2,zero,802790 <logic+0x2014>
  802770:	e0bffc17 	ldw	r2,-16(fp)
  802774:	10804103 	ldbu	r2,260(r2)
  802778:	10803fcc 	andi	r2,r2,255
  80277c:	1080201c 	xori	r2,r2,128
  802780:	10bfe004 	addi	r2,r2,-128
  802784:	10000226 	beq	r2,zero,802790 <logic+0x2014>
  802788:	00800044 	movi	r2,1
  80278c:	00000106 	br	802794 <logic+0x2018>
  802790:	0005883a 	mov	r2,zero
  802794:	1007883a 	mov	r3,r2
  802798:	e0bffc17 	ldw	r2,-16(fp)
  80279c:	10c02ec5 	stb	r3,187(r2)
  d->_g129 = !d->_g129;
  8027a0:	e0bffc17 	ldw	r2,-16(fp)
  8027a4:	10802fc3 	ldbu	r2,191(r2)
  8027a8:	10803fcc 	andi	r2,r2,255
  8027ac:	1080201c 	xori	r2,r2,128
  8027b0:	10bfe004 	addi	r2,r2,-128
  8027b4:	1005003a 	cmpeq	r2,r2,zero
  8027b8:	1007883a 	mov	r3,r2
  8027bc:	e0bffc17 	ldw	r2,-16(fp)
  8027c0:	10c02fc5 	stb	r3,191(r2)
  d->_g130 = d->_g130 || d->_g133;
  8027c4:	e0bffc17 	ldw	r2,-16(fp)
  8027c8:	10803003 	ldbu	r2,192(r2)
  8027cc:	10803fcc 	andi	r2,r2,255
  8027d0:	1080201c 	xori	r2,r2,128
  8027d4:	10bfe004 	addi	r2,r2,-128
  8027d8:	1000061e 	bne	r2,zero,8027f4 <logic+0x2078>
  8027dc:	e0bffc17 	ldw	r2,-16(fp)
  8027e0:	108030c3 	ldbu	r2,195(r2)
  8027e4:	10803fcc 	andi	r2,r2,255
  8027e8:	1080201c 	xori	r2,r2,128
  8027ec:	10bfe004 	addi	r2,r2,-128
  8027f0:	10000226 	beq	r2,zero,8027fc <logic+0x2080>
  8027f4:	00800044 	movi	r2,1
  8027f8:	00000106 	br	802800 <logic+0x2084>
  8027fc:	0005883a 	mov	r2,zero
  802800:	1007883a 	mov	r3,r2
  802804:	e0bffc17 	ldw	r2,-16(fp)
  802808:	10c03005 	stb	r3,192(r2)
  d->_g133 = (d->_g26 || d->_g115) && (d->_g122_e2 || d->_g122) && (d->_g129 || d->_g130) && (d->_g115 || d->_g122 || d->_g130);
  80280c:	e0bffc17 	ldw	r2,-16(fp)
  802810:	10801f03 	ldbu	r2,124(r2)
  802814:	10803fcc 	andi	r2,r2,255
  802818:	1080201c 	xori	r2,r2,128
  80281c:	10bfe004 	addi	r2,r2,-128
  802820:	1000061e 	bne	r2,zero,80283c <logic+0x20c0>
  802824:	e0bffc17 	ldw	r2,-16(fp)
  802828:	10802d83 	ldbu	r2,182(r2)
  80282c:	10803fcc 	andi	r2,r2,255
  802830:	1080201c 	xori	r2,r2,128
  802834:	10bfe004 	addi	r2,r2,-128
  802838:	10002c26 	beq	r2,zero,8028ec <logic+0x2170>
  80283c:	e0bffc17 	ldw	r2,-16(fp)
  802840:	108046c3 	ldbu	r2,283(r2)
  802844:	10803fcc 	andi	r2,r2,255
  802848:	1080201c 	xori	r2,r2,128
  80284c:	10bfe004 	addi	r2,r2,-128
  802850:	1000061e 	bne	r2,zero,80286c <logic+0x20f0>
  802854:	e0bffc17 	ldw	r2,-16(fp)
  802858:	10802ec3 	ldbu	r2,187(r2)
  80285c:	10803fcc 	andi	r2,r2,255
  802860:	1080201c 	xori	r2,r2,128
  802864:	10bfe004 	addi	r2,r2,-128
  802868:	10002026 	beq	r2,zero,8028ec <logic+0x2170>
  80286c:	e0bffc17 	ldw	r2,-16(fp)
  802870:	10802fc3 	ldbu	r2,191(r2)
  802874:	10803fcc 	andi	r2,r2,255
  802878:	1080201c 	xori	r2,r2,128
  80287c:	10bfe004 	addi	r2,r2,-128
  802880:	1000061e 	bne	r2,zero,80289c <logic+0x2120>
  802884:	e0bffc17 	ldw	r2,-16(fp)
  802888:	10803003 	ldbu	r2,192(r2)
  80288c:	10803fcc 	andi	r2,r2,255
  802890:	1080201c 	xori	r2,r2,128
  802894:	10bfe004 	addi	r2,r2,-128
  802898:	10001426 	beq	r2,zero,8028ec <logic+0x2170>
  80289c:	e0bffc17 	ldw	r2,-16(fp)
  8028a0:	10802d83 	ldbu	r2,182(r2)
  8028a4:	10803fcc 	andi	r2,r2,255
  8028a8:	1080201c 	xori	r2,r2,128
  8028ac:	10bfe004 	addi	r2,r2,-128
  8028b0:	10000c1e 	bne	r2,zero,8028e4 <logic+0x2168>
  8028b4:	e0bffc17 	ldw	r2,-16(fp)
  8028b8:	10802ec3 	ldbu	r2,187(r2)
  8028bc:	10803fcc 	andi	r2,r2,255
  8028c0:	1080201c 	xori	r2,r2,128
  8028c4:	10bfe004 	addi	r2,r2,-128
  8028c8:	1000061e 	bne	r2,zero,8028e4 <logic+0x2168>
  8028cc:	e0bffc17 	ldw	r2,-16(fp)
  8028d0:	10803003 	ldbu	r2,192(r2)
  8028d4:	10803fcc 	andi	r2,r2,255
  8028d8:	1080201c 	xori	r2,r2,128
  8028dc:	10bfe004 	addi	r2,r2,-128
  8028e0:	10000226 	beq	r2,zero,8028ec <logic+0x2170>
  8028e4:	00800044 	movi	r2,1
  8028e8:	00000106 	br	8028f0 <logic+0x2174>
  8028ec:	0005883a 	mov	r2,zero
  8028f0:	1007883a 	mov	r3,r2
  8028f4:	e0bffc17 	ldw	r2,-16(fp)
  8028f8:	10c030c5 	stb	r3,195(r2)
  d->_cg134 = d->_Pacemaker_local__Atrig6;
  8028fc:	e0bffc17 	ldw	r2,-16(fp)
  802900:	10c01a83 	ldbu	r3,106(r2)
  802904:	e0bffc17 	ldw	r2,-16(fp)
  802908:	10c03f45 	stb	r3,253(r2)
  d->_g122 = d->_g133 && !d->_cg134;
  80290c:	e0bffc17 	ldw	r2,-16(fp)
  802910:	108030c3 	ldbu	r2,195(r2)
  802914:	10803fcc 	andi	r2,r2,255
  802918:	1080201c 	xori	r2,r2,128
  80291c:	10bfe004 	addi	r2,r2,-128
  802920:	10000826 	beq	r2,zero,802944 <logic+0x21c8>
  802924:	e0bffc17 	ldw	r2,-16(fp)
  802928:	10803f43 	ldbu	r2,253(r2)
  80292c:	10803fcc 	andi	r2,r2,255
  802930:	1080201c 	xori	r2,r2,128
  802934:	10bfe004 	addi	r2,r2,-128
  802938:	1000021e 	bne	r2,zero,802944 <logic+0x21c8>
  80293c:	00800044 	movi	r2,1
  802940:	00000106 	br	802948 <logic+0x21cc>
  802944:	0005883a 	mov	r2,zero
  802948:	1007883a 	mov	r3,r2
  80294c:	e0bffc17 	ldw	r2,-16(fp)
  802950:	10c02ec5 	stb	r3,187(r2)
  if (d->_g122) {
  802954:	e0bffc17 	ldw	r2,-16(fp)
  802958:	10802ec3 	ldbu	r2,187(r2)
  80295c:	10803fcc 	andi	r2,r2,255
  802960:	1080201c 	xori	r2,r2,128
  802964:	10bfe004 	addi	r2,r2,-128
  802968:	10000626 	beq	r2,zero,802984 <logic+0x2208>
    d->VP |= 1;
  80296c:	e0bffc17 	ldw	r2,-16(fp)
  802970:	10801743 	ldbu	r2,93(r2)
  802974:	10800054 	ori	r2,r2,1
  802978:	1007883a 	mov	r3,r2
  80297c:	e0bffc17 	ldw	r2,-16(fp)
  802980:	10c01745 	stb	r3,93(r2)
  }
  d->_g131_e3 = d->_pg37;
  802984:	e0bffc17 	ldw	r2,-16(fp)
  802988:	10c04d83 	ldbu	r3,310(r2)
  80298c:	e0bffc17 	ldw	r2,-16(fp)
  802990:	10c04705 	stb	r3,284(r2)
  d->_cg33 = d->VS || d->VP;
  802994:	e0bffc17 	ldw	r2,-16(fp)
  802998:	10800043 	ldbu	r2,1(r2)
  80299c:	10803fcc 	andi	r2,r2,255
  8029a0:	1080201c 	xori	r2,r2,128
  8029a4:	10bfe004 	addi	r2,r2,-128
  8029a8:	1000061e 	bne	r2,zero,8029c4 <logic+0x2248>
  8029ac:	e0bffc17 	ldw	r2,-16(fp)
  8029b0:	10801743 	ldbu	r2,93(r2)
  8029b4:	10803fcc 	andi	r2,r2,255
  8029b8:	1080201c 	xori	r2,r2,128
  8029bc:	10bfe004 	addi	r2,r2,-128
  8029c0:	10000226 	beq	r2,zero,8029cc <logic+0x2250>
  8029c4:	00800044 	movi	r2,1
  8029c8:	00000106 	br	8029d0 <logic+0x2254>
  8029cc:	0005883a 	mov	r2,zero
  8029d0:	1007883a 	mov	r3,r2
  8029d4:	e0bffc17 	ldw	r2,-16(fp)
  8029d8:	10c03905 	stb	r3,228(r2)
  d->_g115_e1 = d->_g131_e3 && d->_cg33;
  8029dc:	e0bffc17 	ldw	r2,-16(fp)
  8029e0:	10804703 	ldbu	r2,284(r2)
  8029e4:	10803fcc 	andi	r2,r2,255
  8029e8:	1080201c 	xori	r2,r2,128
  8029ec:	10bfe004 	addi	r2,r2,-128
  8029f0:	10000826 	beq	r2,zero,802a14 <logic+0x2298>
  8029f4:	e0bffc17 	ldw	r2,-16(fp)
  8029f8:	10803903 	ldbu	r2,228(r2)
  8029fc:	10803fcc 	andi	r2,r2,255
  802a00:	1080201c 	xori	r2,r2,128
  802a04:	10bfe004 	addi	r2,r2,-128
  802a08:	10000226 	beq	r2,zero,802a14 <logic+0x2298>
  802a0c:	00800044 	movi	r2,1
  802a10:	00000106 	br	802a18 <logic+0x229c>
  802a14:	0005883a 	mov	r2,zero
  802a18:	1007883a 	mov	r3,r2
  802a1c:	e0bffc17 	ldw	r2,-16(fp)
  802a20:	10c04685 	stb	r3,282(r2)
  if (d->_g115_e1) {
  802a24:	e0bffc17 	ldw	r2,-16(fp)
  802a28:	10804683 	ldbu	r2,282(r2)
  802a2c:	10803fcc 	andi	r2,r2,255
  802a30:	1080201c 	xori	r2,r2,128
  802a34:	10bfe004 	addi	r2,r2,-128
  802a38:	10000526 	beq	r2,zero,802a50 <logic+0x22d4>
    d->_region1_PVARP_cPVARP = 0;
  802a3c:	e0bffc17 	ldw	r2,-16(fp)
  802a40:	10000915 	stw	zero,36(r2)
  802a44:	10000a15 	stw	zero,40(r2)
    d->_Pacemaker_local__Atrig2 = 0;
  802a48:	e0bffc17 	ldw	r2,-16(fp)
  802a4c:	10001985 	stb	zero,102(r2)
  }
  d->_g122_e2 = d->_g115_e1 || d->_g9;
  802a50:	e0bffc17 	ldw	r2,-16(fp)
  802a54:	10804683 	ldbu	r2,282(r2)
  802a58:	10803fcc 	andi	r2,r2,255
  802a5c:	1080201c 	xori	r2,r2,128
  802a60:	10bfe004 	addi	r2,r2,-128
  802a64:	1000061e 	bne	r2,zero,802a80 <logic+0x2304>
  802a68:	e0bffc17 	ldw	r2,-16(fp)
  802a6c:	10801c03 	ldbu	r2,112(r2)
  802a70:	10803fcc 	andi	r2,r2,255
  802a74:	1080201c 	xori	r2,r2,128
  802a78:	10bfe004 	addi	r2,r2,-128
  802a7c:	10000226 	beq	r2,zero,802a88 <logic+0x230c>
  802a80:	00800044 	movi	r2,1
  802a84:	00000106 	br	802a8c <logic+0x2310>
  802a88:	0005883a 	mov	r2,zero
  802a8c:	1007883a 	mov	r3,r2
  802a90:	e0bffc17 	ldw	r2,-16(fp)
  802a94:	10c046c5 	stb	r3,283(r2)
  d->_cg36 = d->_Pacemaker_local__Atrig2;
  802a98:	e0bffc17 	ldw	r2,-16(fp)
  802a9c:	10c01983 	ldbu	r3,102(r2)
  802aa0:	e0bffc17 	ldw	r2,-16(fp)
  802aa4:	10c03945 	stb	r3,229(r2)
  d->_g131 = d->_g122_e2 && !d->_cg36;
  802aa8:	e0bffc17 	ldw	r2,-16(fp)
  802aac:	108046c3 	ldbu	r2,283(r2)
  802ab0:	10803fcc 	andi	r2,r2,255
  802ab4:	1080201c 	xori	r2,r2,128
  802ab8:	10bfe004 	addi	r2,r2,-128
  802abc:	10000826 	beq	r2,zero,802ae0 <logic+0x2364>
  802ac0:	e0bffc17 	ldw	r2,-16(fp)
  802ac4:	10803943 	ldbu	r2,229(r2)
  802ac8:	10803fcc 	andi	r2,r2,255
  802acc:	1080201c 	xori	r2,r2,128
  802ad0:	10bfe004 	addi	r2,r2,-128
  802ad4:	1000021e 	bne	r2,zero,802ae0 <logic+0x2364>
  802ad8:	00800044 	movi	r2,1
  802adc:	00000106 	br	802ae4 <logic+0x2368>
  802ae0:	0005883a 	mov	r2,zero
  802ae4:	1007883a 	mov	r3,r2
  802ae8:	e0bffc17 	ldw	r2,-16(fp)
  802aec:	10c03045 	stb	r3,193(r2)
  d->_g115 = !d->_g131;
  802af0:	e0bffc17 	ldw	r2,-16(fp)
  802af4:	10803043 	ldbu	r2,193(r2)
  802af8:	10803fcc 	andi	r2,r2,255
  802afc:	1080201c 	xori	r2,r2,128
  802b00:	10bfe004 	addi	r2,r2,-128
  802b04:	1005003a 	cmpeq	r2,r2,zero
  802b08:	1007883a 	mov	r3,r2
  802b0c:	e0bffc17 	ldw	r2,-16(fp)
  802b10:	10c02d85 	stb	r3,182(r2)
  d->_g39 = d->_g122_e2 && d->_cg36;
  802b14:	e0bffc17 	ldw	r2,-16(fp)
  802b18:	108046c3 	ldbu	r2,283(r2)
  802b1c:	10803fcc 	andi	r2,r2,255
  802b20:	1080201c 	xori	r2,r2,128
  802b24:	10bfe004 	addi	r2,r2,-128
  802b28:	10000826 	beq	r2,zero,802b4c <logic+0x23d0>
  802b2c:	e0bffc17 	ldw	r2,-16(fp)
  802b30:	10803943 	ldbu	r2,229(r2)
  802b34:	10803fcc 	andi	r2,r2,255
  802b38:	1080201c 	xori	r2,r2,128
  802b3c:	10bfe004 	addi	r2,r2,-128
  802b40:	10000226 	beq	r2,zero,802b4c <logic+0x23d0>
  802b44:	00800044 	movi	r2,1
  802b48:	00000106 	br	802b50 <logic+0x23d4>
  802b4c:	0005883a 	mov	r2,zero
  802b50:	1007883a 	mov	r3,r2
  802b54:	e0bffc17 	ldw	r2,-16(fp)
  802b58:	10c02105 	stb	r3,132(r2)
  d->_g36 = d->_pg44;
  802b5c:	e0bffc17 	ldw	r2,-16(fp)
  802b60:	10c04dc3 	ldbu	r3,311(r2)
  802b64:	e0bffc17 	ldw	r2,-16(fp)
  802b68:	10c02085 	stb	r3,130(r2)
  d->_g48 = d->_pg47;
  802b6c:	e0bffc17 	ldw	r2,-16(fp)
  802b70:	10c04e03 	ldbu	r3,312(r2)
  802b74:	e0bffc17 	ldw	r2,-16(fp)
  802b78:	10c02305 	stb	r3,140(r2)
  d->_g48 = d->_g115_e1 || d->_g36 || d->_g48;
  802b7c:	e0bffc17 	ldw	r2,-16(fp)
  802b80:	10804683 	ldbu	r2,282(r2)
  802b84:	10803fcc 	andi	r2,r2,255
  802b88:	1080201c 	xori	r2,r2,128
  802b8c:	10bfe004 	addi	r2,r2,-128
  802b90:	10000c1e 	bne	r2,zero,802bc4 <logic+0x2448>
  802b94:	e0bffc17 	ldw	r2,-16(fp)
  802b98:	10802083 	ldbu	r2,130(r2)
  802b9c:	10803fcc 	andi	r2,r2,255
  802ba0:	1080201c 	xori	r2,r2,128
  802ba4:	10bfe004 	addi	r2,r2,-128
  802ba8:	1000061e 	bne	r2,zero,802bc4 <logic+0x2448>
  802bac:	e0bffc17 	ldw	r2,-16(fp)
  802bb0:	10802303 	ldbu	r2,140(r2)
  802bb4:	10803fcc 	andi	r2,r2,255
  802bb8:	1080201c 	xori	r2,r2,128
  802bbc:	10bfe004 	addi	r2,r2,-128
  802bc0:	10000226 	beq	r2,zero,802bcc <logic+0x2450>
  802bc4:	00800044 	movi	r2,1
  802bc8:	00000106 	br	802bd0 <logic+0x2454>
  802bcc:	0005883a 	mov	r2,zero
  802bd0:	1007883a 	mov	r3,r2
  802bd4:	e0bffc17 	ldw	r2,-16(fp)
  802bd8:	10c02305 	stb	r3,140(r2)
  d->_cg41 = d->_region1_PVARP_cPVARP < d->PVARP_Constraint;
  802bdc:	e0bffc17 	ldw	r2,-16(fp)
  802be0:	14000917 	ldw	r16,36(r2)
  802be4:	14400a17 	ldw	r17,40(r2)
  802be8:	e0bffc17 	ldw	r2,-16(fp)
  802bec:	10800217 	ldw	r2,8(r2)
  802bf0:	1009883a 	mov	r4,r2
  802bf4:	0806b0c0 	call	806b0c <__floatsidf>
  802bf8:	1009883a 	mov	r4,r2
  802bfc:	180b883a 	mov	r5,r3
  802c00:	04800044 	movi	r18,1
  802c04:	200d883a 	mov	r6,r4
  802c08:	280f883a 	mov	r7,r5
  802c0c:	8009883a 	mov	r4,r16
  802c10:	880b883a 	mov	r5,r17
  802c14:	080611c0 	call	80611c <__ledf2>
  802c18:	10000116 	blt	r2,zero,802c20 <logic+0x24a4>
  802c1c:	0025883a 	mov	r18,zero
  802c20:	9007883a 	mov	r3,r18
  802c24:	e0bffc17 	ldw	r2,-16(fp)
  802c28:	10c03985 	stb	r3,230(r2)
  d->_g45 = d->_g48 && !d->_cg41;
  802c2c:	e0bffc17 	ldw	r2,-16(fp)
  802c30:	10802303 	ldbu	r2,140(r2)
  802c34:	10803fcc 	andi	r2,r2,255
  802c38:	1080201c 	xori	r2,r2,128
  802c3c:	10bfe004 	addi	r2,r2,-128
  802c40:	10000826 	beq	r2,zero,802c64 <logic+0x24e8>
  802c44:	e0bffc17 	ldw	r2,-16(fp)
  802c48:	10803983 	ldbu	r2,230(r2)
  802c4c:	10803fcc 	andi	r2,r2,255
  802c50:	1080201c 	xori	r2,r2,128
  802c54:	10bfe004 	addi	r2,r2,-128
  802c58:	1000021e 	bne	r2,zero,802c64 <logic+0x24e8>
  802c5c:	00800044 	movi	r2,1
  802c60:	00000106 	br	802c68 <logic+0x24ec>
  802c64:	0005883a 	mov	r2,zero
  802c68:	1007883a 	mov	r3,r2
  802c6c:	e0bffc17 	ldw	r2,-16(fp)
  802c70:	10c02245 	stb	r3,137(r2)
  d->_cg46 = d->_Pacemaker_local__Atrig2;
  802c74:	e0bffc17 	ldw	r2,-16(fp)
  802c78:	10c01983 	ldbu	r3,102(r2)
  802c7c:	e0bffc17 	ldw	r2,-16(fp)
  802c80:	10c03a05 	stb	r3,232(r2)
  d->_g47 = d->_g45 && !d->_cg46;
  802c84:	e0bffc17 	ldw	r2,-16(fp)
  802c88:	10802243 	ldbu	r2,137(r2)
  802c8c:	10803fcc 	andi	r2,r2,255
  802c90:	1080201c 	xori	r2,r2,128
  802c94:	10bfe004 	addi	r2,r2,-128
  802c98:	10000826 	beq	r2,zero,802cbc <logic+0x2540>
  802c9c:	e0bffc17 	ldw	r2,-16(fp)
  802ca0:	10803a03 	ldbu	r2,232(r2)
  802ca4:	10803fcc 	andi	r2,r2,255
  802ca8:	1080201c 	xori	r2,r2,128
  802cac:	10bfe004 	addi	r2,r2,-128
  802cb0:	1000021e 	bne	r2,zero,802cbc <logic+0x2540>
  802cb4:	00800044 	movi	r2,1
  802cb8:	00000106 	br	802cc0 <logic+0x2544>
  802cbc:	0005883a 	mov	r2,zero
  802cc0:	1007883a 	mov	r3,r2
  802cc4:	e0bffc17 	ldw	r2,-16(fp)
  802cc8:	10c022c5 	stb	r3,139(r2)
  d->_g41 = d->_g48 && d->_cg41;
  802ccc:	e0bffc17 	ldw	r2,-16(fp)
  802cd0:	10802303 	ldbu	r2,140(r2)
  802cd4:	10803fcc 	andi	r2,r2,255
  802cd8:	1080201c 	xori	r2,r2,128
  802cdc:	10bfe004 	addi	r2,r2,-128
  802ce0:	10000826 	beq	r2,zero,802d04 <logic+0x2588>
  802ce4:	e0bffc17 	ldw	r2,-16(fp)
  802ce8:	10803983 	ldbu	r2,230(r2)
  802cec:	10803fcc 	andi	r2,r2,255
  802cf0:	1080201c 	xori	r2,r2,128
  802cf4:	10bfe004 	addi	r2,r2,-128
  802cf8:	10000226 	beq	r2,zero,802d04 <logic+0x2588>
  802cfc:	00800044 	movi	r2,1
  802d00:	00000106 	br	802d08 <logic+0x258c>
  802d04:	0005883a 	mov	r2,zero
  802d08:	1007883a 	mov	r3,r2
  802d0c:	e0bffc17 	ldw	r2,-16(fp)
  802d10:	10c02145 	stb	r3,133(r2)
  if (d->_g41) {
  802d14:	e0bffc17 	ldw	r2,-16(fp)
  802d18:	10802143 	ldbu	r2,133(r2)
  802d1c:	10803fcc 	andi	r2,r2,255
  802d20:	1080201c 	xori	r2,r2,128
  802d24:	10bfe004 	addi	r2,r2,-128
  802d28:	10003426 	beq	r2,zero,802dfc <logic+0x2680>
    d->sleepT = (d->sleepT < (d->PVARP_Constraint - d->_region1_PVARP_cPVARP)) ? d->sleepT : (d->PVARP_Constraint - d->_region1_PVARP_cPVARP);
  802d2c:	e0bffc17 	ldw	r2,-16(fp)
  802d30:	14001517 	ldw	r16,84(r2)
  802d34:	14401617 	ldw	r17,88(r2)
  802d38:	e0bffc17 	ldw	r2,-16(fp)
  802d3c:	10800217 	ldw	r2,8(r2)
  802d40:	1009883a 	mov	r4,r2
  802d44:	0806b0c0 	call	806b0c <__floatsidf>
  802d48:	1011883a 	mov	r8,r2
  802d4c:	1813883a 	mov	r9,r3
  802d50:	e13ffc17 	ldw	r4,-16(fp)
  802d54:	20800917 	ldw	r2,36(r4)
  802d58:	20c00a17 	ldw	r3,40(r4)
  802d5c:	100d883a 	mov	r6,r2
  802d60:	180f883a 	mov	r7,r3
  802d64:	4009883a 	mov	r4,r8
  802d68:	480b883a 	mov	r5,r9
  802d6c:	08062100 	call	806210 <__subdf3>
  802d70:	1009883a 	mov	r4,r2
  802d74:	180b883a 	mov	r5,r3
  802d78:	2005883a 	mov	r2,r4
  802d7c:	2807883a 	mov	r3,r5
  802d80:	100d883a 	mov	r6,r2
  802d84:	180f883a 	mov	r7,r3
  802d88:	8009883a 	mov	r4,r16
  802d8c:	880b883a 	mov	r5,r17
  802d90:	080611c0 	call	80611c <__ledf2>
  802d94:	1000040e 	bge	r2,zero,802da8 <logic+0x262c>
  802d98:	e13ffc17 	ldw	r4,-16(fp)
  802d9c:	20801517 	ldw	r2,84(r4)
  802da0:	20c01617 	ldw	r3,88(r4)
  802da4:	00001206 	br	802df0 <logic+0x2674>
  802da8:	e0bffc17 	ldw	r2,-16(fp)
  802dac:	10800217 	ldw	r2,8(r2)
  802db0:	1009883a 	mov	r4,r2
  802db4:	0806b0c0 	call	806b0c <__floatsidf>
  802db8:	1011883a 	mov	r8,r2
  802dbc:	1813883a 	mov	r9,r3
  802dc0:	e13ffc17 	ldw	r4,-16(fp)
  802dc4:	20800917 	ldw	r2,36(r4)
  802dc8:	20c00a17 	ldw	r3,40(r4)
  802dcc:	100d883a 	mov	r6,r2
  802dd0:	180f883a 	mov	r7,r3
  802dd4:	4009883a 	mov	r4,r8
  802dd8:	480b883a 	mov	r5,r9
  802ddc:	08062100 	call	806210 <__subdf3>
  802de0:	1009883a 	mov	r4,r2
  802de4:	180b883a 	mov	r5,r3
  802de8:	2005883a 	mov	r2,r4
  802dec:	2807883a 	mov	r3,r5
  802df0:	e13ffc17 	ldw	r4,-16(fp)
  802df4:	20801515 	stw	r2,84(r4)
  802df8:	20c01615 	stw	r3,88(r4)
  }
  d->_cg42 = d->_Pacemaker_local__Atrig2;
  802dfc:	e0bffc17 	ldw	r2,-16(fp)
  802e00:	10c01983 	ldbu	r3,102(r2)
  802e04:	e0bffc17 	ldw	r2,-16(fp)
  802e08:	10c039c5 	stb	r3,231(r2)
  d->_g44 = d->_g41 && !d->_cg42;
  802e0c:	e0bffc17 	ldw	r2,-16(fp)
  802e10:	10802143 	ldbu	r2,133(r2)
  802e14:	10803fcc 	andi	r2,r2,255
  802e18:	1080201c 	xori	r2,r2,128
  802e1c:	10bfe004 	addi	r2,r2,-128
  802e20:	10000826 	beq	r2,zero,802e44 <logic+0x26c8>
  802e24:	e0bffc17 	ldw	r2,-16(fp)
  802e28:	108039c3 	ldbu	r2,231(r2)
  802e2c:	10803fcc 	andi	r2,r2,255
  802e30:	1080201c 	xori	r2,r2,128
  802e34:	10bfe004 	addi	r2,r2,-128
  802e38:	1000021e 	bne	r2,zero,802e44 <logic+0x26c8>
  802e3c:	00800044 	movi	r2,1
  802e40:	00000106 	br	802e48 <logic+0x26cc>
  802e44:	0005883a 	mov	r2,zero
  802e48:	1007883a 	mov	r3,r2
  802e4c:	e0bffc17 	ldw	r2,-16(fp)
  802e50:	10c02205 	stb	r3,136(r2)
  d->_g43_e2 = !(d->_g47 || d->_g44);
  802e54:	e0bffc17 	ldw	r2,-16(fp)
  802e58:	108022c3 	ldbu	r2,139(r2)
  802e5c:	10803fcc 	andi	r2,r2,255
  802e60:	1080201c 	xori	r2,r2,128
  802e64:	10bfe004 	addi	r2,r2,-128
  802e68:	1000081e 	bne	r2,zero,802e8c <logic+0x2710>
  802e6c:	e0bffc17 	ldw	r2,-16(fp)
  802e70:	10802203 	ldbu	r2,136(r2)
  802e74:	10803fcc 	andi	r2,r2,255
  802e78:	1080201c 	xori	r2,r2,128
  802e7c:	10bfe004 	addi	r2,r2,-128
  802e80:	1000021e 	bne	r2,zero,802e8c <logic+0x2710>
  802e84:	00800044 	movi	r2,1
  802e88:	00000106 	br	802e90 <logic+0x2714>
  802e8c:	0005883a 	mov	r2,zero
  802e90:	1007883a 	mov	r3,r2
  802e94:	e0bffc17 	ldw	r2,-16(fp)
  802e98:	10c04485 	stb	r3,274(r2)
  d->_g46 = d->_g41 && d->_cg42 || d->_g45 && d->_cg46;
  802e9c:	e0bffc17 	ldw	r2,-16(fp)
  802ea0:	10802143 	ldbu	r2,133(r2)
  802ea4:	10803fcc 	andi	r2,r2,255
  802ea8:	1080201c 	xori	r2,r2,128
  802eac:	10bfe004 	addi	r2,r2,-128
  802eb0:	10000626 	beq	r2,zero,802ecc <logic+0x2750>
  802eb4:	e0bffc17 	ldw	r2,-16(fp)
  802eb8:	108039c3 	ldbu	r2,231(r2)
  802ebc:	10803fcc 	andi	r2,r2,255
  802ec0:	1080201c 	xori	r2,r2,128
  802ec4:	10bfe004 	addi	r2,r2,-128
  802ec8:	10000c1e 	bne	r2,zero,802efc <logic+0x2780>
  802ecc:	e0bffc17 	ldw	r2,-16(fp)
  802ed0:	10802243 	ldbu	r2,137(r2)
  802ed4:	10803fcc 	andi	r2,r2,255
  802ed8:	1080201c 	xori	r2,r2,128
  802edc:	10bfe004 	addi	r2,r2,-128
  802ee0:	10000826 	beq	r2,zero,802f04 <logic+0x2788>
  802ee4:	e0bffc17 	ldw	r2,-16(fp)
  802ee8:	10803a03 	ldbu	r2,232(r2)
  802eec:	10803fcc 	andi	r2,r2,255
  802ef0:	1080201c 	xori	r2,r2,128
  802ef4:	10bfe004 	addi	r2,r2,-128
  802ef8:	10000226 	beq	r2,zero,802f04 <logic+0x2788>
  802efc:	00800044 	movi	r2,1
  802f00:	00000106 	br	802f08 <logic+0x278c>
  802f04:	0005883a 	mov	r2,zero
  802f08:	1007883a 	mov	r3,r2
  802f0c:	e0bffc17 	ldw	r2,-16(fp)
  802f10:	10c02285 	stb	r3,138(r2)
  d->_g42 = d->_g115_e1 || d->_g11 && !d->_cg51;
  802f14:	e0bffc17 	ldw	r2,-16(fp)
  802f18:	10804683 	ldbu	r2,282(r2)
  802f1c:	10803fcc 	andi	r2,r2,255
  802f20:	1080201c 	xori	r2,r2,128
  802f24:	10bfe004 	addi	r2,r2,-128
  802f28:	10000c1e 	bne	r2,zero,802f5c <logic+0x27e0>
  802f2c:	e0bffc17 	ldw	r2,-16(fp)
  802f30:	10801c43 	ldbu	r2,113(r2)
  802f34:	10803fcc 	andi	r2,r2,255
  802f38:	1080201c 	xori	r2,r2,128
  802f3c:	10bfe004 	addi	r2,r2,-128
  802f40:	10000826 	beq	r2,zero,802f64 <logic+0x27e8>
  802f44:	e0bffc17 	ldw	r2,-16(fp)
  802f48:	10803a43 	ldbu	r2,233(r2)
  802f4c:	10803fcc 	andi	r2,r2,255
  802f50:	1080201c 	xori	r2,r2,128
  802f54:	10bfe004 	addi	r2,r2,-128
  802f58:	1000021e 	bne	r2,zero,802f64 <logic+0x27e8>
  802f5c:	00800044 	movi	r2,1
  802f60:	00000106 	br	802f68 <logic+0x27ec>
  802f64:	0005883a 	mov	r2,zero
  802f68:	1007883a 	mov	r3,r2
  802f6c:	e0bffc17 	ldw	r2,-16(fp)
  802f70:	10c02185 	stb	r3,134(r2)
  d->_g51 = !d->_g42;
  802f74:	e0bffc17 	ldw	r2,-16(fp)
  802f78:	10802183 	ldbu	r2,134(r2)
  802f7c:	10803fcc 	andi	r2,r2,255
  802f80:	1080201c 	xori	r2,r2,128
  802f84:	10bfe004 	addi	r2,r2,-128
  802f88:	1005003a 	cmpeq	r2,r2,zero
  802f8c:	1007883a 	mov	r3,r2
  802f90:	e0bffc17 	ldw	r2,-16(fp)
  802f94:	10c02345 	stb	r3,141(r2)
  d->_g34 = (d->_g115 || d->_g39) && (d->_g43_e2 || d->_g46) && (d->_g51 || d->_g20) && (d->_g39 || d->_g46 || d->_g20);
  802f98:	e0bffc17 	ldw	r2,-16(fp)
  802f9c:	10802d83 	ldbu	r2,182(r2)
  802fa0:	10803fcc 	andi	r2,r2,255
  802fa4:	1080201c 	xori	r2,r2,128
  802fa8:	10bfe004 	addi	r2,r2,-128
  802fac:	1000061e 	bne	r2,zero,802fc8 <logic+0x284c>
  802fb0:	e0bffc17 	ldw	r2,-16(fp)
  802fb4:	10802103 	ldbu	r2,132(r2)
  802fb8:	10803fcc 	andi	r2,r2,255
  802fbc:	1080201c 	xori	r2,r2,128
  802fc0:	10bfe004 	addi	r2,r2,-128
  802fc4:	10002c26 	beq	r2,zero,803078 <logic+0x28fc>
  802fc8:	e0bffc17 	ldw	r2,-16(fp)
  802fcc:	10804483 	ldbu	r2,274(r2)
  802fd0:	10803fcc 	andi	r2,r2,255
  802fd4:	1080201c 	xori	r2,r2,128
  802fd8:	10bfe004 	addi	r2,r2,-128
  802fdc:	1000061e 	bne	r2,zero,802ff8 <logic+0x287c>
  802fe0:	e0bffc17 	ldw	r2,-16(fp)
  802fe4:	10802283 	ldbu	r2,138(r2)
  802fe8:	10803fcc 	andi	r2,r2,255
  802fec:	1080201c 	xori	r2,r2,128
  802ff0:	10bfe004 	addi	r2,r2,-128
  802ff4:	10002026 	beq	r2,zero,803078 <logic+0x28fc>
  802ff8:	e0bffc17 	ldw	r2,-16(fp)
  802ffc:	10802343 	ldbu	r2,141(r2)
  803000:	10803fcc 	andi	r2,r2,255
  803004:	1080201c 	xori	r2,r2,128
  803008:	10bfe004 	addi	r2,r2,-128
  80300c:	1000061e 	bne	r2,zero,803028 <logic+0x28ac>
  803010:	e0bffc17 	ldw	r2,-16(fp)
  803014:	10801e03 	ldbu	r2,120(r2)
  803018:	10803fcc 	andi	r2,r2,255
  80301c:	1080201c 	xori	r2,r2,128
  803020:	10bfe004 	addi	r2,r2,-128
  803024:	10001426 	beq	r2,zero,803078 <logic+0x28fc>
  803028:	e0bffc17 	ldw	r2,-16(fp)
  80302c:	10802103 	ldbu	r2,132(r2)
  803030:	10803fcc 	andi	r2,r2,255
  803034:	1080201c 	xori	r2,r2,128
  803038:	10bfe004 	addi	r2,r2,-128
  80303c:	10000c1e 	bne	r2,zero,803070 <logic+0x28f4>
  803040:	e0bffc17 	ldw	r2,-16(fp)
  803044:	10802283 	ldbu	r2,138(r2)
  803048:	10803fcc 	andi	r2,r2,255
  80304c:	1080201c 	xori	r2,r2,128
  803050:	10bfe004 	addi	r2,r2,-128
  803054:	1000061e 	bne	r2,zero,803070 <logic+0x28f4>
  803058:	e0bffc17 	ldw	r2,-16(fp)
  80305c:	10801e03 	ldbu	r2,120(r2)
  803060:	10803fcc 	andi	r2,r2,255
  803064:	1080201c 	xori	r2,r2,128
  803068:	10bfe004 	addi	r2,r2,-128
  80306c:	10000226 	beq	r2,zero,803078 <logic+0x28fc>
  803070:	00800044 	movi	r2,1
  803074:	00000106 	br	80307c <logic+0x2900>
  803078:	0005883a 	mov	r2,zero
  80307c:	1007883a 	mov	r3,r2
  803080:	e0bffc17 	ldw	r2,-16(fp)
  803084:	10c02045 	stb	r3,129(r2)
  d->_g37 = d->_GO || d->_g34 || d->_g131_e3 && !d->_cg33;
  803088:	e0bffc17 	ldw	r2,-16(fp)
  80308c:	108035c3 	ldbu	r2,215(r2)
  803090:	10803fcc 	andi	r2,r2,255
  803094:	1080201c 	xori	r2,r2,128
  803098:	10bfe004 	addi	r2,r2,-128
  80309c:	1000121e 	bne	r2,zero,8030e8 <logic+0x296c>
  8030a0:	e0bffc17 	ldw	r2,-16(fp)
  8030a4:	10802043 	ldbu	r2,129(r2)
  8030a8:	10803fcc 	andi	r2,r2,255
  8030ac:	1080201c 	xori	r2,r2,128
  8030b0:	10bfe004 	addi	r2,r2,-128
  8030b4:	10000c1e 	bne	r2,zero,8030e8 <logic+0x296c>
  8030b8:	e0bffc17 	ldw	r2,-16(fp)
  8030bc:	10804703 	ldbu	r2,284(r2)
  8030c0:	10803fcc 	andi	r2,r2,255
  8030c4:	1080201c 	xori	r2,r2,128
  8030c8:	10bfe004 	addi	r2,r2,-128
  8030cc:	10000826 	beq	r2,zero,8030f0 <logic+0x2974>
  8030d0:	e0bffc17 	ldw	r2,-16(fp)
  8030d4:	10803903 	ldbu	r2,228(r2)
  8030d8:	10803fcc 	andi	r2,r2,255
  8030dc:	1080201c 	xori	r2,r2,128
  8030e0:	10bfe004 	addi	r2,r2,-128
  8030e4:	1000021e 	bne	r2,zero,8030f0 <logic+0x2974>
  8030e8:	00800044 	movi	r2,1
  8030ec:	00000106 	br	8030f4 <logic+0x2978>
  8030f0:	0005883a 	mov	r2,zero
  8030f4:	1007883a 	mov	r3,r2
  8030f8:	e0bffc17 	ldw	r2,-16(fp)
  8030fc:	10c020c5 	stb	r3,131(r2)
  d->_g52 = d->_pg158_e3;
  803100:	e0bffc17 	ldw	r2,-16(fp)
  803104:	10c04e43 	ldbu	r3,313(r2)
  803108:	e0bffc17 	ldw	r2,-16(fp)
  80310c:	10c02385 	stb	r3,142(r2)
  if (d->_g52) {
  803110:	e0bffc17 	ldw	r2,-16(fp)
  803114:	10802383 	ldbu	r2,142(r2)
  803118:	10803fcc 	andi	r2,r2,255
  80311c:	1080201c 	xori	r2,r2,128
  803120:	10bfe004 	addi	r2,r2,-128
  803124:	10001226 	beq	r2,zero,803170 <logic+0x29f4>
    d->_region2_VRP_cVRP += d->deltaT;
  803128:	e13ffc17 	ldw	r4,-16(fp)
  80312c:	20800b17 	ldw	r2,44(r4)
  803130:	20c00c17 	ldw	r3,48(r4)
  803134:	e1bffc17 	ldw	r6,-16(fp)
  803138:	31001317 	ldw	r4,76(r6)
  80313c:	31401417 	ldw	r5,80(r6)
  803140:	200d883a 	mov	r6,r4
  803144:	280f883a 	mov	r7,r5
  803148:	1009883a 	mov	r4,r2
  80314c:	180b883a 	mov	r5,r3
  803150:	08057940 	call	805794 <__adddf3>
  803154:	1009883a 	mov	r4,r2
  803158:	180b883a 	mov	r5,r3
  80315c:	2005883a 	mov	r2,r4
  803160:	2807883a 	mov	r3,r5
  803164:	e13ffc17 	ldw	r4,-16(fp)
  803168:	20800b15 	stw	r2,44(r4)
  80316c:	20c00c15 	stw	r3,48(r4)
  }
  d->_g37_e1 = d->_pg70;
  803170:	e0bffc17 	ldw	r2,-16(fp)
  803174:	10c04e83 	ldbu	r3,314(r2)
  803178:	e0bffc17 	ldw	r2,-16(fp)
  80317c:	10c04445 	stb	r3,273(r2)
  d->_cg75 = d->_region2_VRP_cVRP >= d->VRP_Constraint;
  803180:	e0bffc17 	ldw	r2,-16(fp)
  803184:	14000b17 	ldw	r16,44(r2)
  803188:	14400c17 	ldw	r17,48(r2)
  80318c:	e0bffc17 	ldw	r2,-16(fp)
  803190:	10800317 	ldw	r2,12(r2)
  803194:	1009883a 	mov	r4,r2
  803198:	0806b0c0 	call	806b0c <__floatsidf>
  80319c:	1009883a 	mov	r4,r2
  8031a0:	180b883a 	mov	r5,r3
  8031a4:	04800044 	movi	r18,1
  8031a8:	200d883a 	mov	r6,r4
  8031ac:	280f883a 	mov	r7,r5
  8031b0:	8009883a 	mov	r4,r16
  8031b4:	880b883a 	mov	r5,r17
  8031b8:	08060400 	call	806040 <__gedf2>
  8031bc:	1000010e 	bge	r2,zero,8031c4 <logic+0x2a48>
  8031c0:	0025883a 	mov	r18,zero
  8031c4:	9007883a 	mov	r3,r18
  8031c8:	e0bffc17 	ldw	r2,-16(fp)
  8031cc:	10c03bc5 	stb	r3,239(r2)
  d->_g43 = d->_g37_e1 && d->_cg75;
  8031d0:	e0bffc17 	ldw	r2,-16(fp)
  8031d4:	10804443 	ldbu	r2,273(r2)
  8031d8:	10803fcc 	andi	r2,r2,255
  8031dc:	1080201c 	xori	r2,r2,128
  8031e0:	10bfe004 	addi	r2,r2,-128
  8031e4:	10000826 	beq	r2,zero,803208 <logic+0x2a8c>
  8031e8:	e0bffc17 	ldw	r2,-16(fp)
  8031ec:	10803bc3 	ldbu	r2,239(r2)
  8031f0:	10803fcc 	andi	r2,r2,255
  8031f4:	1080201c 	xori	r2,r2,128
  8031f8:	10bfe004 	addi	r2,r2,-128
  8031fc:	10000226 	beq	r2,zero,803208 <logic+0x2a8c>
  803200:	00800044 	movi	r2,1
  803204:	00000106 	br	80320c <logic+0x2a90>
  803208:	0005883a 	mov	r2,zero
  80320c:	1007883a 	mov	r3,r2
  803210:	e0bffc17 	ldw	r2,-16(fp)
  803214:	10c021c5 	stb	r3,135(r2)
  if (d->_g43) {
  803218:	e0bffc17 	ldw	r2,-16(fp)
  80321c:	108021c3 	ldbu	r2,135(r2)
  803220:	10803fcc 	andi	r2,r2,255
  803224:	1080201c 	xori	r2,r2,128
  803228:	10bfe004 	addi	r2,r2,-128
  80322c:	10000326 	beq	r2,zero,80323c <logic+0x2ac0>
    d->_Pacemaker_local__Atrig3 = 1;
  803230:	e0bffc17 	ldw	r2,-16(fp)
  803234:	00c00044 	movi	r3,1
  803238:	10c019c5 	stb	r3,103(r2)
  }
  d->_g43_e2 = d->_pg76_e3;
  80323c:	e0bffc17 	ldw	r2,-16(fp)
  803240:	10c04ec3 	ldbu	r3,315(r2)
  803244:	e0bffc17 	ldw	r2,-16(fp)
  803248:	10c04485 	stb	r3,274(r2)
  d->_cg57 = d->VS || d->VP;
  80324c:	e0bffc17 	ldw	r2,-16(fp)
  803250:	10800043 	ldbu	r2,1(r2)
  803254:	10803fcc 	andi	r2,r2,255
  803258:	1080201c 	xori	r2,r2,128
  80325c:	10bfe004 	addi	r2,r2,-128
  803260:	1000061e 	bne	r2,zero,80327c <logic+0x2b00>
  803264:	e0bffc17 	ldw	r2,-16(fp)
  803268:	10801743 	ldbu	r2,93(r2)
  80326c:	10803fcc 	andi	r2,r2,255
  803270:	1080201c 	xori	r2,r2,128
  803274:	10bfe004 	addi	r2,r2,-128
  803278:	10000226 	beq	r2,zero,803284 <logic+0x2b08>
  80327c:	00800044 	movi	r2,1
  803280:	00000106 	br	803288 <logic+0x2b0c>
  803284:	0005883a 	mov	r2,zero
  803288:	1007883a 	mov	r3,r2
  80328c:	e0bffc17 	ldw	r2,-16(fp)
  803290:	10c03a85 	stb	r3,234(r2)
  d->_g52_e3 = d->_g43_e2 && d->_cg57;
  803294:	e0bffc17 	ldw	r2,-16(fp)
  803298:	10804483 	ldbu	r2,274(r2)
  80329c:	10803fcc 	andi	r2,r2,255
  8032a0:	1080201c 	xori	r2,r2,128
  8032a4:	10bfe004 	addi	r2,r2,-128
  8032a8:	10000826 	beq	r2,zero,8032cc <logic+0x2b50>
  8032ac:	e0bffc17 	ldw	r2,-16(fp)
  8032b0:	10803a83 	ldbu	r2,234(r2)
  8032b4:	10803fcc 	andi	r2,r2,255
  8032b8:	1080201c 	xori	r2,r2,128
  8032bc:	10bfe004 	addi	r2,r2,-128
  8032c0:	10000226 	beq	r2,zero,8032cc <logic+0x2b50>
  8032c4:	00800044 	movi	r2,1
  8032c8:	00000106 	br	8032d0 <logic+0x2b54>
  8032cc:	0005883a 	mov	r2,zero
  8032d0:	1007883a 	mov	r3,r2
  8032d4:	e0bffc17 	ldw	r2,-16(fp)
  8032d8:	10c044c5 	stb	r3,275(r2)
  if (d->_g52_e3) {
  8032dc:	e0bffc17 	ldw	r2,-16(fp)
  8032e0:	108044c3 	ldbu	r2,275(r2)
  8032e4:	10803fcc 	andi	r2,r2,255
  8032e8:	1080201c 	xori	r2,r2,128
  8032ec:	10bfe004 	addi	r2,r2,-128
  8032f0:	10000526 	beq	r2,zero,803308 <logic+0x2b8c>
    d->_region2_VRP_cVRP = 0;
  8032f4:	e0bffc17 	ldw	r2,-16(fp)
  8032f8:	10000b15 	stw	zero,44(r2)
  8032fc:	10000c15 	stw	zero,48(r2)
    d->_Pacemaker_local__Atrig3 = 0;
  803300:	e0bffc17 	ldw	r2,-16(fp)
  803304:	100019c5 	stb	zero,103(r2)
  }
  d->_g33 = d->_g52_e3 || d->_g5;
  803308:	e0bffc17 	ldw	r2,-16(fp)
  80330c:	108044c3 	ldbu	r2,275(r2)
  803310:	10803fcc 	andi	r2,r2,255
  803314:	1080201c 	xori	r2,r2,128
  803318:	10bfe004 	addi	r2,r2,-128
  80331c:	1000061e 	bne	r2,zero,803338 <logic+0x2bbc>
  803320:	e0bffc17 	ldw	r2,-16(fp)
  803324:	10801b83 	ldbu	r2,110(r2)
  803328:	10803fcc 	andi	r2,r2,255
  80332c:	1080201c 	xori	r2,r2,128
  803330:	10bfe004 	addi	r2,r2,-128
  803334:	10000226 	beq	r2,zero,803340 <logic+0x2bc4>
  803338:	00800044 	movi	r2,1
  80333c:	00000106 	br	803344 <logic+0x2bc8>
  803340:	0005883a 	mov	r2,zero
  803344:	1007883a 	mov	r3,r2
  803348:	e0bffc17 	ldw	r2,-16(fp)
  80334c:	10c02005 	stb	r3,128(r2)
  d->_cg60 = d->_Pacemaker_local__Atrig3;
  803350:	e0bffc17 	ldw	r2,-16(fp)
  803354:	10c019c3 	ldbu	r3,103(r2)
  803358:	e0bffc17 	ldw	r2,-16(fp)
  80335c:	10c03ac5 	stb	r3,235(r2)
  d->_g53 = d->_g33 && !d->_cg60;
  803360:	e0bffc17 	ldw	r2,-16(fp)
  803364:	10802003 	ldbu	r2,128(r2)
  803368:	10803fcc 	andi	r2,r2,255
  80336c:	1080201c 	xori	r2,r2,128
  803370:	10bfe004 	addi	r2,r2,-128
  803374:	10000826 	beq	r2,zero,803398 <logic+0x2c1c>
  803378:	e0bffc17 	ldw	r2,-16(fp)
  80337c:	10803ac3 	ldbu	r2,235(r2)
  803380:	10803fcc 	andi	r2,r2,255
  803384:	1080201c 	xori	r2,r2,128
  803388:	10bfe004 	addi	r2,r2,-128
  80338c:	1000021e 	bne	r2,zero,803398 <logic+0x2c1c>
  803390:	00800044 	movi	r2,1
  803394:	00000106 	br	80339c <logic+0x2c20>
  803398:	0005883a 	mov	r2,zero
  80339c:	1007883a 	mov	r3,r2
  8033a0:	e0bffc17 	ldw	r2,-16(fp)
  8033a4:	10c023c5 	stb	r3,143(r2)
  d->_g63 = !d->_g53;
  8033a8:	e0bffc17 	ldw	r2,-16(fp)
  8033ac:	108023c3 	ldbu	r2,143(r2)
  8033b0:	10803fcc 	andi	r2,r2,255
  8033b4:	1080201c 	xori	r2,r2,128
  8033b8:	10bfe004 	addi	r2,r2,-128
  8033bc:	1005003a 	cmpeq	r2,r2,zero
  8033c0:	1007883a 	mov	r3,r2
  8033c4:	e0bffc17 	ldw	r2,-16(fp)
  8033c8:	10c02505 	stb	r3,148(r2)
  d->_g60 = d->_g33 && d->_cg60;
  8033cc:	e0bffc17 	ldw	r2,-16(fp)
  8033d0:	10802003 	ldbu	r2,128(r2)
  8033d4:	10803fcc 	andi	r2,r2,255
  8033d8:	1080201c 	xori	r2,r2,128
  8033dc:	10bfe004 	addi	r2,r2,-128
  8033e0:	10000826 	beq	r2,zero,803404 <logic+0x2c88>
  8033e4:	e0bffc17 	ldw	r2,-16(fp)
  8033e8:	10803ac3 	ldbu	r2,235(r2)
  8033ec:	10803fcc 	andi	r2,r2,255
  8033f0:	1080201c 	xori	r2,r2,128
  8033f4:	10bfe004 	addi	r2,r2,-128
  8033f8:	10000226 	beq	r2,zero,803404 <logic+0x2c88>
  8033fc:	00800044 	movi	r2,1
  803400:	00000106 	br	803408 <logic+0x2c8c>
  803404:	0005883a 	mov	r2,zero
  803408:	1007883a 	mov	r3,r2
  80340c:	e0bffc17 	ldw	r2,-16(fp)
  803410:	10c02485 	stb	r3,146(r2)
  d->_g69 = d->_pg68;
  803414:	e0bffc17 	ldw	r2,-16(fp)
  803418:	10c04f03 	ldbu	r3,316(r2)
  80341c:	e0bffc17 	ldw	r2,-16(fp)
  803420:	10c02645 	stb	r3,153(r2)
  d->_g72 = d->_pg71;
  803424:	e0bffc17 	ldw	r2,-16(fp)
  803428:	10c04f43 	ldbu	r3,317(r2)
  80342c:	e0bffc17 	ldw	r2,-16(fp)
  803430:	10c02705 	stb	r3,156(r2)
  d->_g69 = d->_g52_e3 || d->_g69 || d->_g72;
  803434:	e0bffc17 	ldw	r2,-16(fp)
  803438:	108044c3 	ldbu	r2,275(r2)
  80343c:	10803fcc 	andi	r2,r2,255
  803440:	1080201c 	xori	r2,r2,128
  803444:	10bfe004 	addi	r2,r2,-128
  803448:	10000c1e 	bne	r2,zero,80347c <logic+0x2d00>
  80344c:	e0bffc17 	ldw	r2,-16(fp)
  803450:	10802643 	ldbu	r2,153(r2)
  803454:	10803fcc 	andi	r2,r2,255
  803458:	1080201c 	xori	r2,r2,128
  80345c:	10bfe004 	addi	r2,r2,-128
  803460:	1000061e 	bne	r2,zero,80347c <logic+0x2d00>
  803464:	e0bffc17 	ldw	r2,-16(fp)
  803468:	10802703 	ldbu	r2,156(r2)
  80346c:	10803fcc 	andi	r2,r2,255
  803470:	1080201c 	xori	r2,r2,128
  803474:	10bfe004 	addi	r2,r2,-128
  803478:	10000226 	beq	r2,zero,803484 <logic+0x2d08>
  80347c:	00800044 	movi	r2,1
  803480:	00000106 	br	803488 <logic+0x2d0c>
  803484:	0005883a 	mov	r2,zero
  803488:	1007883a 	mov	r3,r2
  80348c:	e0bffc17 	ldw	r2,-16(fp)
  803490:	10c02645 	stb	r3,153(r2)
  d->_cg65 = d->_region2_VRP_cVRP < d->VRP_Constraint;
  803494:	e0bffc17 	ldw	r2,-16(fp)
  803498:	14000b17 	ldw	r16,44(r2)
  80349c:	14400c17 	ldw	r17,48(r2)
  8034a0:	e0bffc17 	ldw	r2,-16(fp)
  8034a4:	10800317 	ldw	r2,12(r2)
  8034a8:	1009883a 	mov	r4,r2
  8034ac:	0806b0c0 	call	806b0c <__floatsidf>
  8034b0:	1009883a 	mov	r4,r2
  8034b4:	180b883a 	mov	r5,r3
  8034b8:	04800044 	movi	r18,1
  8034bc:	200d883a 	mov	r6,r4
  8034c0:	280f883a 	mov	r7,r5
  8034c4:	8009883a 	mov	r4,r16
  8034c8:	880b883a 	mov	r5,r17
  8034cc:	080611c0 	call	80611c <__ledf2>
  8034d0:	10000116 	blt	r2,zero,8034d8 <logic+0x2d5c>
  8034d4:	0025883a 	mov	r18,zero
  8034d8:	9007883a 	mov	r3,r18
  8034dc:	e0bffc17 	ldw	r2,-16(fp)
  8034e0:	10c03b05 	stb	r3,236(r2)
  d->_g72 = d->_g69 && !d->_cg65;
  8034e4:	e0bffc17 	ldw	r2,-16(fp)
  8034e8:	10802643 	ldbu	r2,153(r2)
  8034ec:	10803fcc 	andi	r2,r2,255
  8034f0:	1080201c 	xori	r2,r2,128
  8034f4:	10bfe004 	addi	r2,r2,-128
  8034f8:	10000826 	beq	r2,zero,80351c <logic+0x2da0>
  8034fc:	e0bffc17 	ldw	r2,-16(fp)
  803500:	10803b03 	ldbu	r2,236(r2)
  803504:	10803fcc 	andi	r2,r2,255
  803508:	1080201c 	xori	r2,r2,128
  80350c:	10bfe004 	addi	r2,r2,-128
  803510:	1000021e 	bne	r2,zero,80351c <logic+0x2da0>
  803514:	00800044 	movi	r2,1
  803518:	00000106 	br	803520 <logic+0x2da4>
  80351c:	0005883a 	mov	r2,zero
  803520:	1007883a 	mov	r3,r2
  803524:	e0bffc17 	ldw	r2,-16(fp)
  803528:	10c02705 	stb	r3,156(r2)
  d->_cg70 = d->_Pacemaker_local__Atrig3;
  80352c:	e0bffc17 	ldw	r2,-16(fp)
  803530:	10c019c3 	ldbu	r3,103(r2)
  803534:	e0bffc17 	ldw	r2,-16(fp)
  803538:	10c03b85 	stb	r3,238(r2)
  d->_g71 = d->_g72 && !d->_cg70;
  80353c:	e0bffc17 	ldw	r2,-16(fp)
  803540:	10802703 	ldbu	r2,156(r2)
  803544:	10803fcc 	andi	r2,r2,255
  803548:	1080201c 	xori	r2,r2,128
  80354c:	10bfe004 	addi	r2,r2,-128
  803550:	10000826 	beq	r2,zero,803574 <logic+0x2df8>
  803554:	e0bffc17 	ldw	r2,-16(fp)
  803558:	10803b83 	ldbu	r2,238(r2)
  80355c:	10803fcc 	andi	r2,r2,255
  803560:	1080201c 	xori	r2,r2,128
  803564:	10bfe004 	addi	r2,r2,-128
  803568:	1000021e 	bne	r2,zero,803574 <logic+0x2df8>
  80356c:	00800044 	movi	r2,1
  803570:	00000106 	br	803578 <logic+0x2dfc>
  803574:	0005883a 	mov	r2,zero
  803578:	1007883a 	mov	r3,r2
  80357c:	e0bffc17 	ldw	r2,-16(fp)
  803580:	10c026c5 	stb	r3,155(r2)
  d->_g65 = d->_g69 && d->_cg65;
  803584:	e0bffc17 	ldw	r2,-16(fp)
  803588:	10802643 	ldbu	r2,153(r2)
  80358c:	10803fcc 	andi	r2,r2,255
  803590:	1080201c 	xori	r2,r2,128
  803594:	10bfe004 	addi	r2,r2,-128
  803598:	10000826 	beq	r2,zero,8035bc <logic+0x2e40>
  80359c:	e0bffc17 	ldw	r2,-16(fp)
  8035a0:	10803b03 	ldbu	r2,236(r2)
  8035a4:	10803fcc 	andi	r2,r2,255
  8035a8:	1080201c 	xori	r2,r2,128
  8035ac:	10bfe004 	addi	r2,r2,-128
  8035b0:	10000226 	beq	r2,zero,8035bc <logic+0x2e40>
  8035b4:	00800044 	movi	r2,1
  8035b8:	00000106 	br	8035c0 <logic+0x2e44>
  8035bc:	0005883a 	mov	r2,zero
  8035c0:	1007883a 	mov	r3,r2
  8035c4:	e0bffc17 	ldw	r2,-16(fp)
  8035c8:	10c02545 	stb	r3,149(r2)
  if (d->_g65) {
  8035cc:	e0bffc17 	ldw	r2,-16(fp)
  8035d0:	10802543 	ldbu	r2,149(r2)
  8035d4:	10803fcc 	andi	r2,r2,255
  8035d8:	1080201c 	xori	r2,r2,128
  8035dc:	10bfe004 	addi	r2,r2,-128
  8035e0:	10003426 	beq	r2,zero,8036b4 <logic+0x2f38>
    d->sleepT = (d->sleepT < (d->VRP_Constraint - d->_region2_VRP_cVRP)) ? d->sleepT : (d->VRP_Constraint - d->_region2_VRP_cVRP);
  8035e4:	e0bffc17 	ldw	r2,-16(fp)
  8035e8:	14001517 	ldw	r16,84(r2)
  8035ec:	14401617 	ldw	r17,88(r2)
  8035f0:	e0bffc17 	ldw	r2,-16(fp)
  8035f4:	10800317 	ldw	r2,12(r2)
  8035f8:	1009883a 	mov	r4,r2
  8035fc:	0806b0c0 	call	806b0c <__floatsidf>
  803600:	1011883a 	mov	r8,r2
  803604:	1813883a 	mov	r9,r3
  803608:	e13ffc17 	ldw	r4,-16(fp)
  80360c:	20800b17 	ldw	r2,44(r4)
  803610:	20c00c17 	ldw	r3,48(r4)
  803614:	100d883a 	mov	r6,r2
  803618:	180f883a 	mov	r7,r3
  80361c:	4009883a 	mov	r4,r8
  803620:	480b883a 	mov	r5,r9
  803624:	08062100 	call	806210 <__subdf3>
  803628:	1009883a 	mov	r4,r2
  80362c:	180b883a 	mov	r5,r3
  803630:	2005883a 	mov	r2,r4
  803634:	2807883a 	mov	r3,r5
  803638:	100d883a 	mov	r6,r2
  80363c:	180f883a 	mov	r7,r3
  803640:	8009883a 	mov	r4,r16
  803644:	880b883a 	mov	r5,r17
  803648:	080611c0 	call	80611c <__ledf2>
  80364c:	1000040e 	bge	r2,zero,803660 <logic+0x2ee4>
  803650:	e13ffc17 	ldw	r4,-16(fp)
  803654:	20801517 	ldw	r2,84(r4)
  803658:	20c01617 	ldw	r3,88(r4)
  80365c:	00001206 	br	8036a8 <logic+0x2f2c>
  803660:	e0bffc17 	ldw	r2,-16(fp)
  803664:	10800317 	ldw	r2,12(r2)
  803668:	1009883a 	mov	r4,r2
  80366c:	0806b0c0 	call	806b0c <__floatsidf>
  803670:	1011883a 	mov	r8,r2
  803674:	1813883a 	mov	r9,r3
  803678:	e13ffc17 	ldw	r4,-16(fp)
  80367c:	20800b17 	ldw	r2,44(r4)
  803680:	20c00c17 	ldw	r3,48(r4)
  803684:	100d883a 	mov	r6,r2
  803688:	180f883a 	mov	r7,r3
  80368c:	4009883a 	mov	r4,r8
  803690:	480b883a 	mov	r5,r9
  803694:	08062100 	call	806210 <__subdf3>
  803698:	1009883a 	mov	r4,r2
  80369c:	180b883a 	mov	r5,r3
  8036a0:	2005883a 	mov	r2,r4
  8036a4:	2807883a 	mov	r3,r5
  8036a8:	e13ffc17 	ldw	r4,-16(fp)
  8036ac:	20801515 	stw	r2,84(r4)
  8036b0:	20c01615 	stw	r3,88(r4)
  }
  d->_cg66 = d->_Pacemaker_local__Atrig3;
  8036b4:	e0bffc17 	ldw	r2,-16(fp)
  8036b8:	10c019c3 	ldbu	r3,103(r2)
  8036bc:	e0bffc17 	ldw	r2,-16(fp)
  8036c0:	10c03b45 	stb	r3,237(r2)
  d->_g68 = d->_g65 && !d->_cg66;
  8036c4:	e0bffc17 	ldw	r2,-16(fp)
  8036c8:	10802543 	ldbu	r2,149(r2)
  8036cc:	10803fcc 	andi	r2,r2,255
  8036d0:	1080201c 	xori	r2,r2,128
  8036d4:	10bfe004 	addi	r2,r2,-128
  8036d8:	10000826 	beq	r2,zero,8036fc <logic+0x2f80>
  8036dc:	e0bffc17 	ldw	r2,-16(fp)
  8036e0:	10803b43 	ldbu	r2,237(r2)
  8036e4:	10803fcc 	andi	r2,r2,255
  8036e8:	1080201c 	xori	r2,r2,128
  8036ec:	10bfe004 	addi	r2,r2,-128
  8036f0:	1000021e 	bne	r2,zero,8036fc <logic+0x2f80>
  8036f4:	00800044 	movi	r2,1
  8036f8:	00000106 	br	803700 <logic+0x2f84>
  8036fc:	0005883a 	mov	r2,zero
  803700:	1007883a 	mov	r3,r2
  803704:	e0bffc17 	ldw	r2,-16(fp)
  803708:	10c02605 	stb	r3,152(r2)
  d->_g67_e2 = !(d->_g71 || d->_g68);
  80370c:	e0bffc17 	ldw	r2,-16(fp)
  803710:	108026c3 	ldbu	r2,155(r2)
  803714:	10803fcc 	andi	r2,r2,255
  803718:	1080201c 	xori	r2,r2,128
  80371c:	10bfe004 	addi	r2,r2,-128
  803720:	1000081e 	bne	r2,zero,803744 <logic+0x2fc8>
  803724:	e0bffc17 	ldw	r2,-16(fp)
  803728:	10802603 	ldbu	r2,152(r2)
  80372c:	10803fcc 	andi	r2,r2,255
  803730:	1080201c 	xori	r2,r2,128
  803734:	10bfe004 	addi	r2,r2,-128
  803738:	1000021e 	bne	r2,zero,803744 <logic+0x2fc8>
  80373c:	00800044 	movi	r2,1
  803740:	00000106 	br	803748 <logic+0x2fcc>
  803744:	0005883a 	mov	r2,zero
  803748:	1007883a 	mov	r3,r2
  80374c:	e0bffc17 	ldw	r2,-16(fp)
  803750:	10c04545 	stb	r3,277(r2)
  d->_g66 = d->_g65 && d->_cg66 || d->_g72 && d->_cg70;
  803754:	e0bffc17 	ldw	r2,-16(fp)
  803758:	10802543 	ldbu	r2,149(r2)
  80375c:	10803fcc 	andi	r2,r2,255
  803760:	1080201c 	xori	r2,r2,128
  803764:	10bfe004 	addi	r2,r2,-128
  803768:	10000626 	beq	r2,zero,803784 <logic+0x3008>
  80376c:	e0bffc17 	ldw	r2,-16(fp)
  803770:	10803b43 	ldbu	r2,237(r2)
  803774:	10803fcc 	andi	r2,r2,255
  803778:	1080201c 	xori	r2,r2,128
  80377c:	10bfe004 	addi	r2,r2,-128
  803780:	10000c1e 	bne	r2,zero,8037b4 <logic+0x3038>
  803784:	e0bffc17 	ldw	r2,-16(fp)
  803788:	10802703 	ldbu	r2,156(r2)
  80378c:	10803fcc 	andi	r2,r2,255
  803790:	1080201c 	xori	r2,r2,128
  803794:	10bfe004 	addi	r2,r2,-128
  803798:	10000826 	beq	r2,zero,8037bc <logic+0x3040>
  80379c:	e0bffc17 	ldw	r2,-16(fp)
  8037a0:	10803b83 	ldbu	r2,238(r2)
  8037a4:	10803fcc 	andi	r2,r2,255
  8037a8:	1080201c 	xori	r2,r2,128
  8037ac:	10bfe004 	addi	r2,r2,-128
  8037b0:	10000226 	beq	r2,zero,8037bc <logic+0x3040>
  8037b4:	00800044 	movi	r2,1
  8037b8:	00000106 	br	8037c0 <logic+0x3044>
  8037bc:	0005883a 	mov	r2,zero
  8037c0:	1007883a 	mov	r3,r2
  8037c4:	e0bffc17 	ldw	r2,-16(fp)
  8037c8:	10c02585 	stb	r3,150(r2)
  d->_g70 = d->_g52_e3 || d->_g37_e1 && !d->_cg75;
  8037cc:	e0bffc17 	ldw	r2,-16(fp)
  8037d0:	108044c3 	ldbu	r2,275(r2)
  8037d4:	10803fcc 	andi	r2,r2,255
  8037d8:	1080201c 	xori	r2,r2,128
  8037dc:	10bfe004 	addi	r2,r2,-128
  8037e0:	10000c1e 	bne	r2,zero,803814 <logic+0x3098>
  8037e4:	e0bffc17 	ldw	r2,-16(fp)
  8037e8:	10804443 	ldbu	r2,273(r2)
  8037ec:	10803fcc 	andi	r2,r2,255
  8037f0:	1080201c 	xori	r2,r2,128
  8037f4:	10bfe004 	addi	r2,r2,-128
  8037f8:	10000826 	beq	r2,zero,80381c <logic+0x30a0>
  8037fc:	e0bffc17 	ldw	r2,-16(fp)
  803800:	10803bc3 	ldbu	r2,239(r2)
  803804:	10803fcc 	andi	r2,r2,255
  803808:	1080201c 	xori	r2,r2,128
  80380c:	10bfe004 	addi	r2,r2,-128
  803810:	1000021e 	bne	r2,zero,80381c <logic+0x30a0>
  803814:	00800044 	movi	r2,1
  803818:	00000106 	br	803820 <logic+0x30a4>
  80381c:	0005883a 	mov	r2,zero
  803820:	1007883a 	mov	r3,r2
  803824:	e0bffc17 	ldw	r2,-16(fp)
  803828:	10c02685 	stb	r3,154(r2)
  d->_g75 = !d->_g70;
  80382c:	e0bffc17 	ldw	r2,-16(fp)
  803830:	10802683 	ldbu	r2,154(r2)
  803834:	10803fcc 	andi	r2,r2,255
  803838:	1080201c 	xori	r2,r2,128
  80383c:	10bfe004 	addi	r2,r2,-128
  803840:	1005003a 	cmpeq	r2,r2,zero
  803844:	1007883a 	mov	r3,r2
  803848:	e0bffc17 	ldw	r2,-16(fp)
  80384c:	10c02745 	stb	r3,157(r2)
  d->_g58 = (d->_g63 || d->_g60) && (d->_g67_e2 || d->_g66) && (d->_g75 || d->_g43) && (d->_g60 || d->_g66 || d->_g43);
  803850:	e0bffc17 	ldw	r2,-16(fp)
  803854:	10802503 	ldbu	r2,148(r2)
  803858:	10803fcc 	andi	r2,r2,255
  80385c:	1080201c 	xori	r2,r2,128
  803860:	10bfe004 	addi	r2,r2,-128
  803864:	1000061e 	bne	r2,zero,803880 <logic+0x3104>
  803868:	e0bffc17 	ldw	r2,-16(fp)
  80386c:	10802483 	ldbu	r2,146(r2)
  803870:	10803fcc 	andi	r2,r2,255
  803874:	1080201c 	xori	r2,r2,128
  803878:	10bfe004 	addi	r2,r2,-128
  80387c:	10002c26 	beq	r2,zero,803930 <logic+0x31b4>
  803880:	e0bffc17 	ldw	r2,-16(fp)
  803884:	10804543 	ldbu	r2,277(r2)
  803888:	10803fcc 	andi	r2,r2,255
  80388c:	1080201c 	xori	r2,r2,128
  803890:	10bfe004 	addi	r2,r2,-128
  803894:	1000061e 	bne	r2,zero,8038b0 <logic+0x3134>
  803898:	e0bffc17 	ldw	r2,-16(fp)
  80389c:	10802583 	ldbu	r2,150(r2)
  8038a0:	10803fcc 	andi	r2,r2,255
  8038a4:	1080201c 	xori	r2,r2,128
  8038a8:	10bfe004 	addi	r2,r2,-128
  8038ac:	10002026 	beq	r2,zero,803930 <logic+0x31b4>
  8038b0:	e0bffc17 	ldw	r2,-16(fp)
  8038b4:	10802743 	ldbu	r2,157(r2)
  8038b8:	10803fcc 	andi	r2,r2,255
  8038bc:	1080201c 	xori	r2,r2,128
  8038c0:	10bfe004 	addi	r2,r2,-128
  8038c4:	1000061e 	bne	r2,zero,8038e0 <logic+0x3164>
  8038c8:	e0bffc17 	ldw	r2,-16(fp)
  8038cc:	108021c3 	ldbu	r2,135(r2)
  8038d0:	10803fcc 	andi	r2,r2,255
  8038d4:	1080201c 	xori	r2,r2,128
  8038d8:	10bfe004 	addi	r2,r2,-128
  8038dc:	10001426 	beq	r2,zero,803930 <logic+0x31b4>
  8038e0:	e0bffc17 	ldw	r2,-16(fp)
  8038e4:	10802483 	ldbu	r2,146(r2)
  8038e8:	10803fcc 	andi	r2,r2,255
  8038ec:	1080201c 	xori	r2,r2,128
  8038f0:	10bfe004 	addi	r2,r2,-128
  8038f4:	10000c1e 	bne	r2,zero,803928 <logic+0x31ac>
  8038f8:	e0bffc17 	ldw	r2,-16(fp)
  8038fc:	10802583 	ldbu	r2,150(r2)
  803900:	10803fcc 	andi	r2,r2,255
  803904:	1080201c 	xori	r2,r2,128
  803908:	10bfe004 	addi	r2,r2,-128
  80390c:	1000061e 	bne	r2,zero,803928 <logic+0x31ac>
  803910:	e0bffc17 	ldw	r2,-16(fp)
  803914:	108021c3 	ldbu	r2,135(r2)
  803918:	10803fcc 	andi	r2,r2,255
  80391c:	1080201c 	xori	r2,r2,128
  803920:	10bfe004 	addi	r2,r2,-128
  803924:	10000226 	beq	r2,zero,803930 <logic+0x31b4>
  803928:	00800044 	movi	r2,1
  80392c:	00000106 	br	803934 <logic+0x31b8>
  803930:	0005883a 	mov	r2,zero
  803934:	1007883a 	mov	r3,r2
  803938:	e0bffc17 	ldw	r2,-16(fp)
  80393c:	10c02445 	stb	r3,145(r2)
  d->_g76_e3 = d->_GO || d->_g58 || d->_g43_e2 && !d->_cg57;
  803940:	e0bffc17 	ldw	r2,-16(fp)
  803944:	108035c3 	ldbu	r2,215(r2)
  803948:	10803fcc 	andi	r2,r2,255
  80394c:	1080201c 	xori	r2,r2,128
  803950:	10bfe004 	addi	r2,r2,-128
  803954:	1000121e 	bne	r2,zero,8039a0 <logic+0x3224>
  803958:	e0bffc17 	ldw	r2,-16(fp)
  80395c:	10802443 	ldbu	r2,145(r2)
  803960:	10803fcc 	andi	r2,r2,255
  803964:	1080201c 	xori	r2,r2,128
  803968:	10bfe004 	addi	r2,r2,-128
  80396c:	10000c1e 	bne	r2,zero,8039a0 <logic+0x3224>
  803970:	e0bffc17 	ldw	r2,-16(fp)
  803974:	10804483 	ldbu	r2,274(r2)
  803978:	10803fcc 	andi	r2,r2,255
  80397c:	1080201c 	xori	r2,r2,128
  803980:	10bfe004 	addi	r2,r2,-128
  803984:	10000826 	beq	r2,zero,8039a8 <logic+0x322c>
  803988:	e0bffc17 	ldw	r2,-16(fp)
  80398c:	10803a83 	ldbu	r2,234(r2)
  803990:	10803fcc 	andi	r2,r2,255
  803994:	1080201c 	xori	r2,r2,128
  803998:	10bfe004 	addi	r2,r2,-128
  80399c:	1000021e 	bne	r2,zero,8039a8 <logic+0x322c>
  8039a0:	00800044 	movi	r2,1
  8039a4:	00000106 	br	8039ac <logic+0x3230>
  8039a8:	0005883a 	mov	r2,zero
  8039ac:	1007883a 	mov	r3,r2
  8039b0:	e0bffc17 	ldw	r2,-16(fp)
  8039b4:	10c04585 	stb	r3,278(r2)
  d->_g61_e1 = d->_pg76;
  8039b8:	e0bffc17 	ldw	r2,-16(fp)
  8039bc:	10c04f83 	ldbu	r3,318(r2)
  8039c0:	e0bffc17 	ldw	r2,-16(fp)
  8039c4:	10c04505 	stb	r3,276(r2)
  d->_cg81 = (d->VS || d->VP) && !d->VRP;
  8039c8:	e0bffc17 	ldw	r2,-16(fp)
  8039cc:	10800043 	ldbu	r2,1(r2)
  8039d0:	10803fcc 	andi	r2,r2,255
  8039d4:	1080201c 	xori	r2,r2,128
  8039d8:	10bfe004 	addi	r2,r2,-128
  8039dc:	1000061e 	bne	r2,zero,8039f8 <logic+0x327c>
  8039e0:	e0bffc17 	ldw	r2,-16(fp)
  8039e4:	10801743 	ldbu	r2,93(r2)
  8039e8:	10803fcc 	andi	r2,r2,255
  8039ec:	1080201c 	xori	r2,r2,128
  8039f0:	10bfe004 	addi	r2,r2,-128
  8039f4:	10000826 	beq	r2,zero,803a18 <logic+0x329c>
  8039f8:	e0bffc17 	ldw	r2,-16(fp)
  8039fc:	10801803 	ldbu	r2,96(r2)
  803a00:	10803fcc 	andi	r2,r2,255
  803a04:	1080201c 	xori	r2,r2,128
  803a08:	10bfe004 	addi	r2,r2,-128
  803a0c:	1000021e 	bne	r2,zero,803a18 <logic+0x329c>
  803a10:	00800044 	movi	r2,1
  803a14:	00000106 	br	803a1c <logic+0x32a0>
  803a18:	0005883a 	mov	r2,zero
  803a1c:	1007883a 	mov	r3,r2
  803a20:	e0bffc17 	ldw	r2,-16(fp)
  803a24:	10c03c45 	stb	r3,241(r2)
  d->_g76 = d->_GO || d->_g102 || d->_g104 && !d->_cg105 || d->_g61_e1 && !d->_cg81;
  803a28:	e0bffc17 	ldw	r2,-16(fp)
  803a2c:	108035c3 	ldbu	r2,215(r2)
  803a30:	10803fcc 	andi	r2,r2,255
  803a34:	1080201c 	xori	r2,r2,128
  803a38:	10bfe004 	addi	r2,r2,-128
  803a3c:	10001e1e 	bne	r2,zero,803ab8 <logic+0x333c>
  803a40:	e0bffc17 	ldw	r2,-16(fp)
  803a44:	10802b83 	ldbu	r2,174(r2)
  803a48:	10803fcc 	andi	r2,r2,255
  803a4c:	1080201c 	xori	r2,r2,128
  803a50:	10bfe004 	addi	r2,r2,-128
  803a54:	1000181e 	bne	r2,zero,803ab8 <logic+0x333c>
  803a58:	e0bffc17 	ldw	r2,-16(fp)
  803a5c:	10802c03 	ldbu	r2,176(r2)
  803a60:	10803fcc 	andi	r2,r2,255
  803a64:	1080201c 	xori	r2,r2,128
  803a68:	10bfe004 	addi	r2,r2,-128
  803a6c:	10000626 	beq	r2,zero,803a88 <logic+0x330c>
  803a70:	e0bffc17 	ldw	r2,-16(fp)
  803a74:	10803c03 	ldbu	r2,240(r2)
  803a78:	10803fcc 	andi	r2,r2,255
  803a7c:	1080201c 	xori	r2,r2,128
  803a80:	10bfe004 	addi	r2,r2,-128
  803a84:	10000c26 	beq	r2,zero,803ab8 <logic+0x333c>
  803a88:	e0bffc17 	ldw	r2,-16(fp)
  803a8c:	10804503 	ldbu	r2,276(r2)
  803a90:	10803fcc 	andi	r2,r2,255
  803a94:	1080201c 	xori	r2,r2,128
  803a98:	10bfe004 	addi	r2,r2,-128
  803a9c:	10000826 	beq	r2,zero,803ac0 <logic+0x3344>
  803aa0:	e0bffc17 	ldw	r2,-16(fp)
  803aa4:	10803c43 	ldbu	r2,241(r2)
  803aa8:	10803fcc 	andi	r2,r2,255
  803aac:	1080201c 	xori	r2,r2,128
  803ab0:	10bfe004 	addi	r2,r2,-128
  803ab4:	1000021e 	bne	r2,zero,803ac0 <logic+0x3344>
  803ab8:	00800044 	movi	r2,1
  803abc:	00000106 	br	803ac4 <logic+0x3348>
  803ac0:	0005883a 	mov	r2,zero
  803ac4:	1007883a 	mov	r3,r2
  803ac8:	e0bffc17 	ldw	r2,-16(fp)
  803acc:	10c02785 	stb	r3,158(r2)
  d->_g67_e2 = d->_g61_e1 && d->_cg81;
  803ad0:	e0bffc17 	ldw	r2,-16(fp)
  803ad4:	10804503 	ldbu	r2,276(r2)
  803ad8:	10803fcc 	andi	r2,r2,255
  803adc:	1080201c 	xori	r2,r2,128
  803ae0:	10bfe004 	addi	r2,r2,-128
  803ae4:	10000826 	beq	r2,zero,803b08 <logic+0x338c>
  803ae8:	e0bffc17 	ldw	r2,-16(fp)
  803aec:	10803c43 	ldbu	r2,241(r2)
  803af0:	10803fcc 	andi	r2,r2,255
  803af4:	1080201c 	xori	r2,r2,128
  803af8:	10bfe004 	addi	r2,r2,-128
  803afc:	10000226 	beq	r2,zero,803b08 <logic+0x338c>
  803b00:	00800044 	movi	r2,1
  803b04:	00000106 	br	803b0c <logic+0x3390>
  803b08:	0005883a 	mov	r2,zero
  803b0c:	1007883a 	mov	r3,r2
  803b10:	e0bffc17 	ldw	r2,-16(fp)
  803b14:	10c04545 	stb	r3,277(r2)
  if (d->_g67_e2) {
  803b18:	e0bffc17 	ldw	r2,-16(fp)
  803b1c:	10804543 	ldbu	r2,277(r2)
  803b20:	10803fcc 	andi	r2,r2,255
  803b24:	1080201c 	xori	r2,r2,128
  803b28:	10bfe004 	addi	r2,r2,-128
  803b2c:	10000726 	beq	r2,zero,803b4c <logic+0x33d0>
    d->_region3_AEI_cAEI = 0;
  803b30:	e0bffc17 	ldw	r2,-16(fp)
  803b34:	10000d15 	stw	zero,52(r2)
  803b38:	10000e15 	stw	zero,56(r2)
    d->_Pacemaker_local__Atrig4 = 0;
  803b3c:	e0bffc17 	ldw	r2,-16(fp)
  803b40:	10001a05 	stb	zero,104(r2)
    d->_Pacemaker_local__Atrig5 = 0;
  803b44:	e0bffc17 	ldw	r2,-16(fp)
  803b48:	10001a45 	stb	zero,105(r2)
  }
  d->_cg83 = d->_Pacemaker_local__Atrig4 || d->_Pacemaker_local__Atrig5;
  803b4c:	e0bffc17 	ldw	r2,-16(fp)
  803b50:	10801a03 	ldbu	r2,104(r2)
  803b54:	10803fcc 	andi	r2,r2,255
  803b58:	1080201c 	xori	r2,r2,128
  803b5c:	10bfe004 	addi	r2,r2,-128
  803b60:	1000061e 	bne	r2,zero,803b7c <logic+0x3400>
  803b64:	e0bffc17 	ldw	r2,-16(fp)
  803b68:	10801a43 	ldbu	r2,105(r2)
  803b6c:	10803fcc 	andi	r2,r2,255
  803b70:	1080201c 	xori	r2,r2,128
  803b74:	10bfe004 	addi	r2,r2,-128
  803b78:	10000226 	beq	r2,zero,803b84 <logic+0x3408>
  803b7c:	00800044 	movi	r2,1
  803b80:	00000106 	br	803b88 <logic+0x340c>
  803b84:	0005883a 	mov	r2,zero
  803b88:	1007883a 	mov	r3,r2
  803b8c:	e0bffc17 	ldw	r2,-16(fp)
  803b90:	10c03c85 	stb	r3,242(r2)
  d->_g67 = d->_g67_e2 && !d->_cg83 || d->_g16 && !d->_cg85;
  803b94:	e0bffc17 	ldw	r2,-16(fp)
  803b98:	10804543 	ldbu	r2,277(r2)
  803b9c:	10803fcc 	andi	r2,r2,255
  803ba0:	1080201c 	xori	r2,r2,128
  803ba4:	10bfe004 	addi	r2,r2,-128
  803ba8:	10000626 	beq	r2,zero,803bc4 <logic+0x3448>
  803bac:	e0bffc17 	ldw	r2,-16(fp)
  803bb0:	10803c83 	ldbu	r2,242(r2)
  803bb4:	10803fcc 	andi	r2,r2,255
  803bb8:	1080201c 	xori	r2,r2,128
  803bbc:	10bfe004 	addi	r2,r2,-128
  803bc0:	10000c26 	beq	r2,zero,803bf4 <logic+0x3478>
  803bc4:	e0bffc17 	ldw	r2,-16(fp)
  803bc8:	10801d43 	ldbu	r2,117(r2)
  803bcc:	10803fcc 	andi	r2,r2,255
  803bd0:	1080201c 	xori	r2,r2,128
  803bd4:	10bfe004 	addi	r2,r2,-128
  803bd8:	10000826 	beq	r2,zero,803bfc <logic+0x3480>
  803bdc:	e0bffc17 	ldw	r2,-16(fp)
  803be0:	10803cc3 	ldbu	r2,243(r2)
  803be4:	10803fcc 	andi	r2,r2,255
  803be8:	1080201c 	xori	r2,r2,128
  803bec:	10bfe004 	addi	r2,r2,-128
  803bf0:	1000021e 	bne	r2,zero,803bfc <logic+0x3480>
  803bf4:	00800044 	movi	r2,1
  803bf8:	00000106 	br	803c00 <logic+0x3484>
  803bfc:	0005883a 	mov	r2,zero
  803c00:	1007883a 	mov	r3,r2
  803c04:	e0bffc17 	ldw	r2,-16(fp)
  803c08:	10c025c5 	stb	r3,151(r2)
  d->_cg87 = d->_region3_AEI_cAEI < d->AEI_Constraint;
  803c0c:	e0bffc17 	ldw	r2,-16(fp)
  803c10:	14000d17 	ldw	r16,52(r2)
  803c14:	14400e17 	ldw	r17,56(r2)
  803c18:	e0bffc17 	ldw	r2,-16(fp)
  803c1c:	10800417 	ldw	r2,16(r2)
  803c20:	1009883a 	mov	r4,r2
  803c24:	0806b0c0 	call	806b0c <__floatsidf>
  803c28:	1009883a 	mov	r4,r2
  803c2c:	180b883a 	mov	r5,r3
  803c30:	04800044 	movi	r18,1
  803c34:	200d883a 	mov	r6,r4
  803c38:	280f883a 	mov	r7,r5
  803c3c:	8009883a 	mov	r4,r16
  803c40:	880b883a 	mov	r5,r17
  803c44:	080611c0 	call	80611c <__ledf2>
  803c48:	10000116 	blt	r2,zero,803c50 <logic+0x34d4>
  803c4c:	0025883a 	mov	r18,zero
  803c50:	9007883a 	mov	r3,r18
  803c54:	e0bffc17 	ldw	r2,-16(fp)
  803c58:	10c03d05 	stb	r3,244(r2)
  d->_g61 = d->_g67_e2 && d->_cg87;
  803c5c:	e0bffc17 	ldw	r2,-16(fp)
  803c60:	10804543 	ldbu	r2,277(r2)
  803c64:	10803fcc 	andi	r2,r2,255
  803c68:	1080201c 	xori	r2,r2,128
  803c6c:	10bfe004 	addi	r2,r2,-128
  803c70:	10000826 	beq	r2,zero,803c94 <logic+0x3518>
  803c74:	e0bffc17 	ldw	r2,-16(fp)
  803c78:	10803d03 	ldbu	r2,244(r2)
  803c7c:	10803fcc 	andi	r2,r2,255
  803c80:	1080201c 	xori	r2,r2,128
  803c84:	10bfe004 	addi	r2,r2,-128
  803c88:	10000226 	beq	r2,zero,803c94 <logic+0x3518>
  803c8c:	00800044 	movi	r2,1
  803c90:	00000106 	br	803c98 <logic+0x351c>
  803c94:	0005883a 	mov	r2,zero
  803c98:	1007883a 	mov	r3,r2
  803c9c:	e0bffc17 	ldw	r2,-16(fp)
  803ca0:	10c024c5 	stb	r3,147(r2)
  if (d->_g61) {
  803ca4:	e0bffc17 	ldw	r2,-16(fp)
  803ca8:	108024c3 	ldbu	r2,147(r2)
  803cac:	10803fcc 	andi	r2,r2,255
  803cb0:	1080201c 	xori	r2,r2,128
  803cb4:	10bfe004 	addi	r2,r2,-128
  803cb8:	10003426 	beq	r2,zero,803d8c <logic+0x3610>
    d->sleepT = (d->sleepT < (d->AEI_Constraint - d->_region3_AEI_cAEI)) ? d->sleepT : (d->AEI_Constraint - d->_region3_AEI_cAEI);
  803cbc:	e0bffc17 	ldw	r2,-16(fp)
  803cc0:	14001517 	ldw	r16,84(r2)
  803cc4:	14401617 	ldw	r17,88(r2)
  803cc8:	e0bffc17 	ldw	r2,-16(fp)
  803ccc:	10800417 	ldw	r2,16(r2)
  803cd0:	1009883a 	mov	r4,r2
  803cd4:	0806b0c0 	call	806b0c <__floatsidf>
  803cd8:	1011883a 	mov	r8,r2
  803cdc:	1813883a 	mov	r9,r3
  803ce0:	e13ffc17 	ldw	r4,-16(fp)
  803ce4:	20800d17 	ldw	r2,52(r4)
  803ce8:	20c00e17 	ldw	r3,56(r4)
  803cec:	100d883a 	mov	r6,r2
  803cf0:	180f883a 	mov	r7,r3
  803cf4:	4009883a 	mov	r4,r8
  803cf8:	480b883a 	mov	r5,r9
  803cfc:	08062100 	call	806210 <__subdf3>
  803d00:	1009883a 	mov	r4,r2
  803d04:	180b883a 	mov	r5,r3
  803d08:	2005883a 	mov	r2,r4
  803d0c:	2807883a 	mov	r3,r5
  803d10:	100d883a 	mov	r6,r2
  803d14:	180f883a 	mov	r7,r3
  803d18:	8009883a 	mov	r4,r16
  803d1c:	880b883a 	mov	r5,r17
  803d20:	080611c0 	call	80611c <__ledf2>
  803d24:	1000040e 	bge	r2,zero,803d38 <logic+0x35bc>
  803d28:	e13ffc17 	ldw	r4,-16(fp)
  803d2c:	20801517 	ldw	r2,84(r4)
  803d30:	20c01617 	ldw	r3,88(r4)
  803d34:	00001206 	br	803d80 <logic+0x3604>
  803d38:	e0bffc17 	ldw	r2,-16(fp)
  803d3c:	10800417 	ldw	r2,16(r2)
  803d40:	1009883a 	mov	r4,r2
  803d44:	0806b0c0 	call	806b0c <__floatsidf>
  803d48:	1011883a 	mov	r8,r2
  803d4c:	1813883a 	mov	r9,r3
  803d50:	e13ffc17 	ldw	r4,-16(fp)
  803d54:	20800d17 	ldw	r2,52(r4)
  803d58:	20c00e17 	ldw	r3,56(r4)
  803d5c:	100d883a 	mov	r6,r2
  803d60:	180f883a 	mov	r7,r3
  803d64:	4009883a 	mov	r4,r8
  803d68:	480b883a 	mov	r5,r9
  803d6c:	08062100 	call	806210 <__subdf3>
  803d70:	1009883a 	mov	r4,r2
  803d74:	180b883a 	mov	r5,r3
  803d78:	2005883a 	mov	r2,r4
  803d7c:	2807883a 	mov	r3,r5
  803d80:	e13ffc17 	ldw	r4,-16(fp)
  803d84:	20801515 	stw	r2,84(r4)
  803d88:	20c01615 	stw	r3,88(r4)
  }
  d->_cg88 = d->_Pacemaker_local__Atrig4 || d->_Pacemaker_local__Atrig5;
  803d8c:	e0bffc17 	ldw	r2,-16(fp)
  803d90:	10801a03 	ldbu	r2,104(r2)
  803d94:	10803fcc 	andi	r2,r2,255
  803d98:	1080201c 	xori	r2,r2,128
  803d9c:	10bfe004 	addi	r2,r2,-128
  803da0:	1000061e 	bne	r2,zero,803dbc <logic+0x3640>
  803da4:	e0bffc17 	ldw	r2,-16(fp)
  803da8:	10801a43 	ldbu	r2,105(r2)
  803dac:	10803fcc 	andi	r2,r2,255
  803db0:	1080201c 	xori	r2,r2,128
  803db4:	10bfe004 	addi	r2,r2,-128
  803db8:	10000226 	beq	r2,zero,803dc4 <logic+0x3648>
  803dbc:	00800044 	movi	r2,1
  803dc0:	00000106 	br	803dc8 <logic+0x364c>
  803dc4:	0005883a 	mov	r2,zero
  803dc8:	1007883a 	mov	r3,r2
  803dcc:	e0bffc17 	ldw	r2,-16(fp)
  803dd0:	10c03d45 	stb	r3,245(r2)
  d->_g77 = d->_g61 && !d->_cg88 || d->_g90 && !d->_cg92;
  803dd4:	e0bffc17 	ldw	r2,-16(fp)
  803dd8:	108024c3 	ldbu	r2,147(r2)
  803ddc:	10803fcc 	andi	r2,r2,255
  803de0:	1080201c 	xori	r2,r2,128
  803de4:	10bfe004 	addi	r2,r2,-128
  803de8:	10000626 	beq	r2,zero,803e04 <logic+0x3688>
  803dec:	e0bffc17 	ldw	r2,-16(fp)
  803df0:	10803d43 	ldbu	r2,245(r2)
  803df4:	10803fcc 	andi	r2,r2,255
  803df8:	1080201c 	xori	r2,r2,128
  803dfc:	10bfe004 	addi	r2,r2,-128
  803e00:	10000c26 	beq	r2,zero,803e34 <logic+0x36b8>
  803e04:	e0bffc17 	ldw	r2,-16(fp)
  803e08:	10802943 	ldbu	r2,165(r2)
  803e0c:	10803fcc 	andi	r2,r2,255
  803e10:	1080201c 	xori	r2,r2,128
  803e14:	10bfe004 	addi	r2,r2,-128
  803e18:	10000826 	beq	r2,zero,803e3c <logic+0x36c0>
  803e1c:	e0bffc17 	ldw	r2,-16(fp)
  803e20:	10803d83 	ldbu	r2,246(r2)
  803e24:	10803fcc 	andi	r2,r2,255
  803e28:	1080201c 	xori	r2,r2,128
  803e2c:	10bfe004 	addi	r2,r2,-128
  803e30:	1000021e 	bne	r2,zero,803e3c <logic+0x36c0>
  803e34:	00800044 	movi	r2,1
  803e38:	00000106 	br	803e40 <logic+0x36c4>
  803e3c:	0005883a 	mov	r2,zero
  803e40:	1007883a 	mov	r3,r2
  803e44:	e0bffc17 	ldw	r2,-16(fp)
  803e48:	10c027c5 	stb	r3,159(r2)
  d->_g57 = d->_g67_e2 && !d->_cg87;
  803e4c:	e0bffc17 	ldw	r2,-16(fp)
  803e50:	10804543 	ldbu	r2,277(r2)
  803e54:	10803fcc 	andi	r2,r2,255
  803e58:	1080201c 	xori	r2,r2,128
  803e5c:	10bfe004 	addi	r2,r2,-128
  803e60:	10000826 	beq	r2,zero,803e84 <logic+0x3708>
  803e64:	e0bffc17 	ldw	r2,-16(fp)
  803e68:	10803d03 	ldbu	r2,244(r2)
  803e6c:	10803fcc 	andi	r2,r2,255
  803e70:	1080201c 	xori	r2,r2,128
  803e74:	10bfe004 	addi	r2,r2,-128
  803e78:	1000021e 	bne	r2,zero,803e84 <logic+0x3708>
  803e7c:	00800044 	movi	r2,1
  803e80:	00000106 	br	803e88 <logic+0x370c>
  803e84:	0005883a 	mov	r2,zero
  803e88:	1007883a 	mov	r3,r2
  803e8c:	e0bffc17 	ldw	r2,-16(fp)
  803e90:	10c02405 	stb	r3,144(r2)
  d->_cg97 = d->_Pacemaker_local__Atrig4 || d->_Pacemaker_local__Atrig5;
  803e94:	e0bffc17 	ldw	r2,-16(fp)
  803e98:	10801a03 	ldbu	r2,104(r2)
  803e9c:	10803fcc 	andi	r2,r2,255
  803ea0:	1080201c 	xori	r2,r2,128
  803ea4:	10bfe004 	addi	r2,r2,-128
  803ea8:	1000061e 	bne	r2,zero,803ec4 <logic+0x3748>
  803eac:	e0bffc17 	ldw	r2,-16(fp)
  803eb0:	10801a43 	ldbu	r2,105(r2)
  803eb4:	10803fcc 	andi	r2,r2,255
  803eb8:	1080201c 	xori	r2,r2,128
  803ebc:	10bfe004 	addi	r2,r2,-128
  803ec0:	10000226 	beq	r2,zero,803ecc <logic+0x3750>
  803ec4:	00800044 	movi	r2,1
  803ec8:	00000106 	br	803ed0 <logic+0x3754>
  803ecc:	0005883a 	mov	r2,zero
  803ed0:	1007883a 	mov	r3,r2
  803ed4:	e0bffc17 	ldw	r2,-16(fp)
  803ed8:	10c03e45 	stb	r3,249(r2)
  d->_g105 = d->_g91 && !d->_cg94 || d->_g57 && !d->_cg97;
  803edc:	e0bffc17 	ldw	r2,-16(fp)
  803ee0:	10802983 	ldbu	r2,166(r2)
  803ee4:	10803fcc 	andi	r2,r2,255
  803ee8:	1080201c 	xori	r2,r2,128
  803eec:	10bfe004 	addi	r2,r2,-128
  803ef0:	10000626 	beq	r2,zero,803f0c <logic+0x3790>
  803ef4:	e0bffc17 	ldw	r2,-16(fp)
  803ef8:	10803e03 	ldbu	r2,248(r2)
  803efc:	10803fcc 	andi	r2,r2,255
  803f00:	1080201c 	xori	r2,r2,128
  803f04:	10bfe004 	addi	r2,r2,-128
  803f08:	10000c26 	beq	r2,zero,803f3c <logic+0x37c0>
  803f0c:	e0bffc17 	ldw	r2,-16(fp)
  803f10:	10802403 	ldbu	r2,144(r2)
  803f14:	10803fcc 	andi	r2,r2,255
  803f18:	1080201c 	xori	r2,r2,128
  803f1c:	10bfe004 	addi	r2,r2,-128
  803f20:	10000826 	beq	r2,zero,803f44 <logic+0x37c8>
  803f24:	e0bffc17 	ldw	r2,-16(fp)
  803f28:	10803e43 	ldbu	r2,249(r2)
  803f2c:	10803fcc 	andi	r2,r2,255
  803f30:	1080201c 	xori	r2,r2,128
  803f34:	10bfe004 	addi	r2,r2,-128
  803f38:	1000021e 	bne	r2,zero,803f44 <logic+0x37c8>
  803f3c:	00800044 	movi	r2,1
  803f40:	00000106 	br	803f48 <logic+0x37cc>
  803f44:	0005883a 	mov	r2,zero
  803f48:	1007883a 	mov	r3,r2
  803f4c:	e0bffc17 	ldw	r2,-16(fp)
  803f50:	10c02c45 	stb	r3,177(r2)
  d->_g106 = d->_g67_e2 || d->_g103 && !d->_cg103;
  803f54:	e0bffc17 	ldw	r2,-16(fp)
  803f58:	10804543 	ldbu	r2,277(r2)
  803f5c:	10803fcc 	andi	r2,r2,255
  803f60:	1080201c 	xori	r2,r2,128
  803f64:	10bfe004 	addi	r2,r2,-128
  803f68:	10000c1e 	bne	r2,zero,803f9c <logic+0x3820>
  803f6c:	e0bffc17 	ldw	r2,-16(fp)
  803f70:	10802bc3 	ldbu	r2,175(r2)
  803f74:	10803fcc 	andi	r2,r2,255
  803f78:	1080201c 	xori	r2,r2,128
  803f7c:	10bfe004 	addi	r2,r2,-128
  803f80:	10000826 	beq	r2,zero,803fa4 <logic+0x3828>
  803f84:	e0bffc17 	ldw	r2,-16(fp)
  803f88:	10803e83 	ldbu	r2,250(r2)
  803f8c:	10803fcc 	andi	r2,r2,255
  803f90:	1080201c 	xori	r2,r2,128
  803f94:	10bfe004 	addi	r2,r2,-128
  803f98:	1000021e 	bne	r2,zero,803fa4 <logic+0x3828>
  803f9c:	00800044 	movi	r2,1
  803fa0:	00000106 	br	803fa8 <logic+0x382c>
  803fa4:	0005883a 	mov	r2,zero
  803fa8:	1007883a 	mov	r3,r2
  803fac:	e0bffc17 	ldw	r2,-16(fp)
  803fb0:	10c02c85 	stb	r3,178(r2)
  d->_g81 = d->_pg85;
  803fb4:	e0bffc17 	ldw	r2,-16(fp)
  803fb8:	10c04fc3 	ldbu	r3,319(r2)
  803fbc:	e0bffc17 	ldw	r2,-16(fp)
  803fc0:	10c02805 	stb	r3,160(r2)
  d->_cg110 = (d->VP || d->VS) && !d->VRP;
  803fc4:	e0bffc17 	ldw	r2,-16(fp)
  803fc8:	10801743 	ldbu	r2,93(r2)
  803fcc:	10803fcc 	andi	r2,r2,255
  803fd0:	1080201c 	xori	r2,r2,128
  803fd4:	10bfe004 	addi	r2,r2,-128
  803fd8:	1000061e 	bne	r2,zero,803ff4 <logic+0x3878>
  803fdc:	e0bffc17 	ldw	r2,-16(fp)
  803fe0:	10800043 	ldbu	r2,1(r2)
  803fe4:	10803fcc 	andi	r2,r2,255
  803fe8:	1080201c 	xori	r2,r2,128
  803fec:	10bfe004 	addi	r2,r2,-128
  803ff0:	10000826 	beq	r2,zero,804014 <logic+0x3898>
  803ff4:	e0bffc17 	ldw	r2,-16(fp)
  803ff8:	10801803 	ldbu	r2,96(r2)
  803ffc:	10803fcc 	andi	r2,r2,255
  804000:	1080201c 	xori	r2,r2,128
  804004:	10bfe004 	addi	r2,r2,-128
  804008:	1000021e 	bne	r2,zero,804014 <logic+0x3898>
  80400c:	00800044 	movi	r2,1
  804010:	00000106 	br	804018 <logic+0x389c>
  804014:	0005883a 	mov	r2,zero
  804018:	1007883a 	mov	r3,r2
  80401c:	e0bffc17 	ldw	r2,-16(fp)
  804020:	10c03f05 	stb	r3,252(r2)
  d->_g85 = d->_GO || d->_g81 && !d->_cg110;
  804024:	e0bffc17 	ldw	r2,-16(fp)
  804028:	108035c3 	ldbu	r2,215(r2)
  80402c:	10803fcc 	andi	r2,r2,255
  804030:	1080201c 	xori	r2,r2,128
  804034:	10bfe004 	addi	r2,r2,-128
  804038:	10000c1e 	bne	r2,zero,80406c <logic+0x38f0>
  80403c:	e0bffc17 	ldw	r2,-16(fp)
  804040:	10802803 	ldbu	r2,160(r2)
  804044:	10803fcc 	andi	r2,r2,255
  804048:	1080201c 	xori	r2,r2,128
  80404c:	10bfe004 	addi	r2,r2,-128
  804050:	10000826 	beq	r2,zero,804074 <logic+0x38f8>
  804054:	e0bffc17 	ldw	r2,-16(fp)
  804058:	10803f03 	ldbu	r2,252(r2)
  80405c:	10803fcc 	andi	r2,r2,255
  804060:	1080201c 	xori	r2,r2,128
  804064:	10bfe004 	addi	r2,r2,-128
  804068:	1000021e 	bne	r2,zero,804074 <logic+0x38f8>
  80406c:	00800044 	movi	r2,1
  804070:	00000106 	br	804078 <logic+0x38fc>
  804074:	0005883a 	mov	r2,zero
  804078:	1007883a 	mov	r3,r2
  80407c:	e0bffc17 	ldw	r2,-16(fp)
  804080:	10c02885 	stb	r3,162(r2)
  d->_g88 = d->_g81 && d->_cg110 || d->_g133 && d->_cg134 || d->_g122;
  804084:	e0bffc17 	ldw	r2,-16(fp)
  804088:	10802803 	ldbu	r2,160(r2)
  80408c:	10803fcc 	andi	r2,r2,255
  804090:	1080201c 	xori	r2,r2,128
  804094:	10bfe004 	addi	r2,r2,-128
  804098:	10000626 	beq	r2,zero,8040b4 <logic+0x3938>
  80409c:	e0bffc17 	ldw	r2,-16(fp)
  8040a0:	10803f03 	ldbu	r2,252(r2)
  8040a4:	10803fcc 	andi	r2,r2,255
  8040a8:	1080201c 	xori	r2,r2,128
  8040ac:	10bfe004 	addi	r2,r2,-128
  8040b0:	1000121e 	bne	r2,zero,8040fc <logic+0x3980>
  8040b4:	e0bffc17 	ldw	r2,-16(fp)
  8040b8:	108030c3 	ldbu	r2,195(r2)
  8040bc:	10803fcc 	andi	r2,r2,255
  8040c0:	1080201c 	xori	r2,r2,128
  8040c4:	10bfe004 	addi	r2,r2,-128
  8040c8:	10000626 	beq	r2,zero,8040e4 <logic+0x3968>
  8040cc:	e0bffc17 	ldw	r2,-16(fp)
  8040d0:	10803f43 	ldbu	r2,253(r2)
  8040d4:	10803fcc 	andi	r2,r2,255
  8040d8:	1080201c 	xori	r2,r2,128
  8040dc:	10bfe004 	addi	r2,r2,-128
  8040e0:	1000061e 	bne	r2,zero,8040fc <logic+0x3980>
  8040e4:	e0bffc17 	ldw	r2,-16(fp)
  8040e8:	10802ec3 	ldbu	r2,187(r2)
  8040ec:	10803fcc 	andi	r2,r2,255
  8040f0:	1080201c 	xori	r2,r2,128
  8040f4:	10bfe004 	addi	r2,r2,-128
  8040f8:	10000226 	beq	r2,zero,804104 <logic+0x3988>
  8040fc:	00800044 	movi	r2,1
  804100:	00000106 	br	804108 <logic+0x398c>
  804104:	0005883a 	mov	r2,zero
  804108:	1007883a 	mov	r3,r2
  80410c:	e0bffc17 	ldw	r2,-16(fp)
  804110:	10c02905 	stb	r3,164(r2)
  if (d->_g88) {
  804114:	e0bffc17 	ldw	r2,-16(fp)
  804118:	10802903 	ldbu	r2,164(r2)
  80411c:	10803fcc 	andi	r2,r2,255
  804120:	1080201c 	xori	r2,r2,128
  804124:	10bfe004 	addi	r2,r2,-128
  804128:	10000726 	beq	r2,zero,804148 <logic+0x39cc>
    d->_region4_LRI_cLRI = 0;
  80412c:	e0bffc17 	ldw	r2,-16(fp)
  804130:	10000f15 	stw	zero,60(r2)
  804134:	10001015 	stw	zero,64(r2)
    d->_Pacemaker_local__Atrig6 = 0;
  804138:	e0bffc17 	ldw	r2,-16(fp)
  80413c:	10001a85 	stb	zero,106(r2)
    d->_Pacemaker_local__Atrig7 = 0;
  804140:	e0bffc17 	ldw	r2,-16(fp)
  804144:	10001ac5 	stb	zero,107(r2)
  }
  d->_cg112 = d->_Pacemaker_local__Atrig6 || d->_Pacemaker_local__Atrig7;
  804148:	e0bffc17 	ldw	r2,-16(fp)
  80414c:	10801a83 	ldbu	r2,106(r2)
  804150:	10803fcc 	andi	r2,r2,255
  804154:	1080201c 	xori	r2,r2,128
  804158:	10bfe004 	addi	r2,r2,-128
  80415c:	1000061e 	bne	r2,zero,804178 <logic+0x39fc>
  804160:	e0bffc17 	ldw	r2,-16(fp)
  804164:	10801ac3 	ldbu	r2,107(r2)
  804168:	10803fcc 	andi	r2,r2,255
  80416c:	1080201c 	xori	r2,r2,128
  804170:	10bfe004 	addi	r2,r2,-128
  804174:	10000226 	beq	r2,zero,804180 <logic+0x3a04>
  804178:	00800044 	movi	r2,1
  80417c:	00000106 	br	804184 <logic+0x3a08>
  804180:	0005883a 	mov	r2,zero
  804184:	1007883a 	mov	r3,r2
  804188:	e0bffc17 	ldw	r2,-16(fp)
  80418c:	10c03f85 	stb	r3,254(r2)
  d->_g92 = d->_g88 && !d->_cg112 || d->_g17 && !d->_cg114;
  804190:	e0bffc17 	ldw	r2,-16(fp)
  804194:	10802903 	ldbu	r2,164(r2)
  804198:	10803fcc 	andi	r2,r2,255
  80419c:	1080201c 	xori	r2,r2,128
  8041a0:	10bfe004 	addi	r2,r2,-128
  8041a4:	10000626 	beq	r2,zero,8041c0 <logic+0x3a44>
  8041a8:	e0bffc17 	ldw	r2,-16(fp)
  8041ac:	10803f83 	ldbu	r2,254(r2)
  8041b0:	10803fcc 	andi	r2,r2,255
  8041b4:	1080201c 	xori	r2,r2,128
  8041b8:	10bfe004 	addi	r2,r2,-128
  8041bc:	10000c26 	beq	r2,zero,8041f0 <logic+0x3a74>
  8041c0:	e0bffc17 	ldw	r2,-16(fp)
  8041c4:	10801d83 	ldbu	r2,118(r2)
  8041c8:	10803fcc 	andi	r2,r2,255
  8041cc:	1080201c 	xori	r2,r2,128
  8041d0:	10bfe004 	addi	r2,r2,-128
  8041d4:	10000826 	beq	r2,zero,8041f8 <logic+0x3a7c>
  8041d8:	e0bffc17 	ldw	r2,-16(fp)
  8041dc:	10803fc3 	ldbu	r2,255(r2)
  8041e0:	10803fcc 	andi	r2,r2,255
  8041e4:	1080201c 	xori	r2,r2,128
  8041e8:	10bfe004 	addi	r2,r2,-128
  8041ec:	1000021e 	bne	r2,zero,8041f8 <logic+0x3a7c>
  8041f0:	00800044 	movi	r2,1
  8041f4:	00000106 	br	8041fc <logic+0x3a80>
  8041f8:	0005883a 	mov	r2,zero
  8041fc:	1007883a 	mov	r3,r2
  804200:	e0bffc17 	ldw	r2,-16(fp)
  804204:	10c029c5 	stb	r3,167(r2)
  d->_cg116 = d->_region4_LRI_cLRI < d->LRI_Constraint;
  804208:	e0bffc17 	ldw	r2,-16(fp)
  80420c:	14000f17 	ldw	r16,60(r2)
  804210:	14401017 	ldw	r17,64(r2)
  804214:	e0bffc17 	ldw	r2,-16(fp)
  804218:	10800517 	ldw	r2,20(r2)
  80421c:	1009883a 	mov	r4,r2
  804220:	0806b0c0 	call	806b0c <__floatsidf>
  804224:	1009883a 	mov	r4,r2
  804228:	180b883a 	mov	r5,r3
  80422c:	04800044 	movi	r18,1
  804230:	200d883a 	mov	r6,r4
  804234:	280f883a 	mov	r7,r5
  804238:	8009883a 	mov	r4,r16
  80423c:	880b883a 	mov	r5,r17
  804240:	080611c0 	call	80611c <__ledf2>
  804244:	10000116 	blt	r2,zero,80424c <logic+0x3ad0>
  804248:	0025883a 	mov	r18,zero
  80424c:	9007883a 	mov	r3,r18
  804250:	e0bffc17 	ldw	r2,-16(fp)
  804254:	10c04005 	stb	r3,256(r2)
  d->_g97 = d->_g88 && d->_cg116;
  804258:	e0bffc17 	ldw	r2,-16(fp)
  80425c:	10802903 	ldbu	r2,164(r2)
  804260:	10803fcc 	andi	r2,r2,255
  804264:	1080201c 	xori	r2,r2,128
  804268:	10bfe004 	addi	r2,r2,-128
  80426c:	10000826 	beq	r2,zero,804290 <logic+0x3b14>
  804270:	e0bffc17 	ldw	r2,-16(fp)
  804274:	10804003 	ldbu	r2,256(r2)
  804278:	10803fcc 	andi	r2,r2,255
  80427c:	1080201c 	xori	r2,r2,128
  804280:	10bfe004 	addi	r2,r2,-128
  804284:	10000226 	beq	r2,zero,804290 <logic+0x3b14>
  804288:	00800044 	movi	r2,1
  80428c:	00000106 	br	804294 <logic+0x3b18>
  804290:	0005883a 	mov	r2,zero
  804294:	1007883a 	mov	r3,r2
  804298:	e0bffc17 	ldw	r2,-16(fp)
  80429c:	10c02ac5 	stb	r3,171(r2)
  if (d->_g97) {
  8042a0:	e0bffc17 	ldw	r2,-16(fp)
  8042a4:	10802ac3 	ldbu	r2,171(r2)
  8042a8:	10803fcc 	andi	r2,r2,255
  8042ac:	1080201c 	xori	r2,r2,128
  8042b0:	10bfe004 	addi	r2,r2,-128
  8042b4:	10003426 	beq	r2,zero,804388 <logic+0x3c0c>
    d->sleepT = (d->sleepT < (d->LRI_Constraint - d->_region4_LRI_cLRI)) ? d->sleepT : (d->LRI_Constraint - d->_region4_LRI_cLRI);
  8042b8:	e0bffc17 	ldw	r2,-16(fp)
  8042bc:	14001517 	ldw	r16,84(r2)
  8042c0:	14401617 	ldw	r17,88(r2)
  8042c4:	e0bffc17 	ldw	r2,-16(fp)
  8042c8:	10800517 	ldw	r2,20(r2)
  8042cc:	1009883a 	mov	r4,r2
  8042d0:	0806b0c0 	call	806b0c <__floatsidf>
  8042d4:	1011883a 	mov	r8,r2
  8042d8:	1813883a 	mov	r9,r3
  8042dc:	e13ffc17 	ldw	r4,-16(fp)
  8042e0:	20800f17 	ldw	r2,60(r4)
  8042e4:	20c01017 	ldw	r3,64(r4)
  8042e8:	100d883a 	mov	r6,r2
  8042ec:	180f883a 	mov	r7,r3
  8042f0:	4009883a 	mov	r4,r8
  8042f4:	480b883a 	mov	r5,r9
  8042f8:	08062100 	call	806210 <__subdf3>
  8042fc:	1009883a 	mov	r4,r2
  804300:	180b883a 	mov	r5,r3
  804304:	2005883a 	mov	r2,r4
  804308:	2807883a 	mov	r3,r5
  80430c:	100d883a 	mov	r6,r2
  804310:	180f883a 	mov	r7,r3
  804314:	8009883a 	mov	r4,r16
  804318:	880b883a 	mov	r5,r17
  80431c:	080611c0 	call	80611c <__ledf2>
  804320:	1000040e 	bge	r2,zero,804334 <logic+0x3bb8>
  804324:	e13ffc17 	ldw	r4,-16(fp)
  804328:	20801517 	ldw	r2,84(r4)
  80432c:	20c01617 	ldw	r3,88(r4)
  804330:	00001206 	br	80437c <logic+0x3c00>
  804334:	e0bffc17 	ldw	r2,-16(fp)
  804338:	10800517 	ldw	r2,20(r2)
  80433c:	1009883a 	mov	r4,r2
  804340:	0806b0c0 	call	806b0c <__floatsidf>
  804344:	1011883a 	mov	r8,r2
  804348:	1813883a 	mov	r9,r3
  80434c:	e13ffc17 	ldw	r4,-16(fp)
  804350:	20800f17 	ldw	r2,60(r4)
  804354:	20c01017 	ldw	r3,64(r4)
  804358:	100d883a 	mov	r6,r2
  80435c:	180f883a 	mov	r7,r3
  804360:	4009883a 	mov	r4,r8
  804364:	480b883a 	mov	r5,r9
  804368:	08062100 	call	806210 <__subdf3>
  80436c:	1009883a 	mov	r4,r2
  804370:	180b883a 	mov	r5,r3
  804374:	2005883a 	mov	r2,r4
  804378:	2807883a 	mov	r3,r5
  80437c:	e13ffc17 	ldw	r4,-16(fp)
  804380:	20801515 	stw	r2,84(r4)
  804384:	20c01615 	stw	r3,88(r4)
  }
  d->_cg117 = d->_Pacemaker_local__Atrig6 || d->_Pacemaker_local__Atrig7;
  804388:	e0bffc17 	ldw	r2,-16(fp)
  80438c:	10801a83 	ldbu	r2,106(r2)
  804390:	10803fcc 	andi	r2,r2,255
  804394:	1080201c 	xori	r2,r2,128
  804398:	10bfe004 	addi	r2,r2,-128
  80439c:	1000061e 	bne	r2,zero,8043b8 <logic+0x3c3c>
  8043a0:	e0bffc17 	ldw	r2,-16(fp)
  8043a4:	10801ac3 	ldbu	r2,107(r2)
  8043a8:	10803fcc 	andi	r2,r2,255
  8043ac:	1080201c 	xori	r2,r2,128
  8043b0:	10bfe004 	addi	r2,r2,-128
  8043b4:	10000226 	beq	r2,zero,8043c0 <logic+0x3c44>
  8043b8:	00800044 	movi	r2,1
  8043bc:	00000106 	br	8043c4 <logic+0x3c48>
  8043c0:	0005883a 	mov	r2,zero
  8043c4:	1007883a 	mov	r3,r2
  8043c8:	e0bffc17 	ldw	r2,-16(fp)
  8043cc:	10c04045 	stb	r3,257(r2)
  d->_g94 = d->_g97 && !d->_cg117 || d->_g119 && !d->_cg121;
  8043d0:	e0bffc17 	ldw	r2,-16(fp)
  8043d4:	10802ac3 	ldbu	r2,171(r2)
  8043d8:	10803fcc 	andi	r2,r2,255
  8043dc:	1080201c 	xori	r2,r2,128
  8043e0:	10bfe004 	addi	r2,r2,-128
  8043e4:	10000626 	beq	r2,zero,804400 <logic+0x3c84>
  8043e8:	e0bffc17 	ldw	r2,-16(fp)
  8043ec:	10804043 	ldbu	r2,257(r2)
  8043f0:	10803fcc 	andi	r2,r2,255
  8043f4:	1080201c 	xori	r2,r2,128
  8043f8:	10bfe004 	addi	r2,r2,-128
  8043fc:	10000c26 	beq	r2,zero,804430 <logic+0x3cb4>
  804400:	e0bffc17 	ldw	r2,-16(fp)
  804404:	10802e03 	ldbu	r2,184(r2)
  804408:	10803fcc 	andi	r2,r2,255
  80440c:	1080201c 	xori	r2,r2,128
  804410:	10bfe004 	addi	r2,r2,-128
  804414:	10000826 	beq	r2,zero,804438 <logic+0x3cbc>
  804418:	e0bffc17 	ldw	r2,-16(fp)
  80441c:	10804083 	ldbu	r2,258(r2)
  804420:	10803fcc 	andi	r2,r2,255
  804424:	1080201c 	xori	r2,r2,128
  804428:	10bfe004 	addi	r2,r2,-128
  80442c:	1000021e 	bne	r2,zero,804438 <logic+0x3cbc>
  804430:	00800044 	movi	r2,1
  804434:	00000106 	br	80443c <logic+0x3cc0>
  804438:	0005883a 	mov	r2,zero
  80443c:	1007883a 	mov	r3,r2
  804440:	e0bffc17 	ldw	r2,-16(fp)
  804444:	10c02a45 	stb	r3,169(r2)
  d->_g103 = d->_g88 && !d->_cg116;
  804448:	e0bffc17 	ldw	r2,-16(fp)
  80444c:	10802903 	ldbu	r2,164(r2)
  804450:	10803fcc 	andi	r2,r2,255
  804454:	1080201c 	xori	r2,r2,128
  804458:	10bfe004 	addi	r2,r2,-128
  80445c:	10000826 	beq	r2,zero,804480 <logic+0x3d04>
  804460:	e0bffc17 	ldw	r2,-16(fp)
  804464:	10804003 	ldbu	r2,256(r2)
  804468:	10803fcc 	andi	r2,r2,255
  80446c:	1080201c 	xori	r2,r2,128
  804470:	10bfe004 	addi	r2,r2,-128
  804474:	1000021e 	bne	r2,zero,804480 <logic+0x3d04>
  804478:	00800044 	movi	r2,1
  80447c:	00000106 	br	804484 <logic+0x3d08>
  804480:	0005883a 	mov	r2,zero
  804484:	1007883a 	mov	r3,r2
  804488:	e0bffc17 	ldw	r2,-16(fp)
  80448c:	10c02bc5 	stb	r3,175(r2)
  d->_cg126 = d->_Pacemaker_local__Atrig6 || d->_Pacemaker_local__Atrig7;
  804490:	e0bffc17 	ldw	r2,-16(fp)
  804494:	10801a83 	ldbu	r2,106(r2)
  804498:	10803fcc 	andi	r2,r2,255
  80449c:	1080201c 	xori	r2,r2,128
  8044a0:	10bfe004 	addi	r2,r2,-128
  8044a4:	1000061e 	bne	r2,zero,8044c0 <logic+0x3d44>
  8044a8:	e0bffc17 	ldw	r2,-16(fp)
  8044ac:	10801ac3 	ldbu	r2,107(r2)
  8044b0:	10803fcc 	andi	r2,r2,255
  8044b4:	1080201c 	xori	r2,r2,128
  8044b8:	10bfe004 	addi	r2,r2,-128
  8044bc:	10000226 	beq	r2,zero,8044c8 <logic+0x3d4c>
  8044c0:	00800044 	movi	r2,1
  8044c4:	00000106 	br	8044cc <logic+0x3d50>
  8044c8:	0005883a 	mov	r2,zero
  8044cc:	1007883a 	mov	r3,r2
  8044d0:	e0bffc17 	ldw	r2,-16(fp)
  8044d4:	10c04145 	stb	r3,261(r2)
  d->_g82 = d->_g120 && !d->_cg123 || d->_g103 && !d->_cg126;
  8044d8:	e0bffc17 	ldw	r2,-16(fp)
  8044dc:	10802e43 	ldbu	r2,185(r2)
  8044e0:	10803fcc 	andi	r2,r2,255
  8044e4:	1080201c 	xori	r2,r2,128
  8044e8:	10bfe004 	addi	r2,r2,-128
  8044ec:	10000626 	beq	r2,zero,804508 <logic+0x3d8c>
  8044f0:	e0bffc17 	ldw	r2,-16(fp)
  8044f4:	10804103 	ldbu	r2,260(r2)
  8044f8:	10803fcc 	andi	r2,r2,255
  8044fc:	1080201c 	xori	r2,r2,128
  804500:	10bfe004 	addi	r2,r2,-128
  804504:	10000c26 	beq	r2,zero,804538 <logic+0x3dbc>
  804508:	e0bffc17 	ldw	r2,-16(fp)
  80450c:	10802bc3 	ldbu	r2,175(r2)
  804510:	10803fcc 	andi	r2,r2,255
  804514:	1080201c 	xori	r2,r2,128
  804518:	10bfe004 	addi	r2,r2,-128
  80451c:	10000826 	beq	r2,zero,804540 <logic+0x3dc4>
  804520:	e0bffc17 	ldw	r2,-16(fp)
  804524:	10804143 	ldbu	r2,261(r2)
  804528:	10803fcc 	andi	r2,r2,255
  80452c:	1080201c 	xori	r2,r2,128
  804530:	10bfe004 	addi	r2,r2,-128
  804534:	1000021e 	bne	r2,zero,804540 <logic+0x3dc4>
  804538:	00800044 	movi	r2,1
  80453c:	00000106 	br	804544 <logic+0x3dc8>
  804540:	0005883a 	mov	r2,zero
  804544:	1007883a 	mov	r3,r2
  804548:	e0bffc17 	ldw	r2,-16(fp)
  80454c:	10c02845 	stb	r3,161(r2)
  d->_g134 = d->_g88 || d->_g132 && !d->_cg132;
  804550:	e0bffc17 	ldw	r2,-16(fp)
  804554:	10802903 	ldbu	r2,164(r2)
  804558:	10803fcc 	andi	r2,r2,255
  80455c:	1080201c 	xori	r2,r2,128
  804560:	10bfe004 	addi	r2,r2,-128
  804564:	10000c1e 	bne	r2,zero,804598 <logic+0x3e1c>
  804568:	e0bffc17 	ldw	r2,-16(fp)
  80456c:	10803083 	ldbu	r2,194(r2)
  804570:	10803fcc 	andi	r2,r2,255
  804574:	1080201c 	xori	r2,r2,128
  804578:	10bfe004 	addi	r2,r2,-128
  80457c:	10000826 	beq	r2,zero,8045a0 <logic+0x3e24>
  804580:	e0bffc17 	ldw	r2,-16(fp)
  804584:	10804183 	ldbu	r2,262(r2)
  804588:	10803fcc 	andi	r2,r2,255
  80458c:	1080201c 	xori	r2,r2,128
  804590:	10bfe004 	addi	r2,r2,-128
  804594:	1000021e 	bne	r2,zero,8045a0 <logic+0x3e24>
  804598:	00800044 	movi	r2,1
  80459c:	00000106 	br	8045a4 <logic+0x3e28>
  8045a0:	0005883a 	mov	r2,zero
  8045a4:	1007883a 	mov	r3,r2
  8045a8:	e0bffc17 	ldw	r2,-16(fp)
  8045ac:	10c03105 	stb	r3,196(r2)
  d->_g135 = d->_pg139;
  8045b0:	e0bffc17 	ldw	r2,-16(fp)
  8045b4:	10c05003 	ldbu	r3,320(r2)
  8045b8:	e0bffc17 	ldw	r2,-16(fp)
  8045bc:	10c03145 	stb	r3,197(r2)
  if (d->_g135) {
  8045c0:	e0bffc17 	ldw	r2,-16(fp)
  8045c4:	10803143 	ldbu	r2,197(r2)
  8045c8:	10803fcc 	andi	r2,r2,255
  8045cc:	1080201c 	xori	r2,r2,128
  8045d0:	10bfe004 	addi	r2,r2,-128
  8045d4:	10001226 	beq	r2,zero,804620 <logic+0x3ea4>
    d->_region5_URI_cURI += d->deltaT;
  8045d8:	e13ffc17 	ldw	r4,-16(fp)
  8045dc:	20801117 	ldw	r2,68(r4)
  8045e0:	20c01217 	ldw	r3,72(r4)
  8045e4:	e1bffc17 	ldw	r6,-16(fp)
  8045e8:	31001317 	ldw	r4,76(r6)
  8045ec:	31401417 	ldw	r5,80(r6)
  8045f0:	200d883a 	mov	r6,r4
  8045f4:	280f883a 	mov	r7,r5
  8045f8:	1009883a 	mov	r4,r2
  8045fc:	180b883a 	mov	r5,r3
  804600:	08057940 	call	805794 <__adddf3>
  804604:	1009883a 	mov	r4,r2
  804608:	180b883a 	mov	r5,r3
  80460c:	2005883a 	mov	r2,r4
  804610:	2807883a 	mov	r3,r5
  804614:	e13ffc17 	ldw	r4,-16(fp)
  804618:	20801115 	stw	r2,68(r4)
  80461c:	20c01215 	stw	r3,72(r4)
  }
  d->_g110 = d->_pg148;
  804620:	e0bffc17 	ldw	r2,-16(fp)
  804624:	10c05043 	ldbu	r3,321(r2)
  804628:	e0bffc17 	ldw	r2,-16(fp)
  80462c:	10c02cc5 	stb	r3,179(r2)
  d->_cg157 = d->_region5_URI_cURI >= d->URI_Constraint;
  804630:	e0bffc17 	ldw	r2,-16(fp)
  804634:	14001117 	ldw	r16,68(r2)
  804638:	14401217 	ldw	r17,72(r2)
  80463c:	e0bffc17 	ldw	r2,-16(fp)
  804640:	10800617 	ldw	r2,24(r2)
  804644:	1009883a 	mov	r4,r2
  804648:	0806b0c0 	call	806b0c <__floatsidf>
  80464c:	1009883a 	mov	r4,r2
  804650:	180b883a 	mov	r5,r3
  804654:	04800044 	movi	r18,1
  804658:	200d883a 	mov	r6,r4
  80465c:	280f883a 	mov	r7,r5
  804660:	8009883a 	mov	r4,r16
  804664:	880b883a 	mov	r5,r17
  804668:	08060400 	call	806040 <__gedf2>
  80466c:	1000010e 	bge	r2,zero,804674 <logic+0x3ef8>
  804670:	0025883a 	mov	r18,zero
  804674:	9007883a 	mov	r3,r18
  804678:	e0bffc17 	ldw	r2,-16(fp)
  80467c:	10c04345 	stb	r3,269(r2)
  d->_g114 = d->_g110 && d->_cg157;
  804680:	e0bffc17 	ldw	r2,-16(fp)
  804684:	10802cc3 	ldbu	r2,179(r2)
  804688:	10803fcc 	andi	r2,r2,255
  80468c:	1080201c 	xori	r2,r2,128
  804690:	10bfe004 	addi	r2,r2,-128
  804694:	10000826 	beq	r2,zero,8046b8 <logic+0x3f3c>
  804698:	e0bffc17 	ldw	r2,-16(fp)
  80469c:	10804343 	ldbu	r2,269(r2)
  8046a0:	10803fcc 	andi	r2,r2,255
  8046a4:	1080201c 	xori	r2,r2,128
  8046a8:	10bfe004 	addi	r2,r2,-128
  8046ac:	10000226 	beq	r2,zero,8046b8 <logic+0x3f3c>
  8046b0:	00800044 	movi	r2,1
  8046b4:	00000106 	br	8046bc <logic+0x3f40>
  8046b8:	0005883a 	mov	r2,zero
  8046bc:	1007883a 	mov	r3,r2
  8046c0:	e0bffc17 	ldw	r2,-16(fp)
  8046c4:	10c02d45 	stb	r3,181(r2)
  if (d->_g114) {
  8046c8:	e0bffc17 	ldw	r2,-16(fp)
  8046cc:	10802d43 	ldbu	r2,181(r2)
  8046d0:	10803fcc 	andi	r2,r2,255
  8046d4:	1080201c 	xori	r2,r2,128
  8046d8:	10bfe004 	addi	r2,r2,-128
  8046dc:	10000326 	beq	r2,zero,8046ec <logic+0x3f70>
    d->_Pacemaker_local__Atrig8 = 1;
  8046e0:	e0bffc17 	ldw	r2,-16(fp)
  8046e4:	00c00044 	movi	r3,1
  8046e8:	10c01b05 	stb	r3,108(r2)
  }
  d->_g117 = d->_pg149_e2;
  8046ec:	e0bffc17 	ldw	r2,-16(fp)
  8046f0:	10c05083 	ldbu	r3,322(r2)
  8046f4:	e0bffc17 	ldw	r2,-16(fp)
  8046f8:	10c02dc5 	stb	r3,183(r2)
  d->_cg139 = (d->VS || d->VP) && !d->VRP;
  8046fc:	e0bffc17 	ldw	r2,-16(fp)
  804700:	10800043 	ldbu	r2,1(r2)
  804704:	10803fcc 	andi	r2,r2,255
  804708:	1080201c 	xori	r2,r2,128
  80470c:	10bfe004 	addi	r2,r2,-128
  804710:	1000061e 	bne	r2,zero,80472c <logic+0x3fb0>
  804714:	e0bffc17 	ldw	r2,-16(fp)
  804718:	10801743 	ldbu	r2,93(r2)
  80471c:	10803fcc 	andi	r2,r2,255
  804720:	1080201c 	xori	r2,r2,128
  804724:	10bfe004 	addi	r2,r2,-128
  804728:	10000826 	beq	r2,zero,80474c <logic+0x3fd0>
  80472c:	e0bffc17 	ldw	r2,-16(fp)
  804730:	10801803 	ldbu	r2,96(r2)
  804734:	10803fcc 	andi	r2,r2,255
  804738:	1080201c 	xori	r2,r2,128
  80473c:	10bfe004 	addi	r2,r2,-128
  804740:	1000021e 	bne	r2,zero,80474c <logic+0x3fd0>
  804744:	00800044 	movi	r2,1
  804748:	00000106 	br	804750 <logic+0x3fd4>
  80474c:	0005883a 	mov	r2,zero
  804750:	1007883a 	mov	r3,r2
  804754:	e0bffc17 	ldw	r2,-16(fp)
  804758:	10c04205 	stb	r3,264(r2)
  d->_g121 = d->_g117 && d->_cg139;
  80475c:	e0bffc17 	ldw	r2,-16(fp)
  804760:	10802dc3 	ldbu	r2,183(r2)
  804764:	10803fcc 	andi	r2,r2,255
  804768:	1080201c 	xori	r2,r2,128
  80476c:	10bfe004 	addi	r2,r2,-128
  804770:	10000826 	beq	r2,zero,804794 <logic+0x4018>
  804774:	e0bffc17 	ldw	r2,-16(fp)
  804778:	10804203 	ldbu	r2,264(r2)
  80477c:	10803fcc 	andi	r2,r2,255
  804780:	1080201c 	xori	r2,r2,128
  804784:	10bfe004 	addi	r2,r2,-128
  804788:	10000226 	beq	r2,zero,804794 <logic+0x4018>
  80478c:	00800044 	movi	r2,1
  804790:	00000106 	br	804798 <logic+0x401c>
  804794:	0005883a 	mov	r2,zero
  804798:	1007883a 	mov	r3,r2
  80479c:	e0bffc17 	ldw	r2,-16(fp)
  8047a0:	10c02e85 	stb	r3,186(r2)
  if (d->_g121) {
  8047a4:	e0bffc17 	ldw	r2,-16(fp)
  8047a8:	10802e83 	ldbu	r2,186(r2)
  8047ac:	10803fcc 	andi	r2,r2,255
  8047b0:	1080201c 	xori	r2,r2,128
  8047b4:	10bfe004 	addi	r2,r2,-128
  8047b8:	10000526 	beq	r2,zero,8047d0 <logic+0x4054>
    d->_region5_URI_cURI = 0;
  8047bc:	e0bffc17 	ldw	r2,-16(fp)
  8047c0:	10001115 	stw	zero,68(r2)
  8047c4:	10001215 	stw	zero,72(r2)
    d->_Pacemaker_local__Atrig8 = 0;
  8047c8:	e0bffc17 	ldw	r2,-16(fp)
  8047cc:	10001b05 	stb	zero,108(r2)
  }
  d->_g123 = d->_g121 || d->_g145;
  8047d0:	e0bffc17 	ldw	r2,-16(fp)
  8047d4:	10802e83 	ldbu	r2,186(r2)
  8047d8:	10803fcc 	andi	r2,r2,255
  8047dc:	1080201c 	xori	r2,r2,128
  8047e0:	10bfe004 	addi	r2,r2,-128
  8047e4:	1000061e 	bne	r2,zero,804800 <logic+0x4084>
  8047e8:	e0bffc17 	ldw	r2,-16(fp)
  8047ec:	10803283 	ldbu	r2,202(r2)
  8047f0:	10803fcc 	andi	r2,r2,255
  8047f4:	1080201c 	xori	r2,r2,128
  8047f8:	10bfe004 	addi	r2,r2,-128
  8047fc:	10000226 	beq	r2,zero,804808 <logic+0x408c>
  804800:	00800044 	movi	r2,1
  804804:	00000106 	br	80480c <logic+0x4090>
  804808:	0005883a 	mov	r2,zero
  80480c:	1007883a 	mov	r3,r2
  804810:	e0bffc17 	ldw	r2,-16(fp)
  804814:	10c02f05 	stb	r3,188(r2)
  d->_cg142 = d->_Pacemaker_local__Atrig8;
  804818:	e0bffc17 	ldw	r2,-16(fp)
  80481c:	10c01b03 	ldbu	r3,108(r2)
  804820:	e0bffc17 	ldw	r2,-16(fp)
  804824:	10c04245 	stb	r3,265(r2)
  d->_g126 = d->_g123 && !d->_cg142;
  804828:	e0bffc17 	ldw	r2,-16(fp)
  80482c:	10802f03 	ldbu	r2,188(r2)
  804830:	10803fcc 	andi	r2,r2,255
  804834:	1080201c 	xori	r2,r2,128
  804838:	10bfe004 	addi	r2,r2,-128
  80483c:	10000826 	beq	r2,zero,804860 <logic+0x40e4>
  804840:	e0bffc17 	ldw	r2,-16(fp)
  804844:	10804243 	ldbu	r2,265(r2)
  804848:	10803fcc 	andi	r2,r2,255
  80484c:	1080201c 	xori	r2,r2,128
  804850:	10bfe004 	addi	r2,r2,-128
  804854:	1000021e 	bne	r2,zero,804860 <logic+0x40e4>
  804858:	00800044 	movi	r2,1
  80485c:	00000106 	br	804864 <logic+0x40e8>
  804860:	0005883a 	mov	r2,zero
  804864:	1007883a 	mov	r3,r2
  804868:	e0bffc17 	ldw	r2,-16(fp)
  80486c:	10c02f85 	stb	r3,190(r2)
  d->_g132 = !d->_g126;
  804870:	e0bffc17 	ldw	r2,-16(fp)
  804874:	10802f83 	ldbu	r2,190(r2)
  804878:	10803fcc 	andi	r2,r2,255
  80487c:	1080201c 	xori	r2,r2,128
  804880:	10bfe004 	addi	r2,r2,-128
  804884:	1005003a 	cmpeq	r2,r2,zero
  804888:	1007883a 	mov	r3,r2
  80488c:	e0bffc17 	ldw	r2,-16(fp)
  804890:	10c03085 	stb	r3,194(r2)
  d->_g111 = d->_g123 && d->_cg142;
  804894:	e0bffc17 	ldw	r2,-16(fp)
  804898:	10802f03 	ldbu	r2,188(r2)
  80489c:	10803fcc 	andi	r2,r2,255
  8048a0:	1080201c 	xori	r2,r2,128
  8048a4:	10bfe004 	addi	r2,r2,-128
  8048a8:	10000826 	beq	r2,zero,8048cc <logic+0x4150>
  8048ac:	e0bffc17 	ldw	r2,-16(fp)
  8048b0:	10804243 	ldbu	r2,265(r2)
  8048b4:	10803fcc 	andi	r2,r2,255
  8048b8:	1080201c 	xori	r2,r2,128
  8048bc:	10bfe004 	addi	r2,r2,-128
  8048c0:	10000226 	beq	r2,zero,8048cc <logic+0x4150>
  8048c4:	00800044 	movi	r2,1
  8048c8:	00000106 	br	8048d0 <logic+0x4154>
  8048cc:	0005883a 	mov	r2,zero
  8048d0:	1007883a 	mov	r3,r2
  8048d4:	e0bffc17 	ldw	r2,-16(fp)
  8048d8:	10c02d05 	stb	r3,180(r2)
  d->_g145 = d->_pg150;
  8048dc:	e0bffc17 	ldw	r2,-16(fp)
  8048e0:	10c050c3 	ldbu	r3,323(r2)
  8048e4:	e0bffc17 	ldw	r2,-16(fp)
  8048e8:	10c03285 	stb	r3,202(r2)
  d->_g142 = d->_pg153;
  8048ec:	e0bffc17 	ldw	r2,-16(fp)
  8048f0:	10c05103 	ldbu	r3,324(r2)
  8048f4:	e0bffc17 	ldw	r2,-16(fp)
  8048f8:	10c03205 	stb	r3,200(r2)
  d->_g154 = d->_g121 || d->_g145 || d->_g142;
  8048fc:	e0bffc17 	ldw	r2,-16(fp)
  804900:	10802e83 	ldbu	r2,186(r2)
  804904:	10803fcc 	andi	r2,r2,255
  804908:	1080201c 	xori	r2,r2,128
  80490c:	10bfe004 	addi	r2,r2,-128
  804910:	10000c1e 	bne	r2,zero,804944 <logic+0x41c8>
  804914:	e0bffc17 	ldw	r2,-16(fp)
  804918:	10803283 	ldbu	r2,202(r2)
  80491c:	10803fcc 	andi	r2,r2,255
  804920:	1080201c 	xori	r2,r2,128
  804924:	10bfe004 	addi	r2,r2,-128
  804928:	1000061e 	bne	r2,zero,804944 <logic+0x41c8>
  80492c:	e0bffc17 	ldw	r2,-16(fp)
  804930:	10803203 	ldbu	r2,200(r2)
  804934:	10803fcc 	andi	r2,r2,255
  804938:	1080201c 	xori	r2,r2,128
  80493c:	10bfe004 	addi	r2,r2,-128
  804940:	10000226 	beq	r2,zero,80494c <logic+0x41d0>
  804944:	00800044 	movi	r2,1
  804948:	00000106 	br	804950 <logic+0x41d4>
  80494c:	0005883a 	mov	r2,zero
  804950:	1007883a 	mov	r3,r2
  804954:	e0bffc17 	ldw	r2,-16(fp)
  804958:	10c03485 	stb	r3,210(r2)
  d->_cg147 = d->_region5_URI_cURI < d->URI_Constraint;
  80495c:	e0bffc17 	ldw	r2,-16(fp)
  804960:	14001117 	ldw	r16,68(r2)
  804964:	14401217 	ldw	r17,72(r2)
  804968:	e0bffc17 	ldw	r2,-16(fp)
  80496c:	10800617 	ldw	r2,24(r2)
  804970:	1009883a 	mov	r4,r2
  804974:	0806b0c0 	call	806b0c <__floatsidf>
  804978:	1009883a 	mov	r4,r2
  80497c:	180b883a 	mov	r5,r3
  804980:	04800044 	movi	r18,1
  804984:	200d883a 	mov	r6,r4
  804988:	280f883a 	mov	r7,r5
  80498c:	8009883a 	mov	r4,r16
  804990:	880b883a 	mov	r5,r17
  804994:	080611c0 	call	80611c <__ledf2>
  804998:	10000116 	blt	r2,zero,8049a0 <logic+0x4224>
  80499c:	0025883a 	mov	r18,zero
  8049a0:	9007883a 	mov	r3,r18
  8049a4:	e0bffc17 	ldw	r2,-16(fp)
  8049a8:	10c04285 	stb	r3,266(r2)
  d->_g151 = d->_g154 && !d->_cg147;
  8049ac:	e0bffc17 	ldw	r2,-16(fp)
  8049b0:	10803483 	ldbu	r2,210(r2)
  8049b4:	10803fcc 	andi	r2,r2,255
  8049b8:	1080201c 	xori	r2,r2,128
  8049bc:	10bfe004 	addi	r2,r2,-128
  8049c0:	10000826 	beq	r2,zero,8049e4 <logic+0x4268>
  8049c4:	e0bffc17 	ldw	r2,-16(fp)
  8049c8:	10804283 	ldbu	r2,266(r2)
  8049cc:	10803fcc 	andi	r2,r2,255
  8049d0:	1080201c 	xori	r2,r2,128
  8049d4:	10bfe004 	addi	r2,r2,-128
  8049d8:	1000021e 	bne	r2,zero,8049e4 <logic+0x4268>
  8049dc:	00800044 	movi	r2,1
  8049e0:	00000106 	br	8049e8 <logic+0x426c>
  8049e4:	0005883a 	mov	r2,zero
  8049e8:	1007883a 	mov	r3,r2
  8049ec:	e0bffc17 	ldw	r2,-16(fp)
  8049f0:	10c033c5 	stb	r3,207(r2)
  d->_cg152 = d->_Pacemaker_local__Atrig8;
  8049f4:	e0bffc17 	ldw	r2,-16(fp)
  8049f8:	10c01b03 	ldbu	r3,108(r2)
  8049fc:	e0bffc17 	ldw	r2,-16(fp)
  804a00:	10c04305 	stb	r3,268(r2)
  d->_g153 = d->_g151 && !d->_cg152;
  804a04:	e0bffc17 	ldw	r2,-16(fp)
  804a08:	108033c3 	ldbu	r2,207(r2)
  804a0c:	10803fcc 	andi	r2,r2,255
  804a10:	1080201c 	xori	r2,r2,128
  804a14:	10bfe004 	addi	r2,r2,-128
  804a18:	10000826 	beq	r2,zero,804a3c <logic+0x42c0>
  804a1c:	e0bffc17 	ldw	r2,-16(fp)
  804a20:	10804303 	ldbu	r2,268(r2)
  804a24:	10803fcc 	andi	r2,r2,255
  804a28:	1080201c 	xori	r2,r2,128
  804a2c:	10bfe004 	addi	r2,r2,-128
  804a30:	1000021e 	bne	r2,zero,804a3c <logic+0x42c0>
  804a34:	00800044 	movi	r2,1
  804a38:	00000106 	br	804a40 <logic+0x42c4>
  804a3c:	0005883a 	mov	r2,zero
  804a40:	1007883a 	mov	r3,r2
  804a44:	e0bffc17 	ldw	r2,-16(fp)
  804a48:	10c03445 	stb	r3,209(r2)
  d->_g147 = d->_g154 && d->_cg147;
  804a4c:	e0bffc17 	ldw	r2,-16(fp)
  804a50:	10803483 	ldbu	r2,210(r2)
  804a54:	10803fcc 	andi	r2,r2,255
  804a58:	1080201c 	xori	r2,r2,128
  804a5c:	10bfe004 	addi	r2,r2,-128
  804a60:	10000826 	beq	r2,zero,804a84 <logic+0x4308>
  804a64:	e0bffc17 	ldw	r2,-16(fp)
  804a68:	10804283 	ldbu	r2,266(r2)
  804a6c:	10803fcc 	andi	r2,r2,255
  804a70:	1080201c 	xori	r2,r2,128
  804a74:	10bfe004 	addi	r2,r2,-128
  804a78:	10000226 	beq	r2,zero,804a84 <logic+0x4308>
  804a7c:	00800044 	movi	r2,1
  804a80:	00000106 	br	804a88 <logic+0x430c>
  804a84:	0005883a 	mov	r2,zero
  804a88:	1007883a 	mov	r3,r2
  804a8c:	e0bffc17 	ldw	r2,-16(fp)
  804a90:	10c032c5 	stb	r3,203(r2)
  if (d->_g147) {
  804a94:	e0bffc17 	ldw	r2,-16(fp)
  804a98:	108032c3 	ldbu	r2,203(r2)
  804a9c:	10803fcc 	andi	r2,r2,255
  804aa0:	1080201c 	xori	r2,r2,128
  804aa4:	10bfe004 	addi	r2,r2,-128
  804aa8:	10003426 	beq	r2,zero,804b7c <logic+0x4400>
    d->sleepT = (d->sleepT < (d->URI_Constraint - d->_region5_URI_cURI)) ? d->sleepT : (d->URI_Constraint - d->_region5_URI_cURI);
  804aac:	e0bffc17 	ldw	r2,-16(fp)
  804ab0:	14001517 	ldw	r16,84(r2)
  804ab4:	14401617 	ldw	r17,88(r2)
  804ab8:	e0bffc17 	ldw	r2,-16(fp)
  804abc:	10800617 	ldw	r2,24(r2)
  804ac0:	1009883a 	mov	r4,r2
  804ac4:	0806b0c0 	call	806b0c <__floatsidf>
  804ac8:	1011883a 	mov	r8,r2
  804acc:	1813883a 	mov	r9,r3
  804ad0:	e13ffc17 	ldw	r4,-16(fp)
  804ad4:	20801117 	ldw	r2,68(r4)
  804ad8:	20c01217 	ldw	r3,72(r4)
  804adc:	100d883a 	mov	r6,r2
  804ae0:	180f883a 	mov	r7,r3
  804ae4:	4009883a 	mov	r4,r8
  804ae8:	480b883a 	mov	r5,r9
  804aec:	08062100 	call	806210 <__subdf3>
  804af0:	1009883a 	mov	r4,r2
  804af4:	180b883a 	mov	r5,r3
  804af8:	2005883a 	mov	r2,r4
  804afc:	2807883a 	mov	r3,r5
  804b00:	100d883a 	mov	r6,r2
  804b04:	180f883a 	mov	r7,r3
  804b08:	8009883a 	mov	r4,r16
  804b0c:	880b883a 	mov	r5,r17
  804b10:	080611c0 	call	80611c <__ledf2>
  804b14:	1000040e 	bge	r2,zero,804b28 <logic+0x43ac>
  804b18:	e13ffc17 	ldw	r4,-16(fp)
  804b1c:	20801517 	ldw	r2,84(r4)
  804b20:	20c01617 	ldw	r3,88(r4)
  804b24:	00001206 	br	804b70 <logic+0x43f4>
  804b28:	e0bffc17 	ldw	r2,-16(fp)
  804b2c:	10800617 	ldw	r2,24(r2)
  804b30:	1009883a 	mov	r4,r2
  804b34:	0806b0c0 	call	806b0c <__floatsidf>
  804b38:	1011883a 	mov	r8,r2
  804b3c:	1813883a 	mov	r9,r3
  804b40:	e13ffc17 	ldw	r4,-16(fp)
  804b44:	20801117 	ldw	r2,68(r4)
  804b48:	20c01217 	ldw	r3,72(r4)
  804b4c:	100d883a 	mov	r6,r2
  804b50:	180f883a 	mov	r7,r3
  804b54:	4009883a 	mov	r4,r8
  804b58:	480b883a 	mov	r5,r9
  804b5c:	08062100 	call	806210 <__subdf3>
  804b60:	1009883a 	mov	r4,r2
  804b64:	180b883a 	mov	r5,r3
  804b68:	2005883a 	mov	r2,r4
  804b6c:	2807883a 	mov	r3,r5
  804b70:	e13ffc17 	ldw	r4,-16(fp)
  804b74:	20801515 	stw	r2,84(r4)
  804b78:	20c01615 	stw	r3,88(r4)
  }
  d->_cg148 = d->_Pacemaker_local__Atrig8;
  804b7c:	e0bffc17 	ldw	r2,-16(fp)
  804b80:	10c01b03 	ldbu	r3,108(r2)
  804b84:	e0bffc17 	ldw	r2,-16(fp)
  804b88:	10c042c5 	stb	r3,267(r2)
  d->_g150 = d->_g147 && !d->_cg148;
  804b8c:	e0bffc17 	ldw	r2,-16(fp)
  804b90:	108032c3 	ldbu	r2,203(r2)
  804b94:	10803fcc 	andi	r2,r2,255
  804b98:	1080201c 	xori	r2,r2,128
  804b9c:	10bfe004 	addi	r2,r2,-128
  804ba0:	10000826 	beq	r2,zero,804bc4 <logic+0x4448>
  804ba4:	e0bffc17 	ldw	r2,-16(fp)
  804ba8:	108042c3 	ldbu	r2,267(r2)
  804bac:	10803fcc 	andi	r2,r2,255
  804bb0:	1080201c 	xori	r2,r2,128
  804bb4:	10bfe004 	addi	r2,r2,-128
  804bb8:	1000021e 	bne	r2,zero,804bc4 <logic+0x4448>
  804bbc:	00800044 	movi	r2,1
  804bc0:	00000106 	br	804bc8 <logic+0x444c>
  804bc4:	0005883a 	mov	r2,zero
  804bc8:	1007883a 	mov	r3,r2
  804bcc:	e0bffc17 	ldw	r2,-16(fp)
  804bd0:	10c03385 	stb	r3,206(r2)
  d->_g149_e2 = !(d->_g153 || d->_g150);
  804bd4:	e0bffc17 	ldw	r2,-16(fp)
  804bd8:	10803443 	ldbu	r2,209(r2)
  804bdc:	10803fcc 	andi	r2,r2,255
  804be0:	1080201c 	xori	r2,r2,128
  804be4:	10bfe004 	addi	r2,r2,-128
  804be8:	1000081e 	bne	r2,zero,804c0c <logic+0x4490>
  804bec:	e0bffc17 	ldw	r2,-16(fp)
  804bf0:	10803383 	ldbu	r2,206(r2)
  804bf4:	10803fcc 	andi	r2,r2,255
  804bf8:	1080201c 	xori	r2,r2,128
  804bfc:	10bfe004 	addi	r2,r2,-128
  804c00:	1000021e 	bne	r2,zero,804c0c <logic+0x4490>
  804c04:	00800044 	movi	r2,1
  804c08:	00000106 	br	804c10 <logic+0x4494>
  804c0c:	0005883a 	mov	r2,zero
  804c10:	1007883a 	mov	r3,r2
  804c14:	e0bffc17 	ldw	r2,-16(fp)
  804c18:	10c04785 	stb	r3,286(r2)
  d->_g152 = d->_g147 && d->_cg148 || d->_g151 && d->_cg152;
  804c1c:	e0bffc17 	ldw	r2,-16(fp)
  804c20:	108032c3 	ldbu	r2,203(r2)
  804c24:	10803fcc 	andi	r2,r2,255
  804c28:	1080201c 	xori	r2,r2,128
  804c2c:	10bfe004 	addi	r2,r2,-128
  804c30:	10000626 	beq	r2,zero,804c4c <logic+0x44d0>
  804c34:	e0bffc17 	ldw	r2,-16(fp)
  804c38:	108042c3 	ldbu	r2,267(r2)
  804c3c:	10803fcc 	andi	r2,r2,255
  804c40:	1080201c 	xori	r2,r2,128
  804c44:	10bfe004 	addi	r2,r2,-128
  804c48:	10000c1e 	bne	r2,zero,804c7c <logic+0x4500>
  804c4c:	e0bffc17 	ldw	r2,-16(fp)
  804c50:	108033c3 	ldbu	r2,207(r2)
  804c54:	10803fcc 	andi	r2,r2,255
  804c58:	1080201c 	xori	r2,r2,128
  804c5c:	10bfe004 	addi	r2,r2,-128
  804c60:	10000826 	beq	r2,zero,804c84 <logic+0x4508>
  804c64:	e0bffc17 	ldw	r2,-16(fp)
  804c68:	10804303 	ldbu	r2,268(r2)
  804c6c:	10803fcc 	andi	r2,r2,255
  804c70:	1080201c 	xori	r2,r2,128
  804c74:	10bfe004 	addi	r2,r2,-128
  804c78:	10000226 	beq	r2,zero,804c84 <logic+0x4508>
  804c7c:	00800044 	movi	r2,1
  804c80:	00000106 	br	804c88 <logic+0x450c>
  804c84:	0005883a 	mov	r2,zero
  804c88:	1007883a 	mov	r3,r2
  804c8c:	e0bffc17 	ldw	r2,-16(fp)
  804c90:	10c03405 	stb	r3,208(r2)
  d->_g148 = d->_g121 || d->_g110 && !d->_cg157;
  804c94:	e0bffc17 	ldw	r2,-16(fp)
  804c98:	10802e83 	ldbu	r2,186(r2)
  804c9c:	10803fcc 	andi	r2,r2,255
  804ca0:	1080201c 	xori	r2,r2,128
  804ca4:	10bfe004 	addi	r2,r2,-128
  804ca8:	10000c1e 	bne	r2,zero,804cdc <logic+0x4560>
  804cac:	e0bffc17 	ldw	r2,-16(fp)
  804cb0:	10802cc3 	ldbu	r2,179(r2)
  804cb4:	10803fcc 	andi	r2,r2,255
  804cb8:	1080201c 	xori	r2,r2,128
  804cbc:	10bfe004 	addi	r2,r2,-128
  804cc0:	10000826 	beq	r2,zero,804ce4 <logic+0x4568>
  804cc4:	e0bffc17 	ldw	r2,-16(fp)
  804cc8:	10804343 	ldbu	r2,269(r2)
  804ccc:	10803fcc 	andi	r2,r2,255
  804cd0:	1080201c 	xori	r2,r2,128
  804cd4:	10bfe004 	addi	r2,r2,-128
  804cd8:	1000021e 	bne	r2,zero,804ce4 <logic+0x4568>
  804cdc:	00800044 	movi	r2,1
  804ce0:	00000106 	br	804ce8 <logic+0x456c>
  804ce4:	0005883a 	mov	r2,zero
  804ce8:	1007883a 	mov	r3,r2
  804cec:	e0bffc17 	ldw	r2,-16(fp)
  804cf0:	10c03305 	stb	r3,204(r2)
  d->_g157 = !d->_g148;
  804cf4:	e0bffc17 	ldw	r2,-16(fp)
  804cf8:	10803303 	ldbu	r2,204(r2)
  804cfc:	10803fcc 	andi	r2,r2,255
  804d00:	1080201c 	xori	r2,r2,128
  804d04:	10bfe004 	addi	r2,r2,-128
  804d08:	1005003a 	cmpeq	r2,r2,zero
  804d0c:	1007883a 	mov	r3,r2
  804d10:	e0bffc17 	ldw	r2,-16(fp)
  804d14:	10c034c5 	stb	r3,211(r2)
  d->_g140 = (d->_g132 || d->_g111) && (d->_g149_e2 || d->_g152) && (d->_g157 || d->_g114) && (d->_g111 || d->_g152 || d->_g114);
  804d18:	e0bffc17 	ldw	r2,-16(fp)
  804d1c:	10803083 	ldbu	r2,194(r2)
  804d20:	10803fcc 	andi	r2,r2,255
  804d24:	1080201c 	xori	r2,r2,128
  804d28:	10bfe004 	addi	r2,r2,-128
  804d2c:	1000061e 	bne	r2,zero,804d48 <logic+0x45cc>
  804d30:	e0bffc17 	ldw	r2,-16(fp)
  804d34:	10802d03 	ldbu	r2,180(r2)
  804d38:	10803fcc 	andi	r2,r2,255
  804d3c:	1080201c 	xori	r2,r2,128
  804d40:	10bfe004 	addi	r2,r2,-128
  804d44:	10002c26 	beq	r2,zero,804df8 <logic+0x467c>
  804d48:	e0bffc17 	ldw	r2,-16(fp)
  804d4c:	10804783 	ldbu	r2,286(r2)
  804d50:	10803fcc 	andi	r2,r2,255
  804d54:	1080201c 	xori	r2,r2,128
  804d58:	10bfe004 	addi	r2,r2,-128
  804d5c:	1000061e 	bne	r2,zero,804d78 <logic+0x45fc>
  804d60:	e0bffc17 	ldw	r2,-16(fp)
  804d64:	10803403 	ldbu	r2,208(r2)
  804d68:	10803fcc 	andi	r2,r2,255
  804d6c:	1080201c 	xori	r2,r2,128
  804d70:	10bfe004 	addi	r2,r2,-128
  804d74:	10002026 	beq	r2,zero,804df8 <logic+0x467c>
  804d78:	e0bffc17 	ldw	r2,-16(fp)
  804d7c:	108034c3 	ldbu	r2,211(r2)
  804d80:	10803fcc 	andi	r2,r2,255
  804d84:	1080201c 	xori	r2,r2,128
  804d88:	10bfe004 	addi	r2,r2,-128
  804d8c:	1000061e 	bne	r2,zero,804da8 <logic+0x462c>
  804d90:	e0bffc17 	ldw	r2,-16(fp)
  804d94:	10802d43 	ldbu	r2,181(r2)
  804d98:	10803fcc 	andi	r2,r2,255
  804d9c:	1080201c 	xori	r2,r2,128
  804da0:	10bfe004 	addi	r2,r2,-128
  804da4:	10001426 	beq	r2,zero,804df8 <logic+0x467c>
  804da8:	e0bffc17 	ldw	r2,-16(fp)
  804dac:	10802d03 	ldbu	r2,180(r2)
  804db0:	10803fcc 	andi	r2,r2,255
  804db4:	1080201c 	xori	r2,r2,128
  804db8:	10bfe004 	addi	r2,r2,-128
  804dbc:	10000c1e 	bne	r2,zero,804df0 <logic+0x4674>
  804dc0:	e0bffc17 	ldw	r2,-16(fp)
  804dc4:	10803403 	ldbu	r2,208(r2)
  804dc8:	10803fcc 	andi	r2,r2,255
  804dcc:	1080201c 	xori	r2,r2,128
  804dd0:	10bfe004 	addi	r2,r2,-128
  804dd4:	1000061e 	bne	r2,zero,804df0 <logic+0x4674>
  804dd8:	e0bffc17 	ldw	r2,-16(fp)
  804ddc:	10802d43 	ldbu	r2,181(r2)
  804de0:	10803fcc 	andi	r2,r2,255
  804de4:	1080201c 	xori	r2,r2,128
  804de8:	10bfe004 	addi	r2,r2,-128
  804dec:	10000226 	beq	r2,zero,804df8 <logic+0x467c>
  804df0:	00800044 	movi	r2,1
  804df4:	00000106 	br	804dfc <logic+0x4680>
  804df8:	0005883a 	mov	r2,zero
  804dfc:	1007883a 	mov	r3,r2
  804e00:	e0bffc17 	ldw	r2,-16(fp)
  804e04:	10c031c5 	stb	r3,199(r2)
  d->_g149_e2 = d->_GO || d->_g140 || d->_g117 && !d->_cg139;
  804e08:	e0bffc17 	ldw	r2,-16(fp)
  804e0c:	108035c3 	ldbu	r2,215(r2)
  804e10:	10803fcc 	andi	r2,r2,255
  804e14:	1080201c 	xori	r2,r2,128
  804e18:	10bfe004 	addi	r2,r2,-128
  804e1c:	1000121e 	bne	r2,zero,804e68 <logic+0x46ec>
  804e20:	e0bffc17 	ldw	r2,-16(fp)
  804e24:	108031c3 	ldbu	r2,199(r2)
  804e28:	10803fcc 	andi	r2,r2,255
  804e2c:	1080201c 	xori	r2,r2,128
  804e30:	10bfe004 	addi	r2,r2,-128
  804e34:	10000c1e 	bne	r2,zero,804e68 <logic+0x46ec>
  804e38:	e0bffc17 	ldw	r2,-16(fp)
  804e3c:	10802dc3 	ldbu	r2,183(r2)
  804e40:	10803fcc 	andi	r2,r2,255
  804e44:	1080201c 	xori	r2,r2,128
  804e48:	10bfe004 	addi	r2,r2,-128
  804e4c:	10000826 	beq	r2,zero,804e70 <logic+0x46f4>
  804e50:	e0bffc17 	ldw	r2,-16(fp)
  804e54:	10804203 	ldbu	r2,264(r2)
  804e58:	10803fcc 	andi	r2,r2,255
  804e5c:	1080201c 	xori	r2,r2,128
  804e60:	10bfe004 	addi	r2,r2,-128
  804e64:	1000021e 	bne	r2,zero,804e70 <logic+0x46f4>
  804e68:	00800044 	movi	r2,1
  804e6c:	00000106 	br	804e74 <logic+0x46f8>
  804e70:	0005883a 	mov	r2,zero
  804e74:	1007883a 	mov	r3,r2
  804e78:	e0bffc17 	ldw	r2,-16(fp)
  804e7c:	10c04785 	stb	r3,286(r2)
  d->_g143 = d->_GO || d->_g167;
  804e80:	e0bffc17 	ldw	r2,-16(fp)
  804e84:	108035c3 	ldbu	r2,215(r2)
  804e88:	10803fcc 	andi	r2,r2,255
  804e8c:	1080201c 	xori	r2,r2,128
  804e90:	10bfe004 	addi	r2,r2,-128
  804e94:	1000061e 	bne	r2,zero,804eb0 <logic+0x4734>
  804e98:	e0bffc17 	ldw	r2,-16(fp)
  804e9c:	10803543 	ldbu	r2,213(r2)
  804ea0:	10803fcc 	andi	r2,r2,255
  804ea4:	1080201c 	xori	r2,r2,128
  804ea8:	10bfe004 	addi	r2,r2,-128
  804eac:	10000226 	beq	r2,zero,804eb8 <logic+0x473c>
  804eb0:	00800044 	movi	r2,1
  804eb4:	00000106 	br	804ebc <logic+0x4740>
  804eb8:	0005883a 	mov	r2,zero
  804ebc:	1007883a 	mov	r3,r2
  804ec0:	e0bffc17 	ldw	r2,-16(fp)
  804ec4:	10c03245 	stb	r3,201(r2)
  d->_g149 = d->_GO || d->_g15;
  804ec8:	e0bffc17 	ldw	r2,-16(fp)
  804ecc:	108035c3 	ldbu	r2,215(r2)
  804ed0:	10803fcc 	andi	r2,r2,255
  804ed4:	1080201c 	xori	r2,r2,128
  804ed8:	10bfe004 	addi	r2,r2,-128
  804edc:	1000061e 	bne	r2,zero,804ef8 <logic+0x477c>
  804ee0:	e0bffc17 	ldw	r2,-16(fp)
  804ee4:	10801d03 	ldbu	r2,116(r2)
  804ee8:	10803fcc 	andi	r2,r2,255
  804eec:	1080201c 	xori	r2,r2,128
  804ef0:	10bfe004 	addi	r2,r2,-128
  804ef4:	10000226 	beq	r2,zero,804f00 <logic+0x4784>
  804ef8:	00800044 	movi	r2,1
  804efc:	00000106 	br	804f04 <logic+0x4788>
  804f00:	0005883a 	mov	r2,zero
  804f04:	1007883a 	mov	r3,r2
  804f08:	e0bffc17 	ldw	r2,-16(fp)
  804f0c:	10c03345 	stb	r3,205(r2)
  d->_g158_e3 = d->_GO || d->_g52;
  804f10:	e0bffc17 	ldw	r2,-16(fp)
  804f14:	108035c3 	ldbu	r2,215(r2)
  804f18:	10803fcc 	andi	r2,r2,255
  804f1c:	1080201c 	xori	r2,r2,128
  804f20:	10bfe004 	addi	r2,r2,-128
  804f24:	1000061e 	bne	r2,zero,804f40 <logic+0x47c4>
  804f28:	e0bffc17 	ldw	r2,-16(fp)
  804f2c:	10802383 	ldbu	r2,142(r2)
  804f30:	10803fcc 	andi	r2,r2,255
  804f34:	1080201c 	xori	r2,r2,128
  804f38:	10bfe004 	addi	r2,r2,-128
  804f3c:	10000226 	beq	r2,zero,804f48 <logic+0x47cc>
  804f40:	00800044 	movi	r2,1
  804f44:	00000106 	br	804f4c <logic+0x47d0>
  804f48:	0005883a 	mov	r2,zero
  804f4c:	1007883a 	mov	r3,r2
  804f50:	e0bffc17 	ldw	r2,-16(fp)
  804f54:	10c047c5 	stb	r3,287(r2)
  d->_g158 = d->_GO || d->_g25;
  804f58:	e0bffc17 	ldw	r2,-16(fp)
  804f5c:	108035c3 	ldbu	r2,215(r2)
  804f60:	10803fcc 	andi	r2,r2,255
  804f64:	1080201c 	xori	r2,r2,128
  804f68:	10bfe004 	addi	r2,r2,-128
  804f6c:	1000061e 	bne	r2,zero,804f88 <logic+0x480c>
  804f70:	e0bffc17 	ldw	r2,-16(fp)
  804f74:	10801ec3 	ldbu	r2,123(r2)
  804f78:	10803fcc 	andi	r2,r2,255
  804f7c:	1080201c 	xori	r2,r2,128
  804f80:	10bfe004 	addi	r2,r2,-128
  804f84:	10000226 	beq	r2,zero,804f90 <logic+0x4814>
  804f88:	00800044 	movi	r2,1
  804f8c:	00000106 	br	804f94 <logic+0x4818>
  804f90:	0005883a 	mov	r2,zero
  804f94:	1007883a 	mov	r3,r2
  804f98:	e0bffc17 	ldw	r2,-16(fp)
  804f9c:	10c03505 	stb	r3,212(r2)
  d->_g143_e1 = d->_GO || d->_g183;
  804fa0:	e0bffc17 	ldw	r2,-16(fp)
  804fa4:	108035c3 	ldbu	r2,215(r2)
  804fa8:	10803fcc 	andi	r2,r2,255
  804fac:	1080201c 	xori	r2,r2,128
  804fb0:	10bfe004 	addi	r2,r2,-128
  804fb4:	1000061e 	bne	r2,zero,804fd0 <logic+0x4854>
  804fb8:	e0bffc17 	ldw	r2,-16(fp)
  804fbc:	10803583 	ldbu	r2,214(r2)
  804fc0:	10803fcc 	andi	r2,r2,255
  804fc4:	1080201c 	xori	r2,r2,128
  804fc8:	10bfe004 	addi	r2,r2,-128
  804fcc:	10000226 	beq	r2,zero,804fd8 <logic+0x485c>
  804fd0:	00800044 	movi	r2,1
  804fd4:	00000106 	br	804fdc <logic+0x4860>
  804fd8:	0005883a 	mov	r2,zero
  804fdc:	1007883a 	mov	r3,r2
  804fe0:	e0bffc17 	ldw	r2,-16(fp)
  804fe4:	10c04745 	stb	r3,285(r2)
  d->_g139 = d->_GO || d->_g135;
  804fe8:	e0bffc17 	ldw	r2,-16(fp)
  804fec:	108035c3 	ldbu	r2,215(r2)
  804ff0:	10803fcc 	andi	r2,r2,255
  804ff4:	1080201c 	xori	r2,r2,128
  804ff8:	10bfe004 	addi	r2,r2,-128
  804ffc:	1000061e 	bne	r2,zero,805018 <logic+0x489c>
  805000:	e0bffc17 	ldw	r2,-16(fp)
  805004:	10803143 	ldbu	r2,197(r2)
  805008:	10803fcc 	andi	r2,r2,255
  80500c:	1080201c 	xori	r2,r2,128
  805010:	10bfe004 	addi	r2,r2,-128
  805014:	10000226 	beq	r2,zero,805020 <logic+0x48a4>
  805018:	00800044 	movi	r2,1
  80501c:	00000106 	br	805024 <logic+0x48a8>
  805020:	0005883a 	mov	r2,zero
  805024:	1007883a 	mov	r3,r2
  805028:	e0bffc17 	ldw	r2,-16(fp)
  80502c:	10c03185 	stb	r3,198(r2)
}
  805030:	0001883a 	nop
  805034:	e6fffd04 	addi	sp,fp,-12
  805038:	dfc00417 	ldw	ra,16(sp)
  80503c:	df000317 	ldw	fp,12(sp)
  805040:	dc800217 	ldw	r18,8(sp)
  805044:	dc400117 	ldw	r17,4(sp)
  805048:	dc000017 	ldw	r16,0(sp)
  80504c:	dec00504 	addi	sp,sp,20
  805050:	f800283a 	ret

00805054 <reset>:

void reset(TickData* d) {
  805054:	defffe04 	addi	sp,sp,-8
  805058:	df000115 	stw	fp,4(sp)
  80505c:	df000104 	addi	fp,sp,4
  805060:	e13fff15 	stw	r4,-4(fp)
  d->_GO = 1;
  805064:	e0bfff17 	ldw	r2,-4(fp)
  805068:	00c00044 	movi	r3,1
  80506c:	10c035c5 	stb	r3,215(r2)
  d->_TERM = 0;
  805070:	e0bfff17 	ldw	r2,-4(fp)
  805074:	10004805 	stb	zero,288(r2)
  d->AVI_Constraint = AVI_VALUE;
  805078:	e0bfff17 	ldw	r2,-4(fp)
  80507c:	00c04b04 	movi	r3,300
  805080:	10c00115 	stw	r3,4(r2)
  d->PVARP_Constraint = PVARP_VALUE;
  805084:	e0bfff17 	ldw	r2,-4(fp)
  805088:	00c00c84 	movi	r3,50
  80508c:	10c00215 	stw	r3,8(r2)
  d->VRP_Constraint = VRP_VALUE;
  805090:	e0bfff17 	ldw	r2,-4(fp)
  805094:	00c02584 	movi	r3,150
  805098:	10c00315 	stw	r3,12(r2)
  d->AEI_Constraint = AEI_VALUE;
  80509c:	e0bfff17 	ldw	r2,-4(fp)
  8050a0:	00c0c804 	movi	r3,800
  8050a4:	10c00415 	stw	r3,16(r2)
  d->LRI_Constraint = LRI_VALUE;
  8050a8:	e0bfff17 	ldw	r2,-4(fp)
  8050ac:	00c0ed84 	movi	r3,950
  8050b0:	10c00515 	stw	r3,20(r2)
  d->URI_Constraint = URI_VALUE;
  8050b4:	e0bfff17 	ldw	r2,-4(fp)
  8050b8:	00c0e104 	movi	r3,900
  8050bc:	10c00615 	stw	r3,24(r2)
  d->_region0_AVI_cAVI = 0;
  8050c0:	e0bfff17 	ldw	r2,-4(fp)
  8050c4:	10000715 	stw	zero,28(r2)
  8050c8:	10000815 	stw	zero,32(r2)
  d->_region1_PVARP_cPVARP = 0;
  8050cc:	e0bfff17 	ldw	r2,-4(fp)
  8050d0:	10000915 	stw	zero,36(r2)
  8050d4:	10000a15 	stw	zero,40(r2)
  d->_region2_VRP_cVRP = 0;
  8050d8:	e0bfff17 	ldw	r2,-4(fp)
  8050dc:	10000b15 	stw	zero,44(r2)
  8050e0:	10000c15 	stw	zero,48(r2)
  d->_region3_AEI_cAEI = 0;
  8050e4:	e0bfff17 	ldw	r2,-4(fp)
  8050e8:	10000d15 	stw	zero,52(r2)
  8050ec:	10000e15 	stw	zero,56(r2)
  d->_region4_LRI_cLRI = 0;
  8050f0:	e0bfff17 	ldw	r2,-4(fp)
  8050f4:	10000f15 	stw	zero,60(r2)
  8050f8:	10001015 	stw	zero,64(r2)
  d->_region5_URI_cURI = 0;
  8050fc:	e0bfff17 	ldw	r2,-4(fp)
  805100:	10001115 	stw	zero,68(r2)
  805104:	10001215 	stw	zero,72(r2)
  d->deltaT = 0.0;
  805108:	e0bfff17 	ldw	r2,-4(fp)
  80510c:	10001315 	stw	zero,76(r2)
  805110:	10001415 	stw	zero,80(r2)
  d->sleepT = 0.0;
  805114:	e0bfff17 	ldw	r2,-4(fp)
  805118:	10001515 	stw	zero,84(r2)
  80511c:	10001615 	stw	zero,88(r2)
  d->_pg93 = 0;
  805120:	e0bfff17 	ldw	r2,-4(fp)
  805124:	10004845 	stb	zero,289(r2)
  d->_pg126 = 0;
  805128:	e0bfff17 	ldw	r2,-4(fp)
  80512c:	10004885 	stb	zero,290(r2)
  d->_pg143 = 0;
  805130:	e0bfff17 	ldw	r2,-4(fp)
  805134:	100048c5 	stb	zero,291(r2)
  d->_pg8 = 0;
  805138:	e0bfff17 	ldw	r2,-4(fp)
  80513c:	10004905 	stb	zero,292(r2)
  d->_pg4 = 0;
  805140:	e0bfff17 	ldw	r2,-4(fp)
  805144:	10004945 	stb	zero,293(r2)
  d->_pg28 = 0;
  805148:	e0bfff17 	ldw	r2,-4(fp)
  80514c:	10004985 	stb	zero,294(r2)
  d->_pg131 = 0;
  805150:	e0bfff17 	ldw	r2,-4(fp)
  805154:	100049c5 	stb	zero,295(r2)
  d->_pg67 = 0;
  805158:	e0bfff17 	ldw	r2,-4(fp)
  80515c:	10004a05 	stb	zero,296(r2)
  d->_pg158 = 0;
  805160:	e0bfff17 	ldw	r2,-4(fp)
  805164:	10004a45 	stb	zero,297(r2)
  d->_pg106 = 0;
  805168:	e0bfff17 	ldw	r2,-4(fp)
  80516c:	10004a85 	stb	zero,298(r2)
  d->_pg105 = 0;
  805170:	e0bfff17 	ldw	r2,-4(fp)
  805174:	10004ac5 	stb	zero,299(r2)
  d->_pg77 = 0;
  805178:	e0bfff17 	ldw	r2,-4(fp)
  80517c:	10004b05 	stb	zero,300(r2)
  d->_pg86 = 0;
  805180:	e0bfff17 	ldw	r2,-4(fp)
  805184:	10004b45 	stb	zero,301(r2)
  d->_pg149 = 0;
  805188:	e0bfff17 	ldw	r2,-4(fp)
  80518c:	10004b85 	stb	zero,302(r2)
  d->_pg42 = 0;
  805190:	e0bfff17 	ldw	r2,-4(fp)
  805194:	10004bc5 	stb	zero,303(r2)
  d->_pg92 = 0;
  805198:	e0bfff17 	ldw	r2,-4(fp)
  80519c:	10004c05 	stb	zero,304(r2)
  d->_pg53 = 0;
  8051a0:	e0bfff17 	ldw	r2,-4(fp)
  8051a4:	10004c45 	stb	zero,305(r2)
  d->_pg134 = 0;
  8051a8:	e0bfff17 	ldw	r2,-4(fp)
  8051ac:	10004c85 	stb	zero,306(r2)
  d->_pg143_e1 = 0;
  8051b0:	e0bfff17 	ldw	r2,-4(fp)
  8051b4:	10004cc5 	stb	zero,307(r2)
  d->_pg82 = 0;
  8051b8:	e0bfff17 	ldw	r2,-4(fp)
  8051bc:	10004d05 	stb	zero,308(r2)
  d->_pg94 = 0;
  8051c0:	e0bfff17 	ldw	r2,-4(fp)
  8051c4:	10004d45 	stb	zero,309(r2)
  d->_pg37 = 0;
  8051c8:	e0bfff17 	ldw	r2,-4(fp)
  8051cc:	10004d85 	stb	zero,310(r2)
  d->_pg44 = 0;
  8051d0:	e0bfff17 	ldw	r2,-4(fp)
  8051d4:	10004dc5 	stb	zero,311(r2)
  d->_pg47 = 0;
  8051d8:	e0bfff17 	ldw	r2,-4(fp)
  8051dc:	10004e05 	stb	zero,312(r2)
  d->_pg158_e3 = 0;
  8051e0:	e0bfff17 	ldw	r2,-4(fp)
  8051e4:	10004e45 	stb	zero,313(r2)
  d->_pg70 = 0;
  8051e8:	e0bfff17 	ldw	r2,-4(fp)
  8051ec:	10004e85 	stb	zero,314(r2)
  d->_pg76_e3 = 0;
  8051f0:	e0bfff17 	ldw	r2,-4(fp)
  8051f4:	10004ec5 	stb	zero,315(r2)
  d->_pg68 = 0;
  8051f8:	e0bfff17 	ldw	r2,-4(fp)
  8051fc:	10004f05 	stb	zero,316(r2)
  d->_pg71 = 0;
  805200:	e0bfff17 	ldw	r2,-4(fp)
  805204:	10004f45 	stb	zero,317(r2)
  d->_pg76 = 0;
  805208:	e0bfff17 	ldw	r2,-4(fp)
  80520c:	10004f85 	stb	zero,318(r2)
  d->_pg85 = 0;
  805210:	e0bfff17 	ldw	r2,-4(fp)
  805214:	10004fc5 	stb	zero,319(r2)
  d->_pg139 = 0;
  805218:	e0bfff17 	ldw	r2,-4(fp)
  80521c:	10005005 	stb	zero,320(r2)
  d->_pg148 = 0;
  805220:	e0bfff17 	ldw	r2,-4(fp)
  805224:	10005045 	stb	zero,321(r2)
  d->_pg149_e2 = 0;
  805228:	e0bfff17 	ldw	r2,-4(fp)
  80522c:	10005085 	stb	zero,322(r2)
  d->_pg150 = 0;
  805230:	e0bfff17 	ldw	r2,-4(fp)
  805234:	100050c5 	stb	zero,323(r2)
  d->_pg153 = 0;
  805238:	e0bfff17 	ldw	r2,-4(fp)
  80523c:	10005105 	stb	zero,324(r2)
}
  805240:	0001883a 	nop
  805244:	e037883a 	mov	sp,fp
  805248:	df000017 	ldw	fp,0(sp)
  80524c:	dec00104 	addi	sp,sp,4
  805250:	f800283a 	ret

00805254 <tick>:

void tick(TickData* d) {
  805254:	defffd04 	addi	sp,sp,-12
  805258:	dfc00215 	stw	ra,8(sp)
  80525c:	df000115 	stw	fp,4(sp)
  805260:	df000104 	addi	fp,sp,4
  805264:	e13fff15 	stw	r4,-4(fp)
  logic(d);
  805268:	e13fff17 	ldw	r4,-4(fp)
  80526c:	080077c0 	call	80077c <logic>

  d->_pg93 = d->_g93;
  805270:	e0bfff17 	ldw	r2,-4(fp)
  805274:	10c02a03 	ldbu	r3,168(r2)
  805278:	e0bfff17 	ldw	r2,-4(fp)
  80527c:	10c04845 	stb	r3,289(r2)
  d->_pg126 = d->_g126;
  805280:	e0bfff17 	ldw	r2,-4(fp)
  805284:	10c02f83 	ldbu	r3,190(r2)
  805288:	e0bfff17 	ldw	r2,-4(fp)
  80528c:	10c04885 	stb	r3,290(r2)
  d->_pg143 = d->_g143;
  805290:	e0bfff17 	ldw	r2,-4(fp)
  805294:	10c03243 	ldbu	r3,201(r2)
  805298:	e0bfff17 	ldw	r2,-4(fp)
  80529c:	10c048c5 	stb	r3,291(r2)
  d->_pg8 = d->_g8;
  8052a0:	e0bfff17 	ldw	r2,-4(fp)
  8052a4:	10c01bc3 	ldbu	r3,111(r2)
  8052a8:	e0bfff17 	ldw	r2,-4(fp)
  8052ac:	10c04905 	stb	r3,292(r2)
  d->_pg4 = d->_g4;
  8052b0:	e0bfff17 	ldw	r2,-4(fp)
  8052b4:	10c01b43 	ldbu	r3,109(r2)
  8052b8:	e0bfff17 	ldw	r2,-4(fp)
  8052bc:	10c04945 	stb	r3,293(r2)
  d->_pg28 = d->_g28;
  8052c0:	e0bfff17 	ldw	r2,-4(fp)
  8052c4:	10c01f83 	ldbu	r3,126(r2)
  8052c8:	e0bfff17 	ldw	r2,-4(fp)
  8052cc:	10c04985 	stb	r3,294(r2)
  d->_pg131 = d->_g131;
  8052d0:	e0bfff17 	ldw	r2,-4(fp)
  8052d4:	10c03043 	ldbu	r3,193(r2)
  8052d8:	e0bfff17 	ldw	r2,-4(fp)
  8052dc:	10c049c5 	stb	r3,295(r2)
  d->_pg67 = d->_g67;
  8052e0:	e0bfff17 	ldw	r2,-4(fp)
  8052e4:	10c025c3 	ldbu	r3,151(r2)
  8052e8:	e0bfff17 	ldw	r2,-4(fp)
  8052ec:	10c04a05 	stb	r3,296(r2)
  d->_pg158 = d->_g158;
  8052f0:	e0bfff17 	ldw	r2,-4(fp)
  8052f4:	10c03503 	ldbu	r3,212(r2)
  8052f8:	e0bfff17 	ldw	r2,-4(fp)
  8052fc:	10c04a45 	stb	r3,297(r2)
  d->_pg106 = d->_g106;
  805300:	e0bfff17 	ldw	r2,-4(fp)
  805304:	10c02c83 	ldbu	r3,178(r2)
  805308:	e0bfff17 	ldw	r2,-4(fp)
  80530c:	10c04a85 	stb	r3,298(r2)
  d->_pg105 = d->_g105;
  805310:	e0bfff17 	ldw	r2,-4(fp)
  805314:	10c02c43 	ldbu	r3,177(r2)
  805318:	e0bfff17 	ldw	r2,-4(fp)
  80531c:	10c04ac5 	stb	r3,299(r2)
  d->_pg77 = d->_g77;
  805320:	e0bfff17 	ldw	r2,-4(fp)
  805324:	10c027c3 	ldbu	r3,159(r2)
  805328:	e0bfff17 	ldw	r2,-4(fp)
  80532c:	10c04b05 	stb	r3,300(r2)
  d->_pg86 = d->_g86;
  805330:	e0bfff17 	ldw	r2,-4(fp)
  805334:	10c028c3 	ldbu	r3,163(r2)
  805338:	e0bfff17 	ldw	r2,-4(fp)
  80533c:	10c04b45 	stb	r3,301(r2)
  d->_pg149 = d->_g149;
  805340:	e0bfff17 	ldw	r2,-4(fp)
  805344:	10c03343 	ldbu	r3,205(r2)
  805348:	e0bfff17 	ldw	r2,-4(fp)
  80534c:	10c04b85 	stb	r3,302(r2)
  d->_pg42 = d->_g42;
  805350:	e0bfff17 	ldw	r2,-4(fp)
  805354:	10c02183 	ldbu	r3,134(r2)
  805358:	e0bfff17 	ldw	r2,-4(fp)
  80535c:	10c04bc5 	stb	r3,303(r2)
  d->_pg92 = d->_g92;
  805360:	e0bfff17 	ldw	r2,-4(fp)
  805364:	10c029c3 	ldbu	r3,167(r2)
  805368:	e0bfff17 	ldw	r2,-4(fp)
  80536c:	10c04c05 	stb	r3,304(r2)
  d->_pg53 = d->_g53;
  805370:	e0bfff17 	ldw	r2,-4(fp)
  805374:	10c023c3 	ldbu	r3,143(r2)
  805378:	e0bfff17 	ldw	r2,-4(fp)
  80537c:	10c04c45 	stb	r3,305(r2)
  d->_pg134 = d->_g134;
  805380:	e0bfff17 	ldw	r2,-4(fp)
  805384:	10c03103 	ldbu	r3,196(r2)
  805388:	e0bfff17 	ldw	r2,-4(fp)
  80538c:	10c04c85 	stb	r3,306(r2)
  d->_pg143_e1 = d->_g143_e1;
  805390:	e0bfff17 	ldw	r2,-4(fp)
  805394:	10c04743 	ldbu	r3,285(r2)
  805398:	e0bfff17 	ldw	r2,-4(fp)
  80539c:	10c04cc5 	stb	r3,307(r2)
  d->_pg82 = d->_g82;
  8053a0:	e0bfff17 	ldw	r2,-4(fp)
  8053a4:	10c02843 	ldbu	r3,161(r2)
  8053a8:	e0bfff17 	ldw	r2,-4(fp)
  8053ac:	10c04d05 	stb	r3,308(r2)
  d->_pg94 = d->_g94;
  8053b0:	e0bfff17 	ldw	r2,-4(fp)
  8053b4:	10c02a43 	ldbu	r3,169(r2)
  8053b8:	e0bfff17 	ldw	r2,-4(fp)
  8053bc:	10c04d45 	stb	r3,309(r2)
  d->_pg37 = d->_g37;
  8053c0:	e0bfff17 	ldw	r2,-4(fp)
  8053c4:	10c020c3 	ldbu	r3,131(r2)
  8053c8:	e0bfff17 	ldw	r2,-4(fp)
  8053cc:	10c04d85 	stb	r3,310(r2)
  d->_pg44 = d->_g44;
  8053d0:	e0bfff17 	ldw	r2,-4(fp)
  8053d4:	10c02203 	ldbu	r3,136(r2)
  8053d8:	e0bfff17 	ldw	r2,-4(fp)
  8053dc:	10c04dc5 	stb	r3,311(r2)
  d->_pg47 = d->_g47;
  8053e0:	e0bfff17 	ldw	r2,-4(fp)
  8053e4:	10c022c3 	ldbu	r3,139(r2)
  8053e8:	e0bfff17 	ldw	r2,-4(fp)
  8053ec:	10c04e05 	stb	r3,312(r2)
  d->_pg158_e3 = d->_g158_e3;
  8053f0:	e0bfff17 	ldw	r2,-4(fp)
  8053f4:	10c047c3 	ldbu	r3,287(r2)
  8053f8:	e0bfff17 	ldw	r2,-4(fp)
  8053fc:	10c04e45 	stb	r3,313(r2)
  d->_pg70 = d->_g70;
  805400:	e0bfff17 	ldw	r2,-4(fp)
  805404:	10c02683 	ldbu	r3,154(r2)
  805408:	e0bfff17 	ldw	r2,-4(fp)
  80540c:	10c04e85 	stb	r3,314(r2)
  d->_pg76_e3 = d->_g76_e3;
  805410:	e0bfff17 	ldw	r2,-4(fp)
  805414:	10c04583 	ldbu	r3,278(r2)
  805418:	e0bfff17 	ldw	r2,-4(fp)
  80541c:	10c04ec5 	stb	r3,315(r2)
  d->_pg68 = d->_g68;
  805420:	e0bfff17 	ldw	r2,-4(fp)
  805424:	10c02603 	ldbu	r3,152(r2)
  805428:	e0bfff17 	ldw	r2,-4(fp)
  80542c:	10c04f05 	stb	r3,316(r2)
  d->_pg71 = d->_g71;
  805430:	e0bfff17 	ldw	r2,-4(fp)
  805434:	10c026c3 	ldbu	r3,155(r2)
  805438:	e0bfff17 	ldw	r2,-4(fp)
  80543c:	10c04f45 	stb	r3,317(r2)
  d->_pg76 = d->_g76;
  805440:	e0bfff17 	ldw	r2,-4(fp)
  805444:	10c02783 	ldbu	r3,158(r2)
  805448:	e0bfff17 	ldw	r2,-4(fp)
  80544c:	10c04f85 	stb	r3,318(r2)
  d->_pg85 = d->_g85;
  805450:	e0bfff17 	ldw	r2,-4(fp)
  805454:	10c02883 	ldbu	r3,162(r2)
  805458:	e0bfff17 	ldw	r2,-4(fp)
  80545c:	10c04fc5 	stb	r3,319(r2)
  d->_pg139 = d->_g139;
  805460:	e0bfff17 	ldw	r2,-4(fp)
  805464:	10c03183 	ldbu	r3,198(r2)
  805468:	e0bfff17 	ldw	r2,-4(fp)
  80546c:	10c05005 	stb	r3,320(r2)
  d->_pg148 = d->_g148;
  805470:	e0bfff17 	ldw	r2,-4(fp)
  805474:	10c03303 	ldbu	r3,204(r2)
  805478:	e0bfff17 	ldw	r2,-4(fp)
  80547c:	10c05045 	stb	r3,321(r2)
  d->_pg149_e2 = d->_g149_e2;
  805480:	e0bfff17 	ldw	r2,-4(fp)
  805484:	10c04783 	ldbu	r3,286(r2)
  805488:	e0bfff17 	ldw	r2,-4(fp)
  80548c:	10c05085 	stb	r3,322(r2)
  d->_pg150 = d->_g150;
  805490:	e0bfff17 	ldw	r2,-4(fp)
  805494:	10c03383 	ldbu	r3,206(r2)
  805498:	e0bfff17 	ldw	r2,-4(fp)
  80549c:	10c050c5 	stb	r3,323(r2)
  d->_pg153 = d->_g153;
  8054a0:	e0bfff17 	ldw	r2,-4(fp)
  8054a4:	10c03443 	ldbu	r3,209(r2)
  8054a8:	e0bfff17 	ldw	r2,-4(fp)
  8054ac:	10c05105 	stb	r3,324(r2)
  d->_GO = 0;
  8054b0:	e0bfff17 	ldw	r2,-4(fp)
  8054b4:	100035c5 	stb	zero,215(r2)
}
  8054b8:	0001883a 	nop
  8054bc:	e037883a 	mov	sp,fp
  8054c0:	dfc00117 	ldw	ra,4(sp)
  8054c4:	df000017 	ldw	fp,0(sp)
  8054c8:	dec00204 	addi	sp,sp,8
  8054cc:	f800283a 	ret

008054d0 <vp_light_timer_isr>:


int vp_timer_started = 0;
int ap_timer_started = 0;

alt_u32 vp_light_timer_isr(void* context){
  8054d0:	defffe04 	addi	sp,sp,-8
  8054d4:	df000115 	stw	fp,4(sp)
  8054d8:	df000104 	addi	fp,sp,4
  8054dc:	e13fff15 	stw	r4,-4(fp)
	IOWR_ALTERA_AVALON_PIO_DATA(LEDS_GREEN_BASE, (IORD_ALTERA_AVALON_PIO_DATA(LEDS_GREEN_BASE) & ~(1 << 0)));
  8054e0:	00804074 	movhi	r2,257
  8054e4:	10841c04 	addi	r2,r2,4208
  8054e8:	10c00037 	ldwio	r3,0(r2)
  8054ec:	00bfff84 	movi	r2,-2
  8054f0:	1886703a 	and	r3,r3,r2
  8054f4:	00804074 	movhi	r2,257
  8054f8:	10841c04 	addi	r2,r2,4208
  8054fc:	10c00035 	stwio	r3,0(r2)
	vp_timer_started = 0;
  805500:	d0274c15 	stw	zero,-25296(gp)
	return 0;
  805504:	0005883a 	mov	r2,zero
}
  805508:	e037883a 	mov	sp,fp
  80550c:	df000017 	ldw	fp,0(sp)
  805510:	dec00104 	addi	sp,sp,4
  805514:	f800283a 	ret

00805518 <ap_light_timer_isr>:

alt_u32 ap_light_timer_isr(void* context){
  805518:	defffe04 	addi	sp,sp,-8
  80551c:	df000115 	stw	fp,4(sp)
  805520:	df000104 	addi	fp,sp,4
  805524:	e13fff15 	stw	r4,-4(fp)
	IOWR_ALTERA_AVALON_PIO_DATA(LEDS_GREEN_BASE, (IORD_ALTERA_AVALON_PIO_DATA(LEDS_GREEN_BASE) & ~(1 << 1)));
  805528:	00804074 	movhi	r2,257
  80552c:	10841c04 	addi	r2,r2,4208
  805530:	10c00037 	ldwio	r3,0(r2)
  805534:	00bfff44 	movi	r2,-3
  805538:	1886703a 	and	r3,r3,r2
  80553c:	00804074 	movhi	r2,257
  805540:	10841c04 	addi	r2,r2,4208
  805544:	10c00035 	stwio	r3,0(r2)
	ap_timer_started = 0;
  805548:	d0274d15 	stw	zero,-25292(gp)
	return 0;
  80554c:	0005883a 	mov	r2,zero
}
  805550:	e037883a 	mov	sp,fp
  805554:	df000017 	ldw	fp,0(sp)
  805558:	dec00104 	addi	sp,sp,4
  80555c:	f800283a 	ret

00805560 <vp_light_timer>:



void vp_light_timer(){
  805560:	defffd04 	addi	sp,sp,-12
  805564:	dfc00215 	stw	ra,8(sp)
  805568:	df000115 	stw	fp,4(sp)
  80556c:	df000104 	addi	fp,sp,4
	if (vp_timer_started == 0) {
  805570:	d0a74c17 	ldw	r2,-25296(gp)
  805574:	1000111e 	bne	r2,zero,8055bc <vp_light_timer+0x5c>
		vp_timer_started = 1;
  805578:	00800044 	movi	r2,1
  80557c:	d0a74c15 	stw	r2,-25296(gp)

		void* context = 0;
  805580:	e03fff15 	stw	zero,-4(fp)
		IOWR_ALTERA_AVALON_PIO_DATA(LEDS_GREEN_BASE, (IORD_ALTERA_AVALON_PIO_DATA(LEDS_GREEN_BASE) | 1 << 0));
  805584:	00804074 	movhi	r2,257
  805588:	10841c04 	addi	r2,r2,4208
  80558c:	10800037 	ldwio	r2,0(r2)
  805590:	10c00054 	ori	r3,r2,1
  805594:	00804074 	movhi	r2,257
  805598:	10841c04 	addi	r2,r2,4208
  80559c:	10c00035 	stwio	r3,0(r2)
		alt_alarm_start(&timer_vp, LED_TIMEOUT, vp_light_timer_isr, context);
  8055a0:	e1ffff17 	ldw	r7,-4(fp)
  8055a4:	01802034 	movhi	r6,128
  8055a8:	31953404 	addi	r6,r6,21712
  8055ac:	01400c84 	movi	r5,50
  8055b0:	010020b4 	movhi	r4,130
  8055b4:	212c0b04 	addi	r4,r4,-20436
  8055b8:	0812b940 	call	812b94 <alt_alarm_start>
	}

}
  8055bc:	0001883a 	nop
  8055c0:	e037883a 	mov	sp,fp
  8055c4:	dfc00117 	ldw	ra,4(sp)
  8055c8:	df000017 	ldw	fp,0(sp)
  8055cc:	dec00204 	addi	sp,sp,8
  8055d0:	f800283a 	ret

008055d4 <ap_light_timer>:

void ap_light_timer(){
  8055d4:	defffd04 	addi	sp,sp,-12
  8055d8:	dfc00215 	stw	ra,8(sp)
  8055dc:	df000115 	stw	fp,4(sp)
  8055e0:	df000104 	addi	fp,sp,4
	if (ap_timer_started == 0) {
  8055e4:	d0a74d17 	ldw	r2,-25292(gp)
  8055e8:	1000111e 	bne	r2,zero,805630 <ap_light_timer+0x5c>
		ap_timer_started = 1;
  8055ec:	00800044 	movi	r2,1
  8055f0:	d0a74d15 	stw	r2,-25292(gp)

		void* context = 0;
  8055f4:	e03fff15 	stw	zero,-4(fp)
		IOWR_ALTERA_AVALON_PIO_DATA(LEDS_GREEN_BASE, (IORD_ALTERA_AVALON_PIO_DATA(LEDS_GREEN_BASE) | 1 << 1));
  8055f8:	00804074 	movhi	r2,257
  8055fc:	10841c04 	addi	r2,r2,4208
  805600:	10800037 	ldwio	r2,0(r2)
  805604:	10c00094 	ori	r3,r2,2
  805608:	00804074 	movhi	r2,257
  80560c:	10841c04 	addi	r2,r2,4208
  805610:	10c00035 	stwio	r3,0(r2)
		alt_alarm_start(&timer_ap, LED_TIMEOUT, ap_light_timer_isr, context);
  805614:	e1ffff17 	ldw	r7,-4(fp)
  805618:	01802034 	movhi	r6,128
  80561c:	31954604 	addi	r6,r6,21784
  805620:	01400c84 	movi	r5,50
  805624:	010020b4 	movhi	r4,130
  805628:	212c0504 	addi	r4,r4,-20460
  80562c:	0812b940 	call	812b94 <alt_alarm_start>
	}

}
  805630:	0001883a 	nop
  805634:	e037883a 	mov	sp,fp
  805638:	dfc00117 	ldw	ra,4(sp)
  80563c:	df000017 	ldw	fp,0(sp)
  805640:	dec00204 	addi	sp,sp,8
  805644:	f800283a 	ret

00805648 <setup_uart>:
FILE* uart;

uint8_t ASBuffer = 0;
uint8_t VSBuffer = 0;

void setup_uart(){
  805648:	defffe04 	addi	sp,sp,-8
  80564c:	dfc00115 	stw	ra,4(sp)
  805650:	df000015 	stw	fp,0(sp)
  805654:	d839883a 	mov	fp,sp
	uart = open(JTAG_UART_NAME,(O_NONBLOCK | O_RDWR));
  805658:	01500084 	movi	r5,16386
  80565c:	01002074 	movhi	r4,129
  805660:	211bb404 	addi	r4,r4,28368
  805664:	08135040 	call	813504 <open>
  805668:	d0a74f15 	stw	r2,-25284(gp)

	if(!uart){
  80566c:	d0a74f17 	ldw	r2,-25284(gp)
  805670:	1000031e 	bne	r2,zero,805680 <setup_uart+0x38>
		printf("Failed to open UART");
  805674:	01002074 	movhi	r4,129
  805678:	211bb804 	addi	r4,r4,28384
  80567c:	0808ba80 	call	808ba8 <printf>
	}
}
  805680:	0001883a 	nop
  805684:	e037883a 	mov	sp,fp
  805688:	dfc00117 	ldw	ra,4(sp)
  80568c:	df000017 	ldw	fp,0(sp)
  805690:	dec00204 	addi	sp,sp,8
  805694:	f800283a 	ret

00805698 <check_uart>:

void check_uart(){
  805698:	defffa04 	addi	sp,sp,-24
  80569c:	dfc00515 	stw	ra,20(sp)
  8056a0:	df000415 	stw	fp,16(sp)
  8056a4:	df000404 	addi	fp,sp,16

	// create a buffer to load the next 5 characters
	char uartBuffer[5];

	// check the length of the uart input
	int length = read(uart, uartBuffer, sizeof(uartBuffer) - 1);
  8056a8:	d0a74f17 	ldw	r2,-25284(gp)
  8056ac:	e0fffe04 	addi	r3,fp,-8
  8056b0:	01800104 	movi	r6,4
  8056b4:	180b883a 	mov	r5,r3
  8056b8:	1009883a 	mov	r4,r2
  8056bc:	08136940 	call	813694 <read>
  8056c0:	e0bffd15 	stw	r2,-12(fp)

	if (length > 0) {
  8056c4:	e0bffd17 	ldw	r2,-12(fp)
