
Pacemaker.elf:     file format elf32-littlenios2
Pacemaker.elf
architecture: nios2:r1, flags 0x00000112:
EXEC_P, HAS_SYMS, D_PAGED
start address 0x00800244

Program Header:
    LOAD off    0x00001000 vaddr 0x00800000 paddr 0x00800000 align 2**12
         filesz 0x00000020 memsz 0x00000020 flags r-x
    LOAD off    0x00001020 vaddr 0x00800020 paddr 0x00800020 align 2**12
         filesz 0x000172f4 memsz 0x000172f4 flags r-x
    LOAD off    0x00018314 vaddr 0x00817314 paddr 0x00818fec align 2**12
         filesz 0x00001cd8 memsz 0x00001cd8 flags rw-
    LOAD off    0x0001acc4 vaddr 0x0081acc4 paddr 0x0081acc4 align 2**12
         filesz 0x00000000 memsz 0x000002ec flags rw-

Sections:
Idx Name          Size      VMA       LMA       File off  Algn
  0 .entry        00000020  00800000  00800000  00001000  2**5
                  CONTENTS, ALLOC, LOAD, READONLY, CODE
  1 .exceptions   00000224  00800020  00800020  00001020  2**2
                  CONTENTS, ALLOC, LOAD, READONLY, CODE
  2 .text         00016aac  00800244  00800244  00001244  2**2
                  CONTENTS, ALLOC, LOAD, READONLY, CODE
  3 .rodata       00000624  00816cf0  00816cf0  00017cf0  2**2
                  CONTENTS, ALLOC, LOAD, READONLY, DATA
  4 .rwdata       00001cd8  00817314  00818fec  00018314  2**2
                  CONTENTS, ALLOC, LOAD, DATA, SMALL_DATA
  5 .bss          000002ec  0081acc4  0081acc4  0001acc4  2**2
                  ALLOC, SMALL_DATA
  6 .sdram        00000000  0081afb0  0081afb0  00019fec  2**0
                  CONTENTS
  7 .onchip_mem   00000000  01008000  01008000  00019fec  2**0
                  CONTENTS
  8 .comment      00000023  00000000  00000000  00019fec  2**0
                  CONTENTS, READONLY
  9 .debug_aranges 000011e8  00000000  00000000  0001a010  2**3
                  CONTENTS, READONLY, DEBUGGING
 10 .debug_info   0002e88c  00000000  00000000  0001b1f8  2**0
                  CONTENTS, READONLY, DEBUGGING
 11 .debug_abbrev 0000b86d  00000000  00000000  00049a84  2**0
                  CONTENTS, READONLY, DEBUGGING
 12 .debug_line   0000f25c  00000000  00000000  000552f1  2**0
                  CONTENTS, READONLY, DEBUGGING
 13 .debug_frame  00002a64  00000000  00000000  00064550  2**2
                  CONTENTS, READONLY, DEBUGGING
 14 .debug_str    0000498a  00000000  00000000  00066fb4  2**0
                  CONTENTS, READONLY, DEBUGGING
 15 .debug_loc    000186bc  00000000  00000000  0006b93e  2**0
                  CONTENTS, READONLY, DEBUGGING
 16 .debug_alt_sim_info 00000060  00000000  00000000  00083ffc  2**2
                  CONTENTS, READONLY, DEBUGGING
 17 .debug_ranges 00001a28  00000000  00000000  00084060  2**3
                  CONTENTS, READONLY, DEBUGGING
 18 .thread_model 00000003  00000000  00000000  000895e9  2**0
                  CONTENTS, READONLY
 19 .cpu          00000003  00000000  00000000  000895ec  2**0
                  CONTENTS, READONLY
 20 .qsys         00000001  00000000  00000000  000895ef  2**0
                  CONTENTS, READONLY
 21 .simulation_enabled 00000001  00000000  00000000  000895f0  2**0
                  CONTENTS, READONLY
 22 .stderr_dev   00000009  00000000  00000000  000895f1  2**0
                  CONTENTS, READONLY
 23 .stdin_dev    00000009  00000000  00000000  000895fa  2**0
                  CONTENTS, READONLY
 24 .stdout_dev   00000009  00000000  00000000  00089603  2**0
                  CONTENTS, READONLY
 25 .sopc_system_name 0000000c  00000000  00000000  0008960c  2**0
                  CONTENTS, READONLY
 26 .quartus_project_dir 00000040  00000000  00000000  00089618  2**0
                  CONTENTS, READONLY
 27 .sopcinfo     0006b17b  00000000  00000000  00089658  2**0
                  CONTENTS, READONLY
SYMBOL TABLE:
00800000 l    d  .entry	00000000 .entry
00800020 l    d  .exceptions	00000000 .exceptions
00800244 l    d  .text	00000000 .text
00816cf0 l    d  .rodata	00000000 .rodata
00817314 l    d  .rwdata	00000000 .rwdata
0081acc4 l    d  .bss	00000000 .bss
0081afb0 l    d  .sdram	00000000 .sdram
01008000 l    d  .onchip_mem	00000000 .onchip_mem
00000000 l    d  .comment	00000000 .comment
00000000 l    d  .debug_aranges	00000000 .debug_aranges
00000000 l    d  .debug_info	00000000 .debug_info
00000000 l    d  .debug_abbrev	00000000 .debug_abbrev
00000000 l    d  .debug_line	00000000 .debug_line
00000000 l    d  .debug_frame	00000000 .debug_frame
00000000 l    d  .debug_str	00000000 .debug_str
00000000 l    d  .debug_loc	00000000 .debug_loc
00000000 l    d  .debug_alt_sim_info	00000000 .debug_alt_sim_info
00000000 l    d  .debug_ranges	00000000 .debug_ranges
00000000 l    df *ABS*	00000000 ../Pacemaker_bsp//obj/HAL/src/crt0.o
0080028c l       .text	00000000 alt_after_alt_main
00000000 l    df *ABS*	00000000 alt_irq_handler.c
00000000 l    df *ABS*	00000000 alt_instruction_exception_entry.c
00000000 l    df *ABS*	00000000 lcd.c
00000000 l    df *ABS*	00000000 main.c
00000000 l    df *ABS*	00000000 sccharts.c
00000000 l    df *ABS*	00000000 timers.c
00000000 l    df *ABS*	00000000 uart.c
00000000 l    df *ABS*	00000000 adddf3.c
00000000 l    df *ABS*	00000000 gedf2.c
00000000 l    df *ABS*	00000000 ledf2.c
00000000 l    df *ABS*	00000000 subdf3.c
00000000 l    df *ABS*	00000000 floatsidf.c
00000000 l    df *ABS*	00000000 libgcc2.c
00000000 l    df *ABS*	00000000 libgcc2.c
00000000 l    df *ABS*	00000000 fclose.c
00000000 l    df *ABS*	00000000 fflush.c
00000000 l    df *ABS*	00000000 findfp.c
00806eb4 l     F .text	00000008 __fp_unlock
00806ec8 l     F .text	0000019c __sinit.part.1
00807064 l     F .text	00000008 __fp_lock
00000000 l    df *ABS*	00000000 fopen.c
00000000 l    df *ABS*	00000000 fprintf.c
00000000 l    df *ABS*	00000000 fputc.c
00000000 l    df *ABS*	00000000 mallocr.c
00000000 l    df *ABS*	00000000 fseek.c
00000000 l    df *ABS*	00000000 fseeko.c
00000000 l    df *ABS*	00000000 fstatr.c
00000000 l    df *ABS*	00000000 fwalk.c
00000000 l    df *ABS*	00000000 impure.c
00817314 l     O .rwdata	00000424 impure_data
00000000 l    df *ABS*	00000000 int_errno.c
00000000 l    df *ABS*	00000000 makebuf.c
00000000 l    df *ABS*	00000000 mallocr.c
00000000 l    df *ABS*	00000000 memset.c
00000000 l    df *ABS*	00000000 openr.c
00000000 l    df *ABS*	00000000 printf.c
00000000 l    df *ABS*	00000000 putc.c
00000000 l    df *ABS*	00000000 puts.c
00000000 l    df *ABS*	00000000 refill.c
00808cdc l     F .text	0000001c lflush
00000000 l    df *ABS*	00000000 sbrkr.c
00000000 l    df *ABS*	00000000 stdio.c
00000000 l    df *ABS*	00000000 strlen.c
00000000 l    df *ABS*	00000000 vfprintf.c
00816ece l     O .rodata	00000010 zeroes.4404
0080b308 l     F .text	000000bc __sbprintf
00816ede l     O .rodata	00000010 blanks.4403
00000000 l    df *ABS*	00000000 vfprintf_1.c
00000000 l    df *ABS*	00000000 wbuf.c
00000000 l    df *ABS*	00000000 writer.c
00000000 l    df *ABS*	00000000 wsetup.c
00000000 l    df *ABS*	00000000 closer.c
00000000 l    df *ABS*	00000000 dtoa.c
0080b728 l     F .text	00000200 quorem
00000000 l    df *ABS*	00000000 flags.c
00000000 l    df *ABS*	00000000 fvwrite.c
00000000 l    df *ABS*	00000000 isattyr.c
00000000 l    df *ABS*	00000000 locale.c
00817b60 l     O .rwdata	00000020 lc_ctype_charset
00817b40 l     O .rwdata	00000020 lc_message_charset
00817b80 l     O .rwdata	00000038 lconv
00000000 l    df *ABS*	00000000 lseekr.c
00000000 l    df *ABS*	00000000 memchr.c
00000000 l    df *ABS*	00000000 memcpy.c
00000000 l    df *ABS*	00000000 memmove.c
00000000 l    df *ABS*	00000000 mprec.c
00816f0c l     O .rodata	0000000c p05.2768
00000000 l    df *ABS*	00000000 readr.c
00000000 l    df *ABS*	00000000 mallocr.c
00000000 l    df *ABS*	00000000 s_fpclassify.c
00000000 l    df *ABS*	00000000 strcmp.c
00000000 l    df *ABS*	00000000 vfprintf.c
0080f140 l     F .text	000000fc __sprint_r.part.0
00817040 l     O .rodata	00000010 blanks.4348
00817030 l     O .rodata	00000010 zeroes.4349
008106cc l     F .text	000000bc __sbprintf
00000000 l    df *ABS*	00000000 mallocr.c
00000000 l    df *ABS*	00000000 fputwc.c
00000000 l    df *ABS*	00000000 wcrtomb.c
00000000 l    df *ABS*	00000000 wctomb_r.c
00000000 l    df *ABS*	00000000 libgcc2.c
00000000 l    df *ABS*	00000000 libgcc2.c
00000000 l    df *ABS*	00000000 lib2-divmod.c
00000000 l    df *ABS*	00000000 divdf3.c
00000000 l    df *ABS*	00000000 eqdf2.c
00000000 l    df *ABS*	00000000 muldf3.c
00000000 l    df *ABS*	00000000 fixdfsi.c
00000000 l    df *ABS*	00000000 floatunsidf.c
00000000 l    df *ABS*	00000000 alt_alarm_start.c
00000000 l    df *ABS*	00000000 alt_close.c
00812b7c l     F .text	0000003c alt_get_errno
00000000 l    df *ABS*	00000000 alt_dev.c
00812c88 l     F .text	0000002c alt_dev_null_write
00000000 l    df *ABS*	00000000 alt_errno.c
00000000 l    df *ABS*	00000000 alt_fstat.c
00812cb4 l     F .text	0000003c alt_get_errno
00000000 l    df *ABS*	00000000 alt_irq_register.c
00000000 l    df *ABS*	00000000 alt_irq_vars.c
00000000 l    df *ABS*	00000000 alt_isatty.c
00812f20 l     F .text	0000003c alt_get_errno
00000000 l    df *ABS*	00000000 alt_load.c
00813000 l     F .text	00000068 alt_load_section
00000000 l    df *ABS*	00000000 alt_lseek.c
008130ec l     F .text	0000003c alt_get_errno
00000000 l    df *ABS*	00000000 alt_main.c
00000000 l    df *ABS*	00000000 alt_malloc_lock.c
00000000 l    df *ABS*	00000000 alt_open.c
008132c0 l     F .text	0000003c alt_get_errno
008132fc l     F .text	000000c4 alt_file_locked
00000000 l    df *ABS*	00000000 alt_read.c
00813514 l     F .text	0000003c alt_get_errno
00000000 l    df *ABS*	00000000 alt_release_fd.c
00000000 l    df *ABS*	00000000 alt_sbrk.c
00818fd8 l     O .rwdata	00000004 heap_end
00000000 l    df *ABS*	00000000 alt_tick.c
00000000 l    df *ABS*	00000000 alt_write.c
00813904 l     F .text	0000003c alt_get_errno
00000000 l    df *ABS*	00000000 alt_sys_init.c
00813a38 l     F .text	00000034 alt_dev_reg
00817d60 l     O .rwdata	00001060 jtag_uart
00818dc0 l     O .rwdata	00000120 lcd
00818ee0 l     O .rwdata	000000c4 uart
00000000 l    df *ABS*	00000000 altera_avalon_jtag_uart_fd.c
00000000 l    df *ABS*	00000000 altera_avalon_jtag_uart_init.c
00813d60 l     F .text	0000020c altera_avalon_jtag_uart_irq
00813f6c l     F .text	000000a0 altera_avalon_jtag_uart_timeout
00000000 l    df *ABS*	00000000 altera_avalon_jtag_uart_ioctl.c
00000000 l    df *ABS*	00000000 altera_avalon_jtag_uart_read.c
00000000 l    df *ABS*	00000000 altera_avalon_jtag_uart_write.c
00000000 l    df *ABS*	00000000 altera_avalon_lcd_16207.c
00818fe4 l     O .rwdata	00000004 colstart
008145a4 l     F .text	000000b8 lcd_write_command
0081465c l     F .text	000000d8 lcd_write_data
00814734 l     F .text	000000d0 lcd_clear_screen
00814804 l     F .text	000001ec lcd_repaint_screen
008149f0 l     F .text	000000cc lcd_scroll_up
00814abc l     F .text	000002ac lcd_handle_escape
00815240 l     F .text	000000ac alt_lcd_16207_timeout
00000000 l    df *ABS*	00000000 altera_avalon_lcd_16207_fd.c
00000000 l    df *ABS*	00000000 altera_avalon_timer_sc.c
00815480 l     F .text	00000078 alt_avalon_timer_sc_irq
00000000 l    df *ABS*	00000000 altera_avalon_uart_fd.c
00000000 l    df *ABS*	00000000 altera_avalon_uart_init.c
00815730 l     F .text	0000009c altera_avalon_uart_irq
008157cc l     F .text	000000e4 altera_avalon_uart_rxirq
008158b0 l     F .text	00000148 altera_avalon_uart_txirq
00000000 l    df *ABS*	00000000 altera_avalon_uart_read.c
00815a4c l     F .text	0000003c alt_get_errno
00000000 l    df *ABS*	00000000 altera_avalon_uart_write.c
00815c64 l     F .text	0000003c alt_get_errno
00000000 l    df *ABS*	00000000 alt_dcache_flush_all.c
00000000 l    df *ABS*	00000000 alt_dev_llist_insert.c
00815e94 l     F .text	0000003c alt_get_errno
00000000 l    df *ABS*	00000000 alt_do_ctors.c
00000000 l    df *ABS*	00000000 alt_do_dtors.c
00000000 l    df *ABS*	00000000 alt_find_dev.c
00000000 l    df *ABS*	00000000 alt_find_file.c
00000000 l    df *ABS*	00000000 alt_get_fd.c
00000000 l    df *ABS*	00000000 alt_icache_flush_all.c
00000000 l    df *ABS*	00000000 alt_iic.c
00000000 l    df *ABS*	00000000 alt_iic_isr_register.c
00000000 l    df *ABS*	00000000 alt_io_redirect.c
00816544 l     F .text	000000c4 alt_open_fd
00000000 l    df *ABS*	00000000 alt_usleep.c
00000000 l    df *ABS*	00000000 altera_nios2_gen2_irq.c
00000000 l    df *ABS*	00000000 alt_busy_sleep.c
00000000 l    df *ABS*	00000000 alt_icache_flush.c
00000000 l    df *ABS*	00000000 atexit.c
00000000 l    df *ABS*	00000000 ctype_.c
00817193 l     O .rodata	00000180 _ctype_b
00000000 l    df *ABS*	00000000 exit.c
00000000 l    df *ABS*	00000000 memcmp.c
00000000 l    df *ABS*	00000000 __atexit.c
00000000 l    df *ABS*	00000000 __call_atexit.c
00000000 l    df *ABS*	00000000 alt_exit.c
0081ad0c g     O .bss	00000004 alt_instruction_exception_handler
0080e8b4 g     F .text	00000074 _mprec_log10
0080e9a0 g     F .text	0000008c __any_on
0080d518 g     F .text	00000054 _isatty_r
00816f18 g     O .rodata	00000028 __mprec_tinytens
008131fc g     F .text	0000007c alt_main
00808c08 g     F .text	000000c0 _puts_r
0081aeb0 g     O .bss	00000100 alt_irq
0080d648 g     F .text	00000060 _lseek_r
00818fec g       *ABS*	00000000 __flash_rwdata_start
0080cfb0 g     F .text	000000ac __sflags
00812188 g     F .text	00000088 .hidden __eqdf2
00800290 g     F .text	00000040 setup_lcd
0081afb0 g       *ABS*	00000000 __alt_heap_start
00808a64 g     F .text	0000003c printf
00810a54 g     F .text	0000009c _wcrtomb_r
00808ff8 g     F .text	0000005c __sseek
00807204 g     F .text	00000010 __sinit
0080b3c8 g     F .text	00000140 __swbuf_r
0081acc4 g     O .bss	00000004 lcd
0080d56c g     F .text	0000007c _setlocale_r
0080706c g     F .text	00000068 __sfmoreglue
0081329c g     F .text	00000024 __malloc_unlock
0080d8d4 g     F .text	0000015c memmove
00800358 g     F .text	00000034 close_lcd
008071ec g     F .text	00000018 _cleanup
0080da30 g     F .text	000000a8 _Balloc
00805efc g     F .text	000000dc .hidden __gtdf2
008166b4 g     F .text	00000024 altera_nios2_gen2_irq_init
00800000 g     F .entry	0000001c __reset
00800020 g       *ABS*	00000000 __flash_exceptions_start
00807d00 g     F .text	0000005c _fstat_r
0081acd8 g     O .bss	00000004 errno
00808f74 g     F .text	00000008 __seofread
0081acfc g     O .bss	00000004 alt_argv
00820fa4 g       *ABS*	00000000 _gp
00816684 g     F .text	00000030 usleep
00804ee4 g     F .text	00000200 reset
00817be0 g     O .rwdata	00000180 alt_fd_list
00816034 g     F .text	00000090 alt_find_dev
0080d78c g     F .text	00000148 memcpy
0081ae80 g     O .bss	00000018 timer_ap
00806ebc g     F .text	0000000c _cleanup_r
008069c8 g     F .text	000000dc .hidden __floatsidf
00816608 g     F .text	0000007c alt_io_redirect
00805fd8 g     F .text	000000f4 .hidden __ltdf2
00816cf0 g       *ABS*	00000000 __DTOR_END__
00808cc8 g     F .text	00000014 puts
008168c0 g     F .text	0000009c alt_exception_cause_generated_bad_addr
0080051c g     F .text	00000084 key_interrupt
0080eff0 g     F .text	00000074 __fpclassifyd
0080e810 g     F .text	000000a4 __ratio
008106b0 g     F .text	0000001c __vfiprintf_internal
00814164 g     F .text	0000021c altera_avalon_jtag_uart_read
00808a34 g     F .text	00000030 _printf_r
008117e4 g     F .text	00000064 .hidden __udivsi3
00812f5c g     F .text	000000a4 isatty
00816f68 g     O .rodata	000000c8 __mprec_tens
0080d5e8 g     F .text	0000000c __locale_charset
00816830 g     F .text	00000090 alt_icache_flush
0081ace4 g     O .bss	00000004 __malloc_top_pad
00818fb4 g     O .rwdata	00000004 __mb_cur_max
0080d618 g     F .text	0000000c _localeconv_r
0080de3c g     F .text	0000003c __i2b
0080d05c g     F .text	000004bc __sfvwrite_r
00808ecc g     F .text	00000054 _sbrk_r
008002d0 g     F .text	00000088 write_to_lcd
0080ea2c g     F .text	00000060 _read_r
00818fcc g     O .rwdata	00000004 alt_max_fd
00806b08 g     F .text	000000f0 _fclose_r
00806e84 g     F .text	00000030 fflush
0081ace0 g     O .bss	00000004 __malloc_max_sbrked_mem
00812da0 g     F .text	00000180 alt_irq_register
00805650 g     F .text	000008ac .hidden __adddf3
0080e5b8 g     F .text	0000010c __b2d
008111b4 g     F .text	00000538 .hidden __umoddi3
00813128 g     F .text	000000d4 lseek
00818fa4 g     O .rwdata	00000004 _global_impure_ptr
0080ea8c g     F .text	00000564 _realloc_r
0081afb0 g       *ABS*	00000000 __bss_end
00816454 g     F .text	000000f0 alt_iic_isr_register
008137fc g     F .text	00000108 alt_tick
00810c3c g     F .text	00000578 .hidden __udivdi3
008109b0 g     F .text	00000024 _fputwc_r
00816f40 g     O .rodata	00000028 __mprec_bigtens
0080dc20 g     F .text	00000104 __s2b
00805464 g     F .text	00000074 ap_light_timer
008129a8 g     F .text	000000a8 .hidden __floatunsidf
0080e2f8 g     F .text	00000060 __mcmp
00815684 g     F .text	000000ac altera_avalon_uart_init
00807224 g     F .text	00000018 __fp_lock_all
00816408 g     F .text	0000004c alt_ic_irq_enabled
00813760 g     F .text	0000009c alt_alarm_stop
0081acf4 g     O .bss	00000004 alt_irq_active
008078a0 g     F .text	00000444 _fseeko_r
01008000 g       *ABS*	00000000 __alt_mem_onchip_mem
008000fc g     F .exceptions	000000d4 alt_irq_handler
00817bb8 g     O .rwdata	00000028 alt_dev_null
00815e4c g     F .text	00000048 alt_dcache_flush_all
0080dd24 g     F .text	00000068 __hi0bits
00812928 g     F .text	00000080 .hidden __fixdfsi
00818fec g       *ABS*	00000000 __ram_rwdata_end
00818fc4 g     O .rwdata	00000008 alt_dev_list
008073ac g     F .text	00000044 _fputc_r
00813940 g     F .text	000000f8 write
00808aa0 g     F .text	000000a0 _putc_r
00817314 g       *ABS*	00000000 __ram_rodata_end
00812cf0 g     F .text	000000b0 fstat
00807388 g     F .text	00000024 fprintf
0081acd1 g     O .bss	00000001 VSBuffer
00805fd8 g     F .text	000000f4 .hidden __ledf2
0080e070 g     F .text	00000140 __pow5mult
0080f254 g     F .text	0000145c ___vfiprintf_internal_r
0081acf0 g     O .bss	00000004 __nlocale_changed
00811848 g     F .text	00000058 .hidden __umodsi3
0081afb0 g       *ABS*	00000000 end
00814d68 g     F .text	000004d8 altera_avalon_lcd_16207_write
00807ce4 g     F .text	0000001c fseeko
00815ca0 g     F .text	000001ac altera_avalon_uart_write
00807884 g     F .text	0000001c fseek
00813ca0 g     F .text	000000c0 altera_avalon_jtag_uart_init
008001d0 g     F .exceptions	00000074 alt_instruction_exception_entry
00816cf0 g       *ABS*	00000000 __CTOR_LIST__
01000000 g       *ABS*	00000000 __alt_stack_pointer
008154f8 g     F .text	0000007c alt_avalon_timer_sc_init
008155d4 g     F .text	00000060 altera_avalon_uart_write_fd
00806aa4 g     F .text	00000064 .hidden __clzsi2
00815634 g     F .text	00000050 altera_avalon_uart_close_fd
00814380 g     F .text	00000224 altera_avalon_jtag_uart_write
00807214 g     F .text	00000004 __sfp_lock_acquire
0080d6a8 g     F .text	000000e4 memchr
008090f4 g     F .text	000021f8 ___vfprintf_internal_r
00807570 g     F .text	00000310 _free_r
0080d5f4 g     F .text	00000010 __locale_mb_cur_max
00816b3c g     F .text	00000180 __call_exitprocs
0081acec g     O .bss	00000004 __mlocale_changed
00818fac g     O .rwdata	00000004 __malloc_sbrk_base
00800244 g     F .text	0000004c _start
0081ad04 g     O .bss	00000004 _alt_tick_rate
0080e1b0 g     F .text	00000148 __lshift
0081ad08 g     O .bss	00000004 _alt_nticks
00813550 g     F .text	000000fc read
00813aa4 g     F .text	00000098 alt_sys_init
008089d4 g     F .text	00000060 _open_r
00816a24 g     F .text	00000118 __register_exitproc
0080de78 g     F .text	000001f8 __multiply
0081400c g     F .text	00000068 altera_avalon_jtag_uart_close
00817314 g       *ABS*	00000000 __ram_rwdata_start
00816cf0 g       *ABS*	00000000 __ram_rodata_start
0081ad10 g     O .bss	00000028 __malloc_current_mallinfo
0080e6c4 g     F .text	0000014c __d2b
00813b3c g     F .text	00000060 altera_avalon_jtag_uart_read_fd
008161cc g     F .text	000000a4 alt_get_fd
008166d8 g     F .text	00000158 alt_busy_sleep
0080b6d4 g     F .text	00000054 _close_r
008053f0 g     F .text	00000074 vp_light_timer
008169a8 g     F .text	0000007c memcmp
00805360 g     F .text	00000048 vp_light_timer_isr
00813bfc g     F .text	00000050 altera_avalon_jtag_uart_close_fd
0081afb0 g       *ABS*	00000000 __alt_stack_base
00813c4c g     F .text	00000054 altera_avalon_jtag_uart_ioctl_fd
0080b580 g     F .text	00000154 __swsetup_r
008050e4 g     F .text	0000027c tick
008118a0 g     F .text	000008e8 .hidden __divdf3
008070d4 g     F .text	00000118 __sfp
0080e928 g     F .text	00000078 __copybits
00817738 g     O .rwdata	00000408 __malloc_av_
00807220 g     F .text	00000004 __sinit_lock_release
00812210 g     F .text	00000718 .hidden __muldf3
00808f20 g     F .text	00000054 __sread
008160c4 g     F .text	00000108 alt_find_file
00815ed0 g     F .text	000000a4 alt_dev_llist_insert
00813278 g     F .text	00000024 __malloc_lock
00807360 g     F .text	00000028 _fprintf_r
008136b0 g     F .text	000000b0 sbrk
00806e28 g     F .text	0000005c _fflush_r
00810788 g     F .text	000000c4 _calloc_r
00807348 g     F .text	00000018 fopen
0081acc4 g       *ABS*	00000000 __bss_start
008088ac g     F .text	00000128 memset
0080038c g     F .text	000000a8 main
0081ad00 g     O .bss	00000004 alt_envp
0081acdc g     O .bss	00000004 __malloc_max_total_mem
00813b9c g     F .text	00000060 altera_avalon_jtag_uart_write_fd
0080b508 g     F .text	00000018 __swbuf
008004dc g     F .text	00000040 reset_leds
0081acd0 g     O .bss	00000001 ASBuffer
008152ec g     F .text	00000134 altera_avalon_lcd_16207_init
00809054 g     F .text	00000008 __sclose
01000000 g       *ABS*	00000000 __alt_heap_limit
00806bf8 g     F .text	00000014 fclose
0080b928 g     F .text	00001688 _dtoa_r
008080a0 g     F .text	0000080c _malloc_r
00810bb0 g     F .text	00000030 __ascii_wctomb
00818fd0 g     O .rwdata	00000004 alt_errno
0081ad38 g     O .bss	00000148 tickData
00807d5c g     F .text	000000c4 _fwalk
00808b40 g     F .text	000000c8 putc
008116ec g     F .text	00000084 .hidden __divsi3
008054d8 g     F .text	00000060 setup_uart
0080744c g     F .text	00000124 _malloc_trim_r
00816cf0 g       *ABS*	00000000 __CTOR_END__
0080f064 g     F .text	000000dc strcmp
00816cf0 g       *ABS*	00000000 __flash_rodata_start
00816cf0 g       *ABS*	00000000 __DTOR_LIST__
00812188 g     F .text	00000088 .hidden __nedf2
0081acc8 g     O .bss	00000004 vp_timer_started
00813a6c g     F .text	00000038 alt_irq_init
0081364c g     F .text	00000064 alt_release_fd
00816d82 g     O .rodata	00000100 .hidden __clz_tab
0081ace8 g     O .bss	00000004 _PathLocale
0081695c g     F .text	00000014 atexit
0080b520 g     F .text	00000060 _write_r
0080d624 g     F .text	00000018 setlocale
0081ae98 g     O .bss	00000018 timer_vp
00818fa8 g     O .rwdata	00000004 _impure_ptr
0081acf8 g     O .bss	00000004 alt_argc
00806c0c g     F .text	0000021c __sflush_r
00815fd4 g     F .text	00000060 _do_dtors
0080d610 g     F .text	00000008 __locale_cjk_lang
00807880 g     F .text	00000004 _fseek_r
00805538 g     F .text	000000e4 check_uart
00808cf8 g     F .text	000001d4 __srefill_r
00800020 g       .exceptions	00000000 alt_irq_entry
0080e554 g     F .text	00000064 __ulp
0080723c g     F .text	00000018 __fp_unlock_all
00815420 g     F .text	00000060 altera_avalon_lcd_16207_write_fd
008073f0 g     F .text	0000005c fputc
00818fbc g     O .rwdata	00000008 alt_fs_list
00800020 g       *ABS*	00000000 __ram_exceptions_start
0080d63c g     F .text	0000000c localeconv
0081accc g     O .bss	00000004 ap_timer_started
0080561c g     F .text	00000034 close_uart
00800434 g     F .text	000000a8 timerISR
008162a4 g     F .text	00000050 alt_ic_isr_register
00818fec g       *ABS*	00000000 _edata
00815574 g     F .text	00000060 altera_avalon_uart_read_fd
0081afb0 g       *ABS*	00000000 _end
0081084c g     F .text	00000164 __fputwc
00800244 g       *ABS*	00000000 __ram_exceptions_end
00814074 g     F .text	000000f0 altera_avalon_jtag_uart_ioctl
0081637c g     F .text	0000008c alt_ic_irq_disable
00808f7c g     F .text	0000007c __swrite
00818fb0 g     O .rwdata	00000004 __malloc_trim_threshold
0080d604 g     F .text	0000000c __locale_msgcharset
00816970 g     F .text	00000038 exit
00807e20 g     F .text	000000c4 _fwalk_reent
0080e358 g     F .text	000001fc __mdiff
00811770 g     F .text	00000074 .hidden __modsi3
0080060c g     F .text	000048d8 logic
00818fe8 g     O .rwdata	00000004 __ctype_ptr__
01000000 g       *ABS*	00000000 __alt_data_end
00800020 g     F .exceptions	00000000 alt_exception
0081acd4 g     O .bss	00000004 uart
00807218 g     F .text	00000004 __sfp_lock_release
00800000 g       *ABS*	00000000 __alt_mem_sdram
00817092 g     O .rodata	00000101 _ctype_
008005a0 g     F .text	0000006c setup_keys
008053a8 g     F .text	00000048 ap_light_timer_isr
008159f8 g     F .text	00000054 altera_avalon_uart_close
00807254 g     F .text	000000f4 _fopen_r
00816cbc g     F .text	00000034 _exit
00812a50 g     F .text	0000012c alt_alarm_start
00807ee4 g     F .text	000001bc __smakebuf_r
0080905c g     F .text	00000098 strlen
008133c0 g     F .text	00000154 open
00805efc g     F .text	000000dc .hidden __gedf2
00818fb8 g     O .rwdata	00000004 __wctomb
0080f23c g     F .text	00000018 __sprint_r
00816270 g     F .text	00000034 alt_icache_flush_all
00818fd4 g     O .rwdata	00000004 alt_priority_mask
008162f4 g     F .text	00000088 alt_ic_irq_enable
0080b2ec g     F .text	0000001c __vfprintf_internal
00815a88 g     F .text	000001dc altera_avalon_uart_read
00810be0 g     F .text	0000005c _wctomb_r
008060cc g     F .text	000008fc .hidden __subdf3
0080dd8c g     F .text	000000b0 __lo0bits
00818fdc g     O .rwdata	00000008 alt_alarm_list
00815f74 g     F .text	00000060 _do_ctors
00810af0 g     F .text	000000c0 wcrtomb
00812bb8 g     F .text	000000d0 close
00813068 g     F .text	00000084 alt_load
0080b3c4 g     F .text	00000004 vfprintf
008109d4 g     F .text	00000080 fputwc
0080721c g     F .text	00000004 __sinit_lock_acquire
0080db00 g     F .text	00000120 __multadd
0080dad8 g     F .text	00000028 _Bfree



Disassembly of section .entry:

00800000 <__reset>:
#if NIOS2_ICACHE_SIZE > 0 && defined(ALT_ALLOW_CODE_AT_RESET) && (!defined(ALT_SIM_OPTIMIZE) || defined(NIOS2_ECC_PRESENT))
    /* Assume the instruction cache size is always a power of two. */
#if NIOS2_ICACHE_SIZE > 0x8000
    movhi r2, %hi(NIOS2_ICACHE_SIZE)
#else
    movui r2, NIOS2_ICACHE_SIZE
  800000:	00840014 	movui	r2,4096
#endif

0:
    initi r2
  800004:	1001483a 	initi	r2
    addi r2, r2, -NIOS2_ICACHE_LINE_SIZE
  800008:	10bff804 	addi	r2,r2,-32
    bgt r2, zero, 0b
  80000c:	00bffd16 	blt	zero,r2,800004 <__alt_mem_onchip_mem+0xff7f8004>
 * Jump to the _start entry point in the .text section if reset code
 * is allowed or if optimizing for RTL simulation.
 */
#if defined(ALT_ALLOW_CODE_AT_RESET) || defined(ALT_SIM_OPTIMIZE)
    /* Jump to the _start entry point in the .text section. */
    movhi r1, %hi(_start)
  800010:	00402034 	movhi	at,128
    ori r1, r1, %lo(_start)
  800014:	08409114 	ori	at,at,580
    jmp r1
  800018:	0800683a 	jmp	at
  80001c:	00000000 	call	0 <__alt_mem_sdram-0x800000>

Disassembly of section .exceptions:

00800020 <alt_exception>:
  800020:	deffed04 	addi	sp,sp,-76
  800024:	dfc00015 	stw	ra,0(sp)
  800028:	d8400215 	stw	at,8(sp)
  80002c:	d8800315 	stw	r2,12(sp)
  800030:	d8c00415 	stw	r3,16(sp)
  800034:	d9000515 	stw	r4,20(sp)
  800038:	d9400615 	stw	r5,24(sp)
  80003c:	d9800715 	stw	r6,28(sp)
  800040:	d9c00815 	stw	r7,32(sp)
  800044:	000b307a 	rdctl	r5,estatus
  800048:	da000915 	stw	r8,36(sp)
  80004c:	da400a15 	stw	r9,40(sp)
  800050:	da800b15 	stw	r10,44(sp)
  800054:	dac00c15 	stw	r11,48(sp)
  800058:	db000d15 	stw	r12,52(sp)
  80005c:	db400e15 	stw	r13,56(sp)
  800060:	db800f15 	stw	r14,60(sp)
  800064:	dbc01015 	stw	r15,64(sp)
  800068:	d9401115 	stw	r5,68(sp)
  80006c:	ebffff04 	addi	r15,ea,-4
  800070:	dbc01215 	stw	r15,72(sp)
  800074:	0009313a 	rdctl	r4,ipending
  800078:	2880004c 	andi	r2,r5,1
  80007c:	10000326 	beq	r2,zero,80008c <alt_exception+0x6c>
  800080:	20000226 	beq	r4,zero,80008c <alt_exception+0x6c>
  800084:	08000fc0 	call	8000fc <alt_irq_handler>
  800088:	00000706 	br	8000a8 <alt_exception+0x88>
  80008c:	df401215 	stw	ea,72(sp)
  800090:	e8bfff17 	ldw	r2,-4(ea)
  800094:	e93fff04 	addi	r4,ea,-4
  800098:	08001d00 	call	8001d0 <alt_instruction_exception_entry>
  80009c:	1000021e 	bne	r2,zero,8000a8 <alt_exception+0x88>
  8000a0:	ebffff04 	addi	r15,ea,-4
  8000a4:	dbc01215 	stw	r15,72(sp)
  8000a8:	d9401117 	ldw	r5,68(sp)
  8000ac:	df401217 	ldw	ea,72(sp)
  8000b0:	dfc00017 	ldw	ra,0(sp)
  8000b4:	2801707a 	wrctl	estatus,r5
  8000b8:	d8400217 	ldw	at,8(sp)
  8000bc:	d8800317 	ldw	r2,12(sp)
  8000c0:	d8c00417 	ldw	r3,16(sp)
  8000c4:	d9000517 	ldw	r4,20(sp)
  8000c8:	d9400617 	ldw	r5,24(sp)
  8000cc:	d9800717 	ldw	r6,28(sp)
  8000d0:	d9c00817 	ldw	r7,32(sp)
  8000d4:	da000917 	ldw	r8,36(sp)
  8000d8:	da400a17 	ldw	r9,40(sp)
  8000dc:	da800b17 	ldw	r10,44(sp)
  8000e0:	dac00c17 	ldw	r11,48(sp)
  8000e4:	db000d17 	ldw	r12,52(sp)
  8000e8:	db400e17 	ldw	r13,56(sp)
  8000ec:	db800f17 	ldw	r14,60(sp)
  8000f0:	dbc01017 	ldw	r15,64(sp)
  8000f4:	dec01304 	addi	sp,sp,76
  8000f8:	ef80083a 	eret

008000fc <alt_irq_handler>:
  8000fc:	defff904 	addi	sp,sp,-28
  800100:	dfc00615 	stw	ra,24(sp)
  800104:	df000515 	stw	fp,20(sp)
  800108:	df000504 	addi	fp,sp,20
  80010c:	0001883a 	nop
  800110:	0005313a 	rdctl	r2,ipending
  800114:	e0bffe15 	stw	r2,-8(fp)
  800118:	e0bffe17 	ldw	r2,-8(fp)
  80011c:	e0bffb15 	stw	r2,-20(fp)
  800120:	e03ffd15 	stw	zero,-12(fp)
  800124:	00800044 	movi	r2,1
  800128:	e0bffc15 	stw	r2,-16(fp)
  80012c:	e0fffb17 	ldw	r3,-20(fp)
  800130:	e0bffc17 	ldw	r2,-16(fp)
  800134:	1884703a 	and	r2,r3,r2
  800138:	10001426 	beq	r2,zero,80018c <alt_irq_handler+0x90>
  80013c:	008020b4 	movhi	r2,130
  800140:	10abac04 	addi	r2,r2,-20816
  800144:	e0fffd17 	ldw	r3,-12(fp)
  800148:	180690fa 	slli	r3,r3,3
  80014c:	10c5883a 	add	r2,r2,r3
  800150:	10c00017 	ldw	r3,0(r2)
  800154:	008020b4 	movhi	r2,130
  800158:	10abac04 	addi	r2,r2,-20816
  80015c:	e13ffd17 	ldw	r4,-12(fp)
  800160:	200890fa 	slli	r4,r4,3
  800164:	1105883a 	add	r2,r2,r4
  800168:	10800104 	addi	r2,r2,4
  80016c:	10800017 	ldw	r2,0(r2)
  800170:	1009883a 	mov	r4,r2
  800174:	183ee83a 	callr	r3
  800178:	0001883a 	nop
  80017c:	0005313a 	rdctl	r2,ipending
  800180:	e0bfff15 	stw	r2,-4(fp)
  800184:	e0bfff17 	ldw	r2,-4(fp)
  800188:	00000706 	br	8001a8 <alt_irq_handler+0xac>
  80018c:	e0bffc17 	ldw	r2,-16(fp)
  800190:	1085883a 	add	r2,r2,r2
  800194:	e0bffc15 	stw	r2,-16(fp)
  800198:	e0bffd17 	ldw	r2,-12(fp)
  80019c:	10800044 	addi	r2,r2,1
  8001a0:	e0bffd15 	stw	r2,-12(fp)
  8001a4:	003fe106 	br	80012c <__alt_mem_onchip_mem+0xff7f812c>
  8001a8:	e0bffb15 	stw	r2,-20(fp)
  8001ac:	e0bffb17 	ldw	r2,-20(fp)
  8001b0:	103fdb1e 	bne	r2,zero,800120 <__alt_mem_onchip_mem+0xff7f8120>
  8001b4:	0001883a 	nop
  8001b8:	0001883a 	nop
  8001bc:	e037883a 	mov	sp,fp
  8001c0:	dfc00117 	ldw	ra,4(sp)
  8001c4:	df000017 	ldw	fp,0(sp)
  8001c8:	dec00204 	addi	sp,sp,8
  8001cc:	f800283a 	ret

008001d0 <alt_instruction_exception_entry>:
  8001d0:	defffb04 	addi	sp,sp,-20
  8001d4:	dfc00415 	stw	ra,16(sp)
  8001d8:	df000315 	stw	fp,12(sp)
  8001dc:	df000304 	addi	fp,sp,12
  8001e0:	e13fff15 	stw	r4,-4(fp)
  8001e4:	000531fa 	rdctl	r2,exception
  8001e8:	e0bffd15 	stw	r2,-12(fp)
  8001ec:	e0bffd17 	ldw	r2,-12(fp)
  8001f0:	10801f0c 	andi	r2,r2,124
  8001f4:	1004d0ba 	srli	r2,r2,2
  8001f8:	e0bffd15 	stw	r2,-12(fp)
  8001fc:	0005333a 	rdctl	r2,badaddr
  800200:	e0bffe15 	stw	r2,-8(fp)
  800204:	d0a75a17 	ldw	r2,-25240(gp)
  800208:	10000726 	beq	r2,zero,800228 <alt_instruction_exception_entry+0x58>
  80020c:	d0a75a17 	ldw	r2,-25240(gp)
  800210:	e0fffd17 	ldw	r3,-12(fp)
  800214:	e1bffe17 	ldw	r6,-8(fp)
  800218:	e17fff17 	ldw	r5,-4(fp)
  80021c:	1809883a 	mov	r4,r3
  800220:	103ee83a 	callr	r2
  800224:	00000206 	br	800230 <alt_instruction_exception_entry+0x60>
  800228:	003da03a 	break	0
  80022c:	0005883a 	mov	r2,zero
  800230:	e037883a 	mov	sp,fp
  800234:	dfc00117 	ldw	ra,4(sp)
  800238:	df000017 	ldw	fp,0(sp)
  80023c:	dec00204 	addi	sp,sp,8
  800240:	f800283a 	ret

Disassembly of section .text:

00800244 <_start>:

    /* Assume the data cache size is always a power of two. */
#if NIOS2_DCACHE_SIZE > 0x8000
    movhi r2, %hi(NIOS2_DCACHE_SIZE)
#else
    movui r2, NIOS2_DCACHE_SIZE
  800244:	00820014 	movui	r2,2048
#endif

0:
    initd 0(r2)
  800248:	10000033 	initd	0(r2)
#ifdef NIOS2_ECC_PRESENT
    addi r2, r2, -4
#else
    addi r2, r2, -NIOS2_DCACHE_LINE_SIZE
  80024c:	10bff804 	addi	r2,r2,-32
#endif
    bgt r2, zero, 0b
  800250:	00bffd16 	blt	zero,r2,800248 <__alt_mem_onchip_mem+0xff7f8248>

    /*
     * Now that the caches are initialized, set up the stack pointer and global pointer.
     * The values provided by the linker are assumed to be correctly aligned.
     */
    movhi sp, %hi(__alt_stack_pointer)
  800254:	06c04034 	movhi	sp,256
    ori sp, sp, %lo(__alt_stack_pointer)
  800258:	dec00014 	ori	sp,sp,0
    movhi gp, %hi(_gp)
  80025c:	068020b4 	movhi	gp,130
    ori gp, gp, %lo(_gp)
  800260:	d683e914 	ori	gp,gp,4004
 */
#ifndef ALT_SIM_OPTIMIZE
    /* Log that the BSS is about to be cleared. */
    ALT_LOG_PUTS(alt_log_msg_bss)

    movhi r2, %hi(__bss_start)
  800264:	00802074 	movhi	r2,129
    ori r2, r2, %lo(__bss_start)
  800268:	10ab3114 	ori	r2,r2,44228

    movhi r3, %hi(__bss_end)
  80026c:	00c02074 	movhi	r3,129
    ori r3, r3, %lo(__bss_end)
  800270:	18ebec14 	ori	r3,r3,44976

    beq r2, r3, 1f
  800274:	10c00326 	beq	r2,r3,800284 <_start+0x40>

0:
    stw zero, (r2)
  800278:	10000015 	stw	zero,0(r2)
    addi r2, r2, 4
  80027c:	10800104 	addi	r2,r2,4
    bltu r2, r3, 0b
  800280:	10fffd36 	bltu	r2,r3,800278 <__alt_mem_onchip_mem+0xff7f8278>
     * section aren't defined until alt_load() has been called).
     */
    mov   et, zero
#endif

    call alt_load
  800284:	08130680 	call	813068 <alt_load>

    /* Log that alt_main is about to be called. */
    ALT_LOG_PUTS(alt_log_msg_alt_main)

    /* Call the C entry point. It should never return. */
    call alt_main
  800288:	08131fc0 	call	8131fc <alt_main>

0080028c <alt_after_alt_main>:

    /* Wait in infinite loop in case alt_main does return. */
alt_after_alt_main:
    br alt_after_alt_main
  80028c:	003fff06 	br	80028c <__alt_mem_onchip_mem+0xff7f828c>

00800290 <setup_lcd>:
 */
#include "lcd.h"

FILE *lcd;

void setup_lcd(){
  800290:	defffe04 	addi	sp,sp,-8
  800294:	dfc00115 	stw	ra,4(sp)
  800298:	df000015 	stw	fp,0(sp)
  80029c:	d839883a 	mov	fp,sp
	lcd = fopen(LCD_NAME, "w");
  8002a0:	01402074 	movhi	r5,129
  8002a4:	295b3c04 	addi	r5,r5,27888
  8002a8:	01002074 	movhi	r4,129
  8002ac:	211b3d04 	addi	r4,r4,27892
  8002b0:	08073480 	call	807348 <fopen>
  8002b4:	d0a74815 	stw	r2,-25312(gp)
}
  8002b8:	0001883a 	nop
  8002bc:	e037883a 	mov	sp,fp
  8002c0:	dfc00117 	ldw	ra,4(sp)
  8002c4:	df000017 	ldw	fp,0(sp)
  8002c8:	dec00204 	addi	sp,sp,8
  8002cc:	f800283a 	ret

008002d0 <write_to_lcd>:

void write_to_lcd(const char *format, ...){
  8002d0:	defff904 	addi	sp,sp,-28
  8002d4:	dfc00315 	stw	ra,12(sp)
  8002d8:	df000215 	stw	fp,8(sp)
  8002dc:	df000204 	addi	fp,sp,8
  8002e0:	e13fff15 	stw	r4,-4(fp)
  8002e4:	e1400215 	stw	r5,8(fp)
  8002e8:	e1800315 	stw	r6,12(fp)
  8002ec:	e1c00415 	stw	r7,16(fp)
	#define ESC 27
	#define CLEAR_LCD_STRING "[2J"

    // Print the ESC and CLEAR_LCD_STRING
	fprintf(lcd, "%c%s", ESC, CLEAR_LCD_STRING);
  8002f0:	d0a74817 	ldw	r2,-25312(gp)
  8002f4:	01c02074 	movhi	r7,129
  8002f8:	39db4004 	addi	r7,r7,27904
  8002fc:	018006c4 	movi	r6,27
  800300:	01402074 	movhi	r5,129
  800304:	295b4104 	addi	r5,r5,27908
  800308:	1009883a 	mov	r4,r2
  80030c:	08073880 	call	807388 <fprintf>

	// Use variadic arguments to print the formatted string
	va_list args;
	va_start(args, format);
  800310:	e0800204 	addi	r2,fp,8
  800314:	e0bffe15 	stw	r2,-8(fp)
	vfprintf(lcd, format, args);
  800318:	d0a74817 	ldw	r2,-25312(gp)
  80031c:	e0fffe17 	ldw	r3,-8(fp)
  800320:	180d883a 	mov	r6,r3
  800324:	e17fff17 	ldw	r5,-4(fp)
  800328:	1009883a 	mov	r4,r2
  80032c:	080b3c40 	call	80b3c4 <vfprintf>
	va_end(args);

	// Print a newline character
	fprintf(lcd, "\n");
  800330:	d0a74817 	ldw	r2,-25312(gp)
  800334:	100b883a 	mov	r5,r2
  800338:	01000284 	movi	r4,10
  80033c:	08073f00 	call	8073f0 <fputc>
}
  800340:	0001883a 	nop
  800344:	e037883a 	mov	sp,fp
  800348:	dfc00117 	ldw	ra,4(sp)
  80034c:	df000017 	ldw	fp,0(sp)
  800350:	dec00504 	addi	sp,sp,20
  800354:	f800283a 	ret

00800358 <close_lcd>:

void close_lcd(){
  800358:	defffe04 	addi	sp,sp,-8
  80035c:	dfc00115 	stw	ra,4(sp)
  800360:	df000015 	stw	fp,0(sp)
  800364:	d839883a 	mov	fp,sp
	fclose(lcd);
  800368:	d0a74817 	ldw	r2,-25312(gp)
  80036c:	1009883a 	mov	r4,r2
  800370:	0806bf80 	call	806bf8 <fclose>
}
  800374:	0001883a 	nop
  800378:	e037883a 	mov	sp,fp
  80037c:	dfc00117 	ldw	ra,4(sp)
  800380:	df000017 	ldw	fp,0(sp)
  800384:	dec00204 	addi	sp,sp,8
  800388:	f800283a 	ret

0080038c <main>:

TickData tickData;


int main()
{
  80038c:	defff504 	addi	sp,sp,-44
  800390:	dfc00a15 	stw	ra,40(sp)
  800394:	df000915 	stw	fp,36(sp)
  800398:	df000904 	addi	fp,sp,36
	reset_leds();
  80039c:	08004dc0 	call	8004dc <reset_leds>
	printf("Hello from Nios II!\n");
  8003a0:	01002074 	movhi	r4,129
  8003a4:	211b4304 	addi	r4,r4,27916
  8003a8:	0808cc80 	call	808cc8 <puts>
	// start a non blocking UART with read and write
	setup_keys();
  8003ac:	08005a00 	call	8005a0 <setup_keys>
	setup_uart();
  8003b0:	08054d80 	call	8054d8 <setup_uart>
	setup_lcd();
  8003b4:	08002900 	call	800290 <setup_lcd>

	write_to_lcd("hello \n%s %s", "joshua", "morley");
  8003b8:	01802074 	movhi	r6,129
  8003bc:	319b4804 	addi	r6,r6,27936
  8003c0:	01402074 	movhi	r5,129
  8003c4:	295b4a04 	addi	r5,r5,27944
  8003c8:	01002074 	movhi	r4,129
  8003cc:	211b4c04 	addi	r4,r4,27952
  8003d0:	08002d00 	call	8002d0 <write_to_lcd>

	reset(&tickData);
  8003d4:	010020b4 	movhi	r4,130
  8003d8:	212b4e04 	addi	r4,r4,-21192
  8003dc:	0804ee40 	call	804ee4 <reset>
	tick(&tickData); // init tick
  8003e0:	010020b4 	movhi	r4,130
  8003e4:	212b4e04 	addi	r4,r4,-21192
  8003e8:	08050e40 	call	8050e4 <tick>

	// Timer Init
	alt_alarm ticker;
	uint64_t systemTime = 0;
  8003ec:	e03ffe15 	stw	zero,-8(fp)
  8003f0:	e03fff15 	stw	zero,-4(fp)
	void* timerContext = (void*) &systemTime;
  8003f4:	e0bffe04 	addi	r2,fp,-8
  8003f8:	e0bff715 	stw	r2,-36(fp)
	alt_alarm_start(&ticker, 1, timerISR, timerContext);
  8003fc:	e0bff804 	addi	r2,fp,-32
  800400:	e1fff717 	ldw	r7,-36(fp)
  800404:	01802034 	movhi	r6,128
  800408:	31810d04 	addi	r6,r6,1076
  80040c:	01400044 	movi	r5,1
  800410:	1009883a 	mov	r4,r2
  800414:	0812a500 	call	812a50 <alt_alarm_start>
	tickData.deltaT = 1;
  800418:	008020b4 	movhi	r2,130
  80041c:	10ab4e04 	addi	r2,r2,-21192
  800420:	10001315 	stw	zero,76(r2)
  800424:	00cffc34 	movhi	r3,16368
  800428:	10c01415 	stw	r3,80(r2)

	while(1) {
		check_uart();
  80042c:	08055380 	call	805538 <check_uart>



	}
  800430:	003ffe06 	br	80042c <__alt_mem_onchip_mem+0xff7f842c>

00800434 <timerISR>:
	close_uart();
	close_lcd();
	return 0;
}

alt_u32 timerISR(void* context){
  800434:	defffd04 	addi	sp,sp,-12
  800438:	dfc00215 	stw	ra,8(sp)
  80043c:	df000115 	stw	fp,4(sp)
  800440:	df000104 	addi	fp,sp,4
  800444:	e13fff15 	stw	r4,-4(fp)

	tickData.VS = VSBuffer;
  800448:	d0a74b43 	ldbu	r2,-25299(gp)
  80044c:	1007883a 	mov	r3,r2
  800450:	008020b4 	movhi	r2,130
  800454:	10ab4e04 	addi	r2,r2,-21192
  800458:	10c00045 	stb	r3,1(r2)
	tickData.AS = ASBuffer;
  80045c:	d0a74b03 	ldbu	r2,-25300(gp)
  800460:	1007883a 	mov	r3,r2
  800464:	008020b4 	movhi	r2,130
  800468:	10ab4e04 	addi	r2,r2,-21192
  80046c:	10c00005 	stb	r3,0(r2)

	VSBuffer = 0;
  800470:	d0274b45 	stb	zero,-25299(gp)
	ASBuffer = 0;
  800474:	d0274b05 	stb	zero,-25300(gp)

	tick(&tickData);
  800478:	010020b4 	movhi	r4,130
  80047c:	212b4e04 	addi	r4,r4,-21192
  800480:	08050e40 	call	8050e4 <tick>


	if (tickData.AP){
  800484:	008020b4 	movhi	r2,130
  800488:	10ab4e04 	addi	r2,r2,-21192
  80048c:	10801703 	ldbu	r2,92(r2)
  800490:	10803fcc 	andi	r2,r2,255
  800494:	1080201c 	xori	r2,r2,128
  800498:	10bfe004 	addi	r2,r2,-128
  80049c:	10000126 	beq	r2,zero,8004a4 <timerISR+0x70>
		ap_light_timer();
  8004a0:	08054640 	call	805464 <ap_light_timer>
	}

	if (tickData.VP){
  8004a4:	008020b4 	movhi	r2,130
  8004a8:	10ab4e04 	addi	r2,r2,-21192
  8004ac:	10801743 	ldbu	r2,93(r2)
  8004b0:	10803fcc 	andi	r2,r2,255
  8004b4:	1080201c 	xori	r2,r2,128
  8004b8:	10bfe004 	addi	r2,r2,-128
  8004bc:	10000126 	beq	r2,zero,8004c4 <timerISR+0x90>
		vp_light_timer();
  8004c0:	08053f00 	call	8053f0 <vp_light_timer>
	}

	return 1; // next tick is after 1ms
  8004c4:	00800044 	movi	r2,1
}
  8004c8:	e037883a 	mov	sp,fp
  8004cc:	dfc00117 	ldw	ra,4(sp)
  8004d0:	df000017 	ldw	fp,0(sp)
  8004d4:	dec00204 	addi	sp,sp,8
  8004d8:	f800283a 	ret

008004dc <reset_leds>:

void reset_leds(){
  8004dc:	deffff04 	addi	sp,sp,-4
  8004e0:	df000015 	stw	fp,0(sp)
  8004e4:	d839883a 	mov	fp,sp
	IOWR_ALTERA_AVALON_PIO_DATA(LEDS_RED_BASE, 0x0);
  8004e8:	0007883a 	mov	r3,zero
  8004ec:	00804074 	movhi	r2,257
  8004f0:	10842004 	addi	r2,r2,4224
  8004f4:	10c00035 	stwio	r3,0(r2)
	IOWR_ALTERA_AVALON_PIO_DATA(LEDS_GREEN_BASE, 0x0);
  8004f8:	0007883a 	mov	r3,zero
  8004fc:	00804074 	movhi	r2,257
  800500:	10841c04 	addi	r2,r2,4208
  800504:	10c00035 	stwio	r3,0(r2)
}
  800508:	0001883a 	nop
  80050c:	e037883a 	mov	sp,fp
  800510:	df000017 	ldw	fp,0(sp)
  800514:	dec00104 	addi	sp,sp,4
  800518:	f800283a 	ret

0080051c <key_interrupt>:


void key_interrupt(void* context, alt_u32 id) {
  80051c:	defffc04 	addi	sp,sp,-16
  800520:	df000315 	stw	fp,12(sp)
  800524:	df000304 	addi	fp,sp,12
  800528:	e13ffe15 	stw	r4,-8(fp)
  80052c:	e17fff15 	stw	r5,-4(fp)
	int* temp = (int*) context; // need to cast the context first before using it
  800530:	e0bffe17 	ldw	r2,-8(fp)
  800534:	e0bffd15 	stw	r2,-12(fp)
	(*temp) = IORD_ALTERA_AVALON_PIO_EDGE_CAP(KEYS_BASE);
  800538:	00804074 	movhi	r2,257
  80053c:	10842b04 	addi	r2,r2,4268
  800540:	10c00037 	ldwio	r3,0(r2)
  800544:	e0bffd17 	ldw	r2,-12(fp)
  800548:	10c00015 	stw	r3,0(r2)
	// clear the edge capture register
	IOWR_ALTERA_AVALON_PIO_EDGE_CAP(KEYS_BASE, 0);
  80054c:	0007883a 	mov	r3,zero
  800550:	00804074 	movhi	r2,257
  800554:	10842b04 	addi	r2,r2,4268
  800558:	10c00035 	stwio	r3,0(r2)
	if (*temp == 1){
  80055c:	e0bffd17 	ldw	r2,-12(fp)
  800560:	10800017 	ldw	r2,0(r2)
  800564:	10800058 	cmpnei	r2,r2,1
  800568:	1000021e 	bne	r2,zero,800574 <key_interrupt+0x58>
		VSBuffer = 1;
  80056c:	00800044 	movi	r2,1
  800570:	d0a74b45 	stb	r2,-25299(gp)
	}
	if (*temp == 2){
  800574:	e0bffd17 	ldw	r2,-12(fp)
  800578:	10800017 	ldw	r2,0(r2)
  80057c:	10800098 	cmpnei	r2,r2,2
  800580:	1000021e 	bne	r2,zero,80058c <key_interrupt+0x70>
		ASBuffer = 1;
  800584:	00800044 	movi	r2,1
  800588:	d0a74b05 	stb	r2,-25300(gp)
	}
}
  80058c:	0001883a 	nop
  800590:	e037883a 	mov	sp,fp
  800594:	df000017 	ldw	fp,0(sp)
  800598:	dec00104 	addi	sp,sp,4
  80059c:	f800283a 	ret

008005a0 <setup_keys>:

void setup_keys(){
  8005a0:	defffc04 	addi	sp,sp,-16
  8005a4:	dfc00315 	stw	ra,12(sp)
  8005a8:	df000215 	stw	fp,8(sp)
  8005ac:	df000204 	addi	fp,sp,8
	int keyValue = 1;
  8005b0:	00800044 	movi	r2,1
  8005b4:	e0bfff15 	stw	r2,-4(fp)
	void* contextKeyInterrupt =(void*) &keyValue; // cast before passing to ISR
  8005b8:	e0bfff04 	addi	r2,fp,-4
  8005bc:	e0bffe15 	stw	r2,-8(fp)


	// clears the edge capture register
	IOWR_ALTERA_AVALON_PIO_EDGE_CAP(KEYS_BASE, 0);
  8005c0:	0007883a 	mov	r3,zero
  8005c4:	00804074 	movhi	r2,257
  8005c8:	10842b04 	addi	r2,r2,4268
  8005cc:	10c00035 	stwio	r3,0(r2)

	// enable interrupts for all buttons
	IOWR_ALTERA_AVALON_PIO_IRQ_MASK(KEYS_BASE, 0x7);
  8005d0:	00c001c4 	movi	r3,7
  8005d4:	00804074 	movhi	r2,257
  8005d8:	10842a04 	addi	r2,r2,4264
  8005dc:	10c00035 	stwio	r3,0(r2)

	// register the ISR
	alt_irq_register(KEYS_IRQ, contextKeyInterrupt, key_interrupt);
  8005e0:	01802034 	movhi	r6,128
  8005e4:	31814704 	addi	r6,r6,1308
  8005e8:	e17ffe17 	ldw	r5,-8(fp)
  8005ec:	01000104 	movi	r4,4
  8005f0:	0812da00 	call	812da0 <alt_irq_register>
}
  8005f4:	0001883a 	nop
  8005f8:	e037883a 	mov	sp,fp
  8005fc:	dfc00117 	ldw	ra,4(sp)
  800600:	df000017 	ldw	fp,0(sp)
  800604:	dec00204 	addi	sp,sp,8
  800608:	f800283a 	ret

0080060c <logic>:

#include "timing.h"

#include "sccharts.h"

void logic(TickData* d) {
  80060c:	defffa04 	addi	sp,sp,-24
  800610:	dfc00515 	stw	ra,20(sp)
  800614:	df000415 	stw	fp,16(sp)
  800618:	dc800315 	stw	r18,12(sp)
  80061c:	dc400215 	stw	r17,8(sp)
  800620:	dc000115 	stw	r16,4(sp)
  800624:	df000404 	addi	fp,sp,16
  800628:	e13ffc15 	stw	r4,-16(fp)
  d->AP = 0;
  80062c:	e0bffc17 	ldw	r2,-16(fp)
  800630:	10001705 	stb	zero,92(r2)
  d->VP = 0;
  800634:	e0bffc17 	ldw	r2,-16(fp)
  800638:	10001745 	stb	zero,93(r2)
  d->AVI = 0;
  80063c:	e0bffc17 	ldw	r2,-16(fp)
  800640:	10001785 	stb	zero,94(r2)
  d->PVARP = 0;
  800644:	e0bffc17 	ldw	r2,-16(fp)
  800648:	100017c5 	stb	zero,95(r2)
  d->VRP = 0;
  80064c:	e0bffc17 	ldw	r2,-16(fp)
  800650:	10001805 	stb	zero,96(r2)
  d->AEI = 0;
  800654:	e0bffc17 	ldw	r2,-16(fp)
  800658:	10001845 	stb	zero,97(r2)
  d->LRI = 0;
  80065c:	e0bffc17 	ldw	r2,-16(fp)
  800660:	10001885 	stb	zero,98(r2)
  d->URI = 0;
  800664:	e0bffc17 	ldw	r2,-16(fp)
  800668:	100018c5 	stb	zero,99(r2)
  d->_g8 = d->_pg93;
  80066c:	e0bffc17 	ldw	r2,-16(fp)
  800670:	10c04843 	ldbu	r3,289(r2)
  800674:	e0bffc17 	ldw	r2,-16(fp)
  800678:	10c01bc5 	stb	r3,111(r2)
  d->_g9_e1 = !d->_g8;
  80067c:	e0bffc17 	ldw	r2,-16(fp)
  800680:	10801bc3 	ldbu	r2,111(r2)
  800684:	10803fcc 	andi	r2,r2,255
  800688:	1080201c 	xori	r2,r2,128
  80068c:	10bfe004 	addi	r2,r2,-128
  800690:	1005003a 	cmpeq	r2,r2,zero
  800694:	1007883a 	mov	r3,r2
  800698:	e0bffc17 	ldw	r2,-16(fp)
  80069c:	10c04385 	stb	r3,270(r2)
  if (d->_g8) {
  8006a0:	e0bffc17 	ldw	r2,-16(fp)
  8006a4:	10801bc3 	ldbu	r2,111(r2)
  8006a8:	10803fcc 	andi	r2,r2,255
  8006ac:	1080201c 	xori	r2,r2,128
  8006b0:	10bfe004 	addi	r2,r2,-128
  8006b4:	10000626 	beq	r2,zero,8006d0 <logic+0xc4>
    d->AVI |= 1;
  8006b8:	e0bffc17 	ldw	r2,-16(fp)
  8006bc:	10801783 	ldbu	r2,94(r2)
  8006c0:	10800054 	ori	r2,r2,1
  8006c4:	1007883a 	mov	r3,r2
  8006c8:	e0bffc17 	ldw	r2,-16(fp)
  8006cc:	10c01785 	stb	r3,94(r2)
  }
  d->_g145 = d->_pg126;
  8006d0:	e0bffc17 	ldw	r2,-16(fp)
  8006d4:	10c04883 	ldbu	r3,290(r2)
  8006d8:	e0bffc17 	ldw	r2,-16(fp)
  8006dc:	10c03285 	stb	r3,202(r2)
  if (d->_g145) {
  8006e0:	e0bffc17 	ldw	r2,-16(fp)
  8006e4:	10803283 	ldbu	r2,202(r2)
  8006e8:	10803fcc 	andi	r2,r2,255
  8006ec:	1080201c 	xori	r2,r2,128
  8006f0:	10bfe004 	addi	r2,r2,-128
  8006f4:	10000626 	beq	r2,zero,800710 <logic+0x104>
    d->URI |= 1;
  8006f8:	e0bffc17 	ldw	r2,-16(fp)
  8006fc:	108018c3 	ldbu	r2,99(r2)
  800700:	10800054 	ori	r2,r2,1
  800704:	1007883a 	mov	r3,r2
  800708:	e0bffc17 	ldw	r2,-16(fp)
  80070c:	10c018c5 	stb	r3,99(r2)
  }
  d->_g167 = d->_pg143;
  800710:	e0bffc17 	ldw	r2,-16(fp)
  800714:	10c048c3 	ldbu	r3,291(r2)
  800718:	e0bffc17 	ldw	r2,-16(fp)
  80071c:	10c03545 	stb	r3,213(r2)
  if (d->_g167) {
  800720:	e0bffc17 	ldw	r2,-16(fp)
  800724:	10803543 	ldbu	r2,213(r2)
  800728:	10803fcc 	andi	r2,r2,255
  80072c:	1080201c 	xori	r2,r2,128
  800730:	10bfe004 	addi	r2,r2,-128
  800734:	10001226 	beq	r2,zero,800780 <logic+0x174>
    d->_region0_AVI_cAVI += d->deltaT;
  800738:	e13ffc17 	ldw	r4,-16(fp)
  80073c:	20800717 	ldw	r2,28(r4)
  800740:	20c00817 	ldw	r3,32(r4)
  800744:	e1bffc17 	ldw	r6,-16(fp)
  800748:	31001317 	ldw	r4,76(r6)
  80074c:	31401417 	ldw	r5,80(r6)
  800750:	200d883a 	mov	r6,r4
  800754:	280f883a 	mov	r7,r5
  800758:	1009883a 	mov	r4,r2
  80075c:	180b883a 	mov	r5,r3
  800760:	08056500 	call	805650 <__adddf3>
  800764:	1009883a 	mov	r4,r2
  800768:	180b883a 	mov	r5,r3
  80076c:	2005883a 	mov	r2,r4
  800770:	2807883a 	mov	r3,r5
  800774:	e13ffc17 	ldw	r4,-16(fp)
  800778:	20800715 	stw	r2,28(r4)
  80077c:	20c00815 	stw	r3,32(r4)
  }
  d->_g23 = d->_pg8;
  800780:	e0bffc17 	ldw	r2,-16(fp)
  800784:	10c04903 	ldbu	r3,292(r2)
  800788:	e0bffc17 	ldw	r2,-16(fp)
  80078c:	10c01e45 	stb	r3,121(r2)
  d->_cg23 = d->_region0_AVI_cAVI >= d->AVI_Constraint && !d->URI;
  800790:	e0bffc17 	ldw	r2,-16(fp)
  800794:	14000717 	ldw	r16,28(r2)
  800798:	14400817 	ldw	r17,32(r2)
  80079c:	e0bffc17 	ldw	r2,-16(fp)
  8007a0:	10800117 	ldw	r2,4(r2)
  8007a4:	1009883a 	mov	r4,r2
  8007a8:	08069c80 	call	8069c8 <__floatsidf>
  8007ac:	1009883a 	mov	r4,r2
  8007b0:	180b883a 	mov	r5,r3
  8007b4:	200d883a 	mov	r6,r4
  8007b8:	280f883a 	mov	r7,r5
  8007bc:	8009883a 	mov	r4,r16
  8007c0:	880b883a 	mov	r5,r17
  8007c4:	0805efc0 	call	805efc <__gedf2>
  8007c8:	10000816 	blt	r2,zero,8007ec <logic+0x1e0>
  8007cc:	e0bffc17 	ldw	r2,-16(fp)
  8007d0:	108018c3 	ldbu	r2,99(r2)
  8007d4:	10803fcc 	andi	r2,r2,255
  8007d8:	1080201c 	xori	r2,r2,128
  8007dc:	10bfe004 	addi	r2,r2,-128
  8007e0:	1000021e 	bne	r2,zero,8007ec <logic+0x1e0>
  8007e4:	00800044 	movi	r2,1
  8007e8:	00000106 	br	8007f0 <logic+0x1e4>
  8007ec:	0005883a 	mov	r2,zero
  8007f0:	1007883a 	mov	r3,r2
  8007f4:	e0bffc17 	ldw	r2,-16(fp)
  8007f8:	10c038c5 	stb	r3,227(r2)
  d->_g24 = d->_g23 && d->_cg23;
  8007fc:	e0bffc17 	ldw	r2,-16(fp)
  800800:	10801e43 	ldbu	r2,121(r2)
  800804:	10803fcc 	andi	r2,r2,255
  800808:	1080201c 	xori	r2,r2,128
  80080c:	10bfe004 	addi	r2,r2,-128
  800810:	10000826 	beq	r2,zero,800834 <logic+0x228>
  800814:	e0bffc17 	ldw	r2,-16(fp)
  800818:	108038c3 	ldbu	r2,227(r2)
  80081c:	10803fcc 	andi	r2,r2,255
  800820:	1080201c 	xori	r2,r2,128
  800824:	10bfe004 	addi	r2,r2,-128
  800828:	10000226 	beq	r2,zero,800834 <logic+0x228>
  80082c:	00800044 	movi	r2,1
  800830:	00000106 	br	800838 <logic+0x22c>
  800834:	0005883a 	mov	r2,zero
  800838:	1007883a 	mov	r3,r2
  80083c:	e0bffc17 	ldw	r2,-16(fp)
  800840:	10c01e85 	stb	r3,122(r2)
  if (d->_g24) {
  800844:	e0bffc17 	ldw	r2,-16(fp)
  800848:	10801e83 	ldbu	r2,122(r2)
  80084c:	10803fcc 	andi	r2,r2,255
  800850:	1080201c 	xori	r2,r2,128
  800854:	10bfe004 	addi	r2,r2,-128
  800858:	10000326 	beq	r2,zero,800868 <logic+0x25c>
    d->_Pacemaker_local__Atrig = 1;
  80085c:	e0bffc17 	ldw	r2,-16(fp)
  800860:	00c00044 	movi	r3,1
  800864:	10c01905 	stb	r3,100(r2)
  }
  d->_g26 = d->_g23 && !d->_cg23;
  800868:	e0bffc17 	ldw	r2,-16(fp)
  80086c:	10801e43 	ldbu	r2,121(r2)
  800870:	10803fcc 	andi	r2,r2,255
  800874:	1080201c 	xori	r2,r2,128
  800878:	10bfe004 	addi	r2,r2,-128
  80087c:	10000826 	beq	r2,zero,8008a0 <logic+0x294>
  800880:	e0bffc17 	ldw	r2,-16(fp)
  800884:	108038c3 	ldbu	r2,227(r2)
  800888:	10803fcc 	andi	r2,r2,255
  80088c:	1080201c 	xori	r2,r2,128
  800890:	10bfe004 	addi	r2,r2,-128
  800894:	1000021e 	bne	r2,zero,8008a0 <logic+0x294>
  800898:	00800044 	movi	r2,1
  80089c:	00000106 	br	8008a4 <logic+0x298>
  8008a0:	0005883a 	mov	r2,zero
  8008a4:	1007883a 	mov	r3,r2
  8008a8:	e0bffc17 	ldw	r2,-16(fp)
  8008ac:	10c01f05 	stb	r3,124(r2)
  d->_g27 = d->_g26 && d->VS;
  8008b0:	e0bffc17 	ldw	r2,-16(fp)
  8008b4:	10801f03 	ldbu	r2,124(r2)
  8008b8:	10803fcc 	andi	r2,r2,255
  8008bc:	1080201c 	xori	r2,r2,128
  8008c0:	10bfe004 	addi	r2,r2,-128
  8008c4:	10000826 	beq	r2,zero,8008e8 <logic+0x2dc>
  8008c8:	e0bffc17 	ldw	r2,-16(fp)
  8008cc:	10800043 	ldbu	r2,1(r2)
  8008d0:	10803fcc 	andi	r2,r2,255
  8008d4:	1080201c 	xori	r2,r2,128
  8008d8:	10bfe004 	addi	r2,r2,-128
  8008dc:	10000226 	beq	r2,zero,8008e8 <logic+0x2dc>
  8008e0:	00800044 	movi	r2,1
  8008e4:	00000106 	br	8008ec <logic+0x2e0>
  8008e8:	0005883a 	mov	r2,zero
  8008ec:	1007883a 	mov	r3,r2
  8008f0:	e0bffc17 	ldw	r2,-16(fp)
  8008f4:	10c01f45 	stb	r3,125(r2)
  if (d->_g27) {
  8008f8:	e0bffc17 	ldw	r2,-16(fp)
  8008fc:	10801f43 	ldbu	r2,125(r2)
  800900:	10803fcc 	andi	r2,r2,255
  800904:	1080201c 	xori	r2,r2,128
  800908:	10bfe004 	addi	r2,r2,-128
  80090c:	10000326 	beq	r2,zero,80091c <logic+0x310>
    d->_Pacemaker_local__Atrig1 = 1;
  800910:	e0bffc17 	ldw	r2,-16(fp)
  800914:	00c00044 	movi	r3,1
  800918:	10c01945 	stb	r3,101(r2)
  }
  d->_cg8 = d->_Pacemaker_local__Atrig || d->_Pacemaker_local__Atrig1;
  80091c:	e0bffc17 	ldw	r2,-16(fp)
  800920:	10801903 	ldbu	r2,100(r2)
  800924:	10803fcc 	andi	r2,r2,255
  800928:	1080201c 	xori	r2,r2,128
  80092c:	10bfe004 	addi	r2,r2,-128
  800930:	1000061e 	bne	r2,zero,80094c <logic+0x340>
  800934:	e0bffc17 	ldw	r2,-16(fp)
  800938:	10801943 	ldbu	r2,101(r2)
  80093c:	10803fcc 	andi	r2,r2,255
  800940:	1080201c 	xori	r2,r2,128
  800944:	10bfe004 	addi	r2,r2,-128
  800948:	10000226 	beq	r2,zero,800954 <logic+0x348>
  80094c:	00800044 	movi	r2,1
  800950:	00000106 	br	800958 <logic+0x34c>
  800954:	0005883a 	mov	r2,zero
  800958:	1007883a 	mov	r3,r2
  80095c:	e0bffc17 	ldw	r2,-16(fp)
  800960:	10c036c5 	stb	r3,219(r2)
  d->_g9 = d->_g8 && d->_cg8;
  800964:	e0bffc17 	ldw	r2,-16(fp)
  800968:	10801bc3 	ldbu	r2,111(r2)
  80096c:	10803fcc 	andi	r2,r2,255
  800970:	1080201c 	xori	r2,r2,128
  800974:	10bfe004 	addi	r2,r2,-128
  800978:	10000826 	beq	r2,zero,80099c <logic+0x390>
  80097c:	e0bffc17 	ldw	r2,-16(fp)
  800980:	108036c3 	ldbu	r2,219(r2)
  800984:	10803fcc 	andi	r2,r2,255
  800988:	1080201c 	xori	r2,r2,128
  80098c:	10bfe004 	addi	r2,r2,-128
  800990:	10000226 	beq	r2,zero,80099c <logic+0x390>
  800994:	00800044 	movi	r2,1
  800998:	00000106 	br	8009a0 <logic+0x394>
  80099c:	0005883a 	mov	r2,zero
  8009a0:	1007883a 	mov	r3,r2
  8009a4:	e0bffc17 	ldw	r2,-16(fp)
  8009a8:	10c01c05 	stb	r3,112(r2)
  d->_g19 = d->_pg4;
  8009ac:	e0bffc17 	ldw	r2,-16(fp)
  8009b0:	10c04943 	ldbu	r3,293(r2)
  8009b4:	e0bffc17 	ldw	r2,-16(fp)
  8009b8:	10c01dc5 	stb	r3,119(r2)
  d->_g13 = d->_pg28;
  8009bc:	e0bffc17 	ldw	r2,-16(fp)
  8009c0:	10c04983 	ldbu	r3,294(r2)
  8009c4:	e0bffc17 	ldw	r2,-16(fp)
  8009c8:	10c01c85 	stb	r3,114(r2)
  d->_g16_e2 = !(d->_g19 || d->_g13);
  8009cc:	e0bffc17 	ldw	r2,-16(fp)
  8009d0:	10801dc3 	ldbu	r2,119(r2)
  8009d4:	10803fcc 	andi	r2,r2,255
  8009d8:	1080201c 	xori	r2,r2,128
  8009dc:	10bfe004 	addi	r2,r2,-128
  8009e0:	1000081e 	bne	r2,zero,800a04 <logic+0x3f8>
  8009e4:	e0bffc17 	ldw	r2,-16(fp)
  8009e8:	10801c83 	ldbu	r2,114(r2)
  8009ec:	10803fcc 	andi	r2,r2,255
  8009f0:	1080201c 	xori	r2,r2,128
  8009f4:	10bfe004 	addi	r2,r2,-128
  8009f8:	1000021e 	bne	r2,zero,800a04 <logic+0x3f8>
  8009fc:	00800044 	movi	r2,1
  800a00:	00000106 	br	800a08 <logic+0x3fc>
  800a04:	0005883a 	mov	r2,zero
  800a08:	1007883a 	mov	r3,r2
  800a0c:	e0bffc17 	ldw	r2,-16(fp)
  800a10:	10c043c5 	stb	r3,271(r2)
  d->sleepT = 1000.0;
  800a14:	e0fffc17 	ldw	r3,-16(fp)
  800a18:	18001515 	stw	zero,84(r3)
  800a1c:	009023f4 	movhi	r2,16527
  800a20:	10900004 	addi	r2,r2,16384
  800a24:	18801615 	stw	r2,88(r3)
  d->_g19 = d->_g13 || d->_g19;
  800a28:	e0bffc17 	ldw	r2,-16(fp)
  800a2c:	10801c83 	ldbu	r2,114(r2)
  800a30:	10803fcc 	andi	r2,r2,255
  800a34:	1080201c 	xori	r2,r2,128
  800a38:	10bfe004 	addi	r2,r2,-128
  800a3c:	1000061e 	bne	r2,zero,800a58 <logic+0x44c>
  800a40:	e0bffc17 	ldw	r2,-16(fp)
  800a44:	10801dc3 	ldbu	r2,119(r2)
  800a48:	10803fcc 	andi	r2,r2,255
  800a4c:	1080201c 	xori	r2,r2,128
  800a50:	10bfe004 	addi	r2,r2,-128
  800a54:	10000226 	beq	r2,zero,800a60 <logic+0x454>
  800a58:	00800044 	movi	r2,1
  800a5c:	00000106 	br	800a64 <logic+0x458>
  800a60:	0005883a 	mov	r2,zero
  800a64:	1007883a 	mov	r3,r2
  800a68:	e0bffc17 	ldw	r2,-16(fp)
  800a6c:	10c01dc5 	stb	r3,119(r2)
  d->_cg14 = d->_region0_AVI_cAVI < d->AVI_Constraint;
  800a70:	e0bffc17 	ldw	r2,-16(fp)
  800a74:	14000717 	ldw	r16,28(r2)
  800a78:	14400817 	ldw	r17,32(r2)
  800a7c:	e0bffc17 	ldw	r2,-16(fp)
  800a80:	10800117 	ldw	r2,4(r2)
  800a84:	1009883a 	mov	r4,r2
  800a88:	08069c80 	call	8069c8 <__floatsidf>
  800a8c:	1009883a 	mov	r4,r2
  800a90:	180b883a 	mov	r5,r3
  800a94:	04800044 	movi	r18,1
  800a98:	200d883a 	mov	r6,r4
  800a9c:	280f883a 	mov	r7,r5
  800aa0:	8009883a 	mov	r4,r16
  800aa4:	880b883a 	mov	r5,r17
  800aa8:	0805fd80 	call	805fd8 <__ledf2>
  800aac:	10000116 	blt	r2,zero,800ab4 <logic+0x4a8>
  800ab0:	0025883a 	mov	r18,zero
  800ab4:	9007883a 	mov	r3,r18
  800ab8:	e0bffc17 	ldw	r2,-16(fp)
  800abc:	10c037c5 	stb	r3,223(r2)
  d->_g13 = d->_g19 && d->_cg14;
  800ac0:	e0bffc17 	ldw	r2,-16(fp)
  800ac4:	10801dc3 	ldbu	r2,119(r2)
  800ac8:	10803fcc 	andi	r2,r2,255
  800acc:	1080201c 	xori	r2,r2,128
  800ad0:	10bfe004 	addi	r2,r2,-128
  800ad4:	10000826 	beq	r2,zero,800af8 <logic+0x4ec>
  800ad8:	e0bffc17 	ldw	r2,-16(fp)
  800adc:	108037c3 	ldbu	r2,223(r2)
  800ae0:	10803fcc 	andi	r2,r2,255
  800ae4:	1080201c 	xori	r2,r2,128
  800ae8:	10bfe004 	addi	r2,r2,-128
  800aec:	10000226 	beq	r2,zero,800af8 <logic+0x4ec>
  800af0:	00800044 	movi	r2,1
  800af4:	00000106 	br	800afc <logic+0x4f0>
  800af8:	0005883a 	mov	r2,zero
  800afc:	1007883a 	mov	r3,r2
  800b00:	e0bffc17 	ldw	r2,-16(fp)
  800b04:	10c01c85 	stb	r3,114(r2)
  if (d->_g13) {
  800b08:	e0bffc17 	ldw	r2,-16(fp)
  800b0c:	10801c83 	ldbu	r2,114(r2)
  800b10:	10803fcc 	andi	r2,r2,255
  800b14:	1080201c 	xori	r2,r2,128
  800b18:	10bfe004 	addi	r2,r2,-128
  800b1c:	10003426 	beq	r2,zero,800bf0 <logic+0x5e4>
    d->sleepT = (d->sleepT < (d->AVI_Constraint - d->_region0_AVI_cAVI)) ? d->sleepT : (d->AVI_Constraint - d->_region0_AVI_cAVI);
  800b20:	e0bffc17 	ldw	r2,-16(fp)
  800b24:	14001517 	ldw	r16,84(r2)
  800b28:	14401617 	ldw	r17,88(r2)
  800b2c:	e0bffc17 	ldw	r2,-16(fp)
  800b30:	10800117 	ldw	r2,4(r2)
  800b34:	1009883a 	mov	r4,r2
  800b38:	08069c80 	call	8069c8 <__floatsidf>
  800b3c:	1011883a 	mov	r8,r2
  800b40:	1813883a 	mov	r9,r3
  800b44:	e13ffc17 	ldw	r4,-16(fp)
  800b48:	20800717 	ldw	r2,28(r4)
  800b4c:	20c00817 	ldw	r3,32(r4)
  800b50:	100d883a 	mov	r6,r2
  800b54:	180f883a 	mov	r7,r3
  800b58:	4009883a 	mov	r4,r8
  800b5c:	480b883a 	mov	r5,r9
  800b60:	08060cc0 	call	8060cc <__subdf3>
  800b64:	1009883a 	mov	r4,r2
  800b68:	180b883a 	mov	r5,r3
  800b6c:	2005883a 	mov	r2,r4
  800b70:	2807883a 	mov	r3,r5
  800b74:	100d883a 	mov	r6,r2
  800b78:	180f883a 	mov	r7,r3
  800b7c:	8009883a 	mov	r4,r16
  800b80:	880b883a 	mov	r5,r17
  800b84:	0805fd80 	call	805fd8 <__ledf2>
  800b88:	1000040e 	bge	r2,zero,800b9c <logic+0x590>
  800b8c:	e13ffc17 	ldw	r4,-16(fp)
  800b90:	20801517 	ldw	r2,84(r4)
  800b94:	20c01617 	ldw	r3,88(r4)
  800b98:	00001206 	br	800be4 <logic+0x5d8>
  800b9c:	e0bffc17 	ldw	r2,-16(fp)
  800ba0:	10800117 	ldw	r2,4(r2)
  800ba4:	1009883a 	mov	r4,r2
  800ba8:	08069c80 	call	8069c8 <__floatsidf>
  800bac:	1011883a 	mov	r8,r2
  800bb0:	1813883a 	mov	r9,r3
  800bb4:	e13ffc17 	ldw	r4,-16(fp)
  800bb8:	20800717 	ldw	r2,28(r4)
  800bbc:	20c00817 	ldw	r3,32(r4)
  800bc0:	100d883a 	mov	r6,r2
  800bc4:	180f883a 	mov	r7,r3
  800bc8:	4009883a 	mov	r4,r8
  800bcc:	480b883a 	mov	r5,r9
  800bd0:	08060cc0 	call	8060cc <__subdf3>
  800bd4:	1009883a 	mov	r4,r2
  800bd8:	180b883a 	mov	r5,r3
  800bdc:	2005883a 	mov	r2,r4
  800be0:	2807883a 	mov	r3,r5
  800be4:	e13ffc17 	ldw	r4,-16(fp)
  800be8:	20801515 	stw	r2,84(r4)
  800bec:	20c01615 	stw	r3,88(r4)
  }
  d->_cg15 = d->_Pacemaker_local__Atrig || d->_Pacemaker_local__Atrig1;
  800bf0:	e0bffc17 	ldw	r2,-16(fp)
  800bf4:	10801903 	ldbu	r2,100(r2)
  800bf8:	10803fcc 	andi	r2,r2,255
  800bfc:	1080201c 	xori	r2,r2,128
  800c00:	10bfe004 	addi	r2,r2,-128
  800c04:	1000061e 	bne	r2,zero,800c20 <logic+0x614>
  800c08:	e0bffc17 	ldw	r2,-16(fp)
  800c0c:	10801943 	ldbu	r2,101(r2)
  800c10:	10803fcc 	andi	r2,r2,255
  800c14:	1080201c 	xori	r2,r2,128
  800c18:	10bfe004 	addi	r2,r2,-128
  800c1c:	10000226 	beq	r2,zero,800c28 <logic+0x61c>
  800c20:	00800044 	movi	r2,1
  800c24:	00000106 	br	800c2c <logic+0x620>
  800c28:	0005883a 	mov	r2,zero
  800c2c:	1007883a 	mov	r3,r2
  800c30:	e0bffc17 	ldw	r2,-16(fp)
  800c34:	10c03785 	stb	r3,222(r2)
  d->_g14 = d->_g19 && !d->_cg14;
  800c38:	e0bffc17 	ldw	r2,-16(fp)
  800c3c:	10801dc3 	ldbu	r2,119(r2)
  800c40:	10803fcc 	andi	r2,r2,255
  800c44:	1080201c 	xori	r2,r2,128
  800c48:	10bfe004 	addi	r2,r2,-128
  800c4c:	10000826 	beq	r2,zero,800c70 <logic+0x664>
  800c50:	e0bffc17 	ldw	r2,-16(fp)
  800c54:	108037c3 	ldbu	r2,223(r2)
  800c58:	10803fcc 	andi	r2,r2,255
  800c5c:	1080201c 	xori	r2,r2,128
  800c60:	10bfe004 	addi	r2,r2,-128
  800c64:	1000021e 	bne	r2,zero,800c70 <logic+0x664>
  800c68:	00800044 	movi	r2,1
  800c6c:	00000106 	br	800c74 <logic+0x668>
  800c70:	0005883a 	mov	r2,zero
  800c74:	1007883a 	mov	r3,r2
  800c78:	e0bffc17 	ldw	r2,-16(fp)
  800c7c:	10c01cc5 	stb	r3,115(r2)
  d->_cg17 = d->_Pacemaker_local__Atrig || d->_Pacemaker_local__Atrig1;
  800c80:	e0bffc17 	ldw	r2,-16(fp)
  800c84:	10801903 	ldbu	r2,100(r2)
  800c88:	10803fcc 	andi	r2,r2,255
  800c8c:	1080201c 	xori	r2,r2,128
  800c90:	10bfe004 	addi	r2,r2,-128
  800c94:	1000061e 	bne	r2,zero,800cb0 <logic+0x6a4>
  800c98:	e0bffc17 	ldw	r2,-16(fp)
  800c9c:	10801943 	ldbu	r2,101(r2)
  800ca0:	10803fcc 	andi	r2,r2,255
  800ca4:	1080201c 	xori	r2,r2,128
  800ca8:	10bfe004 	addi	r2,r2,-128
  800cac:	10000226 	beq	r2,zero,800cb8 <logic+0x6ac>
  800cb0:	00800044 	movi	r2,1
  800cb4:	00000106 	br	800cbc <logic+0x6b0>
  800cb8:	0005883a 	mov	r2,zero
  800cbc:	1007883a 	mov	r3,r2
  800cc0:	e0bffc17 	ldw	r2,-16(fp)
  800cc4:	10c03805 	stb	r3,224(r2)
  d->_g16 = d->_g13 && d->_cg15 || d->_g14 && d->_cg17;
  800cc8:	e0bffc17 	ldw	r2,-16(fp)
  800ccc:	10801c83 	ldbu	r2,114(r2)
  800cd0:	10803fcc 	andi	r2,r2,255
  800cd4:	1080201c 	xori	r2,r2,128
  800cd8:	10bfe004 	addi	r2,r2,-128
  800cdc:	10000626 	beq	r2,zero,800cf8 <logic+0x6ec>
  800ce0:	e0bffc17 	ldw	r2,-16(fp)
  800ce4:	10803783 	ldbu	r2,222(r2)
  800ce8:	10803fcc 	andi	r2,r2,255
  800cec:	1080201c 	xori	r2,r2,128
  800cf0:	10bfe004 	addi	r2,r2,-128
  800cf4:	10000c1e 	bne	r2,zero,800d28 <logic+0x71c>
  800cf8:	e0bffc17 	ldw	r2,-16(fp)
  800cfc:	10801cc3 	ldbu	r2,115(r2)
  800d00:	10803fcc 	andi	r2,r2,255
  800d04:	1080201c 	xori	r2,r2,128
  800d08:	10bfe004 	addi	r2,r2,-128
  800d0c:	10000826 	beq	r2,zero,800d30 <logic+0x724>
  800d10:	e0bffc17 	ldw	r2,-16(fp)
  800d14:	10803803 	ldbu	r2,224(r2)
  800d18:	10803fcc 	andi	r2,r2,255
  800d1c:	1080201c 	xori	r2,r2,128
  800d20:	10bfe004 	addi	r2,r2,-128
  800d24:	10000226 	beq	r2,zero,800d30 <logic+0x724>
  800d28:	00800044 	movi	r2,1
  800d2c:	00000106 	br	800d34 <logic+0x728>
  800d30:	0005883a 	mov	r2,zero
  800d34:	1007883a 	mov	r3,r2
  800d38:	e0bffc17 	ldw	r2,-16(fp)
  800d3c:	10c01d45 	stb	r3,117(r2)
  d->_g23 = !d->_g23;
  800d40:	e0bffc17 	ldw	r2,-16(fp)
  800d44:	10801e43 	ldbu	r2,121(r2)
  800d48:	10803fcc 	andi	r2,r2,255
  800d4c:	1080201c 	xori	r2,r2,128
  800d50:	10bfe004 	addi	r2,r2,-128
  800d54:	1005003a 	cmpeq	r2,r2,zero
  800d58:	1007883a 	mov	r3,r2
  800d5c:	e0bffc17 	ldw	r2,-16(fp)
  800d60:	10c01e45 	stb	r3,121(r2)
  d->_g27 = d->_g24 || d->_g27;
  800d64:	e0bffc17 	ldw	r2,-16(fp)
  800d68:	10801e83 	ldbu	r2,122(r2)
  800d6c:	10803fcc 	andi	r2,r2,255
  800d70:	1080201c 	xori	r2,r2,128
  800d74:	10bfe004 	addi	r2,r2,-128
  800d78:	1000061e 	bne	r2,zero,800d94 <logic+0x788>
  800d7c:	e0bffc17 	ldw	r2,-16(fp)
  800d80:	10801f43 	ldbu	r2,125(r2)
  800d84:	10803fcc 	andi	r2,r2,255
  800d88:	1080201c 	xori	r2,r2,128
  800d8c:	10bfe004 	addi	r2,r2,-128
  800d90:	10000226 	beq	r2,zero,800d9c <logic+0x790>
  800d94:	00800044 	movi	r2,1
  800d98:	00000106 	br	800da0 <logic+0x794>
  800d9c:	0005883a 	mov	r2,zero
  800da0:	1007883a 	mov	r3,r2
  800da4:	e0bffc17 	ldw	r2,-16(fp)
  800da8:	10c01f45 	stb	r3,125(r2)
  d->_g24 = (d->_g9_e1 || d->_g9) && (d->_g16_e2 || d->_g16) && (d->_g23 || d->_g27) && (d->_g9 || d->_g16 || d->_g27);
  800dac:	e0bffc17 	ldw	r2,-16(fp)
  800db0:	10804383 	ldbu	r2,270(r2)
  800db4:	10803fcc 	andi	r2,r2,255
  800db8:	1080201c 	xori	r2,r2,128
  800dbc:	10bfe004 	addi	r2,r2,-128
  800dc0:	1000061e 	bne	r2,zero,800ddc <logic+0x7d0>
  800dc4:	e0bffc17 	ldw	r2,-16(fp)
  800dc8:	10801c03 	ldbu	r2,112(r2)
  800dcc:	10803fcc 	andi	r2,r2,255
  800dd0:	1080201c 	xori	r2,r2,128
  800dd4:	10bfe004 	addi	r2,r2,-128
  800dd8:	10002c26 	beq	r2,zero,800e8c <logic+0x880>
  800ddc:	e0bffc17 	ldw	r2,-16(fp)
  800de0:	108043c3 	ldbu	r2,271(r2)
  800de4:	10803fcc 	andi	r2,r2,255
  800de8:	1080201c 	xori	r2,r2,128
  800dec:	10bfe004 	addi	r2,r2,-128
  800df0:	1000061e 	bne	r2,zero,800e0c <logic+0x800>
  800df4:	e0bffc17 	ldw	r2,-16(fp)
  800df8:	10801d43 	ldbu	r2,117(r2)
  800dfc:	10803fcc 	andi	r2,r2,255
  800e00:	1080201c 	xori	r2,r2,128
  800e04:	10bfe004 	addi	r2,r2,-128
  800e08:	10002026 	beq	r2,zero,800e8c <logic+0x880>
  800e0c:	e0bffc17 	ldw	r2,-16(fp)
  800e10:	10801e43 	ldbu	r2,121(r2)
  800e14:	10803fcc 	andi	r2,r2,255
  800e18:	1080201c 	xori	r2,r2,128
  800e1c:	10bfe004 	addi	r2,r2,-128
  800e20:	1000061e 	bne	r2,zero,800e3c <logic+0x830>
  800e24:	e0bffc17 	ldw	r2,-16(fp)
  800e28:	10801f43 	ldbu	r2,125(r2)
  800e2c:	10803fcc 	andi	r2,r2,255
  800e30:	1080201c 	xori	r2,r2,128
  800e34:	10bfe004 	addi	r2,r2,-128
  800e38:	10001426 	beq	r2,zero,800e8c <logic+0x880>
  800e3c:	e0bffc17 	ldw	r2,-16(fp)
  800e40:	10801c03 	ldbu	r2,112(r2)
  800e44:	10803fcc 	andi	r2,r2,255
  800e48:	1080201c 	xori	r2,r2,128
  800e4c:	10bfe004 	addi	r2,r2,-128
  800e50:	10000c1e 	bne	r2,zero,800e84 <logic+0x878>
  800e54:	e0bffc17 	ldw	r2,-16(fp)
  800e58:	10801d43 	ldbu	r2,117(r2)
  800e5c:	10803fcc 	andi	r2,r2,255
  800e60:	1080201c 	xori	r2,r2,128
  800e64:	10bfe004 	addi	r2,r2,-128
  800e68:	1000061e 	bne	r2,zero,800e84 <logic+0x878>
  800e6c:	e0bffc17 	ldw	r2,-16(fp)
  800e70:	10801f43 	ldbu	r2,125(r2)
  800e74:	10803fcc 	andi	r2,r2,255
  800e78:	1080201c 	xori	r2,r2,128
  800e7c:	10bfe004 	addi	r2,r2,-128
  800e80:	10000226 	beq	r2,zero,800e8c <logic+0x880>
  800e84:	00800044 	movi	r2,1
  800e88:	00000106 	br	800e90 <logic+0x884>
  800e8c:	0005883a 	mov	r2,zero
  800e90:	1007883a 	mov	r3,r2
  800e94:	e0bffc17 	ldw	r2,-16(fp)
  800e98:	10c01e85 	stb	r3,122(r2)
  d->_cg28 = d->_Pacemaker_local__Atrig;
  800e9c:	e0bffc17 	ldw	r2,-16(fp)
  800ea0:	10c01903 	ldbu	r3,100(r2)
  800ea4:	e0bffc17 	ldw	r2,-16(fp)
  800ea8:	10c03605 	stb	r3,216(r2)
  d->_g16_e2 = d->_g24 && d->_cg28;
  800eac:	e0bffc17 	ldw	r2,-16(fp)
  800eb0:	10801e83 	ldbu	r2,122(r2)
  800eb4:	10803fcc 	andi	r2,r2,255
  800eb8:	1080201c 	xori	r2,r2,128
  800ebc:	10bfe004 	addi	r2,r2,-128
  800ec0:	10000826 	beq	r2,zero,800ee4 <logic+0x8d8>
  800ec4:	e0bffc17 	ldw	r2,-16(fp)
  800ec8:	10803603 	ldbu	r2,216(r2)
  800ecc:	10803fcc 	andi	r2,r2,255
  800ed0:	1080201c 	xori	r2,r2,128
  800ed4:	10bfe004 	addi	r2,r2,-128
  800ed8:	10000226 	beq	r2,zero,800ee4 <logic+0x8d8>
  800edc:	00800044 	movi	r2,1
  800ee0:	00000106 	br	800ee8 <logic+0x8dc>
  800ee4:	0005883a 	mov	r2,zero
  800ee8:	1007883a 	mov	r3,r2
  800eec:	e0bffc17 	ldw	r2,-16(fp)
  800ef0:	10c043c5 	stb	r3,271(r2)
  if (d->_g16_e2) {
  800ef4:	e0bffc17 	ldw	r2,-16(fp)
  800ef8:	108043c3 	ldbu	r2,271(r2)
  800efc:	10803fcc 	andi	r2,r2,255
  800f00:	1080201c 	xori	r2,r2,128
  800f04:	10bfe004 	addi	r2,r2,-128
  800f08:	10000626 	beq	r2,zero,800f24 <logic+0x918>
    d->VP |= 1;
  800f0c:	e0bffc17 	ldw	r2,-16(fp)
  800f10:	10801743 	ldbu	r2,93(r2)
  800f14:	10800054 	ori	r2,r2,1
  800f18:	1007883a 	mov	r3,r2
  800f1c:	e0bffc17 	ldw	r2,-16(fp)
  800f20:	10c01745 	stb	r3,93(r2)
  }
  d->_g9 = d->_pg131;
  800f24:	e0bffc17 	ldw	r2,-16(fp)
  800f28:	10c049c3 	ldbu	r3,295(r2)
  800f2c:	e0bffc17 	ldw	r2,-16(fp)
  800f30:	10c01c05 	stb	r3,112(r2)
  if (d->_g9) {
  800f34:	e0bffc17 	ldw	r2,-16(fp)
  800f38:	10801c03 	ldbu	r2,112(r2)
  800f3c:	10803fcc 	andi	r2,r2,255
  800f40:	1080201c 	xori	r2,r2,128
  800f44:	10bfe004 	addi	r2,r2,-128
  800f48:	10000626 	beq	r2,zero,800f64 <logic+0x958>
    d->PVARP |= 1;
  800f4c:	e0bffc17 	ldw	r2,-16(fp)
  800f50:	108017c3 	ldbu	r2,95(r2)
  800f54:	10800054 	ori	r2,r2,1
  800f58:	1007883a 	mov	r3,r2
  800f5c:	e0bffc17 	ldw	r2,-16(fp)
  800f60:	10c017c5 	stb	r3,95(r2)
  }
  d->_g16 = d->_pg67;
  800f64:	e0bffc17 	ldw	r2,-16(fp)
  800f68:	10c04a03 	ldbu	r3,296(r2)
  800f6c:	e0bffc17 	ldw	r2,-16(fp)
  800f70:	10c01d45 	stb	r3,117(r2)
  d->_g9_e1 = !d->_g16;
  800f74:	e0bffc17 	ldw	r2,-16(fp)
  800f78:	10801d43 	ldbu	r2,117(r2)
  800f7c:	10803fcc 	andi	r2,r2,255
  800f80:	1080201c 	xori	r2,r2,128
  800f84:	10bfe004 	addi	r2,r2,-128
  800f88:	1005003a 	cmpeq	r2,r2,zero
  800f8c:	1007883a 	mov	r3,r2
  800f90:	e0bffc17 	ldw	r2,-16(fp)
  800f94:	10c04385 	stb	r3,270(r2)
  if (d->_g16) {
  800f98:	e0bffc17 	ldw	r2,-16(fp)
  800f9c:	10801d43 	ldbu	r2,117(r2)
  800fa0:	10803fcc 	andi	r2,r2,255
  800fa4:	1080201c 	xori	r2,r2,128
  800fa8:	10bfe004 	addi	r2,r2,-128
  800fac:	10000626 	beq	r2,zero,800fc8 <logic+0x9bc>
    d->AEI |= 1;
  800fb0:	e0bffc17 	ldw	r2,-16(fp)
  800fb4:	10801843 	ldbu	r2,97(r2)
  800fb8:	10800054 	ori	r2,r2,1
  800fbc:	1007883a 	mov	r3,r2
  800fc0:	e0bffc17 	ldw	r2,-16(fp)
  800fc4:	10c01845 	stb	r3,97(r2)
  }
  d->_g25 = d->_pg158;
  800fc8:	e0bffc17 	ldw	r2,-16(fp)
  800fcc:	10c04a43 	ldbu	r3,297(r2)
  800fd0:	e0bffc17 	ldw	r2,-16(fp)
  800fd4:	10c01ec5 	stb	r3,123(r2)
  if (d->_g25) {
  800fd8:	e0bffc17 	ldw	r2,-16(fp)
  800fdc:	10801ec3 	ldbu	r2,123(r2)
  800fe0:	10803fcc 	andi	r2,r2,255
  800fe4:	1080201c 	xori	r2,r2,128
  800fe8:	10bfe004 	addi	r2,r2,-128
  800fec:	10001226 	beq	r2,zero,801038 <logic+0xa2c>
    d->_region3_AEI_cAEI += d->deltaT;
  800ff0:	e13ffc17 	ldw	r4,-16(fp)
  800ff4:	20800d17 	ldw	r2,52(r4)
  800ff8:	20c00e17 	ldw	r3,56(r4)
  800ffc:	e1bffc17 	ldw	r6,-16(fp)
  801000:	31001317 	ldw	r4,76(r6)
  801004:	31401417 	ldw	r5,80(r6)
  801008:	200d883a 	mov	r6,r4
  80100c:	280f883a 	mov	r7,r5
  801010:	1009883a 	mov	r4,r2
  801014:	180b883a 	mov	r5,r3
  801018:	08056500 	call	805650 <__adddf3>
  80101c:	1009883a 	mov	r4,r2
  801020:	180b883a 	mov	r5,r3
  801024:	2005883a 	mov	r2,r4
  801028:	2807883a 	mov	r3,r5
  80102c:	e13ffc17 	ldw	r4,-16(fp)
  801030:	20800d15 	stw	r2,52(r4)
  801034:	20c00e15 	stw	r3,56(r4)
  }
  d->_g25_e3 = d->_pg106;
  801038:	e0bffc17 	ldw	r2,-16(fp)
  80103c:	10c04a83 	ldbu	r3,298(r2)
  801040:	e0bffc17 	ldw	r2,-16(fp)
  801044:	10c04405 	stb	r3,272(r2)
  d->_cg100 = d->_region3_AEI_cAEI >= d->AEI_Constraint;
  801048:	e0bffc17 	ldw	r2,-16(fp)
  80104c:	14000d17 	ldw	r16,52(r2)
  801050:	14400e17 	ldw	r17,56(r2)
  801054:	e0bffc17 	ldw	r2,-16(fp)
  801058:	10800417 	ldw	r2,16(r2)
  80105c:	1009883a 	mov	r4,r2
  801060:	08069c80 	call	8069c8 <__floatsidf>
  801064:	1009883a 	mov	r4,r2
  801068:	180b883a 	mov	r5,r3
  80106c:	04800044 	movi	r18,1
  801070:	200d883a 	mov	r6,r4
  801074:	280f883a 	mov	r7,r5
  801078:	8009883a 	mov	r4,r16
  80107c:	880b883a 	mov	r5,r17
  801080:	0805efc0 	call	805efc <__gedf2>
  801084:	1000010e 	bge	r2,zero,80108c <logic+0xa80>
  801088:	0025883a 	mov	r18,zero
  80108c:	9007883a 	mov	r3,r18
  801090:	e0bffc17 	ldw	r2,-16(fp)
  801094:	10c03ec5 	stb	r3,251(r2)
  d->_g101 = d->_g25_e3 && d->_cg100;
  801098:	e0bffc17 	ldw	r2,-16(fp)
  80109c:	10804403 	ldbu	r2,272(r2)
  8010a0:	10803fcc 	andi	r2,r2,255
  8010a4:	1080201c 	xori	r2,r2,128
  8010a8:	10bfe004 	addi	r2,r2,-128
  8010ac:	10000826 	beq	r2,zero,8010d0 <logic+0xac4>
  8010b0:	e0bffc17 	ldw	r2,-16(fp)
  8010b4:	10803ec3 	ldbu	r2,251(r2)
  8010b8:	10803fcc 	andi	r2,r2,255
  8010bc:	1080201c 	xori	r2,r2,128
  8010c0:	10bfe004 	addi	r2,r2,-128
  8010c4:	10000226 	beq	r2,zero,8010d0 <logic+0xac4>
  8010c8:	00800044 	movi	r2,1
  8010cc:	00000106 	br	8010d4 <logic+0xac8>
  8010d0:	0005883a 	mov	r2,zero
  8010d4:	1007883a 	mov	r3,r2
  8010d8:	e0bffc17 	ldw	r2,-16(fp)
  8010dc:	10c02b45 	stb	r3,173(r2)
  if (d->_g101) {
  8010e0:	e0bffc17 	ldw	r2,-16(fp)
  8010e4:	10802b43 	ldbu	r2,173(r2)
  8010e8:	10803fcc 	andi	r2,r2,255
  8010ec:	1080201c 	xori	r2,r2,128
  8010f0:	10bfe004 	addi	r2,r2,-128
  8010f4:	10000326 	beq	r2,zero,801104 <logic+0xaf8>
    d->_Pacemaker_local__Atrig4 = 1;
  8010f8:	e0bffc17 	ldw	r2,-16(fp)
  8010fc:	00c00044 	movi	r3,1
  801100:	10c01a05 	stb	r3,104(r2)
  }
  d->_g103 = d->_g25_e3 && !d->_cg100;
  801104:	e0bffc17 	ldw	r2,-16(fp)
  801108:	10804403 	ldbu	r2,272(r2)
  80110c:	10803fcc 	andi	r2,r2,255
  801110:	1080201c 	xori	r2,r2,128
  801114:	10bfe004 	addi	r2,r2,-128
  801118:	10000826 	beq	r2,zero,80113c <logic+0xb30>
  80111c:	e0bffc17 	ldw	r2,-16(fp)
  801120:	10803ec3 	ldbu	r2,251(r2)
  801124:	10803fcc 	andi	r2,r2,255
  801128:	1080201c 	xori	r2,r2,128
  80112c:	10bfe004 	addi	r2,r2,-128
  801130:	1000021e 	bne	r2,zero,80113c <logic+0xb30>
  801134:	00800044 	movi	r2,1
  801138:	00000106 	br	801140 <logic+0xb34>
  80113c:	0005883a 	mov	r2,zero
  801140:	1007883a 	mov	r3,r2
  801144:	e0bffc17 	ldw	r2,-16(fp)
  801148:	10c02bc5 	stb	r3,175(r2)
  d->_cg103 = d->AS && !d->PVARP;
  80114c:	e0bffc17 	ldw	r2,-16(fp)
  801150:	10800003 	ldbu	r2,0(r2)
  801154:	10803fcc 	andi	r2,r2,255
  801158:	1080201c 	xori	r2,r2,128
  80115c:	10bfe004 	addi	r2,r2,-128
  801160:	10000826 	beq	r2,zero,801184 <logic+0xb78>
  801164:	e0bffc17 	ldw	r2,-16(fp)
  801168:	108017c3 	ldbu	r2,95(r2)
  80116c:	10803fcc 	andi	r2,r2,255
  801170:	1080201c 	xori	r2,r2,128
  801174:	10bfe004 	addi	r2,r2,-128
  801178:	1000021e 	bne	r2,zero,801184 <logic+0xb78>
  80117c:	00800044 	movi	r2,1
  801180:	00000106 	br	801188 <logic+0xb7c>
  801184:	0005883a 	mov	r2,zero
  801188:	1007883a 	mov	r3,r2
  80118c:	e0bffc17 	ldw	r2,-16(fp)
  801190:	10c03e85 	stb	r3,250(r2)
  d->_g104 = d->_g103 && d->_cg103;
  801194:	e0bffc17 	ldw	r2,-16(fp)
  801198:	10802bc3 	ldbu	r2,175(r2)
  80119c:	10803fcc 	andi	r2,r2,255
  8011a0:	1080201c 	xori	r2,r2,128
  8011a4:	10bfe004 	addi	r2,r2,-128
  8011a8:	10000826 	beq	r2,zero,8011cc <logic+0xbc0>
  8011ac:	e0bffc17 	ldw	r2,-16(fp)
  8011b0:	10803e83 	ldbu	r2,250(r2)
  8011b4:	10803fcc 	andi	r2,r2,255
  8011b8:	1080201c 	xori	r2,r2,128
  8011bc:	10bfe004 	addi	r2,r2,-128
  8011c0:	10000226 	beq	r2,zero,8011cc <logic+0xbc0>
  8011c4:	00800044 	movi	r2,1
  8011c8:	00000106 	br	8011d0 <logic+0xbc4>
  8011cc:	0005883a 	mov	r2,zero
  8011d0:	1007883a 	mov	r3,r2
  8011d4:	e0bffc17 	ldw	r2,-16(fp)
  8011d8:	10c02c05 	stb	r3,176(r2)
  if (d->_g104) {
  8011dc:	e0bffc17 	ldw	r2,-16(fp)
  8011e0:	10802c03 	ldbu	r2,176(r2)
  8011e4:	10803fcc 	andi	r2,r2,255
  8011e8:	1080201c 	xori	r2,r2,128
  8011ec:	10bfe004 	addi	r2,r2,-128
  8011f0:	10000326 	beq	r2,zero,801200 <logic+0xbf4>
    d->_Pacemaker_local__Atrig5 = 1;
  8011f4:	e0bffc17 	ldw	r2,-16(fp)
  8011f8:	00c00044 	movi	r3,1
  8011fc:	10c01a45 	stb	r3,105(r2)
  }
  d->_cg85 = d->_Pacemaker_local__Atrig4 || d->_Pacemaker_local__Atrig5;
  801200:	e0bffc17 	ldw	r2,-16(fp)
  801204:	10801a03 	ldbu	r2,104(r2)
  801208:	10803fcc 	andi	r2,r2,255
  80120c:	1080201c 	xori	r2,r2,128
  801210:	10bfe004 	addi	r2,r2,-128
  801214:	1000061e 	bne	r2,zero,801230 <logic+0xc24>
  801218:	e0bffc17 	ldw	r2,-16(fp)
  80121c:	10801a43 	ldbu	r2,105(r2)
  801220:	10803fcc 	andi	r2,r2,255
  801224:	1080201c 	xori	r2,r2,128
  801228:	10bfe004 	addi	r2,r2,-128
  80122c:	10000226 	beq	r2,zero,801238 <logic+0xc2c>
  801230:	00800044 	movi	r2,1
  801234:	00000106 	br	80123c <logic+0xc30>
  801238:	0005883a 	mov	r2,zero
  80123c:	1007883a 	mov	r3,r2
  801240:	e0bffc17 	ldw	r2,-16(fp)
  801244:	10c03cc5 	stb	r3,243(r2)
  d->_g86 = d->_g16 && d->_cg85;
  801248:	e0bffc17 	ldw	r2,-16(fp)
  80124c:	10801d43 	ldbu	r2,117(r2)
  801250:	10803fcc 	andi	r2,r2,255
  801254:	1080201c 	xori	r2,r2,128
  801258:	10bfe004 	addi	r2,r2,-128
  80125c:	10000826 	beq	r2,zero,801280 <logic+0xc74>
  801260:	e0bffc17 	ldw	r2,-16(fp)
  801264:	10803cc3 	ldbu	r2,243(r2)
  801268:	10803fcc 	andi	r2,r2,255
  80126c:	1080201c 	xori	r2,r2,128
  801270:	10bfe004 	addi	r2,r2,-128
  801274:	10000226 	beq	r2,zero,801280 <logic+0xc74>
  801278:	00800044 	movi	r2,1
  80127c:	00000106 	br	801284 <logic+0xc78>
  801280:	0005883a 	mov	r2,zero
  801284:	1007883a 	mov	r3,r2
  801288:	e0bffc17 	ldw	r2,-16(fp)
  80128c:	10c028c5 	stb	r3,163(r2)
  d->_g96 = d->_pg105;
  801290:	e0bffc17 	ldw	r2,-16(fp)
  801294:	10c04ac3 	ldbu	r3,299(r2)
  801298:	e0bffc17 	ldw	r2,-16(fp)
  80129c:	10c02a85 	stb	r3,170(r2)
  d->_g90 = d->_pg77;
  8012a0:	e0bffc17 	ldw	r2,-16(fp)
  8012a4:	10c04b03 	ldbu	r3,300(r2)
  8012a8:	e0bffc17 	ldw	r2,-16(fp)
  8012ac:	10c02945 	stb	r3,165(r2)
  d->_g93_e2 = !(d->_g96 || d->_g90);
  8012b0:	e0bffc17 	ldw	r2,-16(fp)
  8012b4:	10802a83 	ldbu	r2,170(r2)
  8012b8:	10803fcc 	andi	r2,r2,255
  8012bc:	1080201c 	xori	r2,r2,128
  8012c0:	10bfe004 	addi	r2,r2,-128
  8012c4:	1000081e 	bne	r2,zero,8012e8 <logic+0xcdc>
  8012c8:	e0bffc17 	ldw	r2,-16(fp)
  8012cc:	10802943 	ldbu	r2,165(r2)
  8012d0:	10803fcc 	andi	r2,r2,255
  8012d4:	1080201c 	xori	r2,r2,128
  8012d8:	10bfe004 	addi	r2,r2,-128
  8012dc:	1000021e 	bne	r2,zero,8012e8 <logic+0xcdc>
  8012e0:	00800044 	movi	r2,1
  8012e4:	00000106 	br	8012ec <logic+0xce0>
  8012e8:	0005883a 	mov	r2,zero
  8012ec:	1007883a 	mov	r3,r2
  8012f0:	e0bffc17 	ldw	r2,-16(fp)
  8012f4:	10c04605 	stb	r3,280(r2)
  d->_g96 = d->_g90 || d->_g96;
  8012f8:	e0bffc17 	ldw	r2,-16(fp)
  8012fc:	10802943 	ldbu	r2,165(r2)
  801300:	10803fcc 	andi	r2,r2,255
  801304:	1080201c 	xori	r2,r2,128
  801308:	10bfe004 	addi	r2,r2,-128
  80130c:	1000061e 	bne	r2,zero,801328 <logic+0xd1c>
  801310:	e0bffc17 	ldw	r2,-16(fp)
  801314:	10802a83 	ldbu	r2,170(r2)
  801318:	10803fcc 	andi	r2,r2,255
  80131c:	1080201c 	xori	r2,r2,128
  801320:	10bfe004 	addi	r2,r2,-128
  801324:	10000226 	beq	r2,zero,801330 <logic+0xd24>
  801328:	00800044 	movi	r2,1
  80132c:	00000106 	br	801334 <logic+0xd28>
  801330:	0005883a 	mov	r2,zero
  801334:	1007883a 	mov	r3,r2
  801338:	e0bffc17 	ldw	r2,-16(fp)
  80133c:	10c02a85 	stb	r3,170(r2)
  d->_cg91 = d->_region3_AEI_cAEI < d->AEI_Constraint;
  801340:	e0bffc17 	ldw	r2,-16(fp)
  801344:	14000d17 	ldw	r16,52(r2)
  801348:	14400e17 	ldw	r17,56(r2)
  80134c:	e0bffc17 	ldw	r2,-16(fp)
  801350:	10800417 	ldw	r2,16(r2)
  801354:	1009883a 	mov	r4,r2
  801358:	08069c80 	call	8069c8 <__floatsidf>
  80135c:	1009883a 	mov	r4,r2
  801360:	180b883a 	mov	r5,r3
  801364:	04800044 	movi	r18,1
  801368:	200d883a 	mov	r6,r4
  80136c:	280f883a 	mov	r7,r5
  801370:	8009883a 	mov	r4,r16
  801374:	880b883a 	mov	r5,r17
  801378:	0805fd80 	call	805fd8 <__ledf2>
  80137c:	10000116 	blt	r2,zero,801384 <logic+0xd78>
  801380:	0025883a 	mov	r18,zero
  801384:	9007883a 	mov	r3,r18
  801388:	e0bffc17 	ldw	r2,-16(fp)
  80138c:	10c03dc5 	stb	r3,247(r2)
  d->_g90 = d->_g96 && d->_cg91;
  801390:	e0bffc17 	ldw	r2,-16(fp)
  801394:	10802a83 	ldbu	r2,170(r2)
  801398:	10803fcc 	andi	r2,r2,255
  80139c:	1080201c 	xori	r2,r2,128
  8013a0:	10bfe004 	addi	r2,r2,-128
  8013a4:	10000826 	beq	r2,zero,8013c8 <logic+0xdbc>
  8013a8:	e0bffc17 	ldw	r2,-16(fp)
  8013ac:	10803dc3 	ldbu	r2,247(r2)
  8013b0:	10803fcc 	andi	r2,r2,255
  8013b4:	1080201c 	xori	r2,r2,128
  8013b8:	10bfe004 	addi	r2,r2,-128
  8013bc:	10000226 	beq	r2,zero,8013c8 <logic+0xdbc>
  8013c0:	00800044 	movi	r2,1
  8013c4:	00000106 	br	8013cc <logic+0xdc0>
  8013c8:	0005883a 	mov	r2,zero
  8013cc:	1007883a 	mov	r3,r2
  8013d0:	e0bffc17 	ldw	r2,-16(fp)
  8013d4:	10c02945 	stb	r3,165(r2)
  if (d->_g90) {
  8013d8:	e0bffc17 	ldw	r2,-16(fp)
  8013dc:	10802943 	ldbu	r2,165(r2)
  8013e0:	10803fcc 	andi	r2,r2,255
  8013e4:	1080201c 	xori	r2,r2,128
  8013e8:	10bfe004 	addi	r2,r2,-128
  8013ec:	10003426 	beq	r2,zero,8014c0 <logic+0xeb4>
    d->sleepT = (d->sleepT < (d->AEI_Constraint - d->_region3_AEI_cAEI)) ? d->sleepT : (d->AEI_Constraint - d->_region3_AEI_cAEI);
  8013f0:	e0bffc17 	ldw	r2,-16(fp)
  8013f4:	14001517 	ldw	r16,84(r2)
  8013f8:	14401617 	ldw	r17,88(r2)
  8013fc:	e0bffc17 	ldw	r2,-16(fp)
  801400:	10800417 	ldw	r2,16(r2)
  801404:	1009883a 	mov	r4,r2
  801408:	08069c80 	call	8069c8 <__floatsidf>
  80140c:	1011883a 	mov	r8,r2
  801410:	1813883a 	mov	r9,r3
  801414:	e13ffc17 	ldw	r4,-16(fp)
  801418:	20800d17 	ldw	r2,52(r4)
  80141c:	20c00e17 	ldw	r3,56(r4)
  801420:	100d883a 	mov	r6,r2
  801424:	180f883a 	mov	r7,r3
  801428:	4009883a 	mov	r4,r8
  80142c:	480b883a 	mov	r5,r9
  801430:	08060cc0 	call	8060cc <__subdf3>
  801434:	1009883a 	mov	r4,r2
  801438:	180b883a 	mov	r5,r3
  80143c:	2005883a 	mov	r2,r4
  801440:	2807883a 	mov	r3,r5
  801444:	100d883a 	mov	r6,r2
  801448:	180f883a 	mov	r7,r3
  80144c:	8009883a 	mov	r4,r16
  801450:	880b883a 	mov	r5,r17
  801454:	0805fd80 	call	805fd8 <__ledf2>
  801458:	1000040e 	bge	r2,zero,80146c <logic+0xe60>
  80145c:	e13ffc17 	ldw	r4,-16(fp)
  801460:	20801517 	ldw	r2,84(r4)
  801464:	20c01617 	ldw	r3,88(r4)
  801468:	00001206 	br	8014b4 <logic+0xea8>
  80146c:	e0bffc17 	ldw	r2,-16(fp)
  801470:	10800417 	ldw	r2,16(r2)
  801474:	1009883a 	mov	r4,r2
  801478:	08069c80 	call	8069c8 <__floatsidf>
  80147c:	1011883a 	mov	r8,r2
  801480:	1813883a 	mov	r9,r3
  801484:	e13ffc17 	ldw	r4,-16(fp)
  801488:	20800d17 	ldw	r2,52(r4)
  80148c:	20c00e17 	ldw	r3,56(r4)
  801490:	100d883a 	mov	r6,r2
  801494:	180f883a 	mov	r7,r3
  801498:	4009883a 	mov	r4,r8
  80149c:	480b883a 	mov	r5,r9
  8014a0:	08060cc0 	call	8060cc <__subdf3>
  8014a4:	1009883a 	mov	r4,r2
  8014a8:	180b883a 	mov	r5,r3
  8014ac:	2005883a 	mov	r2,r4
  8014b0:	2807883a 	mov	r3,r5
  8014b4:	e13ffc17 	ldw	r4,-16(fp)
  8014b8:	20801515 	stw	r2,84(r4)
  8014bc:	20c01615 	stw	r3,88(r4)
  }
  d->_cg92 = d->_Pacemaker_local__Atrig4 || d->_Pacemaker_local__Atrig5;
  8014c0:	e0bffc17 	ldw	r2,-16(fp)
  8014c4:	10801a03 	ldbu	r2,104(r2)
  8014c8:	10803fcc 	andi	r2,r2,255
  8014cc:	1080201c 	xori	r2,r2,128
  8014d0:	10bfe004 	addi	r2,r2,-128
  8014d4:	1000061e 	bne	r2,zero,8014f0 <logic+0xee4>
  8014d8:	e0bffc17 	ldw	r2,-16(fp)
  8014dc:	10801a43 	ldbu	r2,105(r2)
  8014e0:	10803fcc 	andi	r2,r2,255
  8014e4:	1080201c 	xori	r2,r2,128
  8014e8:	10bfe004 	addi	r2,r2,-128
  8014ec:	10000226 	beq	r2,zero,8014f8 <logic+0xeec>
  8014f0:	00800044 	movi	r2,1
  8014f4:	00000106 	br	8014fc <logic+0xef0>
  8014f8:	0005883a 	mov	r2,zero
  8014fc:	1007883a 	mov	r3,r2
  801500:	e0bffc17 	ldw	r2,-16(fp)
  801504:	10c03d85 	stb	r3,246(r2)
  d->_g91 = d->_g96 && !d->_cg91;
  801508:	e0bffc17 	ldw	r2,-16(fp)
  80150c:	10802a83 	ldbu	r2,170(r2)
  801510:	10803fcc 	andi	r2,r2,255
  801514:	1080201c 	xori	r2,r2,128
  801518:	10bfe004 	addi	r2,r2,-128
  80151c:	10000826 	beq	r2,zero,801540 <logic+0xf34>
  801520:	e0bffc17 	ldw	r2,-16(fp)
  801524:	10803dc3 	ldbu	r2,247(r2)
  801528:	10803fcc 	andi	r2,r2,255
  80152c:	1080201c 	xori	r2,r2,128
  801530:	10bfe004 	addi	r2,r2,-128
  801534:	1000021e 	bne	r2,zero,801540 <logic+0xf34>
  801538:	00800044 	movi	r2,1
  80153c:	00000106 	br	801544 <logic+0xf38>
  801540:	0005883a 	mov	r2,zero
  801544:	1007883a 	mov	r3,r2
  801548:	e0bffc17 	ldw	r2,-16(fp)
  80154c:	10c02985 	stb	r3,166(r2)
  d->_cg94 = d->_Pacemaker_local__Atrig4 || d->_Pacemaker_local__Atrig5;
  801550:	e0bffc17 	ldw	r2,-16(fp)
  801554:	10801a03 	ldbu	r2,104(r2)
  801558:	10803fcc 	andi	r2,r2,255
  80155c:	1080201c 	xori	r2,r2,128
  801560:	10bfe004 	addi	r2,r2,-128
  801564:	1000061e 	bne	r2,zero,801580 <logic+0xf74>
  801568:	e0bffc17 	ldw	r2,-16(fp)
  80156c:	10801a43 	ldbu	r2,105(r2)
  801570:	10803fcc 	andi	r2,r2,255
  801574:	1080201c 	xori	r2,r2,128
  801578:	10bfe004 	addi	r2,r2,-128
  80157c:	10000226 	beq	r2,zero,801588 <logic+0xf7c>
  801580:	00800044 	movi	r2,1
  801584:	00000106 	br	80158c <logic+0xf80>
  801588:	0005883a 	mov	r2,zero
  80158c:	1007883a 	mov	r3,r2
  801590:	e0bffc17 	ldw	r2,-16(fp)
  801594:	10c03e05 	stb	r3,248(r2)
  d->_g93 = d->_g90 && d->_cg92 || d->_g91 && d->_cg94;
  801598:	e0bffc17 	ldw	r2,-16(fp)
  80159c:	10802943 	ldbu	r2,165(r2)
  8015a0:	10803fcc 	andi	r2,r2,255
  8015a4:	1080201c 	xori	r2,r2,128
  8015a8:	10bfe004 	addi	r2,r2,-128
  8015ac:	10000626 	beq	r2,zero,8015c8 <logic+0xfbc>
  8015b0:	e0bffc17 	ldw	r2,-16(fp)
  8015b4:	10803d83 	ldbu	r2,246(r2)
  8015b8:	10803fcc 	andi	r2,r2,255
  8015bc:	1080201c 	xori	r2,r2,128
  8015c0:	10bfe004 	addi	r2,r2,-128
  8015c4:	10000c1e 	bne	r2,zero,8015f8 <logic+0xfec>
  8015c8:	e0bffc17 	ldw	r2,-16(fp)
  8015cc:	10802983 	ldbu	r2,166(r2)
  8015d0:	10803fcc 	andi	r2,r2,255
  8015d4:	1080201c 	xori	r2,r2,128
  8015d8:	10bfe004 	addi	r2,r2,-128
  8015dc:	10000826 	beq	r2,zero,801600 <logic+0xff4>
  8015e0:	e0bffc17 	ldw	r2,-16(fp)
  8015e4:	10803e03 	ldbu	r2,248(r2)
  8015e8:	10803fcc 	andi	r2,r2,255
  8015ec:	1080201c 	xori	r2,r2,128
  8015f0:	10bfe004 	addi	r2,r2,-128
  8015f4:	10000226 	beq	r2,zero,801600 <logic+0xff4>
  8015f8:	00800044 	movi	r2,1
  8015fc:	00000106 	br	801604 <logic+0xff8>
  801600:	0005883a 	mov	r2,zero
  801604:	1007883a 	mov	r3,r2
  801608:	e0bffc17 	ldw	r2,-16(fp)
  80160c:	10c02a05 	stb	r3,168(r2)
  d->_g100 = !d->_g25_e3;
  801610:	e0bffc17 	ldw	r2,-16(fp)
  801614:	10804403 	ldbu	r2,272(r2)
  801618:	10803fcc 	andi	r2,r2,255
  80161c:	1080201c 	xori	r2,r2,128
  801620:	10bfe004 	addi	r2,r2,-128
  801624:	1005003a 	cmpeq	r2,r2,zero
  801628:	1007883a 	mov	r3,r2
  80162c:	e0bffc17 	ldw	r2,-16(fp)
  801630:	10c02b05 	stb	r3,172(r2)
  d->_g101 = d->_g101 || d->_g104;
  801634:	e0bffc17 	ldw	r2,-16(fp)
  801638:	10802b43 	ldbu	r2,173(r2)
  80163c:	10803fcc 	andi	r2,r2,255
  801640:	1080201c 	xori	r2,r2,128
  801644:	10bfe004 	addi	r2,r2,-128
  801648:	1000061e 	bne	r2,zero,801664 <logic+0x1058>
  80164c:	e0bffc17 	ldw	r2,-16(fp)
  801650:	10802c03 	ldbu	r2,176(r2)
  801654:	10803fcc 	andi	r2,r2,255
  801658:	1080201c 	xori	r2,r2,128
  80165c:	10bfe004 	addi	r2,r2,-128
  801660:	10000226 	beq	r2,zero,80166c <logic+0x1060>
  801664:	00800044 	movi	r2,1
  801668:	00000106 	br	801670 <logic+0x1064>
  80166c:	0005883a 	mov	r2,zero
  801670:	1007883a 	mov	r3,r2
  801674:	e0bffc17 	ldw	r2,-16(fp)
  801678:	10c02b45 	stb	r3,173(r2)
  d->_g104 = (d->_g9_e1 || d->_g86) && (d->_g93_e2 || d->_g93) && (d->_g100 || d->_g101) && (d->_g86 || d->_g93 || d->_g101);
  80167c:	e0bffc17 	ldw	r2,-16(fp)
  801680:	10804383 	ldbu	r2,270(r2)
  801684:	10803fcc 	andi	r2,r2,255
  801688:	1080201c 	xori	r2,r2,128
  80168c:	10bfe004 	addi	r2,r2,-128
  801690:	1000061e 	bne	r2,zero,8016ac <logic+0x10a0>
  801694:	e0bffc17 	ldw	r2,-16(fp)
  801698:	108028c3 	ldbu	r2,163(r2)
  80169c:	10803fcc 	andi	r2,r2,255
  8016a0:	1080201c 	xori	r2,r2,128
  8016a4:	10bfe004 	addi	r2,r2,-128
  8016a8:	10002c26 	beq	r2,zero,80175c <logic+0x1150>
  8016ac:	e0bffc17 	ldw	r2,-16(fp)
  8016b0:	10804603 	ldbu	r2,280(r2)
  8016b4:	10803fcc 	andi	r2,r2,255
  8016b8:	1080201c 	xori	r2,r2,128
  8016bc:	10bfe004 	addi	r2,r2,-128
  8016c0:	1000061e 	bne	r2,zero,8016dc <logic+0x10d0>
  8016c4:	e0bffc17 	ldw	r2,-16(fp)
  8016c8:	10802a03 	ldbu	r2,168(r2)
  8016cc:	10803fcc 	andi	r2,r2,255
  8016d0:	1080201c 	xori	r2,r2,128
  8016d4:	10bfe004 	addi	r2,r2,-128
  8016d8:	10002026 	beq	r2,zero,80175c <logic+0x1150>
  8016dc:	e0bffc17 	ldw	r2,-16(fp)
  8016e0:	10802b03 	ldbu	r2,172(r2)
  8016e4:	10803fcc 	andi	r2,r2,255
  8016e8:	1080201c 	xori	r2,r2,128
  8016ec:	10bfe004 	addi	r2,r2,-128
  8016f0:	1000061e 	bne	r2,zero,80170c <logic+0x1100>
  8016f4:	e0bffc17 	ldw	r2,-16(fp)
  8016f8:	10802b43 	ldbu	r2,173(r2)
  8016fc:	10803fcc 	andi	r2,r2,255
  801700:	1080201c 	xori	r2,r2,128
  801704:	10bfe004 	addi	r2,r2,-128
  801708:	10001426 	beq	r2,zero,80175c <logic+0x1150>
  80170c:	e0bffc17 	ldw	r2,-16(fp)
  801710:	108028c3 	ldbu	r2,163(r2)
  801714:	10803fcc 	andi	r2,r2,255
  801718:	1080201c 	xori	r2,r2,128
  80171c:	10bfe004 	addi	r2,r2,-128
  801720:	10000c1e 	bne	r2,zero,801754 <logic+0x1148>
  801724:	e0bffc17 	ldw	r2,-16(fp)
  801728:	10802a03 	ldbu	r2,168(r2)
  80172c:	10803fcc 	andi	r2,r2,255
  801730:	1080201c 	xori	r2,r2,128
  801734:	10bfe004 	addi	r2,r2,-128
  801738:	1000061e 	bne	r2,zero,801754 <logic+0x1148>
  80173c:	e0bffc17 	ldw	r2,-16(fp)
  801740:	10802b43 	ldbu	r2,173(r2)
  801744:	10803fcc 	andi	r2,r2,255
  801748:	1080201c 	xori	r2,r2,128
  80174c:	10bfe004 	addi	r2,r2,-128
  801750:	10000226 	beq	r2,zero,80175c <logic+0x1150>
  801754:	00800044 	movi	r2,1
  801758:	00000106 	br	801760 <logic+0x1154>
  80175c:	0005883a 	mov	r2,zero
  801760:	1007883a 	mov	r3,r2
  801764:	e0bffc17 	ldw	r2,-16(fp)
  801768:	10c02c05 	stb	r3,176(r2)
  d->_cg105 = d->_Pacemaker_local__Atrig4;
  80176c:	e0bffc17 	ldw	r2,-16(fp)
  801770:	10c01a03 	ldbu	r3,104(r2)
  801774:	e0bffc17 	ldw	r2,-16(fp)
  801778:	10c03c05 	stb	r3,240(r2)
  d->_g102 = d->_g104 && d->_cg105;
  80177c:	e0bffc17 	ldw	r2,-16(fp)
  801780:	10802c03 	ldbu	r2,176(r2)
  801784:	10803fcc 	andi	r2,r2,255
  801788:	1080201c 	xori	r2,r2,128
  80178c:	10bfe004 	addi	r2,r2,-128
  801790:	10000826 	beq	r2,zero,8017b4 <logic+0x11a8>
  801794:	e0bffc17 	ldw	r2,-16(fp)
  801798:	10803c03 	ldbu	r2,240(r2)
  80179c:	10803fcc 	andi	r2,r2,255
  8017a0:	1080201c 	xori	r2,r2,128
  8017a4:	10bfe004 	addi	r2,r2,-128
  8017a8:	10000226 	beq	r2,zero,8017b4 <logic+0x11a8>
  8017ac:	00800044 	movi	r2,1
  8017b0:	00000106 	br	8017b8 <logic+0x11ac>
  8017b4:	0005883a 	mov	r2,zero
  8017b8:	1007883a 	mov	r3,r2
  8017bc:	e0bffc17 	ldw	r2,-16(fp)
  8017c0:	10c02b85 	stb	r3,174(r2)
  if (d->_g102) {
  8017c4:	e0bffc17 	ldw	r2,-16(fp)
  8017c8:	10802b83 	ldbu	r2,174(r2)
  8017cc:	10803fcc 	andi	r2,r2,255
  8017d0:	1080201c 	xori	r2,r2,128
  8017d4:	10bfe004 	addi	r2,r2,-128
  8017d8:	10000626 	beq	r2,zero,8017f4 <logic+0x11e8>
    d->AP |= 1;
  8017dc:	e0bffc17 	ldw	r2,-16(fp)
  8017e0:	10801703 	ldbu	r2,92(r2)
  8017e4:	10800054 	ori	r2,r2,1
  8017e8:	1007883a 	mov	r3,r2
  8017ec:	e0bffc17 	ldw	r2,-16(fp)
  8017f0:	10c01705 	stb	r3,92(r2)
  }
  d->_g102_e3 = d->_pg86;
  8017f4:	e0bffc17 	ldw	r2,-16(fp)
  8017f8:	10c04b43 	ldbu	r3,301(r2)
  8017fc:	e0bffc17 	ldw	r2,-16(fp)
  801800:	10c04645 	stb	r3,281(r2)
  d->_cg4 = (d->AS || d->AP) && !d->PVARP;
  801804:	e0bffc17 	ldw	r2,-16(fp)
  801808:	10800003 	ldbu	r2,0(r2)
  80180c:	10803fcc 	andi	r2,r2,255
  801810:	1080201c 	xori	r2,r2,128
  801814:	10bfe004 	addi	r2,r2,-128
  801818:	1000061e 	bne	r2,zero,801834 <logic+0x1228>
  80181c:	e0bffc17 	ldw	r2,-16(fp)
  801820:	10801703 	ldbu	r2,92(r2)
  801824:	10803fcc 	andi	r2,r2,255
  801828:	1080201c 	xori	r2,r2,128
  80182c:	10bfe004 	addi	r2,r2,-128
  801830:	10000826 	beq	r2,zero,801854 <logic+0x1248>
  801834:	e0bffc17 	ldw	r2,-16(fp)
  801838:	108017c3 	ldbu	r2,95(r2)
  80183c:	10803fcc 	andi	r2,r2,255
  801840:	1080201c 	xori	r2,r2,128
  801844:	10bfe004 	addi	r2,r2,-128
  801848:	1000021e 	bne	r2,zero,801854 <logic+0x1248>
  80184c:	00800044 	movi	r2,1
  801850:	00000106 	br	801858 <logic+0x124c>
  801854:	0005883a 	mov	r2,zero
  801858:	1007883a 	mov	r3,r2
  80185c:	e0bffc17 	ldw	r2,-16(fp)
  801860:	10c03645 	stb	r3,217(r2)
  d->_g86 = d->_GO || d->_g16_e2 || d->_g24 && !d->_cg28 || d->_g102_e3 && !d->_cg4;
  801864:	e0bffc17 	ldw	r2,-16(fp)
  801868:	108035c3 	ldbu	r2,215(r2)
  80186c:	10803fcc 	andi	r2,r2,255
  801870:	1080201c 	xori	r2,r2,128
  801874:	10bfe004 	addi	r2,r2,-128
  801878:	10001e1e 	bne	r2,zero,8018f4 <logic+0x12e8>
  80187c:	e0bffc17 	ldw	r2,-16(fp)
  801880:	108043c3 	ldbu	r2,271(r2)
  801884:	10803fcc 	andi	r2,r2,255
  801888:	1080201c 	xori	r2,r2,128
  80188c:	10bfe004 	addi	r2,r2,-128
  801890:	1000181e 	bne	r2,zero,8018f4 <logic+0x12e8>
  801894:	e0bffc17 	ldw	r2,-16(fp)
  801898:	10801e83 	ldbu	r2,122(r2)
  80189c:	10803fcc 	andi	r2,r2,255
  8018a0:	1080201c 	xori	r2,r2,128
  8018a4:	10bfe004 	addi	r2,r2,-128
  8018a8:	10000626 	beq	r2,zero,8018c4 <logic+0x12b8>
  8018ac:	e0bffc17 	ldw	r2,-16(fp)
  8018b0:	10803603 	ldbu	r2,216(r2)
  8018b4:	10803fcc 	andi	r2,r2,255
  8018b8:	1080201c 	xori	r2,r2,128
  8018bc:	10bfe004 	addi	r2,r2,-128
  8018c0:	10000c26 	beq	r2,zero,8018f4 <logic+0x12e8>
  8018c4:	e0bffc17 	ldw	r2,-16(fp)
  8018c8:	10804643 	ldbu	r2,281(r2)
  8018cc:	10803fcc 	andi	r2,r2,255
  8018d0:	1080201c 	xori	r2,r2,128
  8018d4:	10bfe004 	addi	r2,r2,-128
  8018d8:	10000826 	beq	r2,zero,8018fc <logic+0x12f0>
  8018dc:	e0bffc17 	ldw	r2,-16(fp)
  8018e0:	10803643 	ldbu	r2,217(r2)
  8018e4:	10803fcc 	andi	r2,r2,255
  8018e8:	1080201c 	xori	r2,r2,128
  8018ec:	10bfe004 	addi	r2,r2,-128
  8018f0:	1000021e 	bne	r2,zero,8018fc <logic+0x12f0>
  8018f4:	00800044 	movi	r2,1
  8018f8:	00000106 	br	801900 <logic+0x12f4>
  8018fc:	0005883a 	mov	r2,zero
  801900:	1007883a 	mov	r3,r2
  801904:	e0bffc17 	ldw	r2,-16(fp)
  801908:	10c028c5 	stb	r3,163(r2)
  d->_g93_e2 = d->_g102_e3 && d->_cg4;
  80190c:	e0bffc17 	ldw	r2,-16(fp)
  801910:	10804643 	ldbu	r2,281(r2)
  801914:	10803fcc 	andi	r2,r2,255
  801918:	1080201c 	xori	r2,r2,128
  80191c:	10bfe004 	addi	r2,r2,-128
  801920:	10000826 	beq	r2,zero,801944 <logic+0x1338>
  801924:	e0bffc17 	ldw	r2,-16(fp)
  801928:	10803643 	ldbu	r2,217(r2)
  80192c:	10803fcc 	andi	r2,r2,255
  801930:	1080201c 	xori	r2,r2,128
  801934:	10bfe004 	addi	r2,r2,-128
  801938:	10000226 	beq	r2,zero,801944 <logic+0x1338>
  80193c:	00800044 	movi	r2,1
  801940:	00000106 	br	801948 <logic+0x133c>
  801944:	0005883a 	mov	r2,zero
  801948:	1007883a 	mov	r3,r2
  80194c:	e0bffc17 	ldw	r2,-16(fp)
  801950:	10c04605 	stb	r3,280(r2)
  if (d->_g93_e2) {
  801954:	e0bffc17 	ldw	r2,-16(fp)
  801958:	10804603 	ldbu	r2,280(r2)
  80195c:	10803fcc 	andi	r2,r2,255
  801960:	1080201c 	xori	r2,r2,128
  801964:	10bfe004 	addi	r2,r2,-128
  801968:	10000726 	beq	r2,zero,801988 <logic+0x137c>
    d->_region0_AVI_cAVI = 0;
  80196c:	e0bffc17 	ldw	r2,-16(fp)
  801970:	10000715 	stw	zero,28(r2)
  801974:	10000815 	stw	zero,32(r2)
    d->_Pacemaker_local__Atrig = 0;
  801978:	e0bffc17 	ldw	r2,-16(fp)
  80197c:	10001905 	stb	zero,100(r2)
    d->_Pacemaker_local__Atrig1 = 0;
  801980:	e0bffc17 	ldw	r2,-16(fp)
  801984:	10001945 	stb	zero,101(r2)
  }
  d->_cg6 = d->_Pacemaker_local__Atrig || d->_Pacemaker_local__Atrig1;
  801988:	e0bffc17 	ldw	r2,-16(fp)
  80198c:	10801903 	ldbu	r2,100(r2)
  801990:	10803fcc 	andi	r2,r2,255
  801994:	1080201c 	xori	r2,r2,128
  801998:	10bfe004 	addi	r2,r2,-128
  80199c:	1000061e 	bne	r2,zero,8019b8 <logic+0x13ac>
  8019a0:	e0bffc17 	ldw	r2,-16(fp)
  8019a4:	10801943 	ldbu	r2,101(r2)
  8019a8:	10803fcc 	andi	r2,r2,255
  8019ac:	1080201c 	xori	r2,r2,128
  8019b0:	10bfe004 	addi	r2,r2,-128
  8019b4:	10000226 	beq	r2,zero,8019c0 <logic+0x13b4>
  8019b8:	00800044 	movi	r2,1
  8019bc:	00000106 	br	8019c4 <logic+0x13b8>
  8019c0:	0005883a 	mov	r2,zero
  8019c4:	1007883a 	mov	r3,r2
  8019c8:	e0bffc17 	ldw	r2,-16(fp)
  8019cc:	10c03685 	stb	r3,218(r2)
  d->_g93 = d->_g93_e2 && !d->_cg6 || d->_g8 && !d->_cg8;
  8019d0:	e0bffc17 	ldw	r2,-16(fp)
  8019d4:	10804603 	ldbu	r2,280(r2)
  8019d8:	10803fcc 	andi	r2,r2,255
  8019dc:	1080201c 	xori	r2,r2,128
  8019e0:	10bfe004 	addi	r2,r2,-128
  8019e4:	10000626 	beq	r2,zero,801a00 <logic+0x13f4>
  8019e8:	e0bffc17 	ldw	r2,-16(fp)
  8019ec:	10803683 	ldbu	r2,218(r2)
  8019f0:	10803fcc 	andi	r2,r2,255
  8019f4:	1080201c 	xori	r2,r2,128
  8019f8:	10bfe004 	addi	r2,r2,-128
  8019fc:	10000c26 	beq	r2,zero,801a30 <logic+0x1424>
  801a00:	e0bffc17 	ldw	r2,-16(fp)
  801a04:	10801bc3 	ldbu	r2,111(r2)
  801a08:	10803fcc 	andi	r2,r2,255
  801a0c:	1080201c 	xori	r2,r2,128
  801a10:	10bfe004 	addi	r2,r2,-128
  801a14:	10000826 	beq	r2,zero,801a38 <logic+0x142c>
  801a18:	e0bffc17 	ldw	r2,-16(fp)
  801a1c:	108036c3 	ldbu	r2,219(r2)
  801a20:	10803fcc 	andi	r2,r2,255
  801a24:	1080201c 	xori	r2,r2,128
  801a28:	10bfe004 	addi	r2,r2,-128
  801a2c:	1000021e 	bne	r2,zero,801a38 <logic+0x142c>
  801a30:	00800044 	movi	r2,1
  801a34:	00000106 	br	801a3c <logic+0x1430>
  801a38:	0005883a 	mov	r2,zero
  801a3c:	1007883a 	mov	r3,r2
  801a40:	e0bffc17 	ldw	r2,-16(fp)
  801a44:	10c02a05 	stb	r3,168(r2)
  d->_cg10 = d->_region0_AVI_cAVI < d->AVI_Constraint;
  801a48:	e0bffc17 	ldw	r2,-16(fp)
  801a4c:	14000717 	ldw	r16,28(r2)
  801a50:	14400817 	ldw	r17,32(r2)
  801a54:	e0bffc17 	ldw	r2,-16(fp)
  801a58:	10800117 	ldw	r2,4(r2)
  801a5c:	1009883a 	mov	r4,r2
  801a60:	08069c80 	call	8069c8 <__floatsidf>
  801a64:	1009883a 	mov	r4,r2
  801a68:	180b883a 	mov	r5,r3
  801a6c:	04800044 	movi	r18,1
  801a70:	200d883a 	mov	r6,r4
  801a74:	280f883a 	mov	r7,r5
  801a78:	8009883a 	mov	r4,r16
  801a7c:	880b883a 	mov	r5,r17
  801a80:	0805fd80 	call	805fd8 <__ledf2>
  801a84:	10000116 	blt	r2,zero,801a8c <logic+0x1480>
  801a88:	0025883a 	mov	r18,zero
  801a8c:	9007883a 	mov	r3,r18
  801a90:	e0bffc17 	ldw	r2,-16(fp)
  801a94:	10c03705 	stb	r3,220(r2)
  d->_g86_e1 = d->_g93_e2 && d->_cg10;
  801a98:	e0bffc17 	ldw	r2,-16(fp)
  801a9c:	10804603 	ldbu	r2,280(r2)
  801aa0:	10803fcc 	andi	r2,r2,255
  801aa4:	1080201c 	xori	r2,r2,128
  801aa8:	10bfe004 	addi	r2,r2,-128
  801aac:	10000826 	beq	r2,zero,801ad0 <logic+0x14c4>
  801ab0:	e0bffc17 	ldw	r2,-16(fp)
  801ab4:	10803703 	ldbu	r2,220(r2)
  801ab8:	10803fcc 	andi	r2,r2,255
  801abc:	1080201c 	xori	r2,r2,128
  801ac0:	10bfe004 	addi	r2,r2,-128
  801ac4:	10000226 	beq	r2,zero,801ad0 <logic+0x14c4>
  801ac8:	00800044 	movi	r2,1
  801acc:	00000106 	br	801ad4 <logic+0x14c8>
  801ad0:	0005883a 	mov	r2,zero
  801ad4:	1007883a 	mov	r3,r2
  801ad8:	e0bffc17 	ldw	r2,-16(fp)
  801adc:	10c045c5 	stb	r3,279(r2)
  if (d->_g86_e1) {
  801ae0:	e0bffc17 	ldw	r2,-16(fp)
  801ae4:	108045c3 	ldbu	r2,279(r2)
  801ae8:	10803fcc 	andi	r2,r2,255
  801aec:	1080201c 	xori	r2,r2,128
  801af0:	10bfe004 	addi	r2,r2,-128
  801af4:	10003426 	beq	r2,zero,801bc8 <logic+0x15bc>
    d->sleepT = (d->sleepT < (d->AVI_Constraint - d->_region0_AVI_cAVI)) ? d->sleepT : (d->AVI_Constraint - d->_region0_AVI_cAVI);
  801af8:	e0bffc17 	ldw	r2,-16(fp)
  801afc:	14001517 	ldw	r16,84(r2)
  801b00:	14401617 	ldw	r17,88(r2)
  801b04:	e0bffc17 	ldw	r2,-16(fp)
  801b08:	10800117 	ldw	r2,4(r2)
  801b0c:	1009883a 	mov	r4,r2
  801b10:	08069c80 	call	8069c8 <__floatsidf>
  801b14:	1011883a 	mov	r8,r2
  801b18:	1813883a 	mov	r9,r3
  801b1c:	e13ffc17 	ldw	r4,-16(fp)
  801b20:	20800717 	ldw	r2,28(r4)
  801b24:	20c00817 	ldw	r3,32(r4)
  801b28:	100d883a 	mov	r6,r2
  801b2c:	180f883a 	mov	r7,r3
  801b30:	4009883a 	mov	r4,r8
  801b34:	480b883a 	mov	r5,r9
  801b38:	08060cc0 	call	8060cc <__subdf3>
  801b3c:	1009883a 	mov	r4,r2
  801b40:	180b883a 	mov	r5,r3
  801b44:	2005883a 	mov	r2,r4
  801b48:	2807883a 	mov	r3,r5
  801b4c:	100d883a 	mov	r6,r2
  801b50:	180f883a 	mov	r7,r3
  801b54:	8009883a 	mov	r4,r16
  801b58:	880b883a 	mov	r5,r17
  801b5c:	0805fd80 	call	805fd8 <__ledf2>
  801b60:	1000040e 	bge	r2,zero,801b74 <logic+0x1568>
  801b64:	e13ffc17 	ldw	r4,-16(fp)
  801b68:	20801517 	ldw	r2,84(r4)
  801b6c:	20c01617 	ldw	r3,88(r4)
  801b70:	00001206 	br	801bbc <logic+0x15b0>
  801b74:	e0bffc17 	ldw	r2,-16(fp)
  801b78:	10800117 	ldw	r2,4(r2)
  801b7c:	1009883a 	mov	r4,r2
  801b80:	08069c80 	call	8069c8 <__floatsidf>
  801b84:	1011883a 	mov	r8,r2
  801b88:	1813883a 	mov	r9,r3
  801b8c:	e13ffc17 	ldw	r4,-16(fp)
  801b90:	20800717 	ldw	r2,28(r4)
  801b94:	20c00817 	ldw	r3,32(r4)
  801b98:	100d883a 	mov	r6,r2
  801b9c:	180f883a 	mov	r7,r3
  801ba0:	4009883a 	mov	r4,r8
  801ba4:	480b883a 	mov	r5,r9
  801ba8:	08060cc0 	call	8060cc <__subdf3>
  801bac:	1009883a 	mov	r4,r2
  801bb0:	180b883a 	mov	r5,r3
  801bb4:	2005883a 	mov	r2,r4
  801bb8:	2807883a 	mov	r3,r5
  801bbc:	e13ffc17 	ldw	r4,-16(fp)
  801bc0:	20801515 	stw	r2,84(r4)
  801bc4:	20c01615 	stw	r3,88(r4)
  }
  d->_cg11 = d->_Pacemaker_local__Atrig || d->_Pacemaker_local__Atrig1;
  801bc8:	e0bffc17 	ldw	r2,-16(fp)
  801bcc:	10801903 	ldbu	r2,100(r2)
  801bd0:	10803fcc 	andi	r2,r2,255
  801bd4:	1080201c 	xori	r2,r2,128
  801bd8:	10bfe004 	addi	r2,r2,-128
  801bdc:	1000061e 	bne	r2,zero,801bf8 <logic+0x15ec>
  801be0:	e0bffc17 	ldw	r2,-16(fp)
  801be4:	10801943 	ldbu	r2,101(r2)
  801be8:	10803fcc 	andi	r2,r2,255
  801bec:	1080201c 	xori	r2,r2,128
  801bf0:	10bfe004 	addi	r2,r2,-128
  801bf4:	10000226 	beq	r2,zero,801c00 <logic+0x15f4>
  801bf8:	00800044 	movi	r2,1
  801bfc:	00000106 	br	801c04 <logic+0x15f8>
  801c00:	0005883a 	mov	r2,zero
  801c04:	1007883a 	mov	r3,r2
  801c08:	e0bffc17 	ldw	r2,-16(fp)
  801c0c:	10c03745 	stb	r3,221(r2)
  d->_g28 = d->_g86_e1 && !d->_cg11 || d->_g13 && !d->_cg15;
  801c10:	e0bffc17 	ldw	r2,-16(fp)
  801c14:	108045c3 	ldbu	r2,279(r2)
  801c18:	10803fcc 	andi	r2,r2,255
  801c1c:	1080201c 	xori	r2,r2,128
  801c20:	10bfe004 	addi	r2,r2,-128
  801c24:	10000626 	beq	r2,zero,801c40 <logic+0x1634>
  801c28:	e0bffc17 	ldw	r2,-16(fp)
  801c2c:	10803743 	ldbu	r2,221(r2)
  801c30:	10803fcc 	andi	r2,r2,255
  801c34:	1080201c 	xori	r2,r2,128
  801c38:	10bfe004 	addi	r2,r2,-128
  801c3c:	10000c26 	beq	r2,zero,801c70 <logic+0x1664>
  801c40:	e0bffc17 	ldw	r2,-16(fp)
  801c44:	10801c83 	ldbu	r2,114(r2)
  801c48:	10803fcc 	andi	r2,r2,255
  801c4c:	1080201c 	xori	r2,r2,128
  801c50:	10bfe004 	addi	r2,r2,-128
  801c54:	10000826 	beq	r2,zero,801c78 <logic+0x166c>
  801c58:	e0bffc17 	ldw	r2,-16(fp)
  801c5c:	10803783 	ldbu	r2,222(r2)
  801c60:	10803fcc 	andi	r2,r2,255
  801c64:	1080201c 	xori	r2,r2,128
  801c68:	10bfe004 	addi	r2,r2,-128
  801c6c:	1000021e 	bne	r2,zero,801c78 <logic+0x166c>
  801c70:	00800044 	movi	r2,1
  801c74:	00000106 	br	801c7c <logic+0x1670>
  801c78:	0005883a 	mov	r2,zero
  801c7c:	1007883a 	mov	r3,r2
  801c80:	e0bffc17 	ldw	r2,-16(fp)
  801c84:	10c01f85 	stb	r3,126(r2)
  d->_g29 = d->_g93_e2 && !d->_cg10;
  801c88:	e0bffc17 	ldw	r2,-16(fp)
  801c8c:	10804603 	ldbu	r2,280(r2)
  801c90:	10803fcc 	andi	r2,r2,255
  801c94:	1080201c 	xori	r2,r2,128
  801c98:	10bfe004 	addi	r2,r2,-128
  801c9c:	10000826 	beq	r2,zero,801cc0 <logic+0x16b4>
  801ca0:	e0bffc17 	ldw	r2,-16(fp)
  801ca4:	10803703 	ldbu	r2,220(r2)
  801ca8:	10803fcc 	andi	r2,r2,255
  801cac:	1080201c 	xori	r2,r2,128
  801cb0:	10bfe004 	addi	r2,r2,-128
  801cb4:	1000021e 	bne	r2,zero,801cc0 <logic+0x16b4>
  801cb8:	00800044 	movi	r2,1
  801cbc:	00000106 	br	801cc4 <logic+0x16b8>
  801cc0:	0005883a 	mov	r2,zero
  801cc4:	1007883a 	mov	r3,r2
  801cc8:	e0bffc17 	ldw	r2,-16(fp)
  801ccc:	10c01fc5 	stb	r3,127(r2)
  d->_cg20 = d->_Pacemaker_local__Atrig || d->_Pacemaker_local__Atrig1;
  801cd0:	e0bffc17 	ldw	r2,-16(fp)
  801cd4:	10801903 	ldbu	r2,100(r2)
  801cd8:	10803fcc 	andi	r2,r2,255
  801cdc:	1080201c 	xori	r2,r2,128
  801ce0:	10bfe004 	addi	r2,r2,-128
  801ce4:	1000061e 	bne	r2,zero,801d00 <logic+0x16f4>
  801ce8:	e0bffc17 	ldw	r2,-16(fp)
  801cec:	10801943 	ldbu	r2,101(r2)
  801cf0:	10803fcc 	andi	r2,r2,255
  801cf4:	1080201c 	xori	r2,r2,128
  801cf8:	10bfe004 	addi	r2,r2,-128
  801cfc:	10000226 	beq	r2,zero,801d08 <logic+0x16fc>
  801d00:	00800044 	movi	r2,1
  801d04:	00000106 	br	801d0c <logic+0x1700>
  801d08:	0005883a 	mov	r2,zero
  801d0c:	1007883a 	mov	r3,r2
  801d10:	e0bffc17 	ldw	r2,-16(fp)
  801d14:	10c03845 	stb	r3,225(r2)
  d->_g4 = d->_g14 && !d->_cg17 || d->_g29 && !d->_cg20;
  801d18:	e0bffc17 	ldw	r2,-16(fp)
  801d1c:	10801cc3 	ldbu	r2,115(r2)
  801d20:	10803fcc 	andi	r2,r2,255
  801d24:	1080201c 	xori	r2,r2,128
  801d28:	10bfe004 	addi	r2,r2,-128
  801d2c:	10000626 	beq	r2,zero,801d48 <logic+0x173c>
  801d30:	e0bffc17 	ldw	r2,-16(fp)
  801d34:	10803803 	ldbu	r2,224(r2)
  801d38:	10803fcc 	andi	r2,r2,255
  801d3c:	1080201c 	xori	r2,r2,128
  801d40:	10bfe004 	addi	r2,r2,-128
  801d44:	10000c26 	beq	r2,zero,801d78 <logic+0x176c>
  801d48:	e0bffc17 	ldw	r2,-16(fp)
  801d4c:	10801fc3 	ldbu	r2,127(r2)
  801d50:	10803fcc 	andi	r2,r2,255
  801d54:	1080201c 	xori	r2,r2,128
  801d58:	10bfe004 	addi	r2,r2,-128
  801d5c:	10000826 	beq	r2,zero,801d80 <logic+0x1774>
  801d60:	e0bffc17 	ldw	r2,-16(fp)
  801d64:	10803843 	ldbu	r2,225(r2)
  801d68:	10803fcc 	andi	r2,r2,255
  801d6c:	1080201c 	xori	r2,r2,128
  801d70:	10bfe004 	addi	r2,r2,-128
  801d74:	1000021e 	bne	r2,zero,801d80 <logic+0x1774>
  801d78:	00800044 	movi	r2,1
  801d7c:	00000106 	br	801d84 <logic+0x1778>
  801d80:	0005883a 	mov	r2,zero
  801d84:	1007883a 	mov	r3,r2
  801d88:	e0bffc17 	ldw	r2,-16(fp)
  801d8c:	10c01b45 	stb	r3,109(r2)
  d->_g8 = d->_g93_e2 || d->_g26 && !d->VS;
  801d90:	e0bffc17 	ldw	r2,-16(fp)
  801d94:	10804603 	ldbu	r2,280(r2)
  801d98:	10803fcc 	andi	r2,r2,255
  801d9c:	1080201c 	xori	r2,r2,128
  801da0:	10bfe004 	addi	r2,r2,-128
  801da4:	10000c1e 	bne	r2,zero,801dd8 <logic+0x17cc>
  801da8:	e0bffc17 	ldw	r2,-16(fp)
  801dac:	10801f03 	ldbu	r2,124(r2)
  801db0:	10803fcc 	andi	r2,r2,255
  801db4:	1080201c 	xori	r2,r2,128
  801db8:	10bfe004 	addi	r2,r2,-128
  801dbc:	10000826 	beq	r2,zero,801de0 <logic+0x17d4>
  801dc0:	e0bffc17 	ldw	r2,-16(fp)
  801dc4:	10800043 	ldbu	r2,1(r2)
  801dc8:	10803fcc 	andi	r2,r2,255
  801dcc:	1080201c 	xori	r2,r2,128
  801dd0:	10bfe004 	addi	r2,r2,-128
  801dd4:	1000021e 	bne	r2,zero,801de0 <logic+0x17d4>
  801dd8:	00800044 	movi	r2,1
  801ddc:	00000106 	br	801de4 <logic+0x17d8>
  801de0:	0005883a 	mov	r2,zero
  801de4:	1007883a 	mov	r3,r2
  801de8:	e0bffc17 	ldw	r2,-16(fp)
  801dec:	10c01bc5 	stb	r3,111(r2)
  d->_g15 = d->_pg149;
  801df0:	e0bffc17 	ldw	r2,-16(fp)
  801df4:	10c04b83 	ldbu	r3,302(r2)
  801df8:	e0bffc17 	ldw	r2,-16(fp)
  801dfc:	10c01d05 	stb	r3,116(r2)
  if (d->_g15) {
  801e00:	e0bffc17 	ldw	r2,-16(fp)
  801e04:	10801d03 	ldbu	r2,116(r2)
  801e08:	10803fcc 	andi	r2,r2,255
  801e0c:	1080201c 	xori	r2,r2,128
  801e10:	10bfe004 	addi	r2,r2,-128
  801e14:	10001226 	beq	r2,zero,801e60 <logic+0x1854>
    d->_region1_PVARP_cPVARP += d->deltaT;
  801e18:	e13ffc17 	ldw	r4,-16(fp)
  801e1c:	20800917 	ldw	r2,36(r4)
  801e20:	20c00a17 	ldw	r3,40(r4)
  801e24:	e1bffc17 	ldw	r6,-16(fp)
  801e28:	31001317 	ldw	r4,76(r6)
  801e2c:	31401417 	ldw	r5,80(r6)
  801e30:	200d883a 	mov	r6,r4
  801e34:	280f883a 	mov	r7,r5
  801e38:	1009883a 	mov	r4,r2
  801e3c:	180b883a 	mov	r5,r3
  801e40:	08056500 	call	805650 <__adddf3>
  801e44:	1009883a 	mov	r4,r2
  801e48:	180b883a 	mov	r5,r3
  801e4c:	2005883a 	mov	r2,r4
  801e50:	2807883a 	mov	r3,r5
  801e54:	e13ffc17 	ldw	r4,-16(fp)
  801e58:	20800915 	stw	r2,36(r4)
  801e5c:	20c00a15 	stw	r3,40(r4)
  }
  d->_g11 = d->_pg42;
  801e60:	e0bffc17 	ldw	r2,-16(fp)
  801e64:	10c04bc3 	ldbu	r3,303(r2)
  801e68:	e0bffc17 	ldw	r2,-16(fp)
  801e6c:	10c01c45 	stb	r3,113(r2)
  d->_cg51 = d->_region1_PVARP_cPVARP >= d->PVARP_Constraint;
  801e70:	e0bffc17 	ldw	r2,-16(fp)
  801e74:	14000917 	ldw	r16,36(r2)
  801e78:	14400a17 	ldw	r17,40(r2)
  801e7c:	e0bffc17 	ldw	r2,-16(fp)
  801e80:	10800217 	ldw	r2,8(r2)
  801e84:	1009883a 	mov	r4,r2
  801e88:	08069c80 	call	8069c8 <__floatsidf>
  801e8c:	1009883a 	mov	r4,r2
  801e90:	180b883a 	mov	r5,r3
  801e94:	04800044 	movi	r18,1
  801e98:	200d883a 	mov	r6,r4
  801e9c:	280f883a 	mov	r7,r5
  801ea0:	8009883a 	mov	r4,r16
  801ea4:	880b883a 	mov	r5,r17
  801ea8:	0805efc0 	call	805efc <__gedf2>
  801eac:	1000010e 	bge	r2,zero,801eb4 <logic+0x18a8>
  801eb0:	0025883a 	mov	r18,zero
  801eb4:	9007883a 	mov	r3,r18
  801eb8:	e0bffc17 	ldw	r2,-16(fp)
  801ebc:	10c03a45 	stb	r3,233(r2)
  d->_g20 = d->_g11 && d->_cg51;
  801ec0:	e0bffc17 	ldw	r2,-16(fp)
  801ec4:	10801c43 	ldbu	r2,113(r2)
  801ec8:	10803fcc 	andi	r2,r2,255
  801ecc:	1080201c 	xori	r2,r2,128
  801ed0:	10bfe004 	addi	r2,r2,-128
  801ed4:	10000826 	beq	r2,zero,801ef8 <logic+0x18ec>
  801ed8:	e0bffc17 	ldw	r2,-16(fp)
  801edc:	10803a43 	ldbu	r2,233(r2)
  801ee0:	10803fcc 	andi	r2,r2,255
  801ee4:	1080201c 	xori	r2,r2,128
  801ee8:	10bfe004 	addi	r2,r2,-128
  801eec:	10000226 	beq	r2,zero,801ef8 <logic+0x18ec>
  801ef0:	00800044 	movi	r2,1
  801ef4:	00000106 	br	801efc <logic+0x18f0>
  801ef8:	0005883a 	mov	r2,zero
  801efc:	1007883a 	mov	r3,r2
  801f00:	e0bffc17 	ldw	r2,-16(fp)
  801f04:	10c01e05 	stb	r3,120(r2)
  if (d->_g20) {
  801f08:	e0bffc17 	ldw	r2,-16(fp)
  801f0c:	10801e03 	ldbu	r2,120(r2)
  801f10:	10803fcc 	andi	r2,r2,255
  801f14:	1080201c 	xori	r2,r2,128
  801f18:	10bfe004 	addi	r2,r2,-128
  801f1c:	10000326 	beq	r2,zero,801f2c <logic+0x1920>
    d->_Pacemaker_local__Atrig2 = 1;
  801f20:	e0bffc17 	ldw	r2,-16(fp)
  801f24:	00c00044 	movi	r3,1
  801f28:	10c01985 	stb	r3,102(r2)
  }
  d->_g17 = d->_pg92;
  801f2c:	e0bffc17 	ldw	r2,-16(fp)
  801f30:	10c04c03 	ldbu	r3,304(r2)
  801f34:	e0bffc17 	ldw	r2,-16(fp)
  801f38:	10c01d85 	stb	r3,118(r2)
  d->_g26 = !d->_g17;
  801f3c:	e0bffc17 	ldw	r2,-16(fp)
  801f40:	10801d83 	ldbu	r2,118(r2)
  801f44:	10803fcc 	andi	r2,r2,255
  801f48:	1080201c 	xori	r2,r2,128
  801f4c:	10bfe004 	addi	r2,r2,-128
  801f50:	1005003a 	cmpeq	r2,r2,zero
  801f54:	1007883a 	mov	r3,r2
  801f58:	e0bffc17 	ldw	r2,-16(fp)
  801f5c:	10c01f05 	stb	r3,124(r2)
  if (d->_g17) {
  801f60:	e0bffc17 	ldw	r2,-16(fp)
  801f64:	10801d83 	ldbu	r2,118(r2)
  801f68:	10803fcc 	andi	r2,r2,255
  801f6c:	1080201c 	xori	r2,r2,128
  801f70:	10bfe004 	addi	r2,r2,-128
  801f74:	10000626 	beq	r2,zero,801f90 <logic+0x1984>
    d->LRI |= 1;
  801f78:	e0bffc17 	ldw	r2,-16(fp)
  801f7c:	10801883 	ldbu	r2,98(r2)
  801f80:	10800054 	ori	r2,r2,1
  801f84:	1007883a 	mov	r3,r2
  801f88:	e0bffc17 	ldw	r2,-16(fp)
  801f8c:	10c01885 	stb	r3,98(r2)
  }
  d->_g5 = d->_pg53;
  801f90:	e0bffc17 	ldw	r2,-16(fp)
  801f94:	10c04c43 	ldbu	r3,305(r2)
  801f98:	e0bffc17 	ldw	r2,-16(fp)
  801f9c:	10c01b85 	stb	r3,110(r2)
  if (d->_g5) {
  801fa0:	e0bffc17 	ldw	r2,-16(fp)
  801fa4:	10801b83 	ldbu	r2,110(r2)
  801fa8:	10803fcc 	andi	r2,r2,255
  801fac:	1080201c 	xori	r2,r2,128
  801fb0:	10bfe004 	addi	r2,r2,-128
  801fb4:	10000626 	beq	r2,zero,801fd0 <logic+0x19c4>
    d->VRP |= 1;
  801fb8:	e0bffc17 	ldw	r2,-16(fp)
  801fbc:	10801803 	ldbu	r2,96(r2)
  801fc0:	10800054 	ori	r2,r2,1
  801fc4:	1007883a 	mov	r3,r2
  801fc8:	e0bffc17 	ldw	r2,-16(fp)
  801fcc:	10c01805 	stb	r3,96(r2)
  }
  d->_g129 = d->_pg134;
  801fd0:	e0bffc17 	ldw	r2,-16(fp)
  801fd4:	10c04c83 	ldbu	r3,306(r2)
  801fd8:	e0bffc17 	ldw	r2,-16(fp)
  801fdc:	10c02fc5 	stb	r3,191(r2)
  d->_cg129 = (d->VS || d->VP) && !d->VRP;
  801fe0:	e0bffc17 	ldw	r2,-16(fp)
  801fe4:	10800043 	ldbu	r2,1(r2)
  801fe8:	10803fcc 	andi	r2,r2,255
  801fec:	1080201c 	xori	r2,r2,128
  801ff0:	10bfe004 	addi	r2,r2,-128
  801ff4:	1000061e 	bne	r2,zero,802010 <logic+0x1a04>
  801ff8:	e0bffc17 	ldw	r2,-16(fp)
  801ffc:	10801743 	ldbu	r2,93(r2)
  802000:	10803fcc 	andi	r2,r2,255
  802004:	1080201c 	xori	r2,r2,128
  802008:	10bfe004 	addi	r2,r2,-128
  80200c:	10000826 	beq	r2,zero,802030 <logic+0x1a24>
  802010:	e0bffc17 	ldw	r2,-16(fp)
  802014:	10801803 	ldbu	r2,96(r2)
  802018:	10803fcc 	andi	r2,r2,255
  80201c:	1080201c 	xori	r2,r2,128
  802020:	10bfe004 	addi	r2,r2,-128
  802024:	1000021e 	bne	r2,zero,802030 <logic+0x1a24>
  802028:	00800044 	movi	r2,1
  80202c:	00000106 	br	802034 <logic+0x1a28>
  802030:	0005883a 	mov	r2,zero
  802034:	1007883a 	mov	r3,r2
  802038:	e0bffc17 	ldw	r2,-16(fp)
  80203c:	10c041c5 	stb	r3,263(r2)
  d->_g130 = d->_g129 && d->_cg129;
  802040:	e0bffc17 	ldw	r2,-16(fp)
  802044:	10802fc3 	ldbu	r2,191(r2)
  802048:	10803fcc 	andi	r2,r2,255
  80204c:	1080201c 	xori	r2,r2,128
  802050:	10bfe004 	addi	r2,r2,-128
  802054:	10000826 	beq	r2,zero,802078 <logic+0x1a6c>
  802058:	e0bffc17 	ldw	r2,-16(fp)
  80205c:	108041c3 	ldbu	r2,263(r2)
  802060:	10803fcc 	andi	r2,r2,255
  802064:	1080201c 	xori	r2,r2,128
  802068:	10bfe004 	addi	r2,r2,-128
  80206c:	10000226 	beq	r2,zero,802078 <logic+0x1a6c>
  802070:	00800044 	movi	r2,1
  802074:	00000106 	br	80207c <logic+0x1a70>
  802078:	0005883a 	mov	r2,zero
  80207c:	1007883a 	mov	r3,r2
  802080:	e0bffc17 	ldw	r2,-16(fp)
  802084:	10c03005 	stb	r3,192(r2)
  if (d->_g130) {
  802088:	e0bffc17 	ldw	r2,-16(fp)
  80208c:	10803003 	ldbu	r2,192(r2)
  802090:	10803fcc 	andi	r2,r2,255
  802094:	1080201c 	xori	r2,r2,128
  802098:	10bfe004 	addi	r2,r2,-128
  80209c:	10000326 	beq	r2,zero,8020ac <logic+0x1aa0>
    d->_Pacemaker_local__Atrig6 = 1;
  8020a0:	e0bffc17 	ldw	r2,-16(fp)
  8020a4:	00c00044 	movi	r3,1
  8020a8:	10c01a85 	stb	r3,106(r2)
  }
  d->_g183 = d->_pg143_e1;
  8020ac:	e0bffc17 	ldw	r2,-16(fp)
  8020b0:	10c04cc3 	ldbu	r3,307(r2)
  8020b4:	e0bffc17 	ldw	r2,-16(fp)
  8020b8:	10c03585 	stb	r3,214(r2)
  if (d->_g183) {
  8020bc:	e0bffc17 	ldw	r2,-16(fp)
  8020c0:	10803583 	ldbu	r2,214(r2)
  8020c4:	10803fcc 	andi	r2,r2,255
  8020c8:	1080201c 	xori	r2,r2,128
  8020cc:	10bfe004 	addi	r2,r2,-128
  8020d0:	10001226 	beq	r2,zero,80211c <logic+0x1b10>
    d->_region4_LRI_cLRI += d->deltaT;
  8020d4:	e13ffc17 	ldw	r4,-16(fp)
  8020d8:	20800f17 	ldw	r2,60(r4)
  8020dc:	20c01017 	ldw	r3,64(r4)
  8020e0:	e1bffc17 	ldw	r6,-16(fp)
  8020e4:	31001317 	ldw	r4,76(r6)
  8020e8:	31401417 	ldw	r5,80(r6)
  8020ec:	200d883a 	mov	r6,r4
  8020f0:	280f883a 	mov	r7,r5
  8020f4:	1009883a 	mov	r4,r2
  8020f8:	180b883a 	mov	r5,r3
  8020fc:	08056500 	call	805650 <__adddf3>
  802100:	1009883a 	mov	r4,r2
  802104:	180b883a 	mov	r5,r3
  802108:	2005883a 	mov	r2,r4
  80210c:	2807883a 	mov	r3,r5
  802110:	e13ffc17 	ldw	r4,-16(fp)
  802114:	20800f15 	stw	r2,60(r4)
  802118:	20c01015 	stw	r3,64(r4)
  }
  d->_g132 = d->_g129 && !d->_cg129;
  80211c:	e0bffc17 	ldw	r2,-16(fp)
  802120:	10802fc3 	ldbu	r2,191(r2)
  802124:	10803fcc 	andi	r2,r2,255
  802128:	1080201c 	xori	r2,r2,128
  80212c:	10bfe004 	addi	r2,r2,-128
  802130:	10000826 	beq	r2,zero,802154 <logic+0x1b48>
  802134:	e0bffc17 	ldw	r2,-16(fp)
  802138:	108041c3 	ldbu	r2,263(r2)
  80213c:	10803fcc 	andi	r2,r2,255
  802140:	1080201c 	xori	r2,r2,128
  802144:	10bfe004 	addi	r2,r2,-128
  802148:	1000021e 	bne	r2,zero,802154 <logic+0x1b48>
  80214c:	00800044 	movi	r2,1
  802150:	00000106 	br	802158 <logic+0x1b4c>
  802154:	0005883a 	mov	r2,zero
  802158:	1007883a 	mov	r3,r2
  80215c:	e0bffc17 	ldw	r2,-16(fp)
  802160:	10c03085 	stb	r3,194(r2)
  d->_cg132 = d->_region4_LRI_cLRI >= d->LRI_Constraint;
  802164:	e0bffc17 	ldw	r2,-16(fp)
  802168:	14000f17 	ldw	r16,60(r2)
  80216c:	14401017 	ldw	r17,64(r2)
  802170:	e0bffc17 	ldw	r2,-16(fp)
  802174:	10800517 	ldw	r2,20(r2)
  802178:	1009883a 	mov	r4,r2
  80217c:	08069c80 	call	8069c8 <__floatsidf>
  802180:	1009883a 	mov	r4,r2
  802184:	180b883a 	mov	r5,r3
  802188:	04800044 	movi	r18,1
  80218c:	200d883a 	mov	r6,r4
  802190:	280f883a 	mov	r7,r5
  802194:	8009883a 	mov	r4,r16
  802198:	880b883a 	mov	r5,r17
  80219c:	0805efc0 	call	805efc <__gedf2>
  8021a0:	1000010e 	bge	r2,zero,8021a8 <logic+0x1b9c>
  8021a4:	0025883a 	mov	r18,zero
  8021a8:	9007883a 	mov	r3,r18
  8021ac:	e0bffc17 	ldw	r2,-16(fp)
  8021b0:	10c04185 	stb	r3,262(r2)
  d->_g133 = d->_g132 && d->_cg132;
  8021b4:	e0bffc17 	ldw	r2,-16(fp)
  8021b8:	10803083 	ldbu	r2,194(r2)
  8021bc:	10803fcc 	andi	r2,r2,255
  8021c0:	1080201c 	xori	r2,r2,128
  8021c4:	10bfe004 	addi	r2,r2,-128
  8021c8:	10000826 	beq	r2,zero,8021ec <logic+0x1be0>
  8021cc:	e0bffc17 	ldw	r2,-16(fp)
  8021d0:	10804183 	ldbu	r2,262(r2)
  8021d4:	10803fcc 	andi	r2,r2,255
  8021d8:	1080201c 	xori	r2,r2,128
  8021dc:	10bfe004 	addi	r2,r2,-128
  8021e0:	10000226 	beq	r2,zero,8021ec <logic+0x1be0>
  8021e4:	00800044 	movi	r2,1
  8021e8:	00000106 	br	8021f0 <logic+0x1be4>
  8021ec:	0005883a 	mov	r2,zero
  8021f0:	1007883a 	mov	r3,r2
  8021f4:	e0bffc17 	ldw	r2,-16(fp)
  8021f8:	10c030c5 	stb	r3,195(r2)
  if (d->_g133) {
  8021fc:	e0bffc17 	ldw	r2,-16(fp)
  802200:	108030c3 	ldbu	r2,195(r2)
  802204:	10803fcc 	andi	r2,r2,255
  802208:	1080201c 	xori	r2,r2,128
  80220c:	10bfe004 	addi	r2,r2,-128
  802210:	10000326 	beq	r2,zero,802220 <logic+0x1c14>
    d->_Pacemaker_local__Atrig7 = 1;
  802214:	e0bffc17 	ldw	r2,-16(fp)
  802218:	00c00044 	movi	r3,1
  80221c:	10c01ac5 	stb	r3,107(r2)
  }
  d->_cg114 = d->_Pacemaker_local__Atrig6 || d->_Pacemaker_local__Atrig7;
  802220:	e0bffc17 	ldw	r2,-16(fp)
  802224:	10801a83 	ldbu	r2,106(r2)
  802228:	10803fcc 	andi	r2,r2,255
  80222c:	1080201c 	xori	r2,r2,128
  802230:	10bfe004 	addi	r2,r2,-128
  802234:	1000061e 	bne	r2,zero,802250 <logic+0x1c44>
  802238:	e0bffc17 	ldw	r2,-16(fp)
  80223c:	10801ac3 	ldbu	r2,107(r2)
  802240:	10803fcc 	andi	r2,r2,255
  802244:	1080201c 	xori	r2,r2,128
  802248:	10bfe004 	addi	r2,r2,-128
  80224c:	10000226 	beq	r2,zero,802258 <logic+0x1c4c>
  802250:	00800044 	movi	r2,1
  802254:	00000106 	br	80225c <logic+0x1c50>
  802258:	0005883a 	mov	r2,zero
  80225c:	1007883a 	mov	r3,r2
  802260:	e0bffc17 	ldw	r2,-16(fp)
  802264:	10c03fc5 	stb	r3,255(r2)
  d->_g115 = d->_g17 && d->_cg114;
  802268:	e0bffc17 	ldw	r2,-16(fp)
  80226c:	10801d83 	ldbu	r2,118(r2)
  802270:	10803fcc 	andi	r2,r2,255
  802274:	1080201c 	xori	r2,r2,128
  802278:	10bfe004 	addi	r2,r2,-128
  80227c:	10000826 	beq	r2,zero,8022a0 <logic+0x1c94>
  802280:	e0bffc17 	ldw	r2,-16(fp)
  802284:	10803fc3 	ldbu	r2,255(r2)
  802288:	10803fcc 	andi	r2,r2,255
  80228c:	1080201c 	xori	r2,r2,128
  802290:	10bfe004 	addi	r2,r2,-128
  802294:	10000226 	beq	r2,zero,8022a0 <logic+0x1c94>
  802298:	00800044 	movi	r2,1
  80229c:	00000106 	br	8022a4 <logic+0x1c98>
  8022a0:	0005883a 	mov	r2,zero
  8022a4:	1007883a 	mov	r3,r2
  8022a8:	e0bffc17 	ldw	r2,-16(fp)
  8022ac:	10c02d85 	stb	r3,182(r2)
  d->_g125 = d->_pg82;
  8022b0:	e0bffc17 	ldw	r2,-16(fp)
  8022b4:	10c04d03 	ldbu	r3,308(r2)
  8022b8:	e0bffc17 	ldw	r2,-16(fp)
  8022bc:	10c02f45 	stb	r3,189(r2)
  d->_g119 = d->_pg94;
  8022c0:	e0bffc17 	ldw	r2,-16(fp)
  8022c4:	10c04d43 	ldbu	r3,309(r2)
  8022c8:	e0bffc17 	ldw	r2,-16(fp)
  8022cc:	10c02e05 	stb	r3,184(r2)
  d->_g122_e2 = !(d->_g125 || d->_g119);
  8022d0:	e0bffc17 	ldw	r2,-16(fp)
  8022d4:	10802f43 	ldbu	r2,189(r2)
  8022d8:	10803fcc 	andi	r2,r2,255
  8022dc:	1080201c 	xori	r2,r2,128
  8022e0:	10bfe004 	addi	r2,r2,-128
  8022e4:	1000081e 	bne	r2,zero,802308 <logic+0x1cfc>
  8022e8:	e0bffc17 	ldw	r2,-16(fp)
  8022ec:	10802e03 	ldbu	r2,184(r2)
  8022f0:	10803fcc 	andi	r2,r2,255
  8022f4:	1080201c 	xori	r2,r2,128
  8022f8:	10bfe004 	addi	r2,r2,-128
  8022fc:	1000021e 	bne	r2,zero,802308 <logic+0x1cfc>
  802300:	00800044 	movi	r2,1
  802304:	00000106 	br	80230c <logic+0x1d00>
  802308:	0005883a 	mov	r2,zero
  80230c:	1007883a 	mov	r3,r2
  802310:	e0bffc17 	ldw	r2,-16(fp)
  802314:	10c046c5 	stb	r3,283(r2)
  d->_g125 = d->_g119 || d->_g125;
  802318:	e0bffc17 	ldw	r2,-16(fp)
  80231c:	10802e03 	ldbu	r2,184(r2)
  802320:	10803fcc 	andi	r2,r2,255
  802324:	1080201c 	xori	r2,r2,128
  802328:	10bfe004 	addi	r2,r2,-128
  80232c:	1000061e 	bne	r2,zero,802348 <logic+0x1d3c>
  802330:	e0bffc17 	ldw	r2,-16(fp)
  802334:	10802f43 	ldbu	r2,189(r2)
  802338:	10803fcc 	andi	r2,r2,255
  80233c:	1080201c 	xori	r2,r2,128
  802340:	10bfe004 	addi	r2,r2,-128
  802344:	10000226 	beq	r2,zero,802350 <logic+0x1d44>
  802348:	00800044 	movi	r2,1
  80234c:	00000106 	br	802354 <logic+0x1d48>
  802350:	0005883a 	mov	r2,zero
  802354:	1007883a 	mov	r3,r2
  802358:	e0bffc17 	ldw	r2,-16(fp)
  80235c:	10c02f45 	stb	r3,189(r2)
  d->_cg120 = d->_region4_LRI_cLRI < d->LRI_Constraint;
  802360:	e0bffc17 	ldw	r2,-16(fp)
  802364:	14000f17 	ldw	r16,60(r2)
  802368:	14401017 	ldw	r17,64(r2)
  80236c:	e0bffc17 	ldw	r2,-16(fp)
  802370:	10800517 	ldw	r2,20(r2)
  802374:	1009883a 	mov	r4,r2
  802378:	08069c80 	call	8069c8 <__floatsidf>
  80237c:	1009883a 	mov	r4,r2
  802380:	180b883a 	mov	r5,r3
  802384:	04800044 	movi	r18,1
  802388:	200d883a 	mov	r6,r4
  80238c:	280f883a 	mov	r7,r5
  802390:	8009883a 	mov	r4,r16
  802394:	880b883a 	mov	r5,r17
  802398:	0805fd80 	call	805fd8 <__ledf2>
  80239c:	10000116 	blt	r2,zero,8023a4 <logic+0x1d98>
  8023a0:	0025883a 	mov	r18,zero
  8023a4:	9007883a 	mov	r3,r18
  8023a8:	e0bffc17 	ldw	r2,-16(fp)
  8023ac:	10c040c5 	stb	r3,259(r2)
  d->_g119 = d->_g125 && d->_cg120;
  8023b0:	e0bffc17 	ldw	r2,-16(fp)
  8023b4:	10802f43 	ldbu	r2,189(r2)
  8023b8:	10803fcc 	andi	r2,r2,255
  8023bc:	1080201c 	xori	r2,r2,128
  8023c0:	10bfe004 	addi	r2,r2,-128
  8023c4:	10000826 	beq	r2,zero,8023e8 <logic+0x1ddc>
  8023c8:	e0bffc17 	ldw	r2,-16(fp)
  8023cc:	108040c3 	ldbu	r2,259(r2)
  8023d0:	10803fcc 	andi	r2,r2,255
  8023d4:	1080201c 	xori	r2,r2,128
  8023d8:	10bfe004 	addi	r2,r2,-128
  8023dc:	10000226 	beq	r2,zero,8023e8 <logic+0x1ddc>
  8023e0:	00800044 	movi	r2,1
  8023e4:	00000106 	br	8023ec <logic+0x1de0>
  8023e8:	0005883a 	mov	r2,zero
  8023ec:	1007883a 	mov	r3,r2
  8023f0:	e0bffc17 	ldw	r2,-16(fp)
  8023f4:	10c02e05 	stb	r3,184(r2)
  if (d->_g119) {
  8023f8:	e0bffc17 	ldw	r2,-16(fp)
  8023fc:	10802e03 	ldbu	r2,184(r2)
  802400:	10803fcc 	andi	r2,r2,255
  802404:	1080201c 	xori	r2,r2,128
  802408:	10bfe004 	addi	r2,r2,-128
  80240c:	10003426 	beq	r2,zero,8024e0 <logic+0x1ed4>
    d->sleepT = (d->sleepT < (d->LRI_Constraint - d->_region4_LRI_cLRI)) ? d->sleepT : (d->LRI_Constraint - d->_region4_LRI_cLRI);
  802410:	e0bffc17 	ldw	r2,-16(fp)
  802414:	14001517 	ldw	r16,84(r2)
  802418:	14401617 	ldw	r17,88(r2)
  80241c:	e0bffc17 	ldw	r2,-16(fp)
  802420:	10800517 	ldw	r2,20(r2)
  802424:	1009883a 	mov	r4,r2
  802428:	08069c80 	call	8069c8 <__floatsidf>
  80242c:	1011883a 	mov	r8,r2
  802430:	1813883a 	mov	r9,r3
  802434:	e13ffc17 	ldw	r4,-16(fp)
  802438:	20800f17 	ldw	r2,60(r4)
  80243c:	20c01017 	ldw	r3,64(r4)
  802440:	100d883a 	mov	r6,r2
  802444:	180f883a 	mov	r7,r3
  802448:	4009883a 	mov	r4,r8
  80244c:	480b883a 	mov	r5,r9
  802450:	08060cc0 	call	8060cc <__subdf3>
  802454:	1009883a 	mov	r4,r2
  802458:	180b883a 	mov	r5,r3
  80245c:	2005883a 	mov	r2,r4
  802460:	2807883a 	mov	r3,r5
  802464:	100d883a 	mov	r6,r2
  802468:	180f883a 	mov	r7,r3
  80246c:	8009883a 	mov	r4,r16
  802470:	880b883a 	mov	r5,r17
  802474:	0805fd80 	call	805fd8 <__ledf2>
  802478:	1000040e 	bge	r2,zero,80248c <logic+0x1e80>
  80247c:	e13ffc17 	ldw	r4,-16(fp)
  802480:	20801517 	ldw	r2,84(r4)
  802484:	20c01617 	ldw	r3,88(r4)
  802488:	00001206 	br	8024d4 <logic+0x1ec8>
  80248c:	e0bffc17 	ldw	r2,-16(fp)
  802490:	10800517 	ldw	r2,20(r2)
  802494:	1009883a 	mov	r4,r2
  802498:	08069c80 	call	8069c8 <__floatsidf>
  80249c:	1011883a 	mov	r8,r2
  8024a0:	1813883a 	mov	r9,r3
  8024a4:	e13ffc17 	ldw	r4,-16(fp)
  8024a8:	20800f17 	ldw	r2,60(r4)
  8024ac:	20c01017 	ldw	r3,64(r4)
  8024b0:	100d883a 	mov	r6,r2
  8024b4:	180f883a 	mov	r7,r3
  8024b8:	4009883a 	mov	r4,r8
  8024bc:	480b883a 	mov	r5,r9
  8024c0:	08060cc0 	call	8060cc <__subdf3>
  8024c4:	1009883a 	mov	r4,r2
  8024c8:	180b883a 	mov	r5,r3
  8024cc:	2005883a 	mov	r2,r4
  8024d0:	2807883a 	mov	r3,r5
  8024d4:	e13ffc17 	ldw	r4,-16(fp)
  8024d8:	20801515 	stw	r2,84(r4)
  8024dc:	20c01615 	stw	r3,88(r4)
  }
  d->_cg121 = d->_Pacemaker_local__Atrig6 || d->_Pacemaker_local__Atrig7;
  8024e0:	e0bffc17 	ldw	r2,-16(fp)
  8024e4:	10801a83 	ldbu	r2,106(r2)
  8024e8:	10803fcc 	andi	r2,r2,255
  8024ec:	1080201c 	xori	r2,r2,128
  8024f0:	10bfe004 	addi	r2,r2,-128
  8024f4:	1000061e 	bne	r2,zero,802510 <logic+0x1f04>
  8024f8:	e0bffc17 	ldw	r2,-16(fp)
  8024fc:	10801ac3 	ldbu	r2,107(r2)
  802500:	10803fcc 	andi	r2,r2,255
  802504:	1080201c 	xori	r2,r2,128
  802508:	10bfe004 	addi	r2,r2,-128
  80250c:	10000226 	beq	r2,zero,802518 <logic+0x1f0c>
  802510:	00800044 	movi	r2,1
  802514:	00000106 	br	80251c <logic+0x1f10>
  802518:	0005883a 	mov	r2,zero
  80251c:	1007883a 	mov	r3,r2
  802520:	e0bffc17 	ldw	r2,-16(fp)
  802524:	10c04085 	stb	r3,258(r2)
  d->_g120 = d->_g125 && !d->_cg120;
  802528:	e0bffc17 	ldw	r2,-16(fp)
  80252c:	10802f43 	ldbu	r2,189(r2)
  802530:	10803fcc 	andi	r2,r2,255
  802534:	1080201c 	xori	r2,r2,128
  802538:	10bfe004 	addi	r2,r2,-128
  80253c:	10000826 	beq	r2,zero,802560 <logic+0x1f54>
  802540:	e0bffc17 	ldw	r2,-16(fp)
  802544:	108040c3 	ldbu	r2,259(r2)
  802548:	10803fcc 	andi	r2,r2,255
  80254c:	1080201c 	xori	r2,r2,128
  802550:	10bfe004 	addi	r2,r2,-128
  802554:	1000021e 	bne	r2,zero,802560 <logic+0x1f54>
  802558:	00800044 	movi	r2,1
  80255c:	00000106 	br	802564 <logic+0x1f58>
  802560:	0005883a 	mov	r2,zero
  802564:	1007883a 	mov	r3,r2
  802568:	e0bffc17 	ldw	r2,-16(fp)
  80256c:	10c02e45 	stb	r3,185(r2)
  d->_cg123 = d->_Pacemaker_local__Atrig6 || d->_Pacemaker_local__Atrig7;
  802570:	e0bffc17 	ldw	r2,-16(fp)
  802574:	10801a83 	ldbu	r2,106(r2)
  802578:	10803fcc 	andi	r2,r2,255
  80257c:	1080201c 	xori	r2,r2,128
  802580:	10bfe004 	addi	r2,r2,-128
  802584:	1000061e 	bne	r2,zero,8025a0 <logic+0x1f94>
  802588:	e0bffc17 	ldw	r2,-16(fp)
  80258c:	10801ac3 	ldbu	r2,107(r2)
  802590:	10803fcc 	andi	r2,r2,255
  802594:	1080201c 	xori	r2,r2,128
  802598:	10bfe004 	addi	r2,r2,-128
  80259c:	10000226 	beq	r2,zero,8025a8 <logic+0x1f9c>
  8025a0:	00800044 	movi	r2,1
  8025a4:	00000106 	br	8025ac <logic+0x1fa0>
  8025a8:	0005883a 	mov	r2,zero
  8025ac:	1007883a 	mov	r3,r2
  8025b0:	e0bffc17 	ldw	r2,-16(fp)
  8025b4:	10c04105 	stb	r3,260(r2)
  d->_g122 = d->_g119 && d->_cg121 || d->_g120 && d->_cg123;
  8025b8:	e0bffc17 	ldw	r2,-16(fp)
  8025bc:	10802e03 	ldbu	r2,184(r2)
  8025c0:	10803fcc 	andi	r2,r2,255
  8025c4:	1080201c 	xori	r2,r2,128
  8025c8:	10bfe004 	addi	r2,r2,-128
  8025cc:	10000626 	beq	r2,zero,8025e8 <logic+0x1fdc>
  8025d0:	e0bffc17 	ldw	r2,-16(fp)
  8025d4:	10804083 	ldbu	r2,258(r2)
  8025d8:	10803fcc 	andi	r2,r2,255
  8025dc:	1080201c 	xori	r2,r2,128
  8025e0:	10bfe004 	addi	r2,r2,-128
  8025e4:	10000c1e 	bne	r2,zero,802618 <logic+0x200c>
  8025e8:	e0bffc17 	ldw	r2,-16(fp)
  8025ec:	10802e43 	ldbu	r2,185(r2)
  8025f0:	10803fcc 	andi	r2,r2,255
  8025f4:	1080201c 	xori	r2,r2,128
  8025f8:	10bfe004 	addi	r2,r2,-128
  8025fc:	10000826 	beq	r2,zero,802620 <logic+0x2014>
  802600:	e0bffc17 	ldw	r2,-16(fp)
  802604:	10804103 	ldbu	r2,260(r2)
  802608:	10803fcc 	andi	r2,r2,255
  80260c:	1080201c 	xori	r2,r2,128
  802610:	10bfe004 	addi	r2,r2,-128
  802614:	10000226 	beq	r2,zero,802620 <logic+0x2014>
  802618:	00800044 	movi	r2,1
  80261c:	00000106 	br	802624 <logic+0x2018>
  802620:	0005883a 	mov	r2,zero
  802624:	1007883a 	mov	r3,r2
  802628:	e0bffc17 	ldw	r2,-16(fp)
  80262c:	10c02ec5 	stb	r3,187(r2)
  d->_g129 = !d->_g129;
  802630:	e0bffc17 	ldw	r2,-16(fp)
  802634:	10802fc3 	ldbu	r2,191(r2)
  802638:	10803fcc 	andi	r2,r2,255
  80263c:	1080201c 	xori	r2,r2,128
  802640:	10bfe004 	addi	r2,r2,-128
  802644:	1005003a 	cmpeq	r2,r2,zero
  802648:	1007883a 	mov	r3,r2
  80264c:	e0bffc17 	ldw	r2,-16(fp)
  802650:	10c02fc5 	stb	r3,191(r2)
  d->_g130 = d->_g130 || d->_g133;
  802654:	e0bffc17 	ldw	r2,-16(fp)
  802658:	10803003 	ldbu	r2,192(r2)
  80265c:	10803fcc 	andi	r2,r2,255
  802660:	1080201c 	xori	r2,r2,128
  802664:	10bfe004 	addi	r2,r2,-128
  802668:	1000061e 	bne	r2,zero,802684 <logic+0x2078>
  80266c:	e0bffc17 	ldw	r2,-16(fp)
  802670:	108030c3 	ldbu	r2,195(r2)
  802674:	10803fcc 	andi	r2,r2,255
  802678:	1080201c 	xori	r2,r2,128
  80267c:	10bfe004 	addi	r2,r2,-128
  802680:	10000226 	beq	r2,zero,80268c <logic+0x2080>
  802684:	00800044 	movi	r2,1
  802688:	00000106 	br	802690 <logic+0x2084>
  80268c:	0005883a 	mov	r2,zero
  802690:	1007883a 	mov	r3,r2
  802694:	e0bffc17 	ldw	r2,-16(fp)
  802698:	10c03005 	stb	r3,192(r2)
  d->_g133 = (d->_g26 || d->_g115) && (d->_g122_e2 || d->_g122) && (d->_g129 || d->_g130) && (d->_g115 || d->_g122 || d->_g130);
  80269c:	e0bffc17 	ldw	r2,-16(fp)
  8026a0:	10801f03 	ldbu	r2,124(r2)
  8026a4:	10803fcc 	andi	r2,r2,255
  8026a8:	1080201c 	xori	r2,r2,128
  8026ac:	10bfe004 	addi	r2,r2,-128
  8026b0:	1000061e 	bne	r2,zero,8026cc <logic+0x20c0>
  8026b4:	e0bffc17 	ldw	r2,-16(fp)
  8026b8:	10802d83 	ldbu	r2,182(r2)
  8026bc:	10803fcc 	andi	r2,r2,255
  8026c0:	1080201c 	xori	r2,r2,128
  8026c4:	10bfe004 	addi	r2,r2,-128
  8026c8:	10002c26 	beq	r2,zero,80277c <logic+0x2170>
  8026cc:	e0bffc17 	ldw	r2,-16(fp)
  8026d0:	108046c3 	ldbu	r2,283(r2)
  8026d4:	10803fcc 	andi	r2,r2,255
  8026d8:	1080201c 	xori	r2,r2,128
  8026dc:	10bfe004 	addi	r2,r2,-128
  8026e0:	1000061e 	bne	r2,zero,8026fc <logic+0x20f0>
  8026e4:	e0bffc17 	ldw	r2,-16(fp)
  8026e8:	10802ec3 	ldbu	r2,187(r2)
  8026ec:	10803fcc 	andi	r2,r2,255
  8026f0:	1080201c 	xori	r2,r2,128
  8026f4:	10bfe004 	addi	r2,r2,-128
  8026f8:	10002026 	beq	r2,zero,80277c <logic+0x2170>
  8026fc:	e0bffc17 	ldw	r2,-16(fp)
  802700:	10802fc3 	ldbu	r2,191(r2)
  802704:	10803fcc 	andi	r2,r2,255
  802708:	1080201c 	xori	r2,r2,128
  80270c:	10bfe004 	addi	r2,r2,-128
  802710:	1000061e 	bne	r2,zero,80272c <logic+0x2120>
  802714:	e0bffc17 	ldw	r2,-16(fp)
  802718:	10803003 	ldbu	r2,192(r2)
  80271c:	10803fcc 	andi	r2,r2,255
  802720:	1080201c 	xori	r2,r2,128
  802724:	10bfe004 	addi	r2,r2,-128
  802728:	10001426 	beq	r2,zero,80277c <logic+0x2170>
  80272c:	e0bffc17 	ldw	r2,-16(fp)
  802730:	10802d83 	ldbu	r2,182(r2)
  802734:	10803fcc 	andi	r2,r2,255
  802738:	1080201c 	xori	r2,r2,128
  80273c:	10bfe004 	addi	r2,r2,-128
  802740:	10000c1e 	bne	r2,zero,802774 <logic+0x2168>
  802744:	e0bffc17 	ldw	r2,-16(fp)
  802748:	10802ec3 	ldbu	r2,187(r2)
  80274c:	10803fcc 	andi	r2,r2,255
  802750:	1080201c 	xori	r2,r2,128
  802754:	10bfe004 	addi	r2,r2,-128
  802758:	1000061e 	bne	r2,zero,802774 <logic+0x2168>
  80275c:	e0bffc17 	ldw	r2,-16(fp)
  802760:	10803003 	ldbu	r2,192(r2)
  802764:	10803fcc 	andi	r2,r2,255
  802768:	1080201c 	xori	r2,r2,128
  80276c:	10bfe004 	addi	r2,r2,-128
  802770:	10000226 	beq	r2,zero,80277c <logic+0x2170>
  802774:	00800044 	movi	r2,1
  802778:	00000106 	br	802780 <logic+0x2174>
  80277c:	0005883a 	mov	r2,zero
  802780:	1007883a 	mov	r3,r2
  802784:	e0bffc17 	ldw	r2,-16(fp)
  802788:	10c030c5 	stb	r3,195(r2)
  d->_cg134 = d->_Pacemaker_local__Atrig6;
  80278c:	e0bffc17 	ldw	r2,-16(fp)
  802790:	10c01a83 	ldbu	r3,106(r2)
  802794:	e0bffc17 	ldw	r2,-16(fp)
  802798:	10c03f45 	stb	r3,253(r2)
  d->_g122 = d->_g133 && !d->_cg134;
  80279c:	e0bffc17 	ldw	r2,-16(fp)
  8027a0:	108030c3 	ldbu	r2,195(r2)
  8027a4:	10803fcc 	andi	r2,r2,255
  8027a8:	1080201c 	xori	r2,r2,128
  8027ac:	10bfe004 	addi	r2,r2,-128
  8027b0:	10000826 	beq	r2,zero,8027d4 <logic+0x21c8>
  8027b4:	e0bffc17 	ldw	r2,-16(fp)
  8027b8:	10803f43 	ldbu	r2,253(r2)
  8027bc:	10803fcc 	andi	r2,r2,255
  8027c0:	1080201c 	xori	r2,r2,128
  8027c4:	10bfe004 	addi	r2,r2,-128
  8027c8:	1000021e 	bne	r2,zero,8027d4 <logic+0x21c8>
  8027cc:	00800044 	movi	r2,1
  8027d0:	00000106 	br	8027d8 <logic+0x21cc>
  8027d4:	0005883a 	mov	r2,zero
  8027d8:	1007883a 	mov	r3,r2
  8027dc:	e0bffc17 	ldw	r2,-16(fp)
  8027e0:	10c02ec5 	stb	r3,187(r2)
  if (d->_g122) {
  8027e4:	e0bffc17 	ldw	r2,-16(fp)
  8027e8:	10802ec3 	ldbu	r2,187(r2)
  8027ec:	10803fcc 	andi	r2,r2,255
  8027f0:	1080201c 	xori	r2,r2,128
  8027f4:	10bfe004 	addi	r2,r2,-128
  8027f8:	10000626 	beq	r2,zero,802814 <logic+0x2208>
    d->VP |= 1;
  8027fc:	e0bffc17 	ldw	r2,-16(fp)
  802800:	10801743 	ldbu	r2,93(r2)
  802804:	10800054 	ori	r2,r2,1
  802808:	1007883a 	mov	r3,r2
  80280c:	e0bffc17 	ldw	r2,-16(fp)
  802810:	10c01745 	stb	r3,93(r2)
  }
  d->_g131_e3 = d->_pg37;
  802814:	e0bffc17 	ldw	r2,-16(fp)
  802818:	10c04d83 	ldbu	r3,310(r2)
  80281c:	e0bffc17 	ldw	r2,-16(fp)
  802820:	10c04705 	stb	r3,284(r2)
  d->_cg33 = d->VS || d->VP;
  802824:	e0bffc17 	ldw	r2,-16(fp)
  802828:	10800043 	ldbu	r2,1(r2)
  80282c:	10803fcc 	andi	r2,r2,255
  802830:	1080201c 	xori	r2,r2,128
  802834:	10bfe004 	addi	r2,r2,-128
  802838:	1000061e 	bne	r2,zero,802854 <logic+0x2248>
  80283c:	e0bffc17 	ldw	r2,-16(fp)
  802840:	10801743 	ldbu	r2,93(r2)
  802844:	10803fcc 	andi	r2,r2,255
  802848:	1080201c 	xori	r2,r2,128
  80284c:	10bfe004 	addi	r2,r2,-128
  802850:	10000226 	beq	r2,zero,80285c <logic+0x2250>
  802854:	00800044 	movi	r2,1
  802858:	00000106 	br	802860 <logic+0x2254>
  80285c:	0005883a 	mov	r2,zero
  802860:	1007883a 	mov	r3,r2
  802864:	e0bffc17 	ldw	r2,-16(fp)
  802868:	10c03905 	stb	r3,228(r2)
  d->_g115_e1 = d->_g131_e3 && d->_cg33;
  80286c:	e0bffc17 	ldw	r2,-16(fp)
  802870:	10804703 	ldbu	r2,284(r2)
  802874:	10803fcc 	andi	r2,r2,255
  802878:	1080201c 	xori	r2,r2,128
  80287c:	10bfe004 	addi	r2,r2,-128
  802880:	10000826 	beq	r2,zero,8028a4 <logic+0x2298>
  802884:	e0bffc17 	ldw	r2,-16(fp)
  802888:	10803903 	ldbu	r2,228(r2)
  80288c:	10803fcc 	andi	r2,r2,255
  802890:	1080201c 	xori	r2,r2,128
  802894:	10bfe004 	addi	r2,r2,-128
  802898:	10000226 	beq	r2,zero,8028a4 <logic+0x2298>
  80289c:	00800044 	movi	r2,1
  8028a0:	00000106 	br	8028a8 <logic+0x229c>
  8028a4:	0005883a 	mov	r2,zero
  8028a8:	1007883a 	mov	r3,r2
  8028ac:	e0bffc17 	ldw	r2,-16(fp)
  8028b0:	10c04685 	stb	r3,282(r2)
  if (d->_g115_e1) {
  8028b4:	e0bffc17 	ldw	r2,-16(fp)
  8028b8:	10804683 	ldbu	r2,282(r2)
  8028bc:	10803fcc 	andi	r2,r2,255
  8028c0:	1080201c 	xori	r2,r2,128
  8028c4:	10bfe004 	addi	r2,r2,-128
  8028c8:	10000526 	beq	r2,zero,8028e0 <logic+0x22d4>
    d->_region1_PVARP_cPVARP = 0;
  8028cc:	e0bffc17 	ldw	r2,-16(fp)
  8028d0:	10000915 	stw	zero,36(r2)
  8028d4:	10000a15 	stw	zero,40(r2)
    d->_Pacemaker_local__Atrig2 = 0;
  8028d8:	e0bffc17 	ldw	r2,-16(fp)
  8028dc:	10001985 	stb	zero,102(r2)
  }
  d->_g122_e2 = d->_g115_e1 || d->_g9;
  8028e0:	e0bffc17 	ldw	r2,-16(fp)
  8028e4:	10804683 	ldbu	r2,282(r2)
  8028e8:	10803fcc 	andi	r2,r2,255
  8028ec:	1080201c 	xori	r2,r2,128
  8028f0:	10bfe004 	addi	r2,r2,-128
  8028f4:	1000061e 	bne	r2,zero,802910 <logic+0x2304>
  8028f8:	e0bffc17 	ldw	r2,-16(fp)
  8028fc:	10801c03 	ldbu	r2,112(r2)
  802900:	10803fcc 	andi	r2,r2,255
  802904:	1080201c 	xori	r2,r2,128
  802908:	10bfe004 	addi	r2,r2,-128
  80290c:	10000226 	beq	r2,zero,802918 <logic+0x230c>
  802910:	00800044 	movi	r2,1
  802914:	00000106 	br	80291c <logic+0x2310>
  802918:	0005883a 	mov	r2,zero
  80291c:	1007883a 	mov	r3,r2
  802920:	e0bffc17 	ldw	r2,-16(fp)
  802924:	10c046c5 	stb	r3,283(r2)
  d->_cg36 = d->_Pacemaker_local__Atrig2;
  802928:	e0bffc17 	ldw	r2,-16(fp)
  80292c:	10c01983 	ldbu	r3,102(r2)
  802930:	e0bffc17 	ldw	r2,-16(fp)
  802934:	10c03945 	stb	r3,229(r2)
  d->_g131 = d->_g122_e2 && !d->_cg36;
  802938:	e0bffc17 	ldw	r2,-16(fp)
  80293c:	108046c3 	ldbu	r2,283(r2)
  802940:	10803fcc 	andi	r2,r2,255
  802944:	1080201c 	xori	r2,r2,128
  802948:	10bfe004 	addi	r2,r2,-128
  80294c:	10000826 	beq	r2,zero,802970 <logic+0x2364>
  802950:	e0bffc17 	ldw	r2,-16(fp)
  802954:	10803943 	ldbu	r2,229(r2)
  802958:	10803fcc 	andi	r2,r2,255
  80295c:	1080201c 	xori	r2,r2,128
  802960:	10bfe004 	addi	r2,r2,-128
  802964:	1000021e 	bne	r2,zero,802970 <logic+0x2364>
  802968:	00800044 	movi	r2,1
  80296c:	00000106 	br	802974 <logic+0x2368>
  802970:	0005883a 	mov	r2,zero
  802974:	1007883a 	mov	r3,r2
  802978:	e0bffc17 	ldw	r2,-16(fp)
  80297c:	10c03045 	stb	r3,193(r2)
  d->_g115 = !d->_g131;
  802980:	e0bffc17 	ldw	r2,-16(fp)
  802984:	10803043 	ldbu	r2,193(r2)
  802988:	10803fcc 	andi	r2,r2,255
  80298c:	1080201c 	xori	r2,r2,128
  802990:	10bfe004 	addi	r2,r2,-128
  802994:	1005003a 	cmpeq	r2,r2,zero
  802998:	1007883a 	mov	r3,r2
  80299c:	e0bffc17 	ldw	r2,-16(fp)
  8029a0:	10c02d85 	stb	r3,182(r2)
  d->_g39 = d->_g122_e2 && d->_cg36;
  8029a4:	e0bffc17 	ldw	r2,-16(fp)
  8029a8:	108046c3 	ldbu	r2,283(r2)
  8029ac:	10803fcc 	andi	r2,r2,255
  8029b0:	1080201c 	xori	r2,r2,128
  8029b4:	10bfe004 	addi	r2,r2,-128
  8029b8:	10000826 	beq	r2,zero,8029dc <logic+0x23d0>
  8029bc:	e0bffc17 	ldw	r2,-16(fp)
  8029c0:	10803943 	ldbu	r2,229(r2)
  8029c4:	10803fcc 	andi	r2,r2,255
  8029c8:	1080201c 	xori	r2,r2,128
  8029cc:	10bfe004 	addi	r2,r2,-128
  8029d0:	10000226 	beq	r2,zero,8029dc <logic+0x23d0>
  8029d4:	00800044 	movi	r2,1
  8029d8:	00000106 	br	8029e0 <logic+0x23d4>
  8029dc:	0005883a 	mov	r2,zero
  8029e0:	1007883a 	mov	r3,r2
  8029e4:	e0bffc17 	ldw	r2,-16(fp)
  8029e8:	10c02105 	stb	r3,132(r2)
  d->_g36 = d->_pg44;
  8029ec:	e0bffc17 	ldw	r2,-16(fp)
  8029f0:	10c04dc3 	ldbu	r3,311(r2)
  8029f4:	e0bffc17 	ldw	r2,-16(fp)
  8029f8:	10c02085 	stb	r3,130(r2)
  d->_g48 = d->_pg47;
  8029fc:	e0bffc17 	ldw	r2,-16(fp)
  802a00:	10c04e03 	ldbu	r3,312(r2)
  802a04:	e0bffc17 	ldw	r2,-16(fp)
  802a08:	10c02305 	stb	r3,140(r2)
  d->_g48 = d->_g115_e1 || d->_g36 || d->_g48;
  802a0c:	e0bffc17 	ldw	r2,-16(fp)
  802a10:	10804683 	ldbu	r2,282(r2)
  802a14:	10803fcc 	andi	r2,r2,255
  802a18:	1080201c 	xori	r2,r2,128
  802a1c:	10bfe004 	addi	r2,r2,-128
  802a20:	10000c1e 	bne	r2,zero,802a54 <logic+0x2448>
  802a24:	e0bffc17 	ldw	r2,-16(fp)
  802a28:	10802083 	ldbu	r2,130(r2)
  802a2c:	10803fcc 	andi	r2,r2,255
  802a30:	1080201c 	xori	r2,r2,128
  802a34:	10bfe004 	addi	r2,r2,-128
  802a38:	1000061e 	bne	r2,zero,802a54 <logic+0x2448>
  802a3c:	e0bffc17 	ldw	r2,-16(fp)
  802a40:	10802303 	ldbu	r2,140(r2)
  802a44:	10803fcc 	andi	r2,r2,255
  802a48:	1080201c 	xori	r2,r2,128
  802a4c:	10bfe004 	addi	r2,r2,-128
  802a50:	10000226 	beq	r2,zero,802a5c <logic+0x2450>
  802a54:	00800044 	movi	r2,1
  802a58:	00000106 	br	802a60 <logic+0x2454>
  802a5c:	0005883a 	mov	r2,zero
  802a60:	1007883a 	mov	r3,r2
  802a64:	e0bffc17 	ldw	r2,-16(fp)
  802a68:	10c02305 	stb	r3,140(r2)
  d->_cg41 = d->_region1_PVARP_cPVARP < d->PVARP_Constraint;
  802a6c:	e0bffc17 	ldw	r2,-16(fp)
  802a70:	14000917 	ldw	r16,36(r2)
  802a74:	14400a17 	ldw	r17,40(r2)
  802a78:	e0bffc17 	ldw	r2,-16(fp)
  802a7c:	10800217 	ldw	r2,8(r2)
  802a80:	1009883a 	mov	r4,r2
  802a84:	08069c80 	call	8069c8 <__floatsidf>
  802a88:	1009883a 	mov	r4,r2
  802a8c:	180b883a 	mov	r5,r3
  802a90:	04800044 	movi	r18,1
  802a94:	200d883a 	mov	r6,r4
  802a98:	280f883a 	mov	r7,r5
  802a9c:	8009883a 	mov	r4,r16
  802aa0:	880b883a 	mov	r5,r17
  802aa4:	0805fd80 	call	805fd8 <__ledf2>
  802aa8:	10000116 	blt	r2,zero,802ab0 <logic+0x24a4>
  802aac:	0025883a 	mov	r18,zero
  802ab0:	9007883a 	mov	r3,r18
  802ab4:	e0bffc17 	ldw	r2,-16(fp)
  802ab8:	10c03985 	stb	r3,230(r2)
  d->_g45 = d->_g48 && !d->_cg41;
  802abc:	e0bffc17 	ldw	r2,-16(fp)
  802ac0:	10802303 	ldbu	r2,140(r2)
  802ac4:	10803fcc 	andi	r2,r2,255
  802ac8:	1080201c 	xori	r2,r2,128
  802acc:	10bfe004 	addi	r2,r2,-128
  802ad0:	10000826 	beq	r2,zero,802af4 <logic+0x24e8>
  802ad4:	e0bffc17 	ldw	r2,-16(fp)
  802ad8:	10803983 	ldbu	r2,230(r2)
  802adc:	10803fcc 	andi	r2,r2,255
  802ae0:	1080201c 	xori	r2,r2,128
  802ae4:	10bfe004 	addi	r2,r2,-128
  802ae8:	1000021e 	bne	r2,zero,802af4 <logic+0x24e8>
  802aec:	00800044 	movi	r2,1
  802af0:	00000106 	br	802af8 <logic+0x24ec>
  802af4:	0005883a 	mov	r2,zero
  802af8:	1007883a 	mov	r3,r2
  802afc:	e0bffc17 	ldw	r2,-16(fp)
  802b00:	10c02245 	stb	r3,137(r2)
  d->_cg46 = d->_Pacemaker_local__Atrig2;
  802b04:	e0bffc17 	ldw	r2,-16(fp)
  802b08:	10c01983 	ldbu	r3,102(r2)
  802b0c:	e0bffc17 	ldw	r2,-16(fp)
  802b10:	10c03a05 	stb	r3,232(r2)
  d->_g47 = d->_g45 && !d->_cg46;
  802b14:	e0bffc17 	ldw	r2,-16(fp)
  802b18:	10802243 	ldbu	r2,137(r2)
  802b1c:	10803fcc 	andi	r2,r2,255
  802b20:	1080201c 	xori	r2,r2,128
  802b24:	10bfe004 	addi	r2,r2,-128
  802b28:	10000826 	beq	r2,zero,802b4c <logic+0x2540>
  802b2c:	e0bffc17 	ldw	r2,-16(fp)
  802b30:	10803a03 	ldbu	r2,232(r2)
  802b34:	10803fcc 	andi	r2,r2,255
  802b38:	1080201c 	xori	r2,r2,128
  802b3c:	10bfe004 	addi	r2,r2,-128
  802b40:	1000021e 	bne	r2,zero,802b4c <logic+0x2540>
  802b44:	00800044 	movi	r2,1
  802b48:	00000106 	br	802b50 <logic+0x2544>
  802b4c:	0005883a 	mov	r2,zero
  802b50:	1007883a 	mov	r3,r2
  802b54:	e0bffc17 	ldw	r2,-16(fp)
  802b58:	10c022c5 	stb	r3,139(r2)
  d->_g41 = d->_g48 && d->_cg41;
  802b5c:	e0bffc17 	ldw	r2,-16(fp)
  802b60:	10802303 	ldbu	r2,140(r2)
  802b64:	10803fcc 	andi	r2,r2,255
  802b68:	1080201c 	xori	r2,r2,128
  802b6c:	10bfe004 	addi	r2,r2,-128
  802b70:	10000826 	beq	r2,zero,802b94 <logic+0x2588>
  802b74:	e0bffc17 	ldw	r2,-16(fp)
  802b78:	10803983 	ldbu	r2,230(r2)
  802b7c:	10803fcc 	andi	r2,r2,255
  802b80:	1080201c 	xori	r2,r2,128
  802b84:	10bfe004 	addi	r2,r2,-128
  802b88:	10000226 	beq	r2,zero,802b94 <logic+0x2588>
  802b8c:	00800044 	movi	r2,1
  802b90:	00000106 	br	802b98 <logic+0x258c>
  802b94:	0005883a 	mov	r2,zero
  802b98:	1007883a 	mov	r3,r2
  802b9c:	e0bffc17 	ldw	r2,-16(fp)
  802ba0:	10c02145 	stb	r3,133(r2)
  if (d->_g41) {
  802ba4:	e0bffc17 	ldw	r2,-16(fp)
  802ba8:	10802143 	ldbu	r2,133(r2)
  802bac:	10803fcc 	andi	r2,r2,255
  802bb0:	1080201c 	xori	r2,r2,128
  802bb4:	10bfe004 	addi	r2,r2,-128
  802bb8:	10003426 	beq	r2,zero,802c8c <logic+0x2680>
    d->sleepT = (d->sleepT < (d->PVARP_Constraint - d->_region1_PVARP_cPVARP)) ? d->sleepT : (d->PVARP_Constraint - d->_region1_PVARP_cPVARP);
  802bbc:	e0bffc17 	ldw	r2,-16(fp)
  802bc0:	14001517 	ldw	r16,84(r2)
  802bc4:	14401617 	ldw	r17,88(r2)
  802bc8:	e0bffc17 	ldw	r2,-16(fp)
  802bcc:	10800217 	ldw	r2,8(r2)
  802bd0:	1009883a 	mov	r4,r2
  802bd4:	08069c80 	call	8069c8 <__floatsidf>
  802bd8:	1011883a 	mov	r8,r2
  802bdc:	1813883a 	mov	r9,r3
  802be0:	e13ffc17 	ldw	r4,-16(fp)
  802be4:	20800917 	ldw	r2,36(r4)
  802be8:	20c00a17 	ldw	r3,40(r4)
  802bec:	100d883a 	mov	r6,r2
  802bf0:	180f883a 	mov	r7,r3
  802bf4:	4009883a 	mov	r4,r8
  802bf8:	480b883a 	mov	r5,r9
  802bfc:	08060cc0 	call	8060cc <__subdf3>
  802c00:	1009883a 	mov	r4,r2
  802c04:	180b883a 	mov	r5,r3
  802c08:	2005883a 	mov	r2,r4
  802c0c:	2807883a 	mov	r3,r5
  802c10:	100d883a 	mov	r6,r2
  802c14:	180f883a 	mov	r7,r3
  802c18:	8009883a 	mov	r4,r16
  802c1c:	880b883a 	mov	r5,r17
  802c20:	0805fd80 	call	805fd8 <__ledf2>
  802c24:	1000040e 	bge	r2,zero,802c38 <logic+0x262c>
  802c28:	e13ffc17 	ldw	r4,-16(fp)
  802c2c:	20801517 	ldw	r2,84(r4)
  802c30:	20c01617 	ldw	r3,88(r4)
  802c34:	00001206 	br	802c80 <logic+0x2674>
  802c38:	e0bffc17 	ldw	r2,-16(fp)
  802c3c:	10800217 	ldw	r2,8(r2)
  802c40:	1009883a 	mov	r4,r2
  802c44:	08069c80 	call	8069c8 <__floatsidf>
  802c48:	1011883a 	mov	r8,r2
  802c4c:	1813883a 	mov	r9,r3
  802c50:	e13ffc17 	ldw	r4,-16(fp)
  802c54:	20800917 	ldw	r2,36(r4)
  802c58:	20c00a17 	ldw	r3,40(r4)
  802c5c:	100d883a 	mov	r6,r2
  802c60:	180f883a 	mov	r7,r3
  802c64:	4009883a 	mov	r4,r8
  802c68:	480b883a 	mov	r5,r9
  802c6c:	08060cc0 	call	8060cc <__subdf3>
  802c70:	1009883a 	mov	r4,r2
  802c74:	180b883a 	mov	r5,r3
  802c78:	2005883a 	mov	r2,r4
  802c7c:	2807883a 	mov	r3,r5
  802c80:	e13ffc17 	ldw	r4,-16(fp)
  802c84:	20801515 	stw	r2,84(r4)
  802c88:	20c01615 	stw	r3,88(r4)
  }
  d->_cg42 = d->_Pacemaker_local__Atrig2;
  802c8c:	e0bffc17 	ldw	r2,-16(fp)
  802c90:	10c01983 	ldbu	r3,102(r2)
  802c94:	e0bffc17 	ldw	r2,-16(fp)
  802c98:	10c039c5 	stb	r3,231(r2)
  d->_g44 = d->_g41 && !d->_cg42;
  802c9c:	e0bffc17 	ldw	r2,-16(fp)
  802ca0:	10802143 	ldbu	r2,133(r2)
  802ca4:	10803fcc 	andi	r2,r2,255
  802ca8:	1080201c 	xori	r2,r2,128
  802cac:	10bfe004 	addi	r2,r2,-128
  802cb0:	10000826 	beq	r2,zero,802cd4 <logic+0x26c8>
  802cb4:	e0bffc17 	ldw	r2,-16(fp)
  802cb8:	108039c3 	ldbu	r2,231(r2)
  802cbc:	10803fcc 	andi	r2,r2,255
  802cc0:	1080201c 	xori	r2,r2,128
  802cc4:	10bfe004 	addi	r2,r2,-128
  802cc8:	1000021e 	bne	r2,zero,802cd4 <logic+0x26c8>
  802ccc:	00800044 	movi	r2,1
  802cd0:	00000106 	br	802cd8 <logic+0x26cc>
  802cd4:	0005883a 	mov	r2,zero
  802cd8:	1007883a 	mov	r3,r2
  802cdc:	e0bffc17 	ldw	r2,-16(fp)
  802ce0:	10c02205 	stb	r3,136(r2)
  d->_g43_e2 = !(d->_g47 || d->_g44);
  802ce4:	e0bffc17 	ldw	r2,-16(fp)
  802ce8:	108022c3 	ldbu	r2,139(r2)
  802cec:	10803fcc 	andi	r2,r2,255
  802cf0:	1080201c 	xori	r2,r2,128
  802cf4:	10bfe004 	addi	r2,r2,-128
  802cf8:	1000081e 	bne	r2,zero,802d1c <logic+0x2710>
  802cfc:	e0bffc17 	ldw	r2,-16(fp)
  802d00:	10802203 	ldbu	r2,136(r2)
  802d04:	10803fcc 	andi	r2,r2,255
  802d08:	1080201c 	xori	r2,r2,128
  802d0c:	10bfe004 	addi	r2,r2,-128
  802d10:	1000021e 	bne	r2,zero,802d1c <logic+0x2710>
  802d14:	00800044 	movi	r2,1
  802d18:	00000106 	br	802d20 <logic+0x2714>
  802d1c:	0005883a 	mov	r2,zero
  802d20:	1007883a 	mov	r3,r2
  802d24:	e0bffc17 	ldw	r2,-16(fp)
  802d28:	10c04485 	stb	r3,274(r2)
  d->_g46 = d->_g41 && d->_cg42 || d->_g45 && d->_cg46;
  802d2c:	e0bffc17 	ldw	r2,-16(fp)
  802d30:	10802143 	ldbu	r2,133(r2)
  802d34:	10803fcc 	andi	r2,r2,255
  802d38:	1080201c 	xori	r2,r2,128
  802d3c:	10bfe004 	addi	r2,r2,-128
  802d40:	10000626 	beq	r2,zero,802d5c <logic+0x2750>
  802d44:	e0bffc17 	ldw	r2,-16(fp)
  802d48:	108039c3 	ldbu	r2,231(r2)
  802d4c:	10803fcc 	andi	r2,r2,255
  802d50:	1080201c 	xori	r2,r2,128
  802d54:	10bfe004 	addi	r2,r2,-128
  802d58:	10000c1e 	bne	r2,zero,802d8c <logic+0x2780>
  802d5c:	e0bffc17 	ldw	r2,-16(fp)
  802d60:	10802243 	ldbu	r2,137(r2)
  802d64:	10803fcc 	andi	r2,r2,255
  802d68:	1080201c 	xori	r2,r2,128
  802d6c:	10bfe004 	addi	r2,r2,-128
  802d70:	10000826 	beq	r2,zero,802d94 <logic+0x2788>
  802d74:	e0bffc17 	ldw	r2,-16(fp)
  802d78:	10803a03 	ldbu	r2,232(r2)
  802d7c:	10803fcc 	andi	r2,r2,255
  802d80:	1080201c 	xori	r2,r2,128
  802d84:	10bfe004 	addi	r2,r2,-128
  802d88:	10000226 	beq	r2,zero,802d94 <logic+0x2788>
  802d8c:	00800044 	movi	r2,1
  802d90:	00000106 	br	802d98 <logic+0x278c>
  802d94:	0005883a 	mov	r2,zero
  802d98:	1007883a 	mov	r3,r2
  802d9c:	e0bffc17 	ldw	r2,-16(fp)
  802da0:	10c02285 	stb	r3,138(r2)
  d->_g42 = d->_g115_e1 || d->_g11 && !d->_cg51;
  802da4:	e0bffc17 	ldw	r2,-16(fp)
  802da8:	10804683 	ldbu	r2,282(r2)
  802dac:	10803fcc 	andi	r2,r2,255
  802db0:	1080201c 	xori	r2,r2,128
  802db4:	10bfe004 	addi	r2,r2,-128
  802db8:	10000c1e 	bne	r2,zero,802dec <logic+0x27e0>
  802dbc:	e0bffc17 	ldw	r2,-16(fp)
  802dc0:	10801c43 	ldbu	r2,113(r2)
  802dc4:	10803fcc 	andi	r2,r2,255
  802dc8:	1080201c 	xori	r2,r2,128
  802dcc:	10bfe004 	addi	r2,r2,-128
  802dd0:	10000826 	beq	r2,zero,802df4 <logic+0x27e8>
  802dd4:	e0bffc17 	ldw	r2,-16(fp)
  802dd8:	10803a43 	ldbu	r2,233(r2)
  802ddc:	10803fcc 	andi	r2,r2,255
  802de0:	1080201c 	xori	r2,r2,128
  802de4:	10bfe004 	addi	r2,r2,-128
  802de8:	1000021e 	bne	r2,zero,802df4 <logic+0x27e8>
  802dec:	00800044 	movi	r2,1
  802df0:	00000106 	br	802df8 <logic+0x27ec>
  802df4:	0005883a 	mov	r2,zero
  802df8:	1007883a 	mov	r3,r2
  802dfc:	e0bffc17 	ldw	r2,-16(fp)
  802e00:	10c02185 	stb	r3,134(r2)
  d->_g51 = !d->_g42;
  802e04:	e0bffc17 	ldw	r2,-16(fp)
  802e08:	10802183 	ldbu	r2,134(r2)
  802e0c:	10803fcc 	andi	r2,r2,255
  802e10:	1080201c 	xori	r2,r2,128
  802e14:	10bfe004 	addi	r2,r2,-128
  802e18:	1005003a 	cmpeq	r2,r2,zero
  802e1c:	1007883a 	mov	r3,r2
  802e20:	e0bffc17 	ldw	r2,-16(fp)
  802e24:	10c02345 	stb	r3,141(r2)
  d->_g34 = (d->_g115 || d->_g39) && (d->_g43_e2 || d->_g46) && (d->_g51 || d->_g20) && (d->_g39 || d->_g46 || d->_g20);
  802e28:	e0bffc17 	ldw	r2,-16(fp)
  802e2c:	10802d83 	ldbu	r2,182(r2)
  802e30:	10803fcc 	andi	r2,r2,255
  802e34:	1080201c 	xori	r2,r2,128
  802e38:	10bfe004 	addi	r2,r2,-128
  802e3c:	1000061e 	bne	r2,zero,802e58 <logic+0x284c>
  802e40:	e0bffc17 	ldw	r2,-16(fp)
  802e44:	10802103 	ldbu	r2,132(r2)
  802e48:	10803fcc 	andi	r2,r2,255
  802e4c:	1080201c 	xori	r2,r2,128
  802e50:	10bfe004 	addi	r2,r2,-128
  802e54:	10002c26 	beq	r2,zero,802f08 <logic+0x28fc>
  802e58:	e0bffc17 	ldw	r2,-16(fp)
  802e5c:	10804483 	ldbu	r2,274(r2)
  802e60:	10803fcc 	andi	r2,r2,255
  802e64:	1080201c 	xori	r2,r2,128
  802e68:	10bfe004 	addi	r2,r2,-128
  802e6c:	1000061e 	bne	r2,zero,802e88 <logic+0x287c>
  802e70:	e0bffc17 	ldw	r2,-16(fp)
  802e74:	10802283 	ldbu	r2,138(r2)
  802e78:	10803fcc 	andi	r2,r2,255
  802e7c:	1080201c 	xori	r2,r2,128
  802e80:	10bfe004 	addi	r2,r2,-128
  802e84:	10002026 	beq	r2,zero,802f08 <logic+0x28fc>
  802e88:	e0bffc17 	ldw	r2,-16(fp)
  802e8c:	10802343 	ldbu	r2,141(r2)
  802e90:	10803fcc 	andi	r2,r2,255
  802e94:	1080201c 	xori	r2,r2,128
  802e98:	10bfe004 	addi	r2,r2,-128
  802e9c:	1000061e 	bne	r2,zero,802eb8 <logic+0x28ac>
  802ea0:	e0bffc17 	ldw	r2,-16(fp)
  802ea4:	10801e03 	ldbu	r2,120(r2)
  802ea8:	10803fcc 	andi	r2,r2,255
  802eac:	1080201c 	xori	r2,r2,128
  802eb0:	10bfe004 	addi	r2,r2,-128
  802eb4:	10001426 	beq	r2,zero,802f08 <logic+0x28fc>
  802eb8:	e0bffc17 	ldw	r2,-16(fp)
  802ebc:	10802103 	ldbu	r2,132(r2)
  802ec0:	10803fcc 	andi	r2,r2,255
  802ec4:	1080201c 	xori	r2,r2,128
  802ec8:	10bfe004 	addi	r2,r2,-128
  802ecc:	10000c1e 	bne	r2,zero,802f00 <logic+0x28f4>
  802ed0:	e0bffc17 	ldw	r2,-16(fp)
  802ed4:	10802283 	ldbu	r2,138(r2)
  802ed8:	10803fcc 	andi	r2,r2,255
  802edc:	1080201c 	xori	r2,r2,128
  802ee0:	10bfe004 	addi	r2,r2,-128
  802ee4:	1000061e 	bne	r2,zero,802f00 <logic+0x28f4>
  802ee8:	e0bffc17 	ldw	r2,-16(fp)
  802eec:	10801e03 	ldbu	r2,120(r2)
  802ef0:	10803fcc 	andi	r2,r2,255
  802ef4:	1080201c 	xori	r2,r2,128
  802ef8:	10bfe004 	addi	r2,r2,-128
  802efc:	10000226 	beq	r2,zero,802f08 <logic+0x28fc>
  802f00:	00800044 	movi	r2,1
  802f04:	00000106 	br	802f0c <logic+0x2900>
  802f08:	0005883a 	mov	r2,zero
  802f0c:	1007883a 	mov	r3,r2
  802f10:	e0bffc17 	ldw	r2,-16(fp)
  802f14:	10c02045 	stb	r3,129(r2)
  d->_g37 = d->_GO || d->_g34 || d->_g131_e3 && !d->_cg33;
  802f18:	e0bffc17 	ldw	r2,-16(fp)
  802f1c:	108035c3 	ldbu	r2,215(r2)
  802f20:	10803fcc 	andi	r2,r2,255
  802f24:	1080201c 	xori	r2,r2,128
  802f28:	10bfe004 	addi	r2,r2,-128
  802f2c:	1000121e 	bne	r2,zero,802f78 <logic+0x296c>
  802f30:	e0bffc17 	ldw	r2,-16(fp)
  802f34:	10802043 	ldbu	r2,129(r2)
  802f38:	10803fcc 	andi	r2,r2,255
  802f3c:	1080201c 	xori	r2,r2,128
  802f40:	10bfe004 	addi	r2,r2,-128
  802f44:	10000c1e 	bne	r2,zero,802f78 <logic+0x296c>
  802f48:	e0bffc17 	ldw	r2,-16(fp)
  802f4c:	10804703 	ldbu	r2,284(r2)
  802f50:	10803fcc 	andi	r2,r2,255
  802f54:	1080201c 	xori	r2,r2,128
  802f58:	10bfe004 	addi	r2,r2,-128
  802f5c:	10000826 	beq	r2,zero,802f80 <logic+0x2974>
  802f60:	e0bffc17 	ldw	r2,-16(fp)
  802f64:	10803903 	ldbu	r2,228(r2)
  802f68:	10803fcc 	andi	r2,r2,255
  802f6c:	1080201c 	xori	r2,r2,128
  802f70:	10bfe004 	addi	r2,r2,-128
  802f74:	1000021e 	bne	r2,zero,802f80 <logic+0x2974>
  802f78:	00800044 	movi	r2,1
  802f7c:	00000106 	br	802f84 <logic+0x2978>
  802f80:	0005883a 	mov	r2,zero
  802f84:	1007883a 	mov	r3,r2
  802f88:	e0bffc17 	ldw	r2,-16(fp)
  802f8c:	10c020c5 	stb	r3,131(r2)
  d->_g52 = d->_pg158_e3;
  802f90:	e0bffc17 	ldw	r2,-16(fp)
  802f94:	10c04e43 	ldbu	r3,313(r2)
  802f98:	e0bffc17 	ldw	r2,-16(fp)
  802f9c:	10c02385 	stb	r3,142(r2)
  if (d->_g52) {
  802fa0:	e0bffc17 	ldw	r2,-16(fp)
  802fa4:	10802383 	ldbu	r2,142(r2)
  802fa8:	10803fcc 	andi	r2,r2,255
  802fac:	1080201c 	xori	r2,r2,128
  802fb0:	10bfe004 	addi	r2,r2,-128
  802fb4:	10001226 	beq	r2,zero,803000 <logic+0x29f4>
    d->_region2_VRP_cVRP += d->deltaT;
  802fb8:	e13ffc17 	ldw	r4,-16(fp)
  802fbc:	20800b17 	ldw	r2,44(r4)
  802fc0:	20c00c17 	ldw	r3,48(r4)
  802fc4:	e1bffc17 	ldw	r6,-16(fp)
  802fc8:	31001317 	ldw	r4,76(r6)
  802fcc:	31401417 	ldw	r5,80(r6)
  802fd0:	200d883a 	mov	r6,r4
  802fd4:	280f883a 	mov	r7,r5
  802fd8:	1009883a 	mov	r4,r2
  802fdc:	180b883a 	mov	r5,r3
  802fe0:	08056500 	call	805650 <__adddf3>
  802fe4:	1009883a 	mov	r4,r2
  802fe8:	180b883a 	mov	r5,r3
  802fec:	2005883a 	mov	r2,r4
  802ff0:	2807883a 	mov	r3,r5
  802ff4:	e13ffc17 	ldw	r4,-16(fp)
  802ff8:	20800b15 	stw	r2,44(r4)
  802ffc:	20c00c15 	stw	r3,48(r4)
  }
  d->_g37_e1 = d->_pg70;
  803000:	e0bffc17 	ldw	r2,-16(fp)
  803004:	10c04e83 	ldbu	r3,314(r2)
  803008:	e0bffc17 	ldw	r2,-16(fp)
  80300c:	10c04445 	stb	r3,273(r2)
  d->_cg75 = d->_region2_VRP_cVRP >= d->VRP_Constraint;
  803010:	e0bffc17 	ldw	r2,-16(fp)
  803014:	14000b17 	ldw	r16,44(r2)
  803018:	14400c17 	ldw	r17,48(r2)
  80301c:	e0bffc17 	ldw	r2,-16(fp)
  803020:	10800317 	ldw	r2,12(r2)
  803024:	1009883a 	mov	r4,r2
  803028:	08069c80 	call	8069c8 <__floatsidf>
  80302c:	1009883a 	mov	r4,r2
  803030:	180b883a 	mov	r5,r3
  803034:	04800044 	movi	r18,1
  803038:	200d883a 	mov	r6,r4
  80303c:	280f883a 	mov	r7,r5
  803040:	8009883a 	mov	r4,r16
  803044:	880b883a 	mov	r5,r17
  803048:	0805efc0 	call	805efc <__gedf2>
  80304c:	1000010e 	bge	r2,zero,803054 <logic+0x2a48>
  803050:	0025883a 	mov	r18,zero
  803054:	9007883a 	mov	r3,r18
  803058:	e0bffc17 	ldw	r2,-16(fp)
  80305c:	10c03bc5 	stb	r3,239(r2)
  d->_g43 = d->_g37_e1 && d->_cg75;
  803060:	e0bffc17 	ldw	r2,-16(fp)
  803064:	10804443 	ldbu	r2,273(r2)
  803068:	10803fcc 	andi	r2,r2,255
  80306c:	1080201c 	xori	r2,r2,128
  803070:	10bfe004 	addi	r2,r2,-128
  803074:	10000826 	beq	r2,zero,803098 <logic+0x2a8c>
  803078:	e0bffc17 	ldw	r2,-16(fp)
  80307c:	10803bc3 	ldbu	r2,239(r2)
  803080:	10803fcc 	andi	r2,r2,255
  803084:	1080201c 	xori	r2,r2,128
  803088:	10bfe004 	addi	r2,r2,-128
  80308c:	10000226 	beq	r2,zero,803098 <logic+0x2a8c>
  803090:	00800044 	movi	r2,1
  803094:	00000106 	br	80309c <logic+0x2a90>
  803098:	0005883a 	mov	r2,zero
  80309c:	1007883a 	mov	r3,r2
  8030a0:	e0bffc17 	ldw	r2,-16(fp)
  8030a4:	10c021c5 	stb	r3,135(r2)
  if (d->_g43) {
  8030a8:	e0bffc17 	ldw	r2,-16(fp)
  8030ac:	108021c3 	ldbu	r2,135(r2)
  8030b0:	10803fcc 	andi	r2,r2,255
  8030b4:	1080201c 	xori	r2,r2,128
  8030b8:	10bfe004 	addi	r2,r2,-128
  8030bc:	10000326 	beq	r2,zero,8030cc <logic+0x2ac0>
    d->_Pacemaker_local__Atrig3 = 1;
  8030c0:	e0bffc17 	ldw	r2,-16(fp)
  8030c4:	00c00044 	movi	r3,1
  8030c8:	10c019c5 	stb	r3,103(r2)
  }
  d->_g43_e2 = d->_pg76_e3;
  8030cc:	e0bffc17 	ldw	r2,-16(fp)
  8030d0:	10c04ec3 	ldbu	r3,315(r2)
  8030d4:	e0bffc17 	ldw	r2,-16(fp)
  8030d8:	10c04485 	stb	r3,274(r2)
  d->_cg57 = d->VS || d->VP;
  8030dc:	e0bffc17 	ldw	r2,-16(fp)
  8030e0:	10800043 	ldbu	r2,1(r2)
  8030e4:	10803fcc 	andi	r2,r2,255
  8030e8:	1080201c 	xori	r2,r2,128
  8030ec:	10bfe004 	addi	r2,r2,-128
  8030f0:	1000061e 	bne	r2,zero,80310c <logic+0x2b00>
  8030f4:	e0bffc17 	ldw	r2,-16(fp)
  8030f8:	10801743 	ldbu	r2,93(r2)
  8030fc:	10803fcc 	andi	r2,r2,255
  803100:	1080201c 	xori	r2,r2,128
  803104:	10bfe004 	addi	r2,r2,-128
  803108:	10000226 	beq	r2,zero,803114 <logic+0x2b08>
  80310c:	00800044 	movi	r2,1
  803110:	00000106 	br	803118 <logic+0x2b0c>
  803114:	0005883a 	mov	r2,zero
  803118:	1007883a 	mov	r3,r2
  80311c:	e0bffc17 	ldw	r2,-16(fp)
  803120:	10c03a85 	stb	r3,234(r2)
  d->_g52_e3 = d->_g43_e2 && d->_cg57;
  803124:	e0bffc17 	ldw	r2,-16(fp)
  803128:	10804483 	ldbu	r2,274(r2)
  80312c:	10803fcc 	andi	r2,r2,255
  803130:	1080201c 	xori	r2,r2,128
  803134:	10bfe004 	addi	r2,r2,-128
  803138:	10000826 	beq	r2,zero,80315c <logic+0x2b50>
  80313c:	e0bffc17 	ldw	r2,-16(fp)
  803140:	10803a83 	ldbu	r2,234(r2)
  803144:	10803fcc 	andi	r2,r2,255
  803148:	1080201c 	xori	r2,r2,128
  80314c:	10bfe004 	addi	r2,r2,-128
  803150:	10000226 	beq	r2,zero,80315c <logic+0x2b50>
  803154:	00800044 	movi	r2,1
  803158:	00000106 	br	803160 <logic+0x2b54>
  80315c:	0005883a 	mov	r2,zero
  803160:	1007883a 	mov	r3,r2
  803164:	e0bffc17 	ldw	r2,-16(fp)
  803168:	10c044c5 	stb	r3,275(r2)
  if (d->_g52_e3) {
  80316c:	e0bffc17 	ldw	r2,-16(fp)
  803170:	108044c3 	ldbu	r2,275(r2)
  803174:	10803fcc 	andi	r2,r2,255
  803178:	1080201c 	xori	r2,r2,128
  80317c:	10bfe004 	addi	r2,r2,-128
  803180:	10000526 	beq	r2,zero,803198 <logic+0x2b8c>
    d->_region2_VRP_cVRP = 0;
  803184:	e0bffc17 	ldw	r2,-16(fp)
  803188:	10000b15 	stw	zero,44(r2)
  80318c:	10000c15 	stw	zero,48(r2)
    d->_Pacemaker_local__Atrig3 = 0;
  803190:	e0bffc17 	ldw	r2,-16(fp)
  803194:	100019c5 	stb	zero,103(r2)
  }
  d->_g33 = d->_g52_e3 || d->_g5;
  803198:	e0bffc17 	ldw	r2,-16(fp)
  80319c:	108044c3 	ldbu	r2,275(r2)
  8031a0:	10803fcc 	andi	r2,r2,255
  8031a4:	1080201c 	xori	r2,r2,128
  8031a8:	10bfe004 	addi	r2,r2,-128
  8031ac:	1000061e 	bne	r2,zero,8031c8 <logic+0x2bbc>
  8031b0:	e0bffc17 	ldw	r2,-16(fp)
  8031b4:	10801b83 	ldbu	r2,110(r2)
  8031b8:	10803fcc 	andi	r2,r2,255
  8031bc:	1080201c 	xori	r2,r2,128
  8031c0:	10bfe004 	addi	r2,r2,-128
  8031c4:	10000226 	beq	r2,zero,8031d0 <logic+0x2bc4>
  8031c8:	00800044 	movi	r2,1
  8031cc:	00000106 	br	8031d4 <logic+0x2bc8>
  8031d0:	0005883a 	mov	r2,zero
  8031d4:	1007883a 	mov	r3,r2
  8031d8:	e0bffc17 	ldw	r2,-16(fp)
  8031dc:	10c02005 	stb	r3,128(r2)
  d->_cg60 = d->_Pacemaker_local__Atrig3;
  8031e0:	e0bffc17 	ldw	r2,-16(fp)
  8031e4:	10c019c3 	ldbu	r3,103(r2)
  8031e8:	e0bffc17 	ldw	r2,-16(fp)
  8031ec:	10c03ac5 	stb	r3,235(r2)
  d->_g53 = d->_g33 && !d->_cg60;
  8031f0:	e0bffc17 	ldw	r2,-16(fp)
  8031f4:	10802003 	ldbu	r2,128(r2)
  8031f8:	10803fcc 	andi	r2,r2,255
  8031fc:	1080201c 	xori	r2,r2,128
  803200:	10bfe004 	addi	r2,r2,-128
  803204:	10000826 	beq	r2,zero,803228 <logic+0x2c1c>
  803208:	e0bffc17 	ldw	r2,-16(fp)
  80320c:	10803ac3 	ldbu	r2,235(r2)
  803210:	10803fcc 	andi	r2,r2,255
  803214:	1080201c 	xori	r2,r2,128
  803218:	10bfe004 	addi	r2,r2,-128
  80321c:	1000021e 	bne	r2,zero,803228 <logic+0x2c1c>
  803220:	00800044 	movi	r2,1
  803224:	00000106 	br	80322c <logic+0x2c20>
  803228:	0005883a 	mov	r2,zero
  80322c:	1007883a 	mov	r3,r2
  803230:	e0bffc17 	ldw	r2,-16(fp)
  803234:	10c023c5 	stb	r3,143(r2)
  d->_g63 = !d->_g53;
  803238:	e0bffc17 	ldw	r2,-16(fp)
  80323c:	108023c3 	ldbu	r2,143(r2)
  803240:	10803fcc 	andi	r2,r2,255
  803244:	1080201c 	xori	r2,r2,128
  803248:	10bfe004 	addi	r2,r2,-128
  80324c:	1005003a 	cmpeq	r2,r2,zero
  803250:	1007883a 	mov	r3,r2
  803254:	e0bffc17 	ldw	r2,-16(fp)
  803258:	10c02505 	stb	r3,148(r2)
  d->_g60 = d->_g33 && d->_cg60;
  80325c:	e0bffc17 	ldw	r2,-16(fp)
  803260:	10802003 	ldbu	r2,128(r2)
  803264:	10803fcc 	andi	r2,r2,255
  803268:	1080201c 	xori	r2,r2,128
  80326c:	10bfe004 	addi	r2,r2,-128
  803270:	10000826 	beq	r2,zero,803294 <logic+0x2c88>
  803274:	e0bffc17 	ldw	r2,-16(fp)
  803278:	10803ac3 	ldbu	r2,235(r2)
  80327c:	10803fcc 	andi	r2,r2,255
  803280:	1080201c 	xori	r2,r2,128
  803284:	10bfe004 	addi	r2,r2,-128
  803288:	10000226 	beq	r2,zero,803294 <logic+0x2c88>
  80328c:	00800044 	movi	r2,1
  803290:	00000106 	br	803298 <logic+0x2c8c>
  803294:	0005883a 	mov	r2,zero
  803298:	1007883a 	mov	r3,r2
  80329c:	e0bffc17 	ldw	r2,-16(fp)
  8032a0:	10c02485 	stb	r3,146(r2)
  d->_g69 = d->_pg68;
  8032a4:	e0bffc17 	ldw	r2,-16(fp)
  8032a8:	10c04f03 	ldbu	r3,316(r2)
  8032ac:	e0bffc17 	ldw	r2,-16(fp)
  8032b0:	10c02645 	stb	r3,153(r2)
  d->_g72 = d->_pg71;
  8032b4:	e0bffc17 	ldw	r2,-16(fp)
  8032b8:	10c04f43 	ldbu	r3,317(r2)
  8032bc:	e0bffc17 	ldw	r2,-16(fp)
  8032c0:	10c02705 	stb	r3,156(r2)
  d->_g69 = d->_g52_e3 || d->_g69 || d->_g72;
  8032c4:	e0bffc17 	ldw	r2,-16(fp)
  8032c8:	108044c3 	ldbu	r2,275(r2)
  8032cc:	10803fcc 	andi	r2,r2,255
  8032d0:	1080201c 	xori	r2,r2,128
  8032d4:	10bfe004 	addi	r2,r2,-128
  8032d8:	10000c1e 	bne	r2,zero,80330c <logic+0x2d00>
  8032dc:	e0bffc17 	ldw	r2,-16(fp)
  8032e0:	10802643 	ldbu	r2,153(r2)
  8032e4:	10803fcc 	andi	r2,r2,255
  8032e8:	1080201c 	xori	r2,r2,128
  8032ec:	10bfe004 	addi	r2,r2,-128
  8032f0:	1000061e 	bne	r2,zero,80330c <logic+0x2d00>
  8032f4:	e0bffc17 	ldw	r2,-16(fp)
  8032f8:	10802703 	ldbu	r2,156(r2)
  8032fc:	10803fcc 	andi	r2,r2,255
  803300:	1080201c 	xori	r2,r2,128
  803304:	10bfe004 	addi	r2,r2,-128
  803308:	10000226 	beq	r2,zero,803314 <logic+0x2d08>
  80330c:	00800044 	movi	r2,1
  803310:	00000106 	br	803318 <logic+0x2d0c>
  803314:	0005883a 	mov	r2,zero
  803318:	1007883a 	mov	r3,r2
  80331c:	e0bffc17 	ldw	r2,-16(fp)
  803320:	10c02645 	stb	r3,153(r2)
  d->_cg65 = d->_region2_VRP_cVRP < d->VRP_Constraint;
  803324:	e0bffc17 	ldw	r2,-16(fp)
  803328:	14000b17 	ldw	r16,44(r2)
  80332c:	14400c17 	ldw	r17,48(r2)
  803330:	e0bffc17 	ldw	r2,-16(fp)
  803334:	10800317 	ldw	r2,12(r2)
  803338:	1009883a 	mov	r4,r2
  80333c:	08069c80 	call	8069c8 <__floatsidf>
  803340:	1009883a 	mov	r4,r2
  803344:	180b883a 	mov	r5,r3
  803348:	04800044 	movi	r18,1
  80334c:	200d883a 	mov	r6,r4
  803350:	280f883a 	mov	r7,r5
  803354:	8009883a 	mov	r4,r16
  803358:	880b883a 	mov	r5,r17
  80335c:	0805fd80 	call	805fd8 <__ledf2>
  803360:	10000116 	blt	r2,zero,803368 <logic+0x2d5c>
  803364:	0025883a 	mov	r18,zero
  803368:	9007883a 	mov	r3,r18
  80336c:	e0bffc17 	ldw	r2,-16(fp)
  803370:	10c03b05 	stb	r3,236(r2)
  d->_g72 = d->_g69 && !d->_cg65;
  803374:	e0bffc17 	ldw	r2,-16(fp)
  803378:	10802643 	ldbu	r2,153(r2)
  80337c:	10803fcc 	andi	r2,r2,255
  803380:	1080201c 	xori	r2,r2,128
  803384:	10bfe004 	addi	r2,r2,-128
  803388:	10000826 	beq	r2,zero,8033ac <logic+0x2da0>
  80338c:	e0bffc17 	ldw	r2,-16(fp)
  803390:	10803b03 	ldbu	r2,236(r2)
  803394:	10803fcc 	andi	r2,r2,255
  803398:	1080201c 	xori	r2,r2,128
  80339c:	10bfe004 	addi	r2,r2,-128
  8033a0:	1000021e 	bne	r2,zero,8033ac <logic+0x2da0>
  8033a4:	00800044 	movi	r2,1
  8033a8:	00000106 	br	8033b0 <logic+0x2da4>
  8033ac:	0005883a 	mov	r2,zero
  8033b0:	1007883a 	mov	r3,r2
  8033b4:	e0bffc17 	ldw	r2,-16(fp)
  8033b8:	10c02705 	stb	r3,156(r2)
  d->_cg70 = d->_Pacemaker_local__Atrig3;
  8033bc:	e0bffc17 	ldw	r2,-16(fp)
  8033c0:	10c019c3 	ldbu	r3,103(r2)
  8033c4:	e0bffc17 	ldw	r2,-16(fp)
  8033c8:	10c03b85 	stb	r3,238(r2)
  d->_g71 = d->_g72 && !d->_cg70;
  8033cc:	e0bffc17 	ldw	r2,-16(fp)
  8033d0:	10802703 	ldbu	r2,156(r2)
  8033d4:	10803fcc 	andi	r2,r2,255
  8033d8:	1080201c 	xori	r2,r2,128
  8033dc:	10bfe004 	addi	r2,r2,-128
  8033e0:	10000826 	beq	r2,zero,803404 <logic+0x2df8>
  8033e4:	e0bffc17 	ldw	r2,-16(fp)
  8033e8:	10803b83 	ldbu	r2,238(r2)
  8033ec:	10803fcc 	andi	r2,r2,255
  8033f0:	1080201c 	xori	r2,r2,128
  8033f4:	10bfe004 	addi	r2,r2,-128
  8033f8:	1000021e 	bne	r2,zero,803404 <logic+0x2df8>
  8033fc:	00800044 	movi	r2,1
  803400:	00000106 	br	803408 <logic+0x2dfc>
  803404:	0005883a 	mov	r2,zero
  803408:	1007883a 	mov	r3,r2
  80340c:	e0bffc17 	ldw	r2,-16(fp)
  803410:	10c026c5 	stb	r3,155(r2)
  d->_g65 = d->_g69 && d->_cg65;
  803414:	e0bffc17 	ldw	r2,-16(fp)
  803418:	10802643 	ldbu	r2,153(r2)
  80341c:	10803fcc 	andi	r2,r2,255
  803420:	1080201c 	xori	r2,r2,128
  803424:	10bfe004 	addi	r2,r2,-128
  803428:	10000826 	beq	r2,zero,80344c <logic+0x2e40>
  80342c:	e0bffc17 	ldw	r2,-16(fp)
  803430:	10803b03 	ldbu	r2,236(r2)
  803434:	10803fcc 	andi	r2,r2,255
  803438:	1080201c 	xori	r2,r2,128
  80343c:	10bfe004 	addi	r2,r2,-128
  803440:	10000226 	beq	r2,zero,80344c <logic+0x2e40>
  803444:	00800044 	movi	r2,1
  803448:	00000106 	br	803450 <logic+0x2e44>
  80344c:	0005883a 	mov	r2,zero
  803450:	1007883a 	mov	r3,r2
  803454:	e0bffc17 	ldw	r2,-16(fp)
  803458:	10c02545 	stb	r3,149(r2)
  if (d->_g65) {
  80345c:	e0bffc17 	ldw	r2,-16(fp)
  803460:	10802543 	ldbu	r2,149(r2)
  803464:	10803fcc 	andi	r2,r2,255
  803468:	1080201c 	xori	r2,r2,128
  80346c:	10bfe004 	addi	r2,r2,-128
  803470:	10003426 	beq	r2,zero,803544 <logic+0x2f38>
    d->sleepT = (d->sleepT < (d->VRP_Constraint - d->_region2_VRP_cVRP)) ? d->sleepT : (d->VRP_Constraint - d->_region2_VRP_cVRP);
  803474:	e0bffc17 	ldw	r2,-16(fp)
  803478:	14001517 	ldw	r16,84(r2)
  80347c:	14401617 	ldw	r17,88(r2)
  803480:	e0bffc17 	ldw	r2,-16(fp)
  803484:	10800317 	ldw	r2,12(r2)
  803488:	1009883a 	mov	r4,r2
  80348c:	08069c80 	call	8069c8 <__floatsidf>
  803490:	1011883a 	mov	r8,r2
  803494:	1813883a 	mov	r9,r3
  803498:	e13ffc17 	ldw	r4,-16(fp)
  80349c:	20800b17 	ldw	r2,44(r4)
  8034a0:	20c00c17 	ldw	r3,48(r4)
  8034a4:	100d883a 	mov	r6,r2
  8034a8:	180f883a 	mov	r7,r3
  8034ac:	4009883a 	mov	r4,r8
  8034b0:	480b883a 	mov	r5,r9
  8034b4:	08060cc0 	call	8060cc <__subdf3>
  8034b8:	1009883a 	mov	r4,r2
  8034bc:	180b883a 	mov	r5,r3
  8034c0:	2005883a 	mov	r2,r4
  8034c4:	2807883a 	mov	r3,r5
  8034c8:	100d883a 	mov	r6,r2
  8034cc:	180f883a 	mov	r7,r3
  8034d0:	8009883a 	mov	r4,r16
  8034d4:	880b883a 	mov	r5,r17
  8034d8:	0805fd80 	call	805fd8 <__ledf2>
  8034dc:	1000040e 	bge	r2,zero,8034f0 <logic+0x2ee4>
  8034e0:	e13ffc17 	ldw	r4,-16(fp)
  8034e4:	20801517 	ldw	r2,84(r4)
  8034e8:	20c01617 	ldw	r3,88(r4)
  8034ec:	00001206 	br	803538 <logic+0x2f2c>
  8034f0:	e0bffc17 	ldw	r2,-16(fp)
  8034f4:	10800317 	ldw	r2,12(r2)
  8034f8:	1009883a 	mov	r4,r2
  8034fc:	08069c80 	call	8069c8 <__floatsidf>
  803500:	1011883a 	mov	r8,r2
  803504:	1813883a 	mov	r9,r3
  803508:	e13ffc17 	ldw	r4,-16(fp)
  80350c:	20800b17 	ldw	r2,44(r4)
  803510:	20c00c17 	ldw	r3,48(r4)
  803514:	100d883a 	mov	r6,r2
  803518:	180f883a 	mov	r7,r3
  80351c:	4009883a 	mov	r4,r8
  803520:	480b883a 	mov	r5,r9
  803524:	08060cc0 	call	8060cc <__subdf3>
  803528:	1009883a 	mov	r4,r2
  80352c:	180b883a 	mov	r5,r3
  803530:	2005883a 	mov	r2,r4
  803534:	2807883a 	mov	r3,r5
  803538:	e13ffc17 	ldw	r4,-16(fp)
  80353c:	20801515 	stw	r2,84(r4)
  803540:	20c01615 	stw	r3,88(r4)
  }
  d->_cg66 = d->_Pacemaker_local__Atrig3;
  803544:	e0bffc17 	ldw	r2,-16(fp)
  803548:	10c019c3 	ldbu	r3,103(r2)
  80354c:	e0bffc17 	ldw	r2,-16(fp)
  803550:	10c03b45 	stb	r3,237(r2)
  d->_g68 = d->_g65 && !d->_cg66;
  803554:	e0bffc17 	ldw	r2,-16(fp)
  803558:	10802543 	ldbu	r2,149(r2)
  80355c:	10803fcc 	andi	r2,r2,255
  803560:	1080201c 	xori	r2,r2,128
  803564:	10bfe004 	addi	r2,r2,-128
  803568:	10000826 	beq	r2,zero,80358c <logic+0x2f80>
  80356c:	e0bffc17 	ldw	r2,-16(fp)
  803570:	10803b43 	ldbu	r2,237(r2)
  803574:	10803fcc 	andi	r2,r2,255
  803578:	1080201c 	xori	r2,r2,128
  80357c:	10bfe004 	addi	r2,r2,-128
  803580:	1000021e 	bne	r2,zero,80358c <logic+0x2f80>
  803584:	00800044 	movi	r2,1
  803588:	00000106 	br	803590 <logic+0x2f84>
  80358c:	0005883a 	mov	r2,zero
  803590:	1007883a 	mov	r3,r2
  803594:	e0bffc17 	ldw	r2,-16(fp)
  803598:	10c02605 	stb	r3,152(r2)
  d->_g67_e2 = !(d->_g71 || d->_g68);
  80359c:	e0bffc17 	ldw	r2,-16(fp)
  8035a0:	108026c3 	ldbu	r2,155(r2)
  8035a4:	10803fcc 	andi	r2,r2,255
  8035a8:	1080201c 	xori	r2,r2,128
  8035ac:	10bfe004 	addi	r2,r2,-128
  8035b0:	1000081e 	bne	r2,zero,8035d4 <logic+0x2fc8>
  8035b4:	e0bffc17 	ldw	r2,-16(fp)
  8035b8:	10802603 	ldbu	r2,152(r2)
  8035bc:	10803fcc 	andi	r2,r2,255
  8035c0:	1080201c 	xori	r2,r2,128
  8035c4:	10bfe004 	addi	r2,r2,-128
  8035c8:	1000021e 	bne	r2,zero,8035d4 <logic+0x2fc8>
  8035cc:	00800044 	movi	r2,1
  8035d0:	00000106 	br	8035d8 <logic+0x2fcc>
  8035d4:	0005883a 	mov	r2,zero
  8035d8:	1007883a 	mov	r3,r2
  8035dc:	e0bffc17 	ldw	r2,-16(fp)
  8035e0:	10c04545 	stb	r3,277(r2)
  d->_g66 = d->_g65 && d->_cg66 || d->_g72 && d->_cg70;
  8035e4:	e0bffc17 	ldw	r2,-16(fp)
  8035e8:	10802543 	ldbu	r2,149(r2)
  8035ec:	10803fcc 	andi	r2,r2,255
  8035f0:	1080201c 	xori	r2,r2,128
  8035f4:	10bfe004 	addi	r2,r2,-128
  8035f8:	10000626 	beq	r2,zero,803614 <logic+0x3008>
  8035fc:	e0bffc17 	ldw	r2,-16(fp)
  803600:	10803b43 	ldbu	r2,237(r2)
  803604:	10803fcc 	andi	r2,r2,255
  803608:	1080201c 	xori	r2,r2,128
  80360c:	10bfe004 	addi	r2,r2,-128
  803610:	10000c1e 	bne	r2,zero,803644 <logic+0x3038>
  803614:	e0bffc17 	ldw	r2,-16(fp)
  803618:	10802703 	ldbu	r2,156(r2)
  80361c:	10803fcc 	andi	r2,r2,255
  803620:	1080201c 	xori	r2,r2,128
  803624:	10bfe004 	addi	r2,r2,-128
  803628:	10000826 	beq	r2,zero,80364c <logic+0x3040>
  80362c:	e0bffc17 	ldw	r2,-16(fp)
  803630:	10803b83 	ldbu	r2,238(r2)
  803634:	10803fcc 	andi	r2,r2,255
  803638:	1080201c 	xori	r2,r2,128
  80363c:	10bfe004 	addi	r2,r2,-128
  803640:	10000226 	beq	r2,zero,80364c <logic+0x3040>
  803644:	00800044 	movi	r2,1
  803648:	00000106 	br	803650 <logic+0x3044>
  80364c:	0005883a 	mov	r2,zero
  803650:	1007883a 	mov	r3,r2
  803654:	e0bffc17 	ldw	r2,-16(fp)
  803658:	10c02585 	stb	r3,150(r2)
  d->_g70 = d->_g52_e3 || d->_g37_e1 && !d->_cg75;
  80365c:	e0bffc17 	ldw	r2,-16(fp)
  803660:	108044c3 	ldbu	r2,275(r2)
  803664:	10803fcc 	andi	r2,r2,255
  803668:	1080201c 	xori	r2,r2,128
  80366c:	10bfe004 	addi	r2,r2,-128
  803670:	10000c1e 	bne	r2,zero,8036a4 <logic+0x3098>
  803674:	e0bffc17 	ldw	r2,-16(fp)
  803678:	10804443 	ldbu	r2,273(r2)
  80367c:	10803fcc 	andi	r2,r2,255
  803680:	1080201c 	xori	r2,r2,128
  803684:	10bfe004 	addi	r2,r2,-128
  803688:	10000826 	beq	r2,zero,8036ac <logic+0x30a0>
  80368c:	e0bffc17 	ldw	r2,-16(fp)
  803690:	10803bc3 	ldbu	r2,239(r2)
  803694:	10803fcc 	andi	r2,r2,255
  803698:	1080201c 	xori	r2,r2,128
  80369c:	10bfe004 	addi	r2,r2,-128
  8036a0:	1000021e 	bne	r2,zero,8036ac <logic+0x30a0>
  8036a4:	00800044 	movi	r2,1
  8036a8:	00000106 	br	8036b0 <logic+0x30a4>
  8036ac:	0005883a 	mov	r2,zero
  8036b0:	1007883a 	mov	r3,r2
  8036b4:	e0bffc17 	ldw	r2,-16(fp)
  8036b8:	10c02685 	stb	r3,154(r2)
  d->_g75 = !d->_g70;
  8036bc:	e0bffc17 	ldw	r2,-16(fp)
  8036c0:	10802683 	ldbu	r2,154(r2)
  8036c4:	10803fcc 	andi	r2,r2,255
  8036c8:	1080201c 	xori	r2,r2,128
  8036cc:	10bfe004 	addi	r2,r2,-128
  8036d0:	1005003a 	cmpeq	r2,r2,zero
  8036d4:	1007883a 	mov	r3,r2
  8036d8:	e0bffc17 	ldw	r2,-16(fp)
  8036dc:	10c02745 	stb	r3,157(r2)
  d->_g58 = (d->_g63 || d->_g60) && (d->_g67_e2 || d->_g66) && (d->_g75 || d->_g43) && (d->_g60 || d->_g66 || d->_g43);
  8036e0:	e0bffc17 	ldw	r2,-16(fp)
  8036e4:	10802503 	ldbu	r2,148(r2)
  8036e8:	10803fcc 	andi	r2,r2,255
  8036ec:	1080201c 	xori	r2,r2,128
  8036f0:	10bfe004 	addi	r2,r2,-128
  8036f4:	1000061e 	bne	r2,zero,803710 <logic+0x3104>
  8036f8:	e0bffc17 	ldw	r2,-16(fp)
  8036fc:	10802483 	ldbu	r2,146(r2)
  803700:	10803fcc 	andi	r2,r2,255
  803704:	1080201c 	xori	r2,r2,128
  803708:	10bfe004 	addi	r2,r2,-128
  80370c:	10002c26 	beq	r2,zero,8037c0 <logic+0x31b4>
  803710:	e0bffc17 	ldw	r2,-16(fp)
  803714:	10804543 	ldbu	r2,277(r2)
  803718:	10803fcc 	andi	r2,r2,255
  80371c:	1080201c 	xori	r2,r2,128
  803720:	10bfe004 	addi	r2,r2,-128
  803724:	1000061e 	bne	r2,zero,803740 <logic+0x3134>
  803728:	e0bffc17 	ldw	r2,-16(fp)
  80372c:	10802583 	ldbu	r2,150(r2)
  803730:	10803fcc 	andi	r2,r2,255
  803734:	1080201c 	xori	r2,r2,128
  803738:	10bfe004 	addi	r2,r2,-128
  80373c:	10002026 	beq	r2,zero,8037c0 <logic+0x31b4>
  803740:	e0bffc17 	ldw	r2,-16(fp)
  803744:	10802743 	ldbu	r2,157(r2)
  803748:	10803fcc 	andi	r2,r2,255
  80374c:	1080201c 	xori	r2,r2,128
  803750:	10bfe004 	addi	r2,r2,-128
  803754:	1000061e 	bne	r2,zero,803770 <logic+0x3164>
  803758:	e0bffc17 	ldw	r2,-16(fp)
  80375c:	108021c3 	ldbu	r2,135(r2)
  803760:	10803fcc 	andi	r2,r2,255
  803764:	1080201c 	xori	r2,r2,128
  803768:	10bfe004 	addi	r2,r2,-128
  80376c:	10001426 	beq	r2,zero,8037c0 <logic+0x31b4>
  803770:	e0bffc17 	ldw	r2,-16(fp)
  803774:	10802483 	ldbu	r2,146(r2)
  803778:	10803fcc 	andi	r2,r2,255
  80377c:	1080201c 	xori	r2,r2,128
  803780:	10bfe004 	addi	r2,r2,-128
  803784:	10000c1e 	bne	r2,zero,8037b8 <logic+0x31ac>
  803788:	e0bffc17 	ldw	r2,-16(fp)
  80378c:	10802583 	ldbu	r2,150(r2)
  803790:	10803fcc 	andi	r2,r2,255
  803794:	1080201c 	xori	r2,r2,128
  803798:	10bfe004 	addi	r2,r2,-128
  80379c:	1000061e 	bne	r2,zero,8037b8 <logic+0x31ac>
  8037a0:	e0bffc17 	ldw	r2,-16(fp)
  8037a4:	108021c3 	ldbu	r2,135(r2)
  8037a8:	10803fcc 	andi	r2,r2,255
  8037ac:	1080201c 	xori	r2,r2,128
  8037b0:	10bfe004 	addi	r2,r2,-128
  8037b4:	10000226 	beq	r2,zero,8037c0 <logic+0x31b4>
  8037b8:	00800044 	movi	r2,1
  8037bc:	00000106 	br	8037c4 <logic+0x31b8>
  8037c0:	0005883a 	mov	r2,zero
  8037c4:	1007883a 	mov	r3,r2
  8037c8:	e0bffc17 	ldw	r2,-16(fp)
  8037cc:	10c02445 	stb	r3,145(r2)
  d->_g76_e3 = d->_GO || d->_g58 || d->_g43_e2 && !d->_cg57;
  8037d0:	e0bffc17 	ldw	r2,-16(fp)
  8037d4:	108035c3 	ldbu	r2,215(r2)
  8037d8:	10803fcc 	andi	r2,r2,255
  8037dc:	1080201c 	xori	r2,r2,128
  8037e0:	10bfe004 	addi	r2,r2,-128
  8037e4:	1000121e 	bne	r2,zero,803830 <logic+0x3224>
  8037e8:	e0bffc17 	ldw	r2,-16(fp)
  8037ec:	10802443 	ldbu	r2,145(r2)
  8037f0:	10803fcc 	andi	r2,r2,255
  8037f4:	1080201c 	xori	r2,r2,128
  8037f8:	10bfe004 	addi	r2,r2,-128
  8037fc:	10000c1e 	bne	r2,zero,803830 <logic+0x3224>
  803800:	e0bffc17 	ldw	r2,-16(fp)
  803804:	10804483 	ldbu	r2,274(r2)
  803808:	10803fcc 	andi	r2,r2,255
  80380c:	1080201c 	xori	r2,r2,128
  803810:	10bfe004 	addi	r2,r2,-128
  803814:	10000826 	beq	r2,zero,803838 <logic+0x322c>
  803818:	e0bffc17 	ldw	r2,-16(fp)
  80381c:	10803a83 	ldbu	r2,234(r2)
  803820:	10803fcc 	andi	r2,r2,255
  803824:	1080201c 	xori	r2,r2,128
  803828:	10bfe004 	addi	r2,r2,-128
  80382c:	1000021e 	bne	r2,zero,803838 <logic+0x322c>
  803830:	00800044 	movi	r2,1
  803834:	00000106 	br	80383c <logic+0x3230>
  803838:	0005883a 	mov	r2,zero
  80383c:	1007883a 	mov	r3,r2
  803840:	e0bffc17 	ldw	r2,-16(fp)
  803844:	10c04585 	stb	r3,278(r2)
  d->_g61_e1 = d->_pg76;
  803848:	e0bffc17 	ldw	r2,-16(fp)
  80384c:	10c04f83 	ldbu	r3,318(r2)
  803850:	e0bffc17 	ldw	r2,-16(fp)
  803854:	10c04505 	stb	r3,276(r2)
  d->_cg81 = (d->VS || d->VP) && !d->VRP;
  803858:	e0bffc17 	ldw	r2,-16(fp)
  80385c:	10800043 	ldbu	r2,1(r2)
  803860:	10803fcc 	andi	r2,r2,255
  803864:	1080201c 	xori	r2,r2,128
  803868:	10bfe004 	addi	r2,r2,-128
  80386c:	1000061e 	bne	r2,zero,803888 <logic+0x327c>
  803870:	e0bffc17 	ldw	r2,-16(fp)
  803874:	10801743 	ldbu	r2,93(r2)
  803878:	10803fcc 	andi	r2,r2,255
  80387c:	1080201c 	xori	r2,r2,128
  803880:	10bfe004 	addi	r2,r2,-128
  803884:	10000826 	beq	r2,zero,8038a8 <logic+0x329c>
  803888:	e0bffc17 	ldw	r2,-16(fp)
  80388c:	10801803 	ldbu	r2,96(r2)
  803890:	10803fcc 	andi	r2,r2,255
  803894:	1080201c 	xori	r2,r2,128
  803898:	10bfe004 	addi	r2,r2,-128
  80389c:	1000021e 	bne	r2,zero,8038a8 <logic+0x329c>
  8038a0:	00800044 	movi	r2,1
  8038a4:	00000106 	br	8038ac <logic+0x32a0>
  8038a8:	0005883a 	mov	r2,zero
  8038ac:	1007883a 	mov	r3,r2
  8038b0:	e0bffc17 	ldw	r2,-16(fp)
  8038b4:	10c03c45 	stb	r3,241(r2)
  d->_g76 = d->_GO || d->_g102 || d->_g104 && !d->_cg105 || d->_g61_e1 && !d->_cg81;
  8038b8:	e0bffc17 	ldw	r2,-16(fp)
  8038bc:	108035c3 	ldbu	r2,215(r2)
  8038c0:	10803fcc 	andi	r2,r2,255
  8038c4:	1080201c 	xori	r2,r2,128
  8038c8:	10bfe004 	addi	r2,r2,-128
  8038cc:	10001e1e 	bne	r2,zero,803948 <logic+0x333c>
  8038d0:	e0bffc17 	ldw	r2,-16(fp)
  8038d4:	10802b83 	ldbu	r2,174(r2)
  8038d8:	10803fcc 	andi	r2,r2,255
  8038dc:	1080201c 	xori	r2,r2,128
  8038e0:	10bfe004 	addi	r2,r2,-128
  8038e4:	1000181e 	bne	r2,zero,803948 <logic+0x333c>
  8038e8:	e0bffc17 	ldw	r2,-16(fp)
  8038ec:	10802c03 	ldbu	r2,176(r2)
  8038f0:	10803fcc 	andi	r2,r2,255
  8038f4:	1080201c 	xori	r2,r2,128
  8038f8:	10bfe004 	addi	r2,r2,-128
  8038fc:	10000626 	beq	r2,zero,803918 <logic+0x330c>
  803900:	e0bffc17 	ldw	r2,-16(fp)
  803904:	10803c03 	ldbu	r2,240(r2)
  803908:	10803fcc 	andi	r2,r2,255
  80390c:	1080201c 	xori	r2,r2,128
  803910:	10bfe004 	addi	r2,r2,-128
  803914:	10000c26 	beq	r2,zero,803948 <logic+0x333c>
  803918:	e0bffc17 	ldw	r2,-16(fp)
  80391c:	10804503 	ldbu	r2,276(r2)
  803920:	10803fcc 	andi	r2,r2,255
  803924:	1080201c 	xori	r2,r2,128
  803928:	10bfe004 	addi	r2,r2,-128
  80392c:	10000826 	beq	r2,zero,803950 <logic+0x3344>
  803930:	e0bffc17 	ldw	r2,-16(fp)
  803934:	10803c43 	ldbu	r2,241(r2)
  803938:	10803fcc 	andi	r2,r2,255
  80393c:	1080201c 	xori	r2,r2,128
  803940:	10bfe004 	addi	r2,r2,-128
  803944:	1000021e 	bne	r2,zero,803950 <logic+0x3344>
  803948:	00800044 	movi	r2,1
  80394c:	00000106 	br	803954 <logic+0x3348>
  803950:	0005883a 	mov	r2,zero
  803954:	1007883a 	mov	r3,r2
  803958:	e0bffc17 	ldw	r2,-16(fp)
  80395c:	10c02785 	stb	r3,158(r2)
  d->_g67_e2 = d->_g61_e1 && d->_cg81;
  803960:	e0bffc17 	ldw	r2,-16(fp)
  803964:	10804503 	ldbu	r2,276(r2)
  803968:	10803fcc 	andi	r2,r2,255
  80396c:	1080201c 	xori	r2,r2,128
  803970:	10bfe004 	addi	r2,r2,-128
  803974:	10000826 	beq	r2,zero,803998 <logic+0x338c>
  803978:	e0bffc17 	ldw	r2,-16(fp)
  80397c:	10803c43 	ldbu	r2,241(r2)
  803980:	10803fcc 	andi	r2,r2,255
  803984:	1080201c 	xori	r2,r2,128
  803988:	10bfe004 	addi	r2,r2,-128
  80398c:	10000226 	beq	r2,zero,803998 <logic+0x338c>
  803990:	00800044 	movi	r2,1
  803994:	00000106 	br	80399c <logic+0x3390>
  803998:	0005883a 	mov	r2,zero
  80399c:	1007883a 	mov	r3,r2
  8039a0:	e0bffc17 	ldw	r2,-16(fp)
  8039a4:	10c04545 	stb	r3,277(r2)
  if (d->_g67_e2) {
  8039a8:	e0bffc17 	ldw	r2,-16(fp)
  8039ac:	10804543 	ldbu	r2,277(r2)
  8039b0:	10803fcc 	andi	r2,r2,255
  8039b4:	1080201c 	xori	r2,r2,128
  8039b8:	10bfe004 	addi	r2,r2,-128
  8039bc:	10000726 	beq	r2,zero,8039dc <logic+0x33d0>
    d->_region3_AEI_cAEI = 0;
  8039c0:	e0bffc17 	ldw	r2,-16(fp)
  8039c4:	10000d15 	stw	zero,52(r2)
  8039c8:	10000e15 	stw	zero,56(r2)
    d->_Pacemaker_local__Atrig4 = 0;
  8039cc:	e0bffc17 	ldw	r2,-16(fp)
  8039d0:	10001a05 	stb	zero,104(r2)
    d->_Pacemaker_local__Atrig5 = 0;
  8039d4:	e0bffc17 	ldw	r2,-16(fp)
  8039d8:	10001a45 	stb	zero,105(r2)
  }
  d->_cg83 = d->_Pacemaker_local__Atrig4 || d->_Pacemaker_local__Atrig5;
  8039dc:	e0bffc17 	ldw	r2,-16(fp)
  8039e0:	10801a03 	ldbu	r2,104(r2)
  8039e4:	10803fcc 	andi	r2,r2,255
  8039e8:	1080201c 	xori	r2,r2,128
  8039ec:	10bfe004 	addi	r2,r2,-128
  8039f0:	1000061e 	bne	r2,zero,803a0c <logic+0x3400>
  8039f4:	e0bffc17 	ldw	r2,-16(fp)
  8039f8:	10801a43 	ldbu	r2,105(r2)
  8039fc:	10803fcc 	andi	r2,r2,255
  803a00:	1080201c 	xori	r2,r2,128
  803a04:	10bfe004 	addi	r2,r2,-128
  803a08:	10000226 	beq	r2,zero,803a14 <logic+0x3408>
  803a0c:	00800044 	movi	r2,1
  803a10:	00000106 	br	803a18 <logic+0x340c>
  803a14:	0005883a 	mov	r2,zero
  803a18:	1007883a 	mov	r3,r2
  803a1c:	e0bffc17 	ldw	r2,-16(fp)
  803a20:	10c03c85 	stb	r3,242(r2)
  d->_g67 = d->_g67_e2 && !d->_cg83 || d->_g16 && !d->_cg85;
  803a24:	e0bffc17 	ldw	r2,-16(fp)
  803a28:	10804543 	ldbu	r2,277(r2)
  803a2c:	10803fcc 	andi	r2,r2,255
  803a30:	1080201c 	xori	r2,r2,128
  803a34:	10bfe004 	addi	r2,r2,-128
  803a38:	10000626 	beq	r2,zero,803a54 <logic+0x3448>
  803a3c:	e0bffc17 	ldw	r2,-16(fp)
  803a40:	10803c83 	ldbu	r2,242(r2)
  803a44:	10803fcc 	andi	r2,r2,255
  803a48:	1080201c 	xori	r2,r2,128
  803a4c:	10bfe004 	addi	r2,r2,-128
  803a50:	10000c26 	beq	r2,zero,803a84 <logic+0x3478>
  803a54:	e0bffc17 	ldw	r2,-16(fp)
  803a58:	10801d43 	ldbu	r2,117(r2)
  803a5c:	10803fcc 	andi	r2,r2,255
  803a60:	1080201c 	xori	r2,r2,128
  803a64:	10bfe004 	addi	r2,r2,-128
  803a68:	10000826 	beq	r2,zero,803a8c <logic+0x3480>
  803a6c:	e0bffc17 	ldw	r2,-16(fp)
  803a70:	10803cc3 	ldbu	r2,243(r2)
  803a74:	10803fcc 	andi	r2,r2,255
  803a78:	1080201c 	xori	r2,r2,128
  803a7c:	10bfe004 	addi	r2,r2,-128
  803a80:	1000021e 	bne	r2,zero,803a8c <logic+0x3480>
  803a84:	00800044 	movi	r2,1
  803a88:	00000106 	br	803a90 <logic+0x3484>
  803a8c:	0005883a 	mov	r2,zero
  803a90:	1007883a 	mov	r3,r2
  803a94:	e0bffc17 	ldw	r2,-16(fp)
  803a98:	10c025c5 	stb	r3,151(r2)
  d->_cg87 = d->_region3_AEI_cAEI < d->AEI_Constraint;
  803a9c:	e0bffc17 	ldw	r2,-16(fp)
  803aa0:	14000d17 	ldw	r16,52(r2)
  803aa4:	14400e17 	ldw	r17,56(r2)
  803aa8:	e0bffc17 	ldw	r2,-16(fp)
  803aac:	10800417 	ldw	r2,16(r2)
  803ab0:	1009883a 	mov	r4,r2
  803ab4:	08069c80 	call	8069c8 <__floatsidf>
  803ab8:	1009883a 	mov	r4,r2
  803abc:	180b883a 	mov	r5,r3
  803ac0:	04800044 	movi	r18,1
  803ac4:	200d883a 	mov	r6,r4
  803ac8:	280f883a 	mov	r7,r5
  803acc:	8009883a 	mov	r4,r16
  803ad0:	880b883a 	mov	r5,r17
  803ad4:	0805fd80 	call	805fd8 <__ledf2>
  803ad8:	10000116 	blt	r2,zero,803ae0 <logic+0x34d4>
  803adc:	0025883a 	mov	r18,zero
  803ae0:	9007883a 	mov	r3,r18
  803ae4:	e0bffc17 	ldw	r2,-16(fp)
  803ae8:	10c03d05 	stb	r3,244(r2)
  d->_g61 = d->_g67_e2 && d->_cg87;
  803aec:	e0bffc17 	ldw	r2,-16(fp)
  803af0:	10804543 	ldbu	r2,277(r2)
  803af4:	10803fcc 	andi	r2,r2,255
  803af8:	1080201c 	xori	r2,r2,128
  803afc:	10bfe004 	addi	r2,r2,-128
  803b00:	10000826 	beq	r2,zero,803b24 <logic+0x3518>
  803b04:	e0bffc17 	ldw	r2,-16(fp)
  803b08:	10803d03 	ldbu	r2,244(r2)
  803b0c:	10803fcc 	andi	r2,r2,255
  803b10:	1080201c 	xori	r2,r2,128
  803b14:	10bfe004 	addi	r2,r2,-128
  803b18:	10000226 	beq	r2,zero,803b24 <logic+0x3518>
  803b1c:	00800044 	movi	r2,1
  803b20:	00000106 	br	803b28 <logic+0x351c>
  803b24:	0005883a 	mov	r2,zero
  803b28:	1007883a 	mov	r3,r2
  803b2c:	e0bffc17 	ldw	r2,-16(fp)
  803b30:	10c024c5 	stb	r3,147(r2)
  if (d->_g61) {
  803b34:	e0bffc17 	ldw	r2,-16(fp)
  803b38:	108024c3 	ldbu	r2,147(r2)
  803b3c:	10803fcc 	andi	r2,r2,255
  803b40:	1080201c 	xori	r2,r2,128
  803b44:	10bfe004 	addi	r2,r2,-128
  803b48:	10003426 	beq	r2,zero,803c1c <logic+0x3610>
    d->sleepT = (d->sleepT < (d->AEI_Constraint - d->_region3_AEI_cAEI)) ? d->sleepT : (d->AEI_Constraint - d->_region3_AEI_cAEI);
  803b4c:	e0bffc17 	ldw	r2,-16(fp)
  803b50:	14001517 	ldw	r16,84(r2)
  803b54:	14401617 	ldw	r17,88(r2)
  803b58:	e0bffc17 	ldw	r2,-16(fp)
  803b5c:	10800417 	ldw	r2,16(r2)
  803b60:	1009883a 	mov	r4,r2
  803b64:	08069c80 	call	8069c8 <__floatsidf>
  803b68:	1011883a 	mov	r8,r2
  803b6c:	1813883a 	mov	r9,r3
  803b70:	e13ffc17 	ldw	r4,-16(fp)
  803b74:	20800d17 	ldw	r2,52(r4)
  803b78:	20c00e17 	ldw	r3,56(r4)
  803b7c:	100d883a 	mov	r6,r2
  803b80:	180f883a 	mov	r7,r3
  803b84:	4009883a 	mov	r4,r8
  803b88:	480b883a 	mov	r5,r9
  803b8c:	08060cc0 	call	8060cc <__subdf3>
  803b90:	1009883a 	mov	r4,r2
  803b94:	180b883a 	mov	r5,r3
  803b98:	2005883a 	mov	r2,r4
  803b9c:	2807883a 	mov	r3,r5
  803ba0:	100d883a 	mov	r6,r2
  803ba4:	180f883a 	mov	r7,r3
  803ba8:	8009883a 	mov	r4,r16
  803bac:	880b883a 	mov	r5,r17
  803bb0:	0805fd80 	call	805fd8 <__ledf2>
  803bb4:	1000040e 	bge	r2,zero,803bc8 <logic+0x35bc>
  803bb8:	e13ffc17 	ldw	r4,-16(fp)
  803bbc:	20801517 	ldw	r2,84(r4)
  803bc0:	20c01617 	ldw	r3,88(r4)
  803bc4:	00001206 	br	803c10 <logic+0x3604>
  803bc8:	e0bffc17 	ldw	r2,-16(fp)
  803bcc:	10800417 	ldw	r2,16(r2)
  803bd0:	1009883a 	mov	r4,r2
  803bd4:	08069c80 	call	8069c8 <__floatsidf>
  803bd8:	1011883a 	mov	r8,r2
  803bdc:	1813883a 	mov	r9,r3
  803be0:	e13ffc17 	ldw	r4,-16(fp)
  803be4:	20800d17 	ldw	r2,52(r4)
  803be8:	20c00e17 	ldw	r3,56(r4)
  803bec:	100d883a 	mov	r6,r2
  803bf0:	180f883a 	mov	r7,r3
  803bf4:	4009883a 	mov	r4,r8
  803bf8:	480b883a 	mov	r5,r9
  803bfc:	08060cc0 	call	8060cc <__subdf3>
  803c00:	1009883a 	mov	r4,r2
  803c04:	180b883a 	mov	r5,r3
  803c08:	2005883a 	mov	r2,r4
  803c0c:	2807883a 	mov	r3,r5
  803c10:	e13ffc17 	ldw	r4,-16(fp)
  803c14:	20801515 	stw	r2,84(r4)
  803c18:	20c01615 	stw	r3,88(r4)
  }
  d->_cg88 = d->_Pacemaker_local__Atrig4 || d->_Pacemaker_local__Atrig5;
  803c1c:	e0bffc17 	ldw	r2,-16(fp)
  803c20:	10801a03 	ldbu	r2,104(r2)
  803c24:	10803fcc 	andi	r2,r2,255
  803c28:	1080201c 	xori	r2,r2,128
  803c2c:	10bfe004 	addi	r2,r2,-128
  803c30:	1000061e 	bne	r2,zero,803c4c <logic+0x3640>
  803c34:	e0bffc17 	ldw	r2,-16(fp)
  803c38:	10801a43 	ldbu	r2,105(r2)
  803c3c:	10803fcc 	andi	r2,r2,255
  803c40:	1080201c 	xori	r2,r2,128
  803c44:	10bfe004 	addi	r2,r2,-128
  803c48:	10000226 	beq	r2,zero,803c54 <logic+0x3648>
  803c4c:	00800044 	movi	r2,1
  803c50:	00000106 	br	803c58 <logic+0x364c>
  803c54:	0005883a 	mov	r2,zero
  803c58:	1007883a 	mov	r3,r2
  803c5c:	e0bffc17 	ldw	r2,-16(fp)
  803c60:	10c03d45 	stb	r3,245(r2)
  d->_g77 = d->_g61 && !d->_cg88 || d->_g90 && !d->_cg92;
  803c64:	e0bffc17 	ldw	r2,-16(fp)
  803c68:	108024c3 	ldbu	r2,147(r2)
  803c6c:	10803fcc 	andi	r2,r2,255
  803c70:	1080201c 	xori	r2,r2,128
  803c74:	10bfe004 	addi	r2,r2,-128
  803c78:	10000626 	beq	r2,zero,803c94 <logic+0x3688>
  803c7c:	e0bffc17 	ldw	r2,-16(fp)
  803c80:	10803d43 	ldbu	r2,245(r2)
  803c84:	10803fcc 	andi	r2,r2,255
  803c88:	1080201c 	xori	r2,r2,128
  803c8c:	10bfe004 	addi	r2,r2,-128
  803c90:	10000c26 	beq	r2,zero,803cc4 <logic+0x36b8>
  803c94:	e0bffc17 	ldw	r2,-16(fp)
  803c98:	10802943 	ldbu	r2,165(r2)
  803c9c:	10803fcc 	andi	r2,r2,255
  803ca0:	1080201c 	xori	r2,r2,128
  803ca4:	10bfe004 	addi	r2,r2,-128
  803ca8:	10000826 	beq	r2,zero,803ccc <logic+0x36c0>
  803cac:	e0bffc17 	ldw	r2,-16(fp)
  803cb0:	10803d83 	ldbu	r2,246(r2)
  803cb4:	10803fcc 	andi	r2,r2,255
  803cb8:	1080201c 	xori	r2,r2,128
  803cbc:	10bfe004 	addi	r2,r2,-128
  803cc0:	1000021e 	bne	r2,zero,803ccc <logic+0x36c0>
  803cc4:	00800044 	movi	r2,1
  803cc8:	00000106 	br	803cd0 <logic+0x36c4>
  803ccc:	0005883a 	mov	r2,zero
  803cd0:	1007883a 	mov	r3,r2
  803cd4:	e0bffc17 	ldw	r2,-16(fp)
  803cd8:	10c027c5 	stb	r3,159(r2)
  d->_g57 = d->_g67_e2 && !d->_cg87;
  803cdc:	e0bffc17 	ldw	r2,-16(fp)
  803ce0:	10804543 	ldbu	r2,277(r2)
  803ce4:	10803fcc 	andi	r2,r2,255
  803ce8:	1080201c 	xori	r2,r2,128
  803cec:	10bfe004 	addi	r2,r2,-128
  803cf0:	10000826 	beq	r2,zero,803d14 <logic+0x3708>
  803cf4:	e0bffc17 	ldw	r2,-16(fp)
  803cf8:	10803d03 	ldbu	r2,244(r2)
  803cfc:	10803fcc 	andi	r2,r2,255
  803d00:	1080201c 	xori	r2,r2,128
  803d04:	10bfe004 	addi	r2,r2,-128
  803d08:	1000021e 	bne	r2,zero,803d14 <logic+0x3708>
  803d0c:	00800044 	movi	r2,1
  803d10:	00000106 	br	803d18 <logic+0x370c>
  803d14:	0005883a 	mov	r2,zero
  803d18:	1007883a 	mov	r3,r2
  803d1c:	e0bffc17 	ldw	r2,-16(fp)
  803d20:	10c02405 	stb	r3,144(r2)
  d->_cg97 = d->_Pacemaker_local__Atrig4 || d->_Pacemaker_local__Atrig5;
  803d24:	e0bffc17 	ldw	r2,-16(fp)
  803d28:	10801a03 	ldbu	r2,104(r2)
  803d2c:	10803fcc 	andi	r2,r2,255
  803d30:	1080201c 	xori	r2,r2,128
  803d34:	10bfe004 	addi	r2,r2,-128
  803d38:	1000061e 	bne	r2,zero,803d54 <logic+0x3748>
  803d3c:	e0bffc17 	ldw	r2,-16(fp)
  803d40:	10801a43 	ldbu	r2,105(r2)
  803d44:	10803fcc 	andi	r2,r2,255
  803d48:	1080201c 	xori	r2,r2,128
  803d4c:	10bfe004 	addi	r2,r2,-128
  803d50:	10000226 	beq	r2,zero,803d5c <logic+0x3750>
  803d54:	00800044 	movi	r2,1
  803d58:	00000106 	br	803d60 <logic+0x3754>
  803d5c:	0005883a 	mov	r2,zero
  803d60:	1007883a 	mov	r3,r2
  803d64:	e0bffc17 	ldw	r2,-16(fp)
  803d68:	10c03e45 	stb	r3,249(r2)
  d->_g105 = d->_g91 && !d->_cg94 || d->_g57 && !d->_cg97;
  803d6c:	e0bffc17 	ldw	r2,-16(fp)
  803d70:	10802983 	ldbu	r2,166(r2)
  803d74:	10803fcc 	andi	r2,r2,255
  803d78:	1080201c 	xori	r2,r2,128
  803d7c:	10bfe004 	addi	r2,r2,-128
  803d80:	10000626 	beq	r2,zero,803d9c <logic+0x3790>
  803d84:	e0bffc17 	ldw	r2,-16(fp)
  803d88:	10803e03 	ldbu	r2,248(r2)
  803d8c:	10803fcc 	andi	r2,r2,255
  803d90:	1080201c 	xori	r2,r2,128
  803d94:	10bfe004 	addi	r2,r2,-128
  803d98:	10000c26 	beq	r2,zero,803dcc <logic+0x37c0>
  803d9c:	e0bffc17 	ldw	r2,-16(fp)
  803da0:	10802403 	ldbu	r2,144(r2)
  803da4:	10803fcc 	andi	r2,r2,255
  803da8:	1080201c 	xori	r2,r2,128
  803dac:	10bfe004 	addi	r2,r2,-128
  803db0:	10000826 	beq	r2,zero,803dd4 <logic+0x37c8>
  803db4:	e0bffc17 	ldw	r2,-16(fp)
  803db8:	10803e43 	ldbu	r2,249(r2)
  803dbc:	10803fcc 	andi	r2,r2,255
  803dc0:	1080201c 	xori	r2,r2,128
  803dc4:	10bfe004 	addi	r2,r2,-128
  803dc8:	1000021e 	bne	r2,zero,803dd4 <logic+0x37c8>
  803dcc:	00800044 	movi	r2,1
  803dd0:	00000106 	br	803dd8 <logic+0x37cc>
  803dd4:	0005883a 	mov	r2,zero
  803dd8:	1007883a 	mov	r3,r2
  803ddc:	e0bffc17 	ldw	r2,-16(fp)
  803de0:	10c02c45 	stb	r3,177(r2)
  d->_g106 = d->_g67_e2 || d->_g103 && !d->_cg103;
  803de4:	e0bffc17 	ldw	r2,-16(fp)
  803de8:	10804543 	ldbu	r2,277(r2)
  803dec:	10803fcc 	andi	r2,r2,255
  803df0:	1080201c 	xori	r2,r2,128
  803df4:	10bfe004 	addi	r2,r2,-128
  803df8:	10000c1e 	bne	r2,zero,803e2c <logic+0x3820>
  803dfc:	e0bffc17 	ldw	r2,-16(fp)
  803e00:	10802bc3 	ldbu	r2,175(r2)
  803e04:	10803fcc 	andi	r2,r2,255
  803e08:	1080201c 	xori	r2,r2,128
  803e0c:	10bfe004 	addi	r2,r2,-128
  803e10:	10000826 	beq	r2,zero,803e34 <logic+0x3828>
  803e14:	e0bffc17 	ldw	r2,-16(fp)
  803e18:	10803e83 	ldbu	r2,250(r2)
  803e1c:	10803fcc 	andi	r2,r2,255
  803e20:	1080201c 	xori	r2,r2,128
  803e24:	10bfe004 	addi	r2,r2,-128
  803e28:	1000021e 	bne	r2,zero,803e34 <logic+0x3828>
  803e2c:	00800044 	movi	r2,1
  803e30:	00000106 	br	803e38 <logic+0x382c>
  803e34:	0005883a 	mov	r2,zero
  803e38:	1007883a 	mov	r3,r2
  803e3c:	e0bffc17 	ldw	r2,-16(fp)
  803e40:	10c02c85 	stb	r3,178(r2)
  d->_g81 = d->_pg85;
  803e44:	e0bffc17 	ldw	r2,-16(fp)
  803e48:	10c04fc3 	ldbu	r3,319(r2)
  803e4c:	e0bffc17 	ldw	r2,-16(fp)
  803e50:	10c02805 	stb	r3,160(r2)
  d->_cg110 = (d->VP || d->VS) && !d->VRP;
  803e54:	e0bffc17 	ldw	r2,-16(fp)
  803e58:	10801743 	ldbu	r2,93(r2)
  803e5c:	10803fcc 	andi	r2,r2,255
  803e60:	1080201c 	xori	r2,r2,128
  803e64:	10bfe004 	addi	r2,r2,-128
  803e68:	1000061e 	bne	r2,zero,803e84 <logic+0x3878>
  803e6c:	e0bffc17 	ldw	r2,-16(fp)
  803e70:	10800043 	ldbu	r2,1(r2)
  803e74:	10803fcc 	andi	r2,r2,255
  803e78:	1080201c 	xori	r2,r2,128
  803e7c:	10bfe004 	addi	r2,r2,-128
  803e80:	10000826 	beq	r2,zero,803ea4 <logic+0x3898>
  803e84:	e0bffc17 	ldw	r2,-16(fp)
  803e88:	10801803 	ldbu	r2,96(r2)
  803e8c:	10803fcc 	andi	r2,r2,255
  803e90:	1080201c 	xori	r2,r2,128
  803e94:	10bfe004 	addi	r2,r2,-128
  803e98:	1000021e 	bne	r2,zero,803ea4 <logic+0x3898>
  803e9c:	00800044 	movi	r2,1
  803ea0:	00000106 	br	803ea8 <logic+0x389c>
  803ea4:	0005883a 	mov	r2,zero
  803ea8:	1007883a 	mov	r3,r2
  803eac:	e0bffc17 	ldw	r2,-16(fp)
  803eb0:	10c03f05 	stb	r3,252(r2)
  d->_g85 = d->_GO || d->_g81 && !d->_cg110;
  803eb4:	e0bffc17 	ldw	r2,-16(fp)
  803eb8:	108035c3 	ldbu	r2,215(r2)
  803ebc:	10803fcc 	andi	r2,r2,255
  803ec0:	1080201c 	xori	r2,r2,128
  803ec4:	10bfe004 	addi	r2,r2,-128
  803ec8:	10000c1e 	bne	r2,zero,803efc <logic+0x38f0>
  803ecc:	e0bffc17 	ldw	r2,-16(fp)
  803ed0:	10802803 	ldbu	r2,160(r2)
  803ed4:	10803fcc 	andi	r2,r2,255
  803ed8:	1080201c 	xori	r2,r2,128
  803edc:	10bfe004 	addi	r2,r2,-128
  803ee0:	10000826 	beq	r2,zero,803f04 <logic+0x38f8>
  803ee4:	e0bffc17 	ldw	r2,-16(fp)
  803ee8:	10803f03 	ldbu	r2,252(r2)
  803eec:	10803fcc 	andi	r2,r2,255
  803ef0:	1080201c 	xori	r2,r2,128
  803ef4:	10bfe004 	addi	r2,r2,-128
  803ef8:	1000021e 	bne	r2,zero,803f04 <logic+0x38f8>
  803efc:	00800044 	movi	r2,1
  803f00:	00000106 	br	803f08 <logic+0x38fc>
  803f04:	0005883a 	mov	r2,zero
  803f08:	1007883a 	mov	r3,r2
  803f0c:	e0bffc17 	ldw	r2,-16(fp)
  803f10:	10c02885 	stb	r3,162(r2)
  d->_g88 = d->_g81 && d->_cg110 || d->_g133 && d->_cg134 || d->_g122;
  803f14:	e0bffc17 	ldw	r2,-16(fp)
  803f18:	10802803 	ldbu	r2,160(r2)
  803f1c:	10803fcc 	andi	r2,r2,255
  803f20:	1080201c 	xori	r2,r2,128
  803f24:	10bfe004 	addi	r2,r2,-128
  803f28:	10000626 	beq	r2,zero,803f44 <logic+0x3938>
  803f2c:	e0bffc17 	ldw	r2,-16(fp)
  803f30:	10803f03 	ldbu	r2,252(r2)
  803f34:	10803fcc 	andi	r2,r2,255
  803f38:	1080201c 	xori	r2,r2,128
  803f3c:	10bfe004 	addi	r2,r2,-128
  803f40:	1000121e 	bne	r2,zero,803f8c <logic+0x3980>
  803f44:	e0bffc17 	ldw	r2,-16(fp)
  803f48:	108030c3 	ldbu	r2,195(r2)
  803f4c:	10803fcc 	andi	r2,r2,255
  803f50:	1080201c 	xori	r2,r2,128
  803f54:	10bfe004 	addi	r2,r2,-128
  803f58:	10000626 	beq	r2,zero,803f74 <logic+0x3968>
  803f5c:	e0bffc17 	ldw	r2,-16(fp)
  803f60:	10803f43 	ldbu	r2,253(r2)
  803f64:	10803fcc 	andi	r2,r2,255
  803f68:	1080201c 	xori	r2,r2,128
  803f6c:	10bfe004 	addi	r2,r2,-128
  803f70:	1000061e 	bne	r2,zero,803f8c <logic+0x3980>
  803f74:	e0bffc17 	ldw	r2,-16(fp)
  803f78:	10802ec3 	ldbu	r2,187(r2)
  803f7c:	10803fcc 	andi	r2,r2,255
  803f80:	1080201c 	xori	r2,r2,128
  803f84:	10bfe004 	addi	r2,r2,-128
  803f88:	10000226 	beq	r2,zero,803f94 <logic+0x3988>
  803f8c:	00800044 	movi	r2,1
  803f90:	00000106 	br	803f98 <logic+0x398c>
  803f94:	0005883a 	mov	r2,zero
  803f98:	1007883a 	mov	r3,r2
  803f9c:	e0bffc17 	ldw	r2,-16(fp)
  803fa0:	10c02905 	stb	r3,164(r2)
  if (d->_g88) {
  803fa4:	e0bffc17 	ldw	r2,-16(fp)
  803fa8:	10802903 	ldbu	r2,164(r2)
  803fac:	10803fcc 	andi	r2,r2,255
  803fb0:	1080201c 	xori	r2,r2,128
  803fb4:	10bfe004 	addi	r2,r2,-128
  803fb8:	10000726 	beq	r2,zero,803fd8 <logic+0x39cc>
    d->_region4_LRI_cLRI = 0;
  803fbc:	e0bffc17 	ldw	r2,-16(fp)
  803fc0:	10000f15 	stw	zero,60(r2)
  803fc4:	10001015 	stw	zero,64(r2)
    d->_Pacemaker_local__Atrig6 = 0;
  803fc8:	e0bffc17 	ldw	r2,-16(fp)
  803fcc:	10001a85 	stb	zero,106(r2)
    d->_Pacemaker_local__Atrig7 = 0;
  803fd0:	e0bffc17 	ldw	r2,-16(fp)
  803fd4:	10001ac5 	stb	zero,107(r2)
  }
  d->_cg112 = d->_Pacemaker_local__Atrig6 || d->_Pacemaker_local__Atrig7;
  803fd8:	e0bffc17 	ldw	r2,-16(fp)
  803fdc:	10801a83 	ldbu	r2,106(r2)
  803fe0:	10803fcc 	andi	r2,r2,255
  803fe4:	1080201c 	xori	r2,r2,128
  803fe8:	10bfe004 	addi	r2,r2,-128
  803fec:	1000061e 	bne	r2,zero,804008 <logic+0x39fc>
  803ff0:	e0bffc17 	ldw	r2,-16(fp)
  803ff4:	10801ac3 	ldbu	r2,107(r2)
  803ff8:	10803fcc 	andi	r2,r2,255
  803ffc:	1080201c 	xori	r2,r2,128
  804000:	10bfe004 	addi	r2,r2,-128
  804004:	10000226 	beq	r2,zero,804010 <logic+0x3a04>
  804008:	00800044 	movi	r2,1
  80400c:	00000106 	br	804014 <logic+0x3a08>
  804010:	0005883a 	mov	r2,zero
  804014:	1007883a 	mov	r3,r2
  804018:	e0bffc17 	ldw	r2,-16(fp)
  80401c:	10c03f85 	stb	r3,254(r2)
  d->_g92 = d->_g88 && !d->_cg112 || d->_g17 && !d->_cg114;
  804020:	e0bffc17 	ldw	r2,-16(fp)
  804024:	10802903 	ldbu	r2,164(r2)
  804028:	10803fcc 	andi	r2,r2,255
  80402c:	1080201c 	xori	r2,r2,128
  804030:	10bfe004 	addi	r2,r2,-128
  804034:	10000626 	beq	r2,zero,804050 <logic+0x3a44>
  804038:	e0bffc17 	ldw	r2,-16(fp)
  80403c:	10803f83 	ldbu	r2,254(r2)
  804040:	10803fcc 	andi	r2,r2,255
  804044:	1080201c 	xori	r2,r2,128
  804048:	10bfe004 	addi	r2,r2,-128
  80404c:	10000c26 	beq	r2,zero,804080 <logic+0x3a74>
  804050:	e0bffc17 	ldw	r2,-16(fp)
  804054:	10801d83 	ldbu	r2,118(r2)
  804058:	10803fcc 	andi	r2,r2,255
  80405c:	1080201c 	xori	r2,r2,128
  804060:	10bfe004 	addi	r2,r2,-128
  804064:	10000826 	beq	r2,zero,804088 <logic+0x3a7c>
  804068:	e0bffc17 	ldw	r2,-16(fp)
  80406c:	10803fc3 	ldbu	r2,255(r2)
  804070:	10803fcc 	andi	r2,r2,255
  804074:	1080201c 	xori	r2,r2,128
  804078:	10bfe004 	addi	r2,r2,-128
  80407c:	1000021e 	bne	r2,zero,804088 <logic+0x3a7c>
  804080:	00800044 	movi	r2,1
  804084:	00000106 	br	80408c <logic+0x3a80>
  804088:	0005883a 	mov	r2,zero
  80408c:	1007883a 	mov	r3,r2
  804090:	e0bffc17 	ldw	r2,-16(fp)
  804094:	10c029c5 	stb	r3,167(r2)
  d->_cg116 = d->_region4_LRI_cLRI < d->LRI_Constraint;
  804098:	e0bffc17 	ldw	r2,-16(fp)
  80409c:	14000f17 	ldw	r16,60(r2)
  8040a0:	14401017 	ldw	r17,64(r2)
  8040a4:	e0bffc17 	ldw	r2,-16(fp)
  8040a8:	10800517 	ldw	r2,20(r2)
  8040ac:	1009883a 	mov	r4,r2
  8040b0:	08069c80 	call	8069c8 <__floatsidf>
  8040b4:	1009883a 	mov	r4,r2
  8040b8:	180b883a 	mov	r5,r3
  8040bc:	04800044 	movi	r18,1
  8040c0:	200d883a 	mov	r6,r4
  8040c4:	280f883a 	mov	r7,r5
  8040c8:	8009883a 	mov	r4,r16
  8040cc:	880b883a 	mov	r5,r17
  8040d0:	0805fd80 	call	805fd8 <__ledf2>
  8040d4:	10000116 	blt	r2,zero,8040dc <logic+0x3ad0>
  8040d8:	0025883a 	mov	r18,zero
  8040dc:	9007883a 	mov	r3,r18
  8040e0:	e0bffc17 	ldw	r2,-16(fp)
  8040e4:	10c04005 	stb	r3,256(r2)
  d->_g97 = d->_g88 && d->_cg116;
  8040e8:	e0bffc17 	ldw	r2,-16(fp)
  8040ec:	10802903 	ldbu	r2,164(r2)
  8040f0:	10803fcc 	andi	r2,r2,255
  8040f4:	1080201c 	xori	r2,r2,128
  8040f8:	10bfe004 	addi	r2,r2,-128
  8040fc:	10000826 	beq	r2,zero,804120 <logic+0x3b14>
  804100:	e0bffc17 	ldw	r2,-16(fp)
  804104:	10804003 	ldbu	r2,256(r2)
  804108:	10803fcc 	andi	r2,r2,255
  80410c:	1080201c 	xori	r2,r2,128
  804110:	10bfe004 	addi	r2,r2,-128
  804114:	10000226 	beq	r2,zero,804120 <logic+0x3b14>
  804118:	00800044 	movi	r2,1
  80411c:	00000106 	br	804124 <logic+0x3b18>
  804120:	0005883a 	mov	r2,zero
  804124:	1007883a 	mov	r3,r2
  804128:	e0bffc17 	ldw	r2,-16(fp)
  80412c:	10c02ac5 	stb	r3,171(r2)
  if (d->_g97) {
  804130:	e0bffc17 	ldw	r2,-16(fp)
  804134:	10802ac3 	ldbu	r2,171(r2)
  804138:	10803fcc 	andi	r2,r2,255
  80413c:	1080201c 	xori	r2,r2,128
  804140:	10bfe004 	addi	r2,r2,-128
  804144:	10003426 	beq	r2,zero,804218 <logic+0x3c0c>
    d->sleepT = (d->sleepT < (d->LRI_Constraint - d->_region4_LRI_cLRI)) ? d->sleepT : (d->LRI_Constraint - d->_region4_LRI_cLRI);
  804148:	e0bffc17 	ldw	r2,-16(fp)
  80414c:	14001517 	ldw	r16,84(r2)
  804150:	14401617 	ldw	r17,88(r2)
  804154:	e0bffc17 	ldw	r2,-16(fp)
  804158:	10800517 	ldw	r2,20(r2)
  80415c:	1009883a 	mov	r4,r2
  804160:	08069c80 	call	8069c8 <__floatsidf>
  804164:	1011883a 	mov	r8,r2
  804168:	1813883a 	mov	r9,r3
  80416c:	e13ffc17 	ldw	r4,-16(fp)
  804170:	20800f17 	ldw	r2,60(r4)
  804174:	20c01017 	ldw	r3,64(r4)
  804178:	100d883a 	mov	r6,r2
  80417c:	180f883a 	mov	r7,r3
  804180:	4009883a 	mov	r4,r8
  804184:	480b883a 	mov	r5,r9
  804188:	08060cc0 	call	8060cc <__subdf3>
  80418c:	1009883a 	mov	r4,r2
  804190:	180b883a 	mov	r5,r3
  804194:	2005883a 	mov	r2,r4
  804198:	2807883a 	mov	r3,r5
  80419c:	100d883a 	mov	r6,r2
  8041a0:	180f883a 	mov	r7,r3
  8041a4:	8009883a 	mov	r4,r16
  8041a8:	880b883a 	mov	r5,r17
  8041ac:	0805fd80 	call	805fd8 <__ledf2>
  8041b0:	1000040e 	bge	r2,zero,8041c4 <logic+0x3bb8>
  8041b4:	e13ffc17 	ldw	r4,-16(fp)
  8041b8:	20801517 	ldw	r2,84(r4)
  8041bc:	20c01617 	ldw	r3,88(r4)
  8041c0:	00001206 	br	80420c <logic+0x3c00>
  8041c4:	e0bffc17 	ldw	r2,-16(fp)
  8041c8:	10800517 	ldw	r2,20(r2)
  8041cc:	1009883a 	mov	r4,r2
  8041d0:	08069c80 	call	8069c8 <__floatsidf>
  8041d4:	1011883a 	mov	r8,r2
  8041d8:	1813883a 	mov	r9,r3
  8041dc:	e13ffc17 	ldw	r4,-16(fp)
  8041e0:	20800f17 	ldw	r2,60(r4)
  8041e4:	20c01017 	ldw	r3,64(r4)
  8041e8:	100d883a 	mov	r6,r2
  8041ec:	180f883a 	mov	r7,r3
  8041f0:	4009883a 	mov	r4,r8
  8041f4:	480b883a 	mov	r5,r9
  8041f8:	08060cc0 	call	8060cc <__subdf3>
  8041fc:	1009883a 	mov	r4,r2
  804200:	180b883a 	mov	r5,r3
  804204:	2005883a 	mov	r2,r4
  804208:	2807883a 	mov	r3,r5
  80420c:	e13ffc17 	ldw	r4,-16(fp)
  804210:	20801515 	stw	r2,84(r4)
  804214:	20c01615 	stw	r3,88(r4)
  }
  d->_cg117 = d->_Pacemaker_local__Atrig6 || d->_Pacemaker_local__Atrig7;
  804218:	e0bffc17 	ldw	r2,-16(fp)
  80421c:	10801a83 	ldbu	r2,106(r2)
  804220:	10803fcc 	andi	r2,r2,255
  804224:	1080201c 	xori	r2,r2,128
  804228:	10bfe004 	addi	r2,r2,-128
  80422c:	1000061e 	bne	r2,zero,804248 <logic+0x3c3c>
  804230:	e0bffc17 	ldw	r2,-16(fp)
  804234:	10801ac3 	ldbu	r2,107(r2)
  804238:	10803fcc 	andi	r2,r2,255
  80423c:	1080201c 	xori	r2,r2,128
  804240:	10bfe004 	addi	r2,r2,-128
  804244:	10000226 	beq	r2,zero,804250 <logic+0x3c44>
  804248:	00800044 	movi	r2,1
  80424c:	00000106 	br	804254 <logic+0x3c48>
  804250:	0005883a 	mov	r2,zero
  804254:	1007883a 	mov	r3,r2
  804258:	e0bffc17 	ldw	r2,-16(fp)
  80425c:	10c04045 	stb	r3,257(r2)
  d->_g94 = d->_g97 && !d->_cg117 || d->_g119 && !d->_cg121;
  804260:	e0bffc17 	ldw	r2,-16(fp)
  804264:	10802ac3 	ldbu	r2,171(r2)
  804268:	10803fcc 	andi	r2,r2,255
  80426c:	1080201c 	xori	r2,r2,128
  804270:	10bfe004 	addi	r2,r2,-128
  804274:	10000626 	beq	r2,zero,804290 <logic+0x3c84>
  804278:	e0bffc17 	ldw	r2,-16(fp)
  80427c:	10804043 	ldbu	r2,257(r2)
  804280:	10803fcc 	andi	r2,r2,255
  804284:	1080201c 	xori	r2,r2,128
  804288:	10bfe004 	addi	r2,r2,-128
  80428c:	10000c26 	beq	r2,zero,8042c0 <logic+0x3cb4>
  804290:	e0bffc17 	ldw	r2,-16(fp)
  804294:	10802e03 	ldbu	r2,184(r2)
  804298:	10803fcc 	andi	r2,r2,255
  80429c:	1080201c 	xori	r2,r2,128
  8042a0:	10bfe004 	addi	r2,r2,-128
  8042a4:	10000826 	beq	r2,zero,8042c8 <logic+0x3cbc>
  8042a8:	e0bffc17 	ldw	r2,-16(fp)
  8042ac:	10804083 	ldbu	r2,258(r2)
  8042b0:	10803fcc 	andi	r2,r2,255
  8042b4:	1080201c 	xori	r2,r2,128
  8042b8:	10bfe004 	addi	r2,r2,-128
  8042bc:	1000021e 	bne	r2,zero,8042c8 <logic+0x3cbc>
  8042c0:	00800044 	movi	r2,1
  8042c4:	00000106 	br	8042cc <logic+0x3cc0>
  8042c8:	0005883a 	mov	r2,zero
  8042cc:	1007883a 	mov	r3,r2
  8042d0:	e0bffc17 	ldw	r2,-16(fp)
  8042d4:	10c02a45 	stb	r3,169(r2)
  d->_g103 = d->_g88 && !d->_cg116;
  8042d8:	e0bffc17 	ldw	r2,-16(fp)
  8042dc:	10802903 	ldbu	r2,164(r2)
  8042e0:	10803fcc 	andi	r2,r2,255
  8042e4:	1080201c 	xori	r2,r2,128
  8042e8:	10bfe004 	addi	r2,r2,-128
  8042ec:	10000826 	beq	r2,zero,804310 <logic+0x3d04>
  8042f0:	e0bffc17 	ldw	r2,-16(fp)
  8042f4:	10804003 	ldbu	r2,256(r2)
  8042f8:	10803fcc 	andi	r2,r2,255
  8042fc:	1080201c 	xori	r2,r2,128
  804300:	10bfe004 	addi	r2,r2,-128
  804304:	1000021e 	bne	r2,zero,804310 <logic+0x3d04>
  804308:	00800044 	movi	r2,1
  80430c:	00000106 	br	804314 <logic+0x3d08>
  804310:	0005883a 	mov	r2,zero
  804314:	1007883a 	mov	r3,r2
  804318:	e0bffc17 	ldw	r2,-16(fp)
  80431c:	10c02bc5 	stb	r3,175(r2)
  d->_cg126 = d->_Pacemaker_local__Atrig6 || d->_Pacemaker_local__Atrig7;
  804320:	e0bffc17 	ldw	r2,-16(fp)
  804324:	10801a83 	ldbu	r2,106(r2)
  804328:	10803fcc 	andi	r2,r2,255
  80432c:	1080201c 	xori	r2,r2,128
  804330:	10bfe004 	addi	r2,r2,-128
  804334:	1000061e 	bne	r2,zero,804350 <logic+0x3d44>
  804338:	e0bffc17 	ldw	r2,-16(fp)
  80433c:	10801ac3 	ldbu	r2,107(r2)
  804340:	10803fcc 	andi	r2,r2,255
  804344:	1080201c 	xori	r2,r2,128
  804348:	10bfe004 	addi	r2,r2,-128
  80434c:	10000226 	beq	r2,zero,804358 <logic+0x3d4c>
  804350:	00800044 	movi	r2,1
  804354:	00000106 	br	80435c <logic+0x3d50>
  804358:	0005883a 	mov	r2,zero
  80435c:	1007883a 	mov	r3,r2
  804360:	e0bffc17 	ldw	r2,-16(fp)
  804364:	10c04145 	stb	r3,261(r2)
  d->_g82 = d->_g120 && !d->_cg123 || d->_g103 && !d->_cg126;
  804368:	e0bffc17 	ldw	r2,-16(fp)
  80436c:	10802e43 	ldbu	r2,185(r2)
  804370:	10803fcc 	andi	r2,r2,255
  804374:	1080201c 	xori	r2,r2,128
  804378:	10bfe004 	addi	r2,r2,-128
  80437c:	10000626 	beq	r2,zero,804398 <logic+0x3d8c>
  804380:	e0bffc17 	ldw	r2,-16(fp)
  804384:	10804103 	ldbu	r2,260(r2)
  804388:	10803fcc 	andi	r2,r2,255
  80438c:	1080201c 	xori	r2,r2,128
  804390:	10bfe004 	addi	r2,r2,-128
  804394:	10000c26 	beq	r2,zero,8043c8 <logic+0x3dbc>
  804398:	e0bffc17 	ldw	r2,-16(fp)
  80439c:	10802bc3 	ldbu	r2,175(r2)
  8043a0:	10803fcc 	andi	r2,r2,255
  8043a4:	1080201c 	xori	r2,r2,128
  8043a8:	10bfe004 	addi	r2,r2,-128
  8043ac:	10000826 	beq	r2,zero,8043d0 <logic+0x3dc4>
  8043b0:	e0bffc17 	ldw	r2,-16(fp)
  8043b4:	10804143 	ldbu	r2,261(r2)
  8043b8:	10803fcc 	andi	r2,r2,255
  8043bc:	1080201c 	xori	r2,r2,128
  8043c0:	10bfe004 	addi	r2,r2,-128
  8043c4:	1000021e 	bne	r2,zero,8043d0 <logic+0x3dc4>
  8043c8:	00800044 	movi	r2,1
  8043cc:	00000106 	br	8043d4 <logic+0x3dc8>
  8043d0:	0005883a 	mov	r2,zero
  8043d4:	1007883a 	mov	r3,r2
  8043d8:	e0bffc17 	ldw	r2,-16(fp)
  8043dc:	10c02845 	stb	r3,161(r2)
  d->_g134 = d->_g88 || d->_g132 && !d->_cg132;
  8043e0:	e0bffc17 	ldw	r2,-16(fp)
  8043e4:	10802903 	ldbu	r2,164(r2)
  8043e8:	10803fcc 	andi	r2,r2,255
  8043ec:	1080201c 	xori	r2,r2,128
  8043f0:	10bfe004 	addi	r2,r2,-128
  8043f4:	10000c1e 	bne	r2,zero,804428 <logic+0x3e1c>
  8043f8:	e0bffc17 	ldw	r2,-16(fp)
  8043fc:	10803083 	ldbu	r2,194(r2)
  804400:	10803fcc 	andi	r2,r2,255
  804404:	1080201c 	xori	r2,r2,128
  804408:	10bfe004 	addi	r2,r2,-128
  80440c:	10000826 	beq	r2,zero,804430 <logic+0x3e24>
  804410:	e0bffc17 	ldw	r2,-16(fp)
  804414:	10804183 	ldbu	r2,262(r2)
  804418:	10803fcc 	andi	r2,r2,255
  80441c:	1080201c 	xori	r2,r2,128
  804420:	10bfe004 	addi	r2,r2,-128
  804424:	1000021e 	bne	r2,zero,804430 <logic+0x3e24>
  804428:	00800044 	movi	r2,1
  80442c:	00000106 	br	804434 <logic+0x3e28>
  804430:	0005883a 	mov	r2,zero
  804434:	1007883a 	mov	r3,r2
  804438:	e0bffc17 	ldw	r2,-16(fp)
  80443c:	10c03105 	stb	r3,196(r2)
  d->_g135 = d->_pg139;
  804440:	e0bffc17 	ldw	r2,-16(fp)
  804444:	10c05003 	ldbu	r3,320(r2)
  804448:	e0bffc17 	ldw	r2,-16(fp)
  80444c:	10c03145 	stb	r3,197(r2)
  if (d->_g135) {
  804450:	e0bffc17 	ldw	r2,-16(fp)
  804454:	10803143 	ldbu	r2,197(r2)
  804458:	10803fcc 	andi	r2,r2,255
  80445c:	1080201c 	xori	r2,r2,128
  804460:	10bfe004 	addi	r2,r2,-128
  804464:	10001226 	beq	r2,zero,8044b0 <logic+0x3ea4>
    d->_region5_URI_cURI += d->deltaT;
  804468:	e13ffc17 	ldw	r4,-16(fp)
  80446c:	20801117 	ldw	r2,68(r4)
  804470:	20c01217 	ldw	r3,72(r4)
  804474:	e1bffc17 	ldw	r6,-16(fp)
  804478:	31001317 	ldw	r4,76(r6)
  80447c:	31401417 	ldw	r5,80(r6)
  804480:	200d883a 	mov	r6,r4
  804484:	280f883a 	mov	r7,r5
  804488:	1009883a 	mov	r4,r2
  80448c:	180b883a 	mov	r5,r3
  804490:	08056500 	call	805650 <__adddf3>
  804494:	1009883a 	mov	r4,r2
  804498:	180b883a 	mov	r5,r3
  80449c:	2005883a 	mov	r2,r4
  8044a0:	2807883a 	mov	r3,r5
  8044a4:	e13ffc17 	ldw	r4,-16(fp)
  8044a8:	20801115 	stw	r2,68(r4)
  8044ac:	20c01215 	stw	r3,72(r4)
  }
  d->_g110 = d->_pg148;
  8044b0:	e0bffc17 	ldw	r2,-16(fp)
  8044b4:	10c05043 	ldbu	r3,321(r2)
  8044b8:	e0bffc17 	ldw	r2,-16(fp)
  8044bc:	10c02cc5 	stb	r3,179(r2)
  d->_cg157 = d->_region5_URI_cURI >= d->URI_Constraint;
  8044c0:	e0bffc17 	ldw	r2,-16(fp)
  8044c4:	14001117 	ldw	r16,68(r2)
  8044c8:	14401217 	ldw	r17,72(r2)
  8044cc:	e0bffc17 	ldw	r2,-16(fp)
  8044d0:	10800617 	ldw	r2,24(r2)
  8044d4:	1009883a 	mov	r4,r2
  8044d8:	08069c80 	call	8069c8 <__floatsidf>
  8044dc:	1009883a 	mov	r4,r2
  8044e0:	180b883a 	mov	r5,r3
  8044e4:	04800044 	movi	r18,1
  8044e8:	200d883a 	mov	r6,r4
  8044ec:	280f883a 	mov	r7,r5
  8044f0:	8009883a 	mov	r4,r16
  8044f4:	880b883a 	mov	r5,r17
  8044f8:	0805efc0 	call	805efc <__gedf2>
  8044fc:	1000010e 	bge	r2,zero,804504 <logic+0x3ef8>
  804500:	0025883a 	mov	r18,zero
  804504:	9007883a 	mov	r3,r18
  804508:	e0bffc17 	ldw	r2,-16(fp)
  80450c:	10c04345 	stb	r3,269(r2)
  d->_g114 = d->_g110 && d->_cg157;
  804510:	e0bffc17 	ldw	r2,-16(fp)
  804514:	10802cc3 	ldbu	r2,179(r2)
  804518:	10803fcc 	andi	r2,r2,255
  80451c:	1080201c 	xori	r2,r2,128
  804520:	10bfe004 	addi	r2,r2,-128
  804524:	10000826 	beq	r2,zero,804548 <logic+0x3f3c>
  804528:	e0bffc17 	ldw	r2,-16(fp)
  80452c:	10804343 	ldbu	r2,269(r2)
  804530:	10803fcc 	andi	r2,r2,255
  804534:	1080201c 	xori	r2,r2,128
  804538:	10bfe004 	addi	r2,r2,-128
  80453c:	10000226 	beq	r2,zero,804548 <logic+0x3f3c>
  804540:	00800044 	movi	r2,1
  804544:	00000106 	br	80454c <logic+0x3f40>
  804548:	0005883a 	mov	r2,zero
  80454c:	1007883a 	mov	r3,r2
  804550:	e0bffc17 	ldw	r2,-16(fp)
  804554:	10c02d45 	stb	r3,181(r2)
  if (d->_g114) {
  804558:	e0bffc17 	ldw	r2,-16(fp)
  80455c:	10802d43 	ldbu	r2,181(r2)
  804560:	10803fcc 	andi	r2,r2,255
  804564:	1080201c 	xori	r2,r2,128
  804568:	10bfe004 	addi	r2,r2,-128
  80456c:	10000326 	beq	r2,zero,80457c <logic+0x3f70>
    d->_Pacemaker_local__Atrig8 = 1;
  804570:	e0bffc17 	ldw	r2,-16(fp)
  804574:	00c00044 	movi	r3,1
  804578:	10c01b05 	stb	r3,108(r2)
  }
  d->_g117 = d->_pg149_e2;
  80457c:	e0bffc17 	ldw	r2,-16(fp)
  804580:	10c05083 	ldbu	r3,322(r2)
  804584:	e0bffc17 	ldw	r2,-16(fp)
  804588:	10c02dc5 	stb	r3,183(r2)
  d->_cg139 = (d->VS || d->VP) && !d->VRP;
  80458c:	e0bffc17 	ldw	r2,-16(fp)
  804590:	10800043 	ldbu	r2,1(r2)
  804594:	10803fcc 	andi	r2,r2,255
  804598:	1080201c 	xori	r2,r2,128
  80459c:	10bfe004 	addi	r2,r2,-128
  8045a0:	1000061e 	bne	r2,zero,8045bc <logic+0x3fb0>
  8045a4:	e0bffc17 	ldw	r2,-16(fp)
  8045a8:	10801743 	ldbu	r2,93(r2)
  8045ac:	10803fcc 	andi	r2,r2,255
  8045b0:	1080201c 	xori	r2,r2,128
  8045b4:	10bfe004 	addi	r2,r2,-128
  8045b8:	10000826 	beq	r2,zero,8045dc <logic+0x3fd0>
  8045bc:	e0bffc17 	ldw	r2,-16(fp)
  8045c0:	10801803 	ldbu	r2,96(r2)
  8045c4:	10803fcc 	andi	r2,r2,255
  8045c8:	1080201c 	xori	r2,r2,128
  8045cc:	10bfe004 	addi	r2,r2,-128
  8045d0:	1000021e 	bne	r2,zero,8045dc <logic+0x3fd0>
  8045d4:	00800044 	movi	r2,1
  8045d8:	00000106 	br	8045e0 <logic+0x3fd4>
  8045dc:	0005883a 	mov	r2,zero
  8045e0:	1007883a 	mov	r3,r2
  8045e4:	e0bffc17 	ldw	r2,-16(fp)
  8045e8:	10c04205 	stb	r3,264(r2)
  d->_g121 = d->_g117 && d->_cg139;
  8045ec:	e0bffc17 	ldw	r2,-16(fp)
  8045f0:	10802dc3 	ldbu	r2,183(r2)
  8045f4:	10803fcc 	andi	r2,r2,255
  8045f8:	1080201c 	xori	r2,r2,128
  8045fc:	10bfe004 	addi	r2,r2,-128
  804600:	10000826 	beq	r2,zero,804624 <logic+0x4018>
  804604:	e0bffc17 	ldw	r2,-16(fp)
  804608:	10804203 	ldbu	r2,264(r2)
  80460c:	10803fcc 	andi	r2,r2,255
  804610:	1080201c 	xori	r2,r2,128
  804614:	10bfe004 	addi	r2,r2,-128
  804618:	10000226 	beq	r2,zero,804624 <logic+0x4018>
  80461c:	00800044 	movi	r2,1
  804620:	00000106 	br	804628 <logic+0x401c>
  804624:	0005883a 	mov	r2,zero
  804628:	1007883a 	mov	r3,r2
  80462c:	e0bffc17 	ldw	r2,-16(fp)
  804630:	10c02e85 	stb	r3,186(r2)
  if (d->_g121) {
  804634:	e0bffc17 	ldw	r2,-16(fp)
  804638:	10802e83 	ldbu	r2,186(r2)
  80463c:	10803fcc 	andi	r2,r2,255
  804640:	1080201c 	xori	r2,r2,128
  804644:	10bfe004 	addi	r2,r2,-128
  804648:	10000526 	beq	r2,zero,804660 <logic+0x4054>
    d->_region5_URI_cURI = 0;
  80464c:	e0bffc17 	ldw	r2,-16(fp)
  804650:	10001115 	stw	zero,68(r2)
  804654:	10001215 	stw	zero,72(r2)
    d->_Pacemaker_local__Atrig8 = 0;
  804658:	e0bffc17 	ldw	r2,-16(fp)
  80465c:	10001b05 	stb	zero,108(r2)
  }
  d->_g123 = d->_g121 || d->_g145;
  804660:	e0bffc17 	ldw	r2,-16(fp)
  804664:	10802e83 	ldbu	r2,186(r2)
  804668:	10803fcc 	andi	r2,r2,255
  80466c:	1080201c 	xori	r2,r2,128
  804670:	10bfe004 	addi	r2,r2,-128
  804674:	1000061e 	bne	r2,zero,804690 <logic+0x4084>
  804678:	e0bffc17 	ldw	r2,-16(fp)
  80467c:	10803283 	ldbu	r2,202(r2)
  804680:	10803fcc 	andi	r2,r2,255
  804684:	1080201c 	xori	r2,r2,128
  804688:	10bfe004 	addi	r2,r2,-128
  80468c:	10000226 	beq	r2,zero,804698 <logic+0x408c>
  804690:	00800044 	movi	r2,1
  804694:	00000106 	br	80469c <logic+0x4090>
  804698:	0005883a 	mov	r2,zero
  80469c:	1007883a 	mov	r3,r2
  8046a0:	e0bffc17 	ldw	r2,-16(fp)
  8046a4:	10c02f05 	stb	r3,188(r2)
  d->_cg142 = d->_Pacemaker_local__Atrig8;
  8046a8:	e0bffc17 	ldw	r2,-16(fp)
  8046ac:	10c01b03 	ldbu	r3,108(r2)
  8046b0:	e0bffc17 	ldw	r2,-16(fp)
  8046b4:	10c04245 	stb	r3,265(r2)
  d->_g126 = d->_g123 && !d->_cg142;
  8046b8:	e0bffc17 	ldw	r2,-16(fp)
  8046bc:	10802f03 	ldbu	r2,188(r2)
  8046c0:	10803fcc 	andi	r2,r2,255
  8046c4:	1080201c 	xori	r2,r2,128
  8046c8:	10bfe004 	addi	r2,r2,-128
  8046cc:	10000826 	beq	r2,zero,8046f0 <logic+0x40e4>
  8046d0:	e0bffc17 	ldw	r2,-16(fp)
  8046d4:	10804243 	ldbu	r2,265(r2)
  8046d8:	10803fcc 	andi	r2,r2,255
  8046dc:	1080201c 	xori	r2,r2,128
  8046e0:	10bfe004 	addi	r2,r2,-128
  8046e4:	1000021e 	bne	r2,zero,8046f0 <logic+0x40e4>
  8046e8:	00800044 	movi	r2,1
  8046ec:	00000106 	br	8046f4 <logic+0x40e8>
  8046f0:	0005883a 	mov	r2,zero
  8046f4:	1007883a 	mov	r3,r2
  8046f8:	e0bffc17 	ldw	r2,-16(fp)
  8046fc:	10c02f85 	stb	r3,190(r2)
  d->_g132 = !d->_g126;
  804700:	e0bffc17 	ldw	r2,-16(fp)
  804704:	10802f83 	ldbu	r2,190(r2)
  804708:	10803fcc 	andi	r2,r2,255
  80470c:	1080201c 	xori	r2,r2,128
  804710:	10bfe004 	addi	r2,r2,-128
  804714:	1005003a 	cmpeq	r2,r2,zero
  804718:	1007883a 	mov	r3,r2
  80471c:	e0bffc17 	ldw	r2,-16(fp)
  804720:	10c03085 	stb	r3,194(r2)
  d->_g111 = d->_g123 && d->_cg142;
  804724:	e0bffc17 	ldw	r2,-16(fp)
  804728:	10802f03 	ldbu	r2,188(r2)
  80472c:	10803fcc 	andi	r2,r2,255
  804730:	1080201c 	xori	r2,r2,128
  804734:	10bfe004 	addi	r2,r2,-128
  804738:	10000826 	beq	r2,zero,80475c <logic+0x4150>
  80473c:	e0bffc17 	ldw	r2,-16(fp)
  804740:	10804243 	ldbu	r2,265(r2)
  804744:	10803fcc 	andi	r2,r2,255
  804748:	1080201c 	xori	r2,r2,128
  80474c:	10bfe004 	addi	r2,r2,-128
  804750:	10000226 	beq	r2,zero,80475c <logic+0x4150>
  804754:	00800044 	movi	r2,1
  804758:	00000106 	br	804760 <logic+0x4154>
  80475c:	0005883a 	mov	r2,zero
  804760:	1007883a 	mov	r3,r2
  804764:	e0bffc17 	ldw	r2,-16(fp)
  804768:	10c02d05 	stb	r3,180(r2)
  d->_g145 = d->_pg150;
  80476c:	e0bffc17 	ldw	r2,-16(fp)
  804770:	10c050c3 	ldbu	r3,323(r2)
  804774:	e0bffc17 	ldw	r2,-16(fp)
  804778:	10c03285 	stb	r3,202(r2)
  d->_g142 = d->_pg153;
  80477c:	e0bffc17 	ldw	r2,-16(fp)
  804780:	10c05103 	ldbu	r3,324(r2)
  804784:	e0bffc17 	ldw	r2,-16(fp)
  804788:	10c03205 	stb	r3,200(r2)
  d->_g154 = d->_g121 || d->_g145 || d->_g142;
  80478c:	e0bffc17 	ldw	r2,-16(fp)
  804790:	10802e83 	ldbu	r2,186(r2)
  804794:	10803fcc 	andi	r2,r2,255
  804798:	1080201c 	xori	r2,r2,128
  80479c:	10bfe004 	addi	r2,r2,-128
  8047a0:	10000c1e 	bne	r2,zero,8047d4 <logic+0x41c8>
  8047a4:	e0bffc17 	ldw	r2,-16(fp)
  8047a8:	10803283 	ldbu	r2,202(r2)
  8047ac:	10803fcc 	andi	r2,r2,255
  8047b0:	1080201c 	xori	r2,r2,128
  8047b4:	10bfe004 	addi	r2,r2,-128
  8047b8:	1000061e 	bne	r2,zero,8047d4 <logic+0x41c8>
  8047bc:	e0bffc17 	ldw	r2,-16(fp)
  8047c0:	10803203 	ldbu	r2,200(r2)
  8047c4:	10803fcc 	andi	r2,r2,255
  8047c8:	1080201c 	xori	r2,r2,128
  8047cc:	10bfe004 	addi	r2,r2,-128
  8047d0:	10000226 	beq	r2,zero,8047dc <logic+0x41d0>
  8047d4:	00800044 	movi	r2,1
  8047d8:	00000106 	br	8047e0 <logic+0x41d4>
  8047dc:	0005883a 	mov	r2,zero
  8047e0:	1007883a 	mov	r3,r2
  8047e4:	e0bffc17 	ldw	r2,-16(fp)
  8047e8:	10c03485 	stb	r3,210(r2)
  d->_cg147 = d->_region5_URI_cURI < d->URI_Constraint;
  8047ec:	e0bffc17 	ldw	r2,-16(fp)
  8047f0:	14001117 	ldw	r16,68(r2)
  8047f4:	14401217 	ldw	r17,72(r2)
  8047f8:	e0bffc17 	ldw	r2,-16(fp)
  8047fc:	10800617 	ldw	r2,24(r2)
  804800:	1009883a 	mov	r4,r2
  804804:	08069c80 	call	8069c8 <__floatsidf>
  804808:	1009883a 	mov	r4,r2
  80480c:	180b883a 	mov	r5,r3
  804810:	04800044 	movi	r18,1
  804814:	200d883a 	mov	r6,r4
  804818:	280f883a 	mov	r7,r5
  80481c:	8009883a 	mov	r4,r16
  804820:	880b883a 	mov	r5,r17
  804824:	0805fd80 	call	805fd8 <__ledf2>
  804828:	10000116 	blt	r2,zero,804830 <logic+0x4224>
  80482c:	0025883a 	mov	r18,zero
  804830:	9007883a 	mov	r3,r18
  804834:	e0bffc17 	ldw	r2,-16(fp)
  804838:	10c04285 	stb	r3,266(r2)
  d->_g151 = d->_g154 && !d->_cg147;
  80483c:	e0bffc17 	ldw	r2,-16(fp)
  804840:	10803483 	ldbu	r2,210(r2)
  804844:	10803fcc 	andi	r2,r2,255
  804848:	1080201c 	xori	r2,r2,128
  80484c:	10bfe004 	addi	r2,r2,-128
  804850:	10000826 	beq	r2,zero,804874 <logic+0x4268>
  804854:	e0bffc17 	ldw	r2,-16(fp)
  804858:	10804283 	ldbu	r2,266(r2)
  80485c:	10803fcc 	andi	r2,r2,255
  804860:	1080201c 	xori	r2,r2,128
  804864:	10bfe004 	addi	r2,r2,-128
  804868:	1000021e 	bne	r2,zero,804874 <logic+0x4268>
  80486c:	00800044 	movi	r2,1
  804870:	00000106 	br	804878 <logic+0x426c>
  804874:	0005883a 	mov	r2,zero
  804878:	1007883a 	mov	r3,r2
  80487c:	e0bffc17 	ldw	r2,-16(fp)
  804880:	10c033c5 	stb	r3,207(r2)
  d->_cg152 = d->_Pacemaker_local__Atrig8;
  804884:	e0bffc17 	ldw	r2,-16(fp)
  804888:	10c01b03 	ldbu	r3,108(r2)
  80488c:	e0bffc17 	ldw	r2,-16(fp)
  804890:	10c04305 	stb	r3,268(r2)
  d->_g153 = d->_g151 && !d->_cg152;
  804894:	e0bffc17 	ldw	r2,-16(fp)
  804898:	108033c3 	ldbu	r2,207(r2)
  80489c:	10803fcc 	andi	r2,r2,255
  8048a0:	1080201c 	xori	r2,r2,128
  8048a4:	10bfe004 	addi	r2,r2,-128
  8048a8:	10000826 	beq	r2,zero,8048cc <logic+0x42c0>
  8048ac:	e0bffc17 	ldw	r2,-16(fp)
  8048b0:	10804303 	ldbu	r2,268(r2)
  8048b4:	10803fcc 	andi	r2,r2,255
  8048b8:	1080201c 	xori	r2,r2,128
  8048bc:	10bfe004 	addi	r2,r2,-128
  8048c0:	1000021e 	bne	r2,zero,8048cc <logic+0x42c0>
  8048c4:	00800044 	movi	r2,1
  8048c8:	00000106 	br	8048d0 <logic+0x42c4>
  8048cc:	0005883a 	mov	r2,zero
  8048d0:	1007883a 	mov	r3,r2
  8048d4:	e0bffc17 	ldw	r2,-16(fp)
  8048d8:	10c03445 	stb	r3,209(r2)
  d->_g147 = d->_g154 && d->_cg147;
  8048dc:	e0bffc17 	ldw	r2,-16(fp)
  8048e0:	10803483 	ldbu	r2,210(r2)
  8048e4:	10803fcc 	andi	r2,r2,255
  8048e8:	1080201c 	xori	r2,r2,128
  8048ec:	10bfe004 	addi	r2,r2,-128
  8048f0:	10000826 	beq	r2,zero,804914 <logic+0x4308>
  8048f4:	e0bffc17 	ldw	r2,-16(fp)
  8048f8:	10804283 	ldbu	r2,266(r2)
  8048fc:	10803fcc 	andi	r2,r2,255
  804900:	1080201c 	xori	r2,r2,128
  804904:	10bfe004 	addi	r2,r2,-128
  804908:	10000226 	beq	r2,zero,804914 <logic+0x4308>
  80490c:	00800044 	movi	r2,1
  804910:	00000106 	br	804918 <logic+0x430c>
  804914:	0005883a 	mov	r2,zero
  804918:	1007883a 	mov	r3,r2
  80491c:	e0bffc17 	ldw	r2,-16(fp)
  804920:	10c032c5 	stb	r3,203(r2)
  if (d->_g147) {
  804924:	e0bffc17 	ldw	r2,-16(fp)
  804928:	108032c3 	ldbu	r2,203(r2)
  80492c:	10803fcc 	andi	r2,r2,255
  804930:	1080201c 	xori	r2,r2,128
  804934:	10bfe004 	addi	r2,r2,-128
  804938:	10003426 	beq	r2,zero,804a0c <logic+0x4400>
    d->sleepT = (d->sleepT < (d->URI_Constraint - d->_region5_URI_cURI)) ? d->sleepT : (d->URI_Constraint - d->_region5_URI_cURI);
  80493c:	e0bffc17 	ldw	r2,-16(fp)
  804940:	14001517 	ldw	r16,84(r2)
  804944:	14401617 	ldw	r17,88(r2)
  804948:	e0bffc17 	ldw	r2,-16(fp)
  80494c:	10800617 	ldw	r2,24(r2)
  804950:	1009883a 	mov	r4,r2
  804954:	08069c80 	call	8069c8 <__floatsidf>
  804958:	1011883a 	mov	r8,r2
  80495c:	1813883a 	mov	r9,r3
  804960:	e13ffc17 	ldw	r4,-16(fp)
  804964:	20801117 	ldw	r2,68(r4)
  804968:	20c01217 	ldw	r3,72(r4)
  80496c:	100d883a 	mov	r6,r2
  804970:	180f883a 	mov	r7,r3
  804974:	4009883a 	mov	r4,r8
  804978:	480b883a 	mov	r5,r9
  80497c:	08060cc0 	call	8060cc <__subdf3>
  804980:	1009883a 	mov	r4,r2
  804984:	180b883a 	mov	r5,r3
  804988:	2005883a 	mov	r2,r4
  80498c:	2807883a 	mov	r3,r5
  804990:	100d883a 	mov	r6,r2
  804994:	180f883a 	mov	r7,r3
  804998:	8009883a 	mov	r4,r16
  80499c:	880b883a 	mov	r5,r17
  8049a0:	0805fd80 	call	805fd8 <__ledf2>
  8049a4:	1000040e 	bge	r2,zero,8049b8 <logic+0x43ac>
  8049a8:	e13ffc17 	ldw	r4,-16(fp)
  8049ac:	20801517 	ldw	r2,84(r4)
  8049b0:	20c01617 	ldw	r3,88(r4)
  8049b4:	00001206 	br	804a00 <logic+0x43f4>
  8049b8:	e0bffc17 	ldw	r2,-16(fp)
  8049bc:	10800617 	ldw	r2,24(r2)
  8049c0:	1009883a 	mov	r4,r2
  8049c4:	08069c80 	call	8069c8 <__floatsidf>
  8049c8:	1011883a 	mov	r8,r2
  8049cc:	1813883a 	mov	r9,r3
  8049d0:	e13ffc17 	ldw	r4,-16(fp)
  8049d4:	20801117 	ldw	r2,68(r4)
  8049d8:	20c01217 	ldw	r3,72(r4)
  8049dc:	100d883a 	mov	r6,r2
  8049e0:	180f883a 	mov	r7,r3
  8049e4:	4009883a 	mov	r4,r8
  8049e8:	480b883a 	mov	r5,r9
  8049ec:	08060cc0 	call	8060cc <__subdf3>
  8049f0:	1009883a 	mov	r4,r2
  8049f4:	180b883a 	mov	r5,r3
  8049f8:	2005883a 	mov	r2,r4
  8049fc:	2807883a 	mov	r3,r5
  804a00:	e13ffc17 	ldw	r4,-16(fp)
  804a04:	20801515 	stw	r2,84(r4)
  804a08:	20c01615 	stw	r3,88(r4)
  }
  d->_cg148 = d->_Pacemaker_local__Atrig8;
  804a0c:	e0bffc17 	ldw	r2,-16(fp)
  804a10:	10c01b03 	ldbu	r3,108(r2)
  804a14:	e0bffc17 	ldw	r2,-16(fp)
  804a18:	10c042c5 	stb	r3,267(r2)
  d->_g150 = d->_g147 && !d->_cg148;
  804a1c:	e0bffc17 	ldw	r2,-16(fp)
  804a20:	108032c3 	ldbu	r2,203(r2)
  804a24:	10803fcc 	andi	r2,r2,255
  804a28:	1080201c 	xori	r2,r2,128
  804a2c:	10bfe004 	addi	r2,r2,-128
  804a30:	10000826 	beq	r2,zero,804a54 <logic+0x4448>
  804a34:	e0bffc17 	ldw	r2,-16(fp)
  804a38:	108042c3 	ldbu	r2,267(r2)
  804a3c:	10803fcc 	andi	r2,r2,255
  804a40:	1080201c 	xori	r2,r2,128
  804a44:	10bfe004 	addi	r2,r2,-128
  804a48:	1000021e 	bne	r2,zero,804a54 <logic+0x4448>
  804a4c:	00800044 	movi	r2,1
  804a50:	00000106 	br	804a58 <logic+0x444c>
  804a54:	0005883a 	mov	r2,zero
  804a58:	1007883a 	mov	r3,r2
  804a5c:	e0bffc17 	ldw	r2,-16(fp)
  804a60:	10c03385 	stb	r3,206(r2)
  d->_g149_e2 = !(d->_g153 || d->_g150);
  804a64:	e0bffc17 	ldw	r2,-16(fp)
  804a68:	10803443 	ldbu	r2,209(r2)
  804a6c:	10803fcc 	andi	r2,r2,255
  804a70:	1080201c 	xori	r2,r2,128
  804a74:	10bfe004 	addi	r2,r2,-128
  804a78:	1000081e 	bne	r2,zero,804a9c <logic+0x4490>
  804a7c:	e0bffc17 	ldw	r2,-16(fp)
  804a80:	10803383 	ldbu	r2,206(r2)
  804a84:	10803fcc 	andi	r2,r2,255
  804a88:	1080201c 	xori	r2,r2,128
  804a8c:	10bfe004 	addi	r2,r2,-128
  804a90:	1000021e 	bne	r2,zero,804a9c <logic+0x4490>
  804a94:	00800044 	movi	r2,1
  804a98:	00000106 	br	804aa0 <logic+0x4494>
  804a9c:	0005883a 	mov	r2,zero
  804aa0:	1007883a 	mov	r3,r2
  804aa4:	e0bffc17 	ldw	r2,-16(fp)
  804aa8:	10c04785 	stb	r3,286(r2)
  d->_g152 = d->_g147 && d->_cg148 || d->_g151 && d->_cg152;
  804aac:	e0bffc17 	ldw	r2,-16(fp)
  804ab0:	108032c3 	ldbu	r2,203(r2)
  804ab4:	10803fcc 	andi	r2,r2,255
  804ab8:	1080201c 	xori	r2,r2,128
  804abc:	10bfe004 	addi	r2,r2,-128
  804ac0:	10000626 	beq	r2,zero,804adc <logic+0x44d0>
  804ac4:	e0bffc17 	ldw	r2,-16(fp)
  804ac8:	108042c3 	ldbu	r2,267(r2)
  804acc:	10803fcc 	andi	r2,r2,255
  804ad0:	1080201c 	xori	r2,r2,128
  804ad4:	10bfe004 	addi	r2,r2,-128
  804ad8:	10000c1e 	bne	r2,zero,804b0c <logic+0x4500>
  804adc:	e0bffc17 	ldw	r2,-16(fp)
  804ae0:	108033c3 	ldbu	r2,207(r2)
  804ae4:	10803fcc 	andi	r2,r2,255
  804ae8:	1080201c 	xori	r2,r2,128
  804aec:	10bfe004 	addi	r2,r2,-128
  804af0:	10000826 	beq	r2,zero,804b14 <logic+0x4508>
  804af4:	e0bffc17 	ldw	r2,-16(fp)
  804af8:	10804303 	ldbu	r2,268(r2)
  804afc:	10803fcc 	andi	r2,r2,255
  804b00:	1080201c 	xori	r2,r2,128
  804b04:	10bfe004 	addi	r2,r2,-128
  804b08:	10000226 	beq	r2,zero,804b14 <logic+0x4508>
  804b0c:	00800044 	movi	r2,1
  804b10:	00000106 	br	804b18 <logic+0x450c>
  804b14:	0005883a 	mov	r2,zero
  804b18:	1007883a 	mov	r3,r2
  804b1c:	e0bffc17 	ldw	r2,-16(fp)
  804b20:	10c03405 	stb	r3,208(r2)
  d->_g148 = d->_g121 || d->_g110 && !d->_cg157;
  804b24:	e0bffc17 	ldw	r2,-16(fp)
  804b28:	10802e83 	ldbu	r2,186(r2)
  804b2c:	10803fcc 	andi	r2,r2,255
  804b30:	1080201c 	xori	r2,r2,128
  804b34:	10bfe004 	addi	r2,r2,-128
  804b38:	10000c1e 	bne	r2,zero,804b6c <logic+0x4560>
  804b3c:	e0bffc17 	ldw	r2,-16(fp)
  804b40:	10802cc3 	ldbu	r2,179(r2)
  804b44:	10803fcc 	andi	r2,r2,255
  804b48:	1080201c 	xori	r2,r2,128
  804b4c:	10bfe004 	addi	r2,r2,-128
  804b50:	10000826 	beq	r2,zero,804b74 <logic+0x4568>
  804b54:	e0bffc17 	ldw	r2,-16(fp)
  804b58:	10804343 	ldbu	r2,269(r2)
  804b5c:	10803fcc 	andi	r2,r2,255
  804b60:	1080201c 	xori	r2,r2,128
  804b64:	10bfe004 	addi	r2,r2,-128
  804b68:	1000021e 	bne	r2,zero,804b74 <logic+0x4568>
  804b6c:	00800044 	movi	r2,1
  804b70:	00000106 	br	804b78 <logic+0x456c>
  804b74:	0005883a 	mov	r2,zero
  804b78:	1007883a 	mov	r3,r2
  804b7c:	e0bffc17 	ldw	r2,-16(fp)
  804b80:	10c03305 	stb	r3,204(r2)
  d->_g157 = !d->_g148;
  804b84:	e0bffc17 	ldw	r2,-16(fp)
  804b88:	10803303 	ldbu	r2,204(r2)
  804b8c:	10803fcc 	andi	r2,r2,255
  804b90:	1080201c 	xori	r2,r2,128
  804b94:	10bfe004 	addi	r2,r2,-128
  804b98:	1005003a 	cmpeq	r2,r2,zero
  804b9c:	1007883a 	mov	r3,r2
  804ba0:	e0bffc17 	ldw	r2,-16(fp)
  804ba4:	10c034c5 	stb	r3,211(r2)
  d->_g140 = (d->_g132 || d->_g111) && (d->_g149_e2 || d->_g152) && (d->_g157 || d->_g114) && (d->_g111 || d->_g152 || d->_g114);
  804ba8:	e0bffc17 	ldw	r2,-16(fp)
  804bac:	10803083 	ldbu	r2,194(r2)
  804bb0:	10803fcc 	andi	r2,r2,255
  804bb4:	1080201c 	xori	r2,r2,128
  804bb8:	10bfe004 	addi	r2,r2,-128
  804bbc:	1000061e 	bne	r2,zero,804bd8 <logic+0x45cc>
  804bc0:	e0bffc17 	ldw	r2,-16(fp)
  804bc4:	10802d03 	ldbu	r2,180(r2)
  804bc8:	10803fcc 	andi	r2,r2,255
  804bcc:	1080201c 	xori	r2,r2,128
  804bd0:	10bfe004 	addi	r2,r2,-128
  804bd4:	10002c26 	beq	r2,zero,804c88 <logic+0x467c>
  804bd8:	e0bffc17 	ldw	r2,-16(fp)
  804bdc:	10804783 	ldbu	r2,286(r2)
  804be0:	10803fcc 	andi	r2,r2,255
  804be4:	1080201c 	xori	r2,r2,128
  804be8:	10bfe004 	addi	r2,r2,-128
  804bec:	1000061e 	bne	r2,zero,804c08 <logic+0x45fc>
  804bf0:	e0bffc17 	ldw	r2,-16(fp)
  804bf4:	10803403 	ldbu	r2,208(r2)
  804bf8:	10803fcc 	andi	r2,r2,255
  804bfc:	1080201c 	xori	r2,r2,128
  804c00:	10bfe004 	addi	r2,r2,-128
  804c04:	10002026 	beq	r2,zero,804c88 <logic+0x467c>
  804c08:	e0bffc17 	ldw	r2,-16(fp)
  804c0c:	108034c3 	ldbu	r2,211(r2)
  804c10:	10803fcc 	andi	r2,r2,255
  804c14:	1080201c 	xori	r2,r2,128
  804c18:	10bfe004 	addi	r2,r2,-128
  804c1c:	1000061e 	bne	r2,zero,804c38 <logic+0x462c>
  804c20:	e0bffc17 	ldw	r2,-16(fp)
  804c24:	10802d43 	ldbu	r2,181(r2)
  804c28:	10803fcc 	andi	r2,r2,255
  804c2c:	1080201c 	xori	r2,r2,128
  804c30:	10bfe004 	addi	r2,r2,-128
  804c34:	10001426 	beq	r2,zero,804c88 <logic+0x467c>
  804c38:	e0bffc17 	ldw	r2,-16(fp)
  804c3c:	10802d03 	ldbu	r2,180(r2)
  804c40:	10803fcc 	andi	r2,r2,255
  804c44:	1080201c 	xori	r2,r2,128
  804c48:	10bfe004 	addi	r2,r2,-128
  804c4c:	10000c1e 	bne	r2,zero,804c80 <logic+0x4674>
  804c50:	e0bffc17 	ldw	r2,-16(fp)
  804c54:	10803403 	ldbu	r2,208(r2)
  804c58:	10803fcc 	andi	r2,r2,255
  804c5c:	1080201c 	xori	r2,r2,128
  804c60:	10bfe004 	addi	r2,r2,-128
  804c64:	1000061e 	bne	r2,zero,804c80 <logic+0x4674>
  804c68:	e0bffc17 	ldw	r2,-16(fp)
  804c6c:	10802d43 	ldbu	r2,181(r2)
  804c70:	10803fcc 	andi	r2,r2,255
  804c74:	1080201c 	xori	r2,r2,128
  804c78:	10bfe004 	addi	r2,r2,-128
  804c7c:	10000226 	beq	r2,zero,804c88 <logic+0x467c>
  804c80:	00800044 	movi	r2,1
  804c84:	00000106 	br	804c8c <logic+0x4680>
  804c88:	0005883a 	mov	r2,zero
  804c8c:	1007883a 	mov	r3,r2
  804c90:	e0bffc17 	ldw	r2,-16(fp)
  804c94:	10c031c5 	stb	r3,199(r2)
  d->_g149_e2 = d->_GO || d->_g140 || d->_g117 && !d->_cg139;
  804c98:	e0bffc17 	ldw	r2,-16(fp)
  804c9c:	108035c3 	ldbu	r2,215(r2)
  804ca0:	10803fcc 	andi	r2,r2,255
  804ca4:	1080201c 	xori	r2,r2,128
  804ca8:	10bfe004 	addi	r2,r2,-128
  804cac:	1000121e 	bne	r2,zero,804cf8 <logic+0x46ec>
  804cb0:	e0bffc17 	ldw	r2,-16(fp)
  804cb4:	108031c3 	ldbu	r2,199(r2)
  804cb8:	10803fcc 	andi	r2,r2,255
  804cbc:	1080201c 	xori	r2,r2,128
  804cc0:	10bfe004 	addi	r2,r2,-128
  804cc4:	10000c1e 	bne	r2,zero,804cf8 <logic+0x46ec>
  804cc8:	e0bffc17 	ldw	r2,-16(fp)
  804ccc:	10802dc3 	ldbu	r2,183(r2)
  804cd0:	10803fcc 	andi	r2,r2,255
  804cd4:	1080201c 	xori	r2,r2,128
  804cd8:	10bfe004 	addi	r2,r2,-128
  804cdc:	10000826 	beq	r2,zero,804d00 <logic+0x46f4>
  804ce0:	e0bffc17 	ldw	r2,-16(fp)
  804ce4:	10804203 	ldbu	r2,264(r2)
  804ce8:	10803fcc 	andi	r2,r2,255
  804cec:	1080201c 	xori	r2,r2,128
  804cf0:	10bfe004 	addi	r2,r2,-128
  804cf4:	1000021e 	bne	r2,zero,804d00 <logic+0x46f4>
  804cf8:	00800044 	movi	r2,1
  804cfc:	00000106 	br	804d04 <logic+0x46f8>
  804d00:	0005883a 	mov	r2,zero
  804d04:	1007883a 	mov	r3,r2
  804d08:	e0bffc17 	ldw	r2,-16(fp)
  804d0c:	10c04785 	stb	r3,286(r2)
  d->_g143 = d->_GO || d->_g167;
  804d10:	e0bffc17 	ldw	r2,-16(fp)
  804d14:	108035c3 	ldbu	r2,215(r2)
  804d18:	10803fcc 	andi	r2,r2,255
  804d1c:	1080201c 	xori	r2,r2,128
  804d20:	10bfe004 	addi	r2,r2,-128
  804d24:	1000061e 	bne	r2,zero,804d40 <logic+0x4734>
  804d28:	e0bffc17 	ldw	r2,-16(fp)
  804d2c:	10803543 	ldbu	r2,213(r2)
  804d30:	10803fcc 	andi	r2,r2,255
  804d34:	1080201c 	xori	r2,r2,128
  804d38:	10bfe004 	addi	r2,r2,-128
  804d3c:	10000226 	beq	r2,zero,804d48 <logic+0x473c>
  804d40:	00800044 	movi	r2,1
  804d44:	00000106 	br	804d4c <logic+0x4740>
  804d48:	0005883a 	mov	r2,zero
  804d4c:	1007883a 	mov	r3,r2
  804d50:	e0bffc17 	ldw	r2,-16(fp)
  804d54:	10c03245 	stb	r3,201(r2)
  d->_g149 = d->_GO || d->_g15;
  804d58:	e0bffc17 	ldw	r2,-16(fp)
  804d5c:	108035c3 	ldbu	r2,215(r2)
  804d60:	10803fcc 	andi	r2,r2,255
  804d64:	1080201c 	xori	r2,r2,128
  804d68:	10bfe004 	addi	r2,r2,-128
  804d6c:	1000061e 	bne	r2,zero,804d88 <logic+0x477c>
  804d70:	e0bffc17 	ldw	r2,-16(fp)
  804d74:	10801d03 	ldbu	r2,116(r2)
  804d78:	10803fcc 	andi	r2,r2,255
  804d7c:	1080201c 	xori	r2,r2,128
  804d80:	10bfe004 	addi	r2,r2,-128
  804d84:	10000226 	beq	r2,zero,804d90 <logic+0x4784>
  804d88:	00800044 	movi	r2,1
  804d8c:	00000106 	br	804d94 <logic+0x4788>
  804d90:	0005883a 	mov	r2,zero
  804d94:	1007883a 	mov	r3,r2
  804d98:	e0bffc17 	ldw	r2,-16(fp)
  804d9c:	10c03345 	stb	r3,205(r2)
  d->_g158_e3 = d->_GO || d->_g52;
  804da0:	e0bffc17 	ldw	r2,-16(fp)
  804da4:	108035c3 	ldbu	r2,215(r2)
  804da8:	10803fcc 	andi	r2,r2,255
  804dac:	1080201c 	xori	r2,r2,128
  804db0:	10bfe004 	addi	r2,r2,-128
  804db4:	1000061e 	bne	r2,zero,804dd0 <logic+0x47c4>
  804db8:	e0bffc17 	ldw	r2,-16(fp)
  804dbc:	10802383 	ldbu	r2,142(r2)
  804dc0:	10803fcc 	andi	r2,r2,255
  804dc4:	1080201c 	xori	r2,r2,128
  804dc8:	10bfe004 	addi	r2,r2,-128
  804dcc:	10000226 	beq	r2,zero,804dd8 <logic+0x47cc>
  804dd0:	00800044 	movi	r2,1
  804dd4:	00000106 	br	804ddc <logic+0x47d0>
  804dd8:	0005883a 	mov	r2,zero
  804ddc:	1007883a 	mov	r3,r2
  804de0:	e0bffc17 	ldw	r2,-16(fp)
  804de4:	10c047c5 	stb	r3,287(r2)
  d->_g158 = d->_GO || d->_g25;
  804de8:	e0bffc17 	ldw	r2,-16(fp)
  804dec:	108035c3 	ldbu	r2,215(r2)
  804df0:	10803fcc 	andi	r2,r2,255
  804df4:	1080201c 	xori	r2,r2,128
  804df8:	10bfe004 	addi	r2,r2,-128
  804dfc:	1000061e 	bne	r2,zero,804e18 <logic+0x480c>
  804e00:	e0bffc17 	ldw	r2,-16(fp)
  804e04:	10801ec3 	ldbu	r2,123(r2)
  804e08:	10803fcc 	andi	r2,r2,255
  804e0c:	1080201c 	xori	r2,r2,128
  804e10:	10bfe004 	addi	r2,r2,-128
  804e14:	10000226 	beq	r2,zero,804e20 <logic+0x4814>
  804e18:	00800044 	movi	r2,1
  804e1c:	00000106 	br	804e24 <logic+0x4818>
  804e20:	0005883a 	mov	r2,zero
  804e24:	1007883a 	mov	r3,r2
  804e28:	e0bffc17 	ldw	r2,-16(fp)
  804e2c:	10c03505 	stb	r3,212(r2)
  d->_g143_e1 = d->_GO || d->_g183;
  804e30:	e0bffc17 	ldw	r2,-16(fp)
  804e34:	108035c3 	ldbu	r2,215(r2)
  804e38:	10803fcc 	andi	r2,r2,255
  804e3c:	1080201c 	xori	r2,r2,128
  804e40:	10bfe004 	addi	r2,r2,-128
  804e44:	1000061e 	bne	r2,zero,804e60 <logic+0x4854>
  804e48:	e0bffc17 	ldw	r2,-16(fp)
  804e4c:	10803583 	ldbu	r2,214(r2)
  804e50:	10803fcc 	andi	r2,r2,255
  804e54:	1080201c 	xori	r2,r2,128
  804e58:	10bfe004 	addi	r2,r2,-128
  804e5c:	10000226 	beq	r2,zero,804e68 <logic+0x485c>
  804e60:	00800044 	movi	r2,1
  804e64:	00000106 	br	804e6c <logic+0x4860>
  804e68:	0005883a 	mov	r2,zero
  804e6c:	1007883a 	mov	r3,r2
  804e70:	e0bffc17 	ldw	r2,-16(fp)
  804e74:	10c04745 	stb	r3,285(r2)
  d->_g139 = d->_GO || d->_g135;
  804e78:	e0bffc17 	ldw	r2,-16(fp)
  804e7c:	108035c3 	ldbu	r2,215(r2)
  804e80:	10803fcc 	andi	r2,r2,255
  804e84:	1080201c 	xori	r2,r2,128
  804e88:	10bfe004 	addi	r2,r2,-128
  804e8c:	1000061e 	bne	r2,zero,804ea8 <logic+0x489c>
  804e90:	e0bffc17 	ldw	r2,-16(fp)
  804e94:	10803143 	ldbu	r2,197(r2)
  804e98:	10803fcc 	andi	r2,r2,255
  804e9c:	1080201c 	xori	r2,r2,128
  804ea0:	10bfe004 	addi	r2,r2,-128
  804ea4:	10000226 	beq	r2,zero,804eb0 <logic+0x48a4>
  804ea8:	00800044 	movi	r2,1
  804eac:	00000106 	br	804eb4 <logic+0x48a8>
  804eb0:	0005883a 	mov	r2,zero
  804eb4:	1007883a 	mov	r3,r2
  804eb8:	e0bffc17 	ldw	r2,-16(fp)
  804ebc:	10c03185 	stb	r3,198(r2)
}
  804ec0:	0001883a 	nop
  804ec4:	e6fffd04 	addi	sp,fp,-12
  804ec8:	dfc00417 	ldw	ra,16(sp)
  804ecc:	df000317 	ldw	fp,12(sp)
  804ed0:	dc800217 	ldw	r18,8(sp)
  804ed4:	dc400117 	ldw	r17,4(sp)
  804ed8:	dc000017 	ldw	r16,0(sp)
  804edc:	dec00504 	addi	sp,sp,20
  804ee0:	f800283a 	ret

00804ee4 <reset>:

void reset(TickData* d) {
  804ee4:	defffe04 	addi	sp,sp,-8
  804ee8:	df000115 	stw	fp,4(sp)
  804eec:	df000104 	addi	fp,sp,4
  804ef0:	e13fff15 	stw	r4,-4(fp)
  d->_GO = 1;
  804ef4:	e0bfff17 	ldw	r2,-4(fp)
  804ef8:	00c00044 	movi	r3,1
  804efc:	10c035c5 	stb	r3,215(r2)
  d->_TERM = 0;
  804f00:	e0bfff17 	ldw	r2,-4(fp)
  804f04:	10004805 	stb	zero,288(r2)
  d->AVI_Constraint = AVI_VALUE;
  804f08:	e0bfff17 	ldw	r2,-4(fp)
  804f0c:	00c04b04 	movi	r3,300
  804f10:	10c00115 	stw	r3,4(r2)
  d->PVARP_Constraint = PVARP_VALUE;
  804f14:	e0bfff17 	ldw	r2,-4(fp)
  804f18:	00c00c84 	movi	r3,50
  804f1c:	10c00215 	stw	r3,8(r2)
  d->VRP_Constraint = VRP_VALUE;
  804f20:	e0bfff17 	ldw	r2,-4(fp)
  804f24:	00c02584 	movi	r3,150
  804f28:	10c00315 	stw	r3,12(r2)
  d->AEI_Constraint = AEI_VALUE;
  804f2c:	e0bfff17 	ldw	r2,-4(fp)
  804f30:	00c0c804 	movi	r3,800
  804f34:	10c00415 	stw	r3,16(r2)
  d->LRI_Constraint = LRI_VALUE;
  804f38:	e0bfff17 	ldw	r2,-4(fp)
  804f3c:	00c0ed84 	movi	r3,950
  804f40:	10c00515 	stw	r3,20(r2)
  d->URI_Constraint = URI_VALUE;
  804f44:	e0bfff17 	ldw	r2,-4(fp)
  804f48:	00c0e104 	movi	r3,900
  804f4c:	10c00615 	stw	r3,24(r2)
  d->_region0_AVI_cAVI = 0;
  804f50:	e0bfff17 	ldw	r2,-4(fp)
  804f54:	10000715 	stw	zero,28(r2)
  804f58:	10000815 	stw	zero,32(r2)
  d->_region1_PVARP_cPVARP = 0;
  804f5c:	e0bfff17 	ldw	r2,-4(fp)
  804f60:	10000915 	stw	zero,36(r2)
  804f64:	10000a15 	stw	zero,40(r2)
  d->_region2_VRP_cVRP = 0;
  804f68:	e0bfff17 	ldw	r2,-4(fp)
  804f6c:	10000b15 	stw	zero,44(r2)
  804f70:	10000c15 	stw	zero,48(r2)
  d->_region3_AEI_cAEI = 0;
  804f74:	e0bfff17 	ldw	r2,-4(fp)
  804f78:	10000d15 	stw	zero,52(r2)
  804f7c:	10000e15 	stw	zero,56(r2)
  d->_region4_LRI_cLRI = 0;
  804f80:	e0bfff17 	ldw	r2,-4(fp)
  804f84:	10000f15 	stw	zero,60(r2)
  804f88:	10001015 	stw	zero,64(r2)
  d->_region5_URI_cURI = 0;
  804f8c:	e0bfff17 	ldw	r2,-4(fp)
  804f90:	10001115 	stw	zero,68(r2)
  804f94:	10001215 	stw	zero,72(r2)
  d->deltaT = 0.0;
  804f98:	e0bfff17 	ldw	r2,-4(fp)
  804f9c:	10001315 	stw	zero,76(r2)
  804fa0:	10001415 	stw	zero,80(r2)
  d->sleepT = 0.0;
  804fa4:	e0bfff17 	ldw	r2,-4(fp)
  804fa8:	10001515 	stw	zero,84(r2)
  804fac:	10001615 	stw	zero,88(r2)
  d->_pg93 = 0;
  804fb0:	e0bfff17 	ldw	r2,-4(fp)
  804fb4:	10004845 	stb	zero,289(r2)
  d->_pg126 = 0;
  804fb8:	e0bfff17 	ldw	r2,-4(fp)
  804fbc:	10004885 	stb	zero,290(r2)
  d->_pg143 = 0;
  804fc0:	e0bfff17 	ldw	r2,-4(fp)
  804fc4:	100048c5 	stb	zero,291(r2)
  d->_pg8 = 0;
  804fc8:	e0bfff17 	ldw	r2,-4(fp)
  804fcc:	10004905 	stb	zero,292(r2)
  d->_pg4 = 0;
  804fd0:	e0bfff17 	ldw	r2,-4(fp)
  804fd4:	10004945 	stb	zero,293(r2)
  d->_pg28 = 0;
  804fd8:	e0bfff17 	ldw	r2,-4(fp)
  804fdc:	10004985 	stb	zero,294(r2)
  d->_pg131 = 0;
  804fe0:	e0bfff17 	ldw	r2,-4(fp)
  804fe4:	100049c5 	stb	zero,295(r2)
  d->_pg67 = 0;
  804fe8:	e0bfff17 	ldw	r2,-4(fp)
  804fec:	10004a05 	stb	zero,296(r2)
  d->_pg158 = 0;
  804ff0:	e0bfff17 	ldw	r2,-4(fp)
  804ff4:	10004a45 	stb	zero,297(r2)
  d->_pg106 = 0;
  804ff8:	e0bfff17 	ldw	r2,-4(fp)
  804ffc:	10004a85 	stb	zero,298(r2)
  d->_pg105 = 0;
  805000:	e0bfff17 	ldw	r2,-4(fp)
  805004:	10004ac5 	stb	zero,299(r2)
  d->_pg77 = 0;
  805008:	e0bfff17 	ldw	r2,-4(fp)
  80500c:	10004b05 	stb	zero,300(r2)
  d->_pg86 = 0;
  805010:	e0bfff17 	ldw	r2,-4(fp)
  805014:	10004b45 	stb	zero,301(r2)
  d->_pg149 = 0;
  805018:	e0bfff17 	ldw	r2,-4(fp)
  80501c:	10004b85 	stb	zero,302(r2)
  d->_pg42 = 0;
  805020:	e0bfff17 	ldw	r2,-4(fp)
  805024:	10004bc5 	stb	zero,303(r2)
  d->_pg92 = 0;
  805028:	e0bfff17 	ldw	r2,-4(fp)
  80502c:	10004c05 	stb	zero,304(r2)
  d->_pg53 = 0;
  805030:	e0bfff17 	ldw	r2,-4(fp)
  805034:	10004c45 	stb	zero,305(r2)
  d->_pg134 = 0;
  805038:	e0bfff17 	ldw	r2,-4(fp)
  80503c:	10004c85 	stb	zero,306(r2)
  d->_pg143_e1 = 0;
  805040:	e0bfff17 	ldw	r2,-4(fp)
  805044:	10004cc5 	stb	zero,307(r2)
  d->_pg82 = 0;
  805048:	e0bfff17 	ldw	r2,-4(fp)
  80504c:	10004d05 	stb	zero,308(r2)
  d->_pg94 = 0;
  805050:	e0bfff17 	ldw	r2,-4(fp)
  805054:	10004d45 	stb	zero,309(r2)
  d->_pg37 = 0;
  805058:	e0bfff17 	ldw	r2,-4(fp)
  80505c:	10004d85 	stb	zero,310(r2)
  d->_pg44 = 0;
  805060:	e0bfff17 	ldw	r2,-4(fp)
  805064:	10004dc5 	stb	zero,311(r2)
  d->_pg47 = 0;
  805068:	e0bfff17 	ldw	r2,-4(fp)
  80506c:	10004e05 	stb	zero,312(r2)
  d->_pg158_e3 = 0;
  805070:	e0bfff17 	ldw	r2,-4(fp)
  805074:	10004e45 	stb	zero,313(r2)
  d->_pg70 = 0;
  805078:	e0bfff17 	ldw	r2,-4(fp)
  80507c:	10004e85 	stb	zero,314(r2)
  d->_pg76_e3 = 0;
  805080:	e0bfff17 	ldw	r2,-4(fp)
  805084:	10004ec5 	stb	zero,315(r2)
  d->_pg68 = 0;
  805088:	e0bfff17 	ldw	r2,-4(fp)
  80508c:	10004f05 	stb	zero,316(r2)
  d->_pg71 = 0;
  805090:	e0bfff17 	ldw	r2,-4(fp)
  805094:	10004f45 	stb	zero,317(r2)
  d->_pg76 = 0;
  805098:	e0bfff17 	ldw	r2,-4(fp)
  80509c:	10004f85 	stb	zero,318(r2)
  d->_pg85 = 0;
  8050a0:	e0bfff17 	ldw	r2,-4(fp)
  8050a4:	10004fc5 	stb	zero,319(r2)
  d->_pg139 = 0;
  8050a8:	e0bfff17 	ldw	r2,-4(fp)
  8050ac:	10005005 	stb	zero,320(r2)
  d->_pg148 = 0;
  8050b0:	e0bfff17 	ldw	r2,-4(fp)
  8050b4:	10005045 	stb	zero,321(r2)
  d->_pg149_e2 = 0;
  8050b8:	e0bfff17 	ldw	r2,-4(fp)
  8050bc:	10005085 	stb	zero,322(r2)
  d->_pg150 = 0;
  8050c0:	e0bfff17 	ldw	r2,-4(fp)
  8050c4:	100050c5 	stb	zero,323(r2)
  d->_pg153 = 0;
  8050c8:	e0bfff17 	ldw	r2,-4(fp)
  8050cc:	10005105 	stb	zero,324(r2)
}
  8050d0:	0001883a 	nop
  8050d4:	e037883a 	mov	sp,fp
  8050d8:	df000017 	ldw	fp,0(sp)
  8050dc:	dec00104 	addi	sp,sp,4
  8050e0:	f800283a 	ret

008050e4 <tick>:

void tick(TickData* d) {
  8050e4:	defffd04 	addi	sp,sp,-12
  8050e8:	dfc00215 	stw	ra,8(sp)
  8050ec:	df000115 	stw	fp,4(sp)
  8050f0:	df000104 	addi	fp,sp,4
  8050f4:	e13fff15 	stw	r4,-4(fp)
  logic(d);
  8050f8:	e13fff17 	ldw	r4,-4(fp)
  8050fc:	080060c0 	call	80060c <logic>

  d->_pg93 = d->_g93;
  805100:	e0bfff17 	ldw	r2,-4(fp)
  805104:	10c02a03 	ldbu	r3,168(r2)
  805108:	e0bfff17 	ldw	r2,-4(fp)
  80510c:	10c04845 	stb	r3,289(r2)
  d->_pg126 = d->_g126;
  805110:	e0bfff17 	ldw	r2,-4(fp)
  805114:	10c02f83 	ldbu	r3,190(r2)
  805118:	e0bfff17 	ldw	r2,-4(fp)
  80511c:	10c04885 	stb	r3,290(r2)
  d->_pg143 = d->_g143;
  805120:	e0bfff17 	ldw	r2,-4(fp)
  805124:	10c03243 	ldbu	r3,201(r2)
  805128:	e0bfff17 	ldw	r2,-4(fp)
  80512c:	10c048c5 	stb	r3,291(r2)
  d->_pg8 = d->_g8;
  805130:	e0bfff17 	ldw	r2,-4(fp)
  805134:	10c01bc3 	ldbu	r3,111(r2)
  805138:	e0bfff17 	ldw	r2,-4(fp)
  80513c:	10c04905 	stb	r3,292(r2)
  d->_pg4 = d->_g4;
  805140:	e0bfff17 	ldw	r2,-4(fp)
  805144:	10c01b43 	ldbu	r3,109(r2)
  805148:	e0bfff17 	ldw	r2,-4(fp)
  80514c:	10c04945 	stb	r3,293(r2)
  d->_pg28 = d->_g28;
  805150:	e0bfff17 	ldw	r2,-4(fp)
  805154:	10c01f83 	ldbu	r3,126(r2)
  805158:	e0bfff17 	ldw	r2,-4(fp)
  80515c:	10c04985 	stb	r3,294(r2)
  d->_pg131 = d->_g131;
  805160:	e0bfff17 	ldw	r2,-4(fp)
  805164:	10c03043 	ldbu	r3,193(r2)
  805168:	e0bfff17 	ldw	r2,-4(fp)
  80516c:	10c049c5 	stb	r3,295(r2)
  d->_pg67 = d->_g67;
  805170:	e0bfff17 	ldw	r2,-4(fp)
  805174:	10c025c3 	ldbu	r3,151(r2)
  805178:	e0bfff17 	ldw	r2,-4(fp)
  80517c:	10c04a05 	stb	r3,296(r2)
  d->_pg158 = d->_g158;
  805180:	e0bfff17 	ldw	r2,-4(fp)
  805184:	10c03503 	ldbu	r3,212(r2)
  805188:	e0bfff17 	ldw	r2,-4(fp)
  80518c:	10c04a45 	stb	r3,297(r2)
  d->_pg106 = d->_g106;
  805190:	e0bfff17 	ldw	r2,-4(fp)
  805194:	10c02c83 	ldbu	r3,178(r2)
  805198:	e0bfff17 	ldw	r2,-4(fp)
  80519c:	10c04a85 	stb	r3,298(r2)
  d->_pg105 = d->_g105;
  8051a0:	e0bfff17 	ldw	r2,-4(fp)
  8051a4:	10c02c43 	ldbu	r3,177(r2)
  8051a8:	e0bfff17 	ldw	r2,-4(fp)
  8051ac:	10c04ac5 	stb	r3,299(r2)
  d->_pg77 = d->_g77;
  8051b0:	e0bfff17 	ldw	r2,-4(fp)
  8051b4:	10c027c3 	ldbu	r3,159(r2)
  8051b8:	e0bfff17 	ldw	r2,-4(fp)
  8051bc:	10c04b05 	stb	r3,300(r2)
  d->_pg86 = d->_g86;
  8051c0:	e0bfff17 	ldw	r2,-4(fp)
  8051c4:	10c028c3 	ldbu	r3,163(r2)
  8051c8:	e0bfff17 	ldw	r2,-4(fp)
  8051cc:	10c04b45 	stb	r3,301(r2)
  d->_pg149 = d->_g149;
  8051d0:	e0bfff17 	ldw	r2,-4(fp)
  8051d4:	10c03343 	ldbu	r3,205(r2)
  8051d8:	e0bfff17 	ldw	r2,-4(fp)
  8051dc:	10c04b85 	stb	r3,302(r2)
  d->_pg42 = d->_g42;
  8051e0:	e0bfff17 	ldw	r2,-4(fp)
  8051e4:	10c02183 	ldbu	r3,134(r2)
  8051e8:	e0bfff17 	ldw	r2,-4(fp)
  8051ec:	10c04bc5 	stb	r3,303(r2)
  d->_pg92 = d->_g92;
  8051f0:	e0bfff17 	ldw	r2,-4(fp)
  8051f4:	10c029c3 	ldbu	r3,167(r2)
  8051f8:	e0bfff17 	ldw	r2,-4(fp)
  8051fc:	10c04c05 	stb	r3,304(r2)
  d->_pg53 = d->_g53;
  805200:	e0bfff17 	ldw	r2,-4(fp)
  805204:	10c023c3 	ldbu	r3,143(r2)
  805208:	e0bfff17 	ldw	r2,-4(fp)
  80520c:	10c04c45 	stb	r3,305(r2)
  d->_pg134 = d->_g134;
  805210:	e0bfff17 	ldw	r2,-4(fp)
  805214:	10c03103 	ldbu	r3,196(r2)
  805218:	e0bfff17 	ldw	r2,-4(fp)
  80521c:	10c04c85 	stb	r3,306(r2)
  d->_pg143_e1 = d->_g143_e1;
  805220:	e0bfff17 	ldw	r2,-4(fp)
  805224:	10c04743 	ldbu	r3,285(r2)
  805228:	e0bfff17 	ldw	r2,-4(fp)
  80522c:	10c04cc5 	stb	r3,307(r2)
  d->_pg82 = d->_g82;
  805230:	e0bfff17 	ldw	r2,-4(fp)
  805234:	10c02843 	ldbu	r3,161(r2)
  805238:	e0bfff17 	ldw	r2,-4(fp)
  80523c:	10c04d05 	stb	r3,308(r2)
  d->_pg94 = d->_g94;
  805240:	e0bfff17 	ldw	r2,-4(fp)
  805244:	10c02a43 	ldbu	r3,169(r2)
  805248:	e0bfff17 	ldw	r2,-4(fp)
  80524c:	10c04d45 	stb	r3,309(r2)
  d->_pg37 = d->_g37;
  805250:	e0bfff17 	ldw	r2,-4(fp)
  805254:	10c020c3 	ldbu	r3,131(r2)
  805258:	e0bfff17 	ldw	r2,-4(fp)
  80525c:	10c04d85 	stb	r3,310(r2)
  d->_pg44 = d->_g44;
  805260:	e0bfff17 	ldw	r2,-4(fp)
  805264:	10c02203 	ldbu	r3,136(r2)
  805268:	e0bfff17 	ldw	r2,-4(fp)
  80526c:	10c04dc5 	stb	r3,311(r2)
  d->_pg47 = d->_g47;
  805270:	e0bfff17 	ldw	r2,-4(fp)
  805274:	10c022c3 	ldbu	r3,139(r2)
  805278:	e0bfff17 	ldw	r2,-4(fp)
  80527c:	10c04e05 	stb	r3,312(r2)
  d->_pg158_e3 = d->_g158_e3;
  805280:	e0bfff17 	ldw	r2,-4(fp)
  805284:	10c047c3 	ldbu	r3,287(r2)
  805288:	e0bfff17 	ldw	r2,-4(fp)
  80528c:	10c04e45 	stb	r3,313(r2)
  d->_pg70 = d->_g70;
  805290:	e0bfff17 	ldw	r2,-4(fp)
  805294:	10c02683 	ldbu	r3,154(r2)
  805298:	e0bfff17 	ldw	r2,-4(fp)
  80529c:	10c04e85 	stb	r3,314(r2)
  d->_pg76_e3 = d->_g76_e3;
  8052a0:	e0bfff17 	ldw	r2,-4(fp)
  8052a4:	10c04583 	ldbu	r3,278(r2)
  8052a8:	e0bfff17 	ldw	r2,-4(fp)
  8052ac:	10c04ec5 	stb	r3,315(r2)
  d->_pg68 = d->_g68;
  8052b0:	e0bfff17 	ldw	r2,-4(fp)
  8052b4:	10c02603 	ldbu	r3,152(r2)
  8052b8:	e0bfff17 	ldw	r2,-4(fp)
  8052bc:	10c04f05 	stb	r3,316(r2)
  d->_pg71 = d->_g71;
  8052c0:	e0bfff17 	ldw	r2,-4(fp)
  8052c4:	10c026c3 	ldbu	r3,155(r2)
  8052c8:	e0bfff17 	ldw	r2,-4(fp)
  8052cc:	10c04f45 	stb	r3,317(r2)
  d->_pg76 = d->_g76;
  8052d0:	e0bfff17 	ldw	r2,-4(fp)
  8052d4:	10c02783 	ldbu	r3,158(r2)
  8052d8:	e0bfff17 	ldw	r2,-4(fp)
  8052dc:	10c04f85 	stb	r3,318(r2)
  d->_pg85 = d->_g85;
  8052e0:	e0bfff17 	ldw	r2,-4(fp)
  8052e4:	10c02883 	ldbu	r3,162(r2)
  8052e8:	e0bfff17 	ldw	r2,-4(fp)
  8052ec:	10c04fc5 	stb	r3,319(r2)
  d->_pg139 = d->_g139;
  8052f0:	e0bfff17 	ldw	r2,-4(fp)
  8052f4:	10c03183 	ldbu	r3,198(r2)
  8052f8:	e0bfff17 	ldw	r2,-4(fp)
  8052fc:	10c05005 	stb	r3,320(r2)
  d->_pg148 = d->_g148;
  805300:	e0bfff17 	ldw	r2,-4(fp)
  805304:	10c03303 	ldbu	r3,204(r2)
  805308:	e0bfff17 	ldw	r2,-4(fp)
  80530c:	10c05045 	stb	r3,321(r2)
  d->_pg149_e2 = d->_g149_e2;
  805310:	e0bfff17 	ldw	r2,-4(fp)
  805314:	10c04783 	ldbu	r3,286(r2)
  805318:	e0bfff17 	ldw	r2,-4(fp)
  80531c:	10c05085 	stb	r3,322(r2)
  d->_pg150 = d->_g150;
  805320:	e0bfff17 	ldw	r2,-4(fp)
  805324:	10c03383 	ldbu	r3,206(r2)
  805328:	e0bfff17 	ldw	r2,-4(fp)
  80532c:	10c050c5 	stb	r3,323(r2)
  d->_pg153 = d->_g153;
  805330:	e0bfff17 	ldw	r2,-4(fp)
  805334:	10c03443 	ldbu	r3,209(r2)
  805338:	e0bfff17 	ldw	r2,-4(fp)
  80533c:	10c05105 	stb	r3,324(r2)
  d->_GO = 0;
  805340:	e0bfff17 	ldw	r2,-4(fp)
  805344:	100035c5 	stb	zero,215(r2)
}
  805348:	0001883a 	nop
  80534c:	e037883a 	mov	sp,fp
  805350:	dfc00117 	ldw	ra,4(sp)
  805354:	df000017 	ldw	fp,0(sp)
  805358:	dec00204 	addi	sp,sp,8
  80535c:	f800283a 	ret

00805360 <vp_light_timer_isr>:


int vp_timer_started = 0;
int ap_timer_started = 0;

alt_u32 vp_light_timer_isr(void* context){
  805360:	defffe04 	addi	sp,sp,-8
  805364:	df000115 	stw	fp,4(sp)
  805368:	df000104 	addi	fp,sp,4
  80536c:	e13fff15 	stw	r4,-4(fp)
	IOWR_ALTERA_AVALON_PIO_DATA(LEDS_RED_BASE, (IORD_ALTERA_AVALON_PIO_DATA(LEDS_RED_BASE) & ~(1 << 0)));
  805370:	00804074 	movhi	r2,257
  805374:	10842004 	addi	r2,r2,4224
  805378:	10c00037 	ldwio	r3,0(r2)
  80537c:	00bfff84 	movi	r2,-2
  805380:	1886703a 	and	r3,r3,r2
  805384:	00804074 	movhi	r2,257
  805388:	10842004 	addi	r2,r2,4224
  80538c:	10c00035 	stwio	r3,0(r2)
	vp_timer_started = 0;
  805390:	d0274915 	stw	zero,-25308(gp)
	return 0;
  805394:	0005883a 	mov	r2,zero
}
  805398:	e037883a 	mov	sp,fp
  80539c:	df000017 	ldw	fp,0(sp)
  8053a0:	dec00104 	addi	sp,sp,4
  8053a4:	f800283a 	ret

008053a8 <ap_light_timer_isr>:

alt_u32 ap_light_timer_isr(void* context){
  8053a8:	defffe04 	addi	sp,sp,-8
  8053ac:	df000115 	stw	fp,4(sp)
  8053b0:	df000104 	addi	fp,sp,4
  8053b4:	e13fff15 	stw	r4,-4(fp)
	IOWR_ALTERA_AVALON_PIO_DATA(LEDS_RED_BASE, (IORD_ALTERA_AVALON_PIO_DATA(LEDS_RED_BASE) & ~(1 << 1)));
  8053b8:	00804074 	movhi	r2,257
  8053bc:	10842004 	addi	r2,r2,4224
  8053c0:	10c00037 	ldwio	r3,0(r2)
  8053c4:	00bfff44 	movi	r2,-3
  8053c8:	1886703a 	and	r3,r3,r2
  8053cc:	00804074 	movhi	r2,257
  8053d0:	10842004 	addi	r2,r2,4224
  8053d4:	10c00035 	stwio	r3,0(r2)
	ap_timer_started = 0;
  8053d8:	d0274a15 	stw	zero,-25304(gp)
	return 0;
  8053dc:	0005883a 	mov	r2,zero
}
  8053e0:	e037883a 	mov	sp,fp
  8053e4:	df000017 	ldw	fp,0(sp)
  8053e8:	dec00104 	addi	sp,sp,4
  8053ec:	f800283a 	ret

008053f0 <vp_light_timer>:



void vp_light_timer(){
  8053f0:	defffd04 	addi	sp,sp,-12
  8053f4:	dfc00215 	stw	ra,8(sp)
  8053f8:	df000115 	stw	fp,4(sp)
  8053fc:	df000104 	addi	fp,sp,4
	if (vp_timer_started == 0) {
  805400:	d0a74917 	ldw	r2,-25308(gp)
  805404:	1000111e 	bne	r2,zero,80544c <vp_light_timer+0x5c>
		vp_timer_started = 1;
  805408:	00800044 	movi	r2,1
  80540c:	d0a74915 	stw	r2,-25308(gp)

		void* context = 0;
  805410:	e03fff15 	stw	zero,-4(fp)
		IOWR_ALTERA_AVALON_PIO_DATA(LEDS_RED_BASE, (IORD_ALTERA_AVALON_PIO_DATA(LEDS_RED_BASE) | 1 << 0));
  805414:	00804074 	movhi	r2,257
  805418:	10842004 	addi	r2,r2,4224
  80541c:	10800037 	ldwio	r2,0(r2)
  805420:	10c00054 	ori	r3,r2,1
  805424:	00804074 	movhi	r2,257
  805428:	10842004 	addi	r2,r2,4224
  80542c:	10c00035 	stwio	r3,0(r2)
		alt_alarm_start(&timer_vp, LED_TIMEOUT, vp_light_timer_isr, context);
  805430:	e1ffff17 	ldw	r7,-4(fp)
  805434:	01802034 	movhi	r6,128
  805438:	3194d804 	addi	r6,r6,21344
  80543c:	01400c84 	movi	r5,50
  805440:	010020b4 	movhi	r4,130
  805444:	212ba604 	addi	r4,r4,-20840
  805448:	0812a500 	call	812a50 <alt_alarm_start>
	}

}
  80544c:	0001883a 	nop
  805450:	e037883a 	mov	sp,fp
  805454:	dfc00117 	ldw	ra,4(sp)
  805458:	df000017 	ldw	fp,0(sp)
  80545c:	dec00204 	addi	sp,sp,8
  805460:	f800283a 	ret

00805464 <ap_light_timer>:

void ap_light_timer(){
  805464:	defffd04 	addi	sp,sp,-12
  805468:	dfc00215 	stw	ra,8(sp)
  80546c:	df000115 	stw	fp,4(sp)
  805470:	df000104 	addi	fp,sp,4
	if (ap_timer_started == 0) {
  805474:	d0a74a17 	ldw	r2,-25304(gp)
  805478:	1000111e 	bne	r2,zero,8054c0 <ap_light_timer+0x5c>
		ap_timer_started = 1;
  80547c:	00800044 	movi	r2,1
  805480:	d0a74a15 	stw	r2,-25304(gp)

		void* context = 0;
  805484:	e03fff15 	stw	zero,-4(fp)
		IOWR_ALTERA_AVALON_PIO_DATA(LEDS_RED_BASE, (IORD_ALTERA_AVALON_PIO_DATA(LEDS_RED_BASE) | 1 << 1));
  805488:	00804074 	movhi	r2,257
  80548c:	10842004 	addi	r2,r2,4224
  805490:	10800037 	ldwio	r2,0(r2)
  805494:	10c00094 	ori	r3,r2,2
  805498:	00804074 	movhi	r2,257
  80549c:	10842004 	addi	r2,r2,4224
  8054a0:	10c00035 	stwio	r3,0(r2)
		alt_alarm_start(&timer_ap, LED_TIMEOUT, ap_light_timer_isr, context);
  8054a4:	e1ffff17 	ldw	r7,-4(fp)
  8054a8:	01802034 	movhi	r6,128
  8054ac:	3194ea04 	addi	r6,r6,21416
  8054b0:	01400c84 	movi	r5,50
  8054b4:	010020b4 	movhi	r4,130
  8054b8:	212ba004 	addi	r4,r4,-20864
  8054bc:	0812a500 	call	812a50 <alt_alarm_start>
	}

}
  8054c0:	0001883a 	nop
  8054c4:	e037883a 	mov	sp,fp
  8054c8:	dfc00117 	ldw	ra,4(sp)
  8054cc:	df000017 	ldw	fp,0(sp)
  8054d0:	dec00204 	addi	sp,sp,8
  8054d4:	f800283a 	ret

008054d8 <setup_uart>:
FILE* uart;

uint8_t ASBuffer = 0;
uint8_t VSBuffer = 0;

void setup_uart(){
  8054d8:	defffe04 	addi	sp,sp,-8
  8054dc:	dfc00115 	stw	ra,4(sp)
  8054e0:	df000015 	stw	fp,0(sp)
  8054e4:	d839883a 	mov	fp,sp
	uart = open(JTAG_UART_NAME,(O_NONBLOCK | O_RDWR));
  8054e8:	01500084 	movi	r5,16386
  8054ec:	01002074 	movhi	r4,129
  8054f0:	211b5004 	addi	r4,r4,27968
  8054f4:	08133c00 	call	8133c0 <open>
  8054f8:	d0a74c15 	stw	r2,-25296(gp)

	if(!uart){
  8054fc:	d0a74c17 	ldw	r2,-25296(gp)
  805500:	1000041e 	bne	r2,zero,805514 <setup_uart+0x3c>
		printf("Failed to open UART");
  805504:	01002074 	movhi	r4,129
  805508:	211b5404 	addi	r4,r4,27984
  80550c:	0808a640 	call	808a64 <printf>
	} else {
		printf("UART Started");

	}

}
  805510:	00000306 	br	805520 <setup_uart+0x48>
	uart = open(JTAG_UART_NAME,(O_NONBLOCK | O_RDWR));

	if(!uart){
		printf("Failed to open UART");
	} else {
		printf("UART Started");
  805514:	01002074 	movhi	r4,129
  805518:	211b5904 	addi	r4,r4,28004
  80551c:	0808a640 	call	808a64 <printf>

	}

}
  805520:	0001883a 	nop
  805524:	e037883a 	mov	sp,fp
  805528:	dfc00117 	ldw	ra,4(sp)
  80552c:	df000017 	ldw	fp,0(sp)
  805530:	dec00204 	addi	sp,sp,8
  805534:	f800283a 	ret

00805538 <check_uart>:

void check_uart(){
  805538:	defffa04 	addi	sp,sp,-24
  80553c:	dfc00515 	stw	ra,20(sp)
  805540:	df000415 	stw	fp,16(sp)
  805544:	df000404 	addi	fp,sp,16

	// create a buffer to load the next 5 characters
	char uartBuffer[5];

	// check the length of the uart input
	int length = read(uart, uartBuffer, sizeof(uartBuffer) - 1);
  805548:	d0a74c17 	ldw	r2,-25296(gp)
  80554c:	e0fffe04 	addi	r3,fp,-8
  805550:	01800104 	movi	r6,4
  805554:	180b883a 	mov	r5,r3
  805558:	1009883a 	mov	r4,r2
  80555c:	08135500 	call	813550 <read>
  805560:	e0bffd15 	stw	r2,-12(fp)

	if (length > 0) {
  805564:	e0bffd17 	ldw	r2,-12(fp)
  805568:	0080260e 	bge	zero,r2,805604 <check_uart+0xcc>
		for (int i = 0; i < length; i++){
  80556c:	e03ffc15 	stw	zero,-16(fp)
  805570:	00002106 	br	8055f8 <check_uart+0xc0>
			if (uartBuffer[i] == 'V'){
  805574:	e0fffe04 	addi	r3,fp,-8
  805578:	e0bffc17 	ldw	r2,-16(fp)
  80557c:	1885883a 	add	r2,r3,r2
  805580:	10800003 	ldbu	r2,0(r2)
  805584:	10803fcc 	andi	r2,r2,255
  805588:	1080201c 	xori	r2,r2,128
  80558c:	10bfe004 	addi	r2,r2,-128
  805590:	10801598 	cmpnei	r2,r2,86
  805594:	1000071e 	bne	r2,zero,8055b4 <check_uart+0x7c>
				printf("--V--\n");
  805598:	01002074 	movhi	r4,129
  80559c:	211b5d04 	addi	r4,r4,28020
  8055a0:	0808cc80 	call	808cc8 <puts>
				VSBuffer = 1;
  8055a4:	00800044 	movi	r2,1
  8055a8:	d0a74b45 	stb	r2,-25299(gp)
				vp_light_timer();
  8055ac:	08053f00 	call	8053f0 <vp_light_timer>
  8055b0:	00000e06 	br	8055ec <check_uart+0xb4>
			} else if(uartBuffer[i] == 'A'){
  8055b4:	e0fffe04 	addi	r3,fp,-8
  8055b8:	e0bffc17 	ldw	r2,-16(fp)
  8055bc:	1885883a 	add	r2,r3,r2
  8055c0:	10800003 	ldbu	r2,0(r2)
  8055c4:	10803fcc 	andi	r2,r2,255
  8055c8:	1080201c 	xori	r2,r2,128
  8055cc:	10bfe004 	addi	r2,r2,-128
  8055d0:	10801058 	cmpnei	r2,r2,65
  8055d4:	1000051e 	bne	r2,zero,8055ec <check_uart+0xb4>
				printf("--A--\n");
  8055d8:	01002074 	movhi	r4,129
  8055dc:	211b5f04 	addi	r4,r4,28028
  8055e0:	0808cc80 	call	808cc8 <puts>
				ASBuffer = 1;
  8055e4:	00800044 	movi	r2,1
  8055e8:	d0a74b05 	stb	r2,-25300(gp)

	// check the length of the uart input
	int length = read(uart, uartBuffer, sizeof(uartBuffer) - 1);

	if (length > 0) {
		for (int i = 0; i < length; i++){
  8055ec:	e0bffc17 	ldw	r2,-16(fp)
  8055f0:	10800044 	addi	r2,r2,1
  8055f4:	e0bffc15 	stw	r2,-16(fp)
  8055f8:	e0fffc17 	ldw	r3,-16(fp)
  8055fc:	e0bffd17 	ldw	r2,-12(fp)
  805600:	18bfdc16 	blt	r3,r2,805574 <__alt_mem_onchip_mem+0xff7fd574>
				printf("--A--\n");
				ASBuffer = 1;
			}
		}
	}
}
  805604:	0001883a 	nop
  805608:	e037883a 	mov	sp,fp
  80560c:	dfc00117 	ldw	ra,4(sp)
  805610:	df000017 	ldw	fp,0(sp)
  805614:	dec00204 	addi	sp,sp,8
  805618:	f800283a 	ret

0080561c <close_uart>:

void close_uart(){
  80561c:	defffe04 	addi	sp,sp,-8
  805620:	dfc00115 	stw	ra,4(sp)
  805624:	df000015 	stw	fp,0(sp)
  805628:	d839883a 	mov	fp,sp
	close(uart);
  80562c:	d0a74c17 	ldw	r2,-25296(gp)
  805630:	1009883a 	mov	r4,r2
  805634:	0812bb80 	call	812bb8 <close>
}
  805638:	0001883a 	nop
  80563c:	e037883a 	mov	sp,fp
  805640:	dfc00117 	ldw	ra,4(sp)
  805644:	df000017 	ldw	fp,0(sp)
  805648:	dec00204 	addi	sp,sp,8
  80564c:	f800283a 	ret

00805650 <__adddf3>:
  805650:	02c00434 	movhi	r11,16
  805654:	5affffc4 	addi	r11,r11,-1
  805658:	2806d7fa 	srli	r3,r5,31
  80565c:	2ad4703a 	and	r10,r5,r11
  805660:	3ad2703a 	and	r9,r7,r11
  805664:	3804d53a 	srli	r2,r7,20
  805668:	3018d77a 	srli	r12,r6,29
  80566c:	280ad53a 	srli	r5,r5,20
  805670:	501490fa 	slli	r10,r10,3
  805674:	2010d77a 	srli	r8,r4,29
  805678:	481290fa 	slli	r9,r9,3
  80567c:	380ed7fa 	srli	r7,r7,31
  805680:	defffb04 	addi	sp,sp,-20
  805684:	dc800215 	stw	r18,8(sp)
  805688:	dc400115 	stw	r17,4(sp)
  80568c:	dc000015 	stw	r16,0(sp)
  805690:	dfc00415 	stw	ra,16(sp)
  805694:	dcc00315 	stw	r19,12(sp)
  805698:	1c803fcc 	andi	r18,r3,255
  80569c:	2c01ffcc 	andi	r16,r5,2047
  8056a0:	5210b03a 	or	r8,r10,r8
  8056a4:	202290fa 	slli	r17,r4,3
  8056a8:	1081ffcc 	andi	r2,r2,2047
  8056ac:	4b12b03a 	or	r9,r9,r12
  8056b0:	300c90fa 	slli	r6,r6,3
  8056b4:	91c07526 	beq	r18,r7,80588c <__adddf3+0x23c>
  8056b8:	8087c83a 	sub	r3,r16,r2
  8056bc:	00c0ab0e 	bge	zero,r3,80596c <__adddf3+0x31c>
  8056c0:	10002a1e 	bne	r2,zero,80576c <__adddf3+0x11c>
  8056c4:	4984b03a 	or	r2,r9,r6
  8056c8:	1000961e 	bne	r2,zero,805924 <__adddf3+0x2d4>
  8056cc:	888001cc 	andi	r2,r17,7
  8056d0:	10000726 	beq	r2,zero,8056f0 <__adddf3+0xa0>
  8056d4:	888003cc 	andi	r2,r17,15
  8056d8:	00c00104 	movi	r3,4
  8056dc:	10c00426 	beq	r2,r3,8056f0 <__adddf3+0xa0>
  8056e0:	88c7883a 	add	r3,r17,r3
  8056e4:	1c63803a 	cmpltu	r17,r3,r17
  8056e8:	4451883a 	add	r8,r8,r17
  8056ec:	1823883a 	mov	r17,r3
  8056f0:	4080202c 	andhi	r2,r8,128
  8056f4:	10005926 	beq	r2,zero,80585c <__adddf3+0x20c>
  8056f8:	84000044 	addi	r16,r16,1
  8056fc:	0081ffc4 	movi	r2,2047
  805700:	8080ba26 	beq	r16,r2,8059ec <__adddf3+0x39c>
  805704:	00bfe034 	movhi	r2,65408
  805708:	10bfffc4 	addi	r2,r2,-1
  80570c:	4090703a 	and	r8,r8,r2
  805710:	4004977a 	slli	r2,r8,29
  805714:	4010927a 	slli	r8,r8,9
  805718:	8822d0fa 	srli	r17,r17,3
  80571c:	8401ffcc 	andi	r16,r16,2047
  805720:	4010d33a 	srli	r8,r8,12
  805724:	9007883a 	mov	r3,r18
  805728:	1444b03a 	or	r2,r2,r17
  80572c:	8401ffcc 	andi	r16,r16,2047
  805730:	8020953a 	slli	r16,r16,20
  805734:	18c03fcc 	andi	r3,r3,255
  805738:	01000434 	movhi	r4,16
  80573c:	213fffc4 	addi	r4,r4,-1
  805740:	180697fa 	slli	r3,r3,31
  805744:	4110703a 	and	r8,r8,r4
  805748:	4410b03a 	or	r8,r8,r16
  80574c:	40c6b03a 	or	r3,r8,r3
  805750:	dfc00417 	ldw	ra,16(sp)
  805754:	dcc00317 	ldw	r19,12(sp)
  805758:	dc800217 	ldw	r18,8(sp)
  80575c:	dc400117 	ldw	r17,4(sp)
  805760:	dc000017 	ldw	r16,0(sp)
  805764:	dec00504 	addi	sp,sp,20
  805768:	f800283a 	ret
  80576c:	0081ffc4 	movi	r2,2047
  805770:	80bfd626 	beq	r16,r2,8056cc <__alt_mem_onchip_mem+0xff7fd6cc>
  805774:	4a402034 	orhi	r9,r9,128
  805778:	00800e04 	movi	r2,56
  80577c:	10c09f16 	blt	r2,r3,8059fc <__adddf3+0x3ac>
  805780:	008007c4 	movi	r2,31
  805784:	10c0c216 	blt	r2,r3,805a90 <__adddf3+0x440>
  805788:	00800804 	movi	r2,32
  80578c:	10c5c83a 	sub	r2,r2,r3
  805790:	488a983a 	sll	r5,r9,r2
  805794:	30c8d83a 	srl	r4,r6,r3
  805798:	3084983a 	sll	r2,r6,r2
  80579c:	48c6d83a 	srl	r3,r9,r3
  8057a0:	290cb03a 	or	r6,r5,r4
  8057a4:	1004c03a 	cmpne	r2,r2,zero
  8057a8:	308cb03a 	or	r6,r6,r2
  8057ac:	898dc83a 	sub	r6,r17,r6
  8057b0:	89a3803a 	cmpltu	r17,r17,r6
  8057b4:	40d1c83a 	sub	r8,r8,r3
  8057b8:	4451c83a 	sub	r8,r8,r17
  8057bc:	3023883a 	mov	r17,r6
  8057c0:	4080202c 	andhi	r2,r8,128
  8057c4:	10002326 	beq	r2,zero,805854 <__adddf3+0x204>
  8057c8:	04c02034 	movhi	r19,128
  8057cc:	9cffffc4 	addi	r19,r19,-1
  8057d0:	44e6703a 	and	r19,r8,r19
  8057d4:	98007626 	beq	r19,zero,8059b0 <__adddf3+0x360>
  8057d8:	9809883a 	mov	r4,r19
  8057dc:	0806aa40 	call	806aa4 <__clzsi2>
  8057e0:	10fffe04 	addi	r3,r2,-8
  8057e4:	010007c4 	movi	r4,31
  8057e8:	20c07716 	blt	r4,r3,8059c8 <__adddf3+0x378>
  8057ec:	00800804 	movi	r2,32
  8057f0:	10c5c83a 	sub	r2,r2,r3
  8057f4:	8884d83a 	srl	r2,r17,r2
  8057f8:	98d0983a 	sll	r8,r19,r3
  8057fc:	88e2983a 	sll	r17,r17,r3
  805800:	1204b03a 	or	r2,r2,r8
  805804:	1c007416 	blt	r3,r16,8059d8 <__adddf3+0x388>
  805808:	1c21c83a 	sub	r16,r3,r16
  80580c:	82000044 	addi	r8,r16,1
  805810:	00c007c4 	movi	r3,31
  805814:	1a009116 	blt	r3,r8,805a5c <__adddf3+0x40c>
  805818:	00c00804 	movi	r3,32
  80581c:	1a07c83a 	sub	r3,r3,r8
  805820:	8a08d83a 	srl	r4,r17,r8
  805824:	88e2983a 	sll	r17,r17,r3
  805828:	10c6983a 	sll	r3,r2,r3
  80582c:	1210d83a 	srl	r8,r2,r8
  805830:	8804c03a 	cmpne	r2,r17,zero
  805834:	1906b03a 	or	r3,r3,r4
  805838:	18a2b03a 	or	r17,r3,r2
  80583c:	0021883a 	mov	r16,zero
  805840:	003fa206 	br	8056cc <__alt_mem_onchip_mem+0xff7fd6cc>
  805844:	1890b03a 	or	r8,r3,r2
  805848:	40017d26 	beq	r8,zero,805e40 <__adddf3+0x7f0>
  80584c:	1011883a 	mov	r8,r2
  805850:	1823883a 	mov	r17,r3
  805854:	888001cc 	andi	r2,r17,7
  805858:	103f9e1e 	bne	r2,zero,8056d4 <__alt_mem_onchip_mem+0xff7fd6d4>
  80585c:	4004977a 	slli	r2,r8,29
  805860:	8822d0fa 	srli	r17,r17,3
  805864:	4010d0fa 	srli	r8,r8,3
  805868:	9007883a 	mov	r3,r18
  80586c:	1444b03a 	or	r2,r2,r17
  805870:	0101ffc4 	movi	r4,2047
  805874:	81002426 	beq	r16,r4,805908 <__adddf3+0x2b8>
  805878:	8120703a 	and	r16,r16,r4
  80587c:	01000434 	movhi	r4,16
  805880:	213fffc4 	addi	r4,r4,-1
  805884:	4110703a 	and	r8,r8,r4
  805888:	003fa806 	br	80572c <__alt_mem_onchip_mem+0xff7fd72c>
  80588c:	8089c83a 	sub	r4,r16,r2
  805890:	01005e0e 	bge	zero,r4,805a0c <__adddf3+0x3bc>
  805894:	10002b26 	beq	r2,zero,805944 <__adddf3+0x2f4>
  805898:	0081ffc4 	movi	r2,2047
  80589c:	80bf8b26 	beq	r16,r2,8056cc <__alt_mem_onchip_mem+0xff7fd6cc>
  8058a0:	4a402034 	orhi	r9,r9,128
  8058a4:	00800e04 	movi	r2,56
  8058a8:	1100a40e 	bge	r2,r4,805b3c <__adddf3+0x4ec>
  8058ac:	498cb03a 	or	r6,r9,r6
  8058b0:	300ac03a 	cmpne	r5,r6,zero
  8058b4:	0013883a 	mov	r9,zero
  8058b8:	2c4b883a 	add	r5,r5,r17
  8058bc:	2c63803a 	cmpltu	r17,r5,r17
  8058c0:	4a11883a 	add	r8,r9,r8
  8058c4:	8a11883a 	add	r8,r17,r8
  8058c8:	2823883a 	mov	r17,r5
  8058cc:	4080202c 	andhi	r2,r8,128
  8058d0:	103fe026 	beq	r2,zero,805854 <__alt_mem_onchip_mem+0xff7fd854>
  8058d4:	84000044 	addi	r16,r16,1
  8058d8:	0081ffc4 	movi	r2,2047
  8058dc:	8080d226 	beq	r16,r2,805c28 <__adddf3+0x5d8>
  8058e0:	00bfe034 	movhi	r2,65408
  8058e4:	10bfffc4 	addi	r2,r2,-1
  8058e8:	4090703a 	and	r8,r8,r2
  8058ec:	880ad07a 	srli	r5,r17,1
  8058f0:	400897fa 	slli	r4,r8,31
  8058f4:	88c0004c 	andi	r3,r17,1
  8058f8:	28e2b03a 	or	r17,r5,r3
  8058fc:	4010d07a 	srli	r8,r8,1
  805900:	2462b03a 	or	r17,r4,r17
  805904:	003f7106 	br	8056cc <__alt_mem_onchip_mem+0xff7fd6cc>
  805908:	4088b03a 	or	r4,r8,r2
  80590c:	20014526 	beq	r4,zero,805e24 <__adddf3+0x7d4>
  805910:	01000434 	movhi	r4,16
  805914:	42000234 	orhi	r8,r8,8
  805918:	213fffc4 	addi	r4,r4,-1
  80591c:	4110703a 	and	r8,r8,r4
  805920:	003f8206 	br	80572c <__alt_mem_onchip_mem+0xff7fd72c>
  805924:	18ffffc4 	addi	r3,r3,-1
  805928:	1800491e 	bne	r3,zero,805a50 <__adddf3+0x400>
  80592c:	898bc83a 	sub	r5,r17,r6
  805930:	8963803a 	cmpltu	r17,r17,r5
  805934:	4251c83a 	sub	r8,r8,r9
  805938:	4451c83a 	sub	r8,r8,r17
  80593c:	2823883a 	mov	r17,r5
  805940:	003f9f06 	br	8057c0 <__alt_mem_onchip_mem+0xff7fd7c0>
  805944:	4984b03a 	or	r2,r9,r6
  805948:	103f6026 	beq	r2,zero,8056cc <__alt_mem_onchip_mem+0xff7fd6cc>
  80594c:	213fffc4 	addi	r4,r4,-1
  805950:	2000931e 	bne	r4,zero,805ba0 <__adddf3+0x550>
  805954:	898d883a 	add	r6,r17,r6
  805958:	3463803a 	cmpltu	r17,r6,r17
  80595c:	4251883a 	add	r8,r8,r9
  805960:	8a11883a 	add	r8,r17,r8
  805964:	3023883a 	mov	r17,r6
  805968:	003fd806 	br	8058cc <__alt_mem_onchip_mem+0xff7fd8cc>
  80596c:	1800541e 	bne	r3,zero,805ac0 <__adddf3+0x470>
  805970:	80800044 	addi	r2,r16,1
  805974:	1081ffcc 	andi	r2,r2,2047
  805978:	00c00044 	movi	r3,1
  80597c:	1880a00e 	bge	r3,r2,805c00 <__adddf3+0x5b0>
  805980:	8989c83a 	sub	r4,r17,r6
  805984:	8905803a 	cmpltu	r2,r17,r4
  805988:	4267c83a 	sub	r19,r8,r9
  80598c:	98a7c83a 	sub	r19,r19,r2
  805990:	9880202c 	andhi	r2,r19,128
  805994:	10006326 	beq	r2,zero,805b24 <__adddf3+0x4d4>
  805998:	3463c83a 	sub	r17,r6,r17
  80599c:	4a07c83a 	sub	r3,r9,r8
  8059a0:	344d803a 	cmpltu	r6,r6,r17
  8059a4:	19a7c83a 	sub	r19,r3,r6
  8059a8:	3825883a 	mov	r18,r7
  8059ac:	983f8a1e 	bne	r19,zero,8057d8 <__alt_mem_onchip_mem+0xff7fd7d8>
  8059b0:	8809883a 	mov	r4,r17
  8059b4:	0806aa40 	call	806aa4 <__clzsi2>
  8059b8:	10800804 	addi	r2,r2,32
  8059bc:	10fffe04 	addi	r3,r2,-8
  8059c0:	010007c4 	movi	r4,31
  8059c4:	20ff890e 	bge	r4,r3,8057ec <__alt_mem_onchip_mem+0xff7fd7ec>
  8059c8:	10bff604 	addi	r2,r2,-40
  8059cc:	8884983a 	sll	r2,r17,r2
  8059d0:	0023883a 	mov	r17,zero
  8059d4:	1c3f8c0e 	bge	r3,r16,805808 <__alt_mem_onchip_mem+0xff7fd808>
  8059d8:	023fe034 	movhi	r8,65408
  8059dc:	423fffc4 	addi	r8,r8,-1
  8059e0:	80e1c83a 	sub	r16,r16,r3
  8059e4:	1210703a 	and	r8,r2,r8
  8059e8:	003f3806 	br	8056cc <__alt_mem_onchip_mem+0xff7fd6cc>
  8059ec:	9007883a 	mov	r3,r18
  8059f0:	0011883a 	mov	r8,zero
  8059f4:	0005883a 	mov	r2,zero
  8059f8:	003f4c06 	br	80572c <__alt_mem_onchip_mem+0xff7fd72c>
  8059fc:	498cb03a 	or	r6,r9,r6
  805a00:	300cc03a 	cmpne	r6,r6,zero
  805a04:	0007883a 	mov	r3,zero
  805a08:	003f6806 	br	8057ac <__alt_mem_onchip_mem+0xff7fd7ac>
  805a0c:	20009c1e 	bne	r4,zero,805c80 <__adddf3+0x630>
  805a10:	80800044 	addi	r2,r16,1
  805a14:	1141ffcc 	andi	r5,r2,2047
  805a18:	01000044 	movi	r4,1
  805a1c:	2140670e 	bge	r4,r5,805bbc <__adddf3+0x56c>
  805a20:	0101ffc4 	movi	r4,2047
  805a24:	11007f26 	beq	r2,r4,805c24 <__adddf3+0x5d4>
  805a28:	898d883a 	add	r6,r17,r6
  805a2c:	4247883a 	add	r3,r8,r9
  805a30:	3451803a 	cmpltu	r8,r6,r17
  805a34:	40d1883a 	add	r8,r8,r3
  805a38:	402297fa 	slli	r17,r8,31
  805a3c:	300cd07a 	srli	r6,r6,1
  805a40:	4010d07a 	srli	r8,r8,1
  805a44:	1021883a 	mov	r16,r2
  805a48:	89a2b03a 	or	r17,r17,r6
  805a4c:	003f1f06 	br	8056cc <__alt_mem_onchip_mem+0xff7fd6cc>
  805a50:	0081ffc4 	movi	r2,2047
  805a54:	80bf481e 	bne	r16,r2,805778 <__alt_mem_onchip_mem+0xff7fd778>
  805a58:	003f1c06 	br	8056cc <__alt_mem_onchip_mem+0xff7fd6cc>
  805a5c:	843ff844 	addi	r16,r16,-31
  805a60:	01000804 	movi	r4,32
  805a64:	1406d83a 	srl	r3,r2,r16
  805a68:	41005026 	beq	r8,r4,805bac <__adddf3+0x55c>
  805a6c:	01001004 	movi	r4,64
  805a70:	2211c83a 	sub	r8,r4,r8
  805a74:	1204983a 	sll	r2,r2,r8
  805a78:	88a2b03a 	or	r17,r17,r2
  805a7c:	8822c03a 	cmpne	r17,r17,zero
  805a80:	1c62b03a 	or	r17,r3,r17
  805a84:	0011883a 	mov	r8,zero
  805a88:	0021883a 	mov	r16,zero
  805a8c:	003f7106 	br	805854 <__alt_mem_onchip_mem+0xff7fd854>
  805a90:	193ff804 	addi	r4,r3,-32
  805a94:	00800804 	movi	r2,32
  805a98:	4908d83a 	srl	r4,r9,r4
  805a9c:	18804526 	beq	r3,r2,805bb4 <__adddf3+0x564>
  805aa0:	00801004 	movi	r2,64
  805aa4:	10c5c83a 	sub	r2,r2,r3
  805aa8:	4886983a 	sll	r3,r9,r2
  805aac:	198cb03a 	or	r6,r3,r6
  805ab0:	300cc03a 	cmpne	r6,r6,zero
  805ab4:	218cb03a 	or	r6,r4,r6
  805ab8:	0007883a 	mov	r3,zero
  805abc:	003f3b06 	br	8057ac <__alt_mem_onchip_mem+0xff7fd7ac>
  805ac0:	80002a26 	beq	r16,zero,805b6c <__adddf3+0x51c>
  805ac4:	0101ffc4 	movi	r4,2047
  805ac8:	11006826 	beq	r2,r4,805c6c <__adddf3+0x61c>
  805acc:	00c7c83a 	sub	r3,zero,r3
  805ad0:	42002034 	orhi	r8,r8,128
  805ad4:	01000e04 	movi	r4,56
  805ad8:	20c07c16 	blt	r4,r3,805ccc <__adddf3+0x67c>
  805adc:	010007c4 	movi	r4,31
  805ae0:	20c0da16 	blt	r4,r3,805e4c <__adddf3+0x7fc>
  805ae4:	01000804 	movi	r4,32
  805ae8:	20c9c83a 	sub	r4,r4,r3
  805aec:	4114983a 	sll	r10,r8,r4
  805af0:	88cad83a 	srl	r5,r17,r3
  805af4:	8908983a 	sll	r4,r17,r4
  805af8:	40c6d83a 	srl	r3,r8,r3
  805afc:	5162b03a 	or	r17,r10,r5
  805b00:	2008c03a 	cmpne	r4,r4,zero
  805b04:	8922b03a 	or	r17,r17,r4
  805b08:	3463c83a 	sub	r17,r6,r17
  805b0c:	48c7c83a 	sub	r3,r9,r3
  805b10:	344d803a 	cmpltu	r6,r6,r17
  805b14:	1991c83a 	sub	r8,r3,r6
  805b18:	1021883a 	mov	r16,r2
  805b1c:	3825883a 	mov	r18,r7
  805b20:	003f2706 	br	8057c0 <__alt_mem_onchip_mem+0xff7fd7c0>
  805b24:	24d0b03a 	or	r8,r4,r19
  805b28:	40001b1e 	bne	r8,zero,805b98 <__adddf3+0x548>
  805b2c:	0005883a 	mov	r2,zero
  805b30:	0007883a 	mov	r3,zero
  805b34:	0021883a 	mov	r16,zero
  805b38:	003f4d06 	br	805870 <__alt_mem_onchip_mem+0xff7fd870>
  805b3c:	008007c4 	movi	r2,31
  805b40:	11003c16 	blt	r2,r4,805c34 <__adddf3+0x5e4>
  805b44:	00800804 	movi	r2,32
  805b48:	1105c83a 	sub	r2,r2,r4
  805b4c:	488e983a 	sll	r7,r9,r2
  805b50:	310ad83a 	srl	r5,r6,r4
  805b54:	3084983a 	sll	r2,r6,r2
  805b58:	4912d83a 	srl	r9,r9,r4
  805b5c:	394ab03a 	or	r5,r7,r5
  805b60:	1004c03a 	cmpne	r2,r2,zero
  805b64:	288ab03a 	or	r5,r5,r2
  805b68:	003f5306 	br	8058b8 <__alt_mem_onchip_mem+0xff7fd8b8>
  805b6c:	4448b03a 	or	r4,r8,r17
  805b70:	20003e26 	beq	r4,zero,805c6c <__adddf3+0x61c>
  805b74:	00c6303a 	nor	r3,zero,r3
  805b78:	18003a1e 	bne	r3,zero,805c64 <__adddf3+0x614>
  805b7c:	3463c83a 	sub	r17,r6,r17
  805b80:	4a07c83a 	sub	r3,r9,r8
  805b84:	344d803a 	cmpltu	r6,r6,r17
  805b88:	1991c83a 	sub	r8,r3,r6
  805b8c:	1021883a 	mov	r16,r2
  805b90:	3825883a 	mov	r18,r7
  805b94:	003f0a06 	br	8057c0 <__alt_mem_onchip_mem+0xff7fd7c0>
  805b98:	2023883a 	mov	r17,r4
  805b9c:	003f0d06 	br	8057d4 <__alt_mem_onchip_mem+0xff7fd7d4>
  805ba0:	0081ffc4 	movi	r2,2047
  805ba4:	80bf3f1e 	bne	r16,r2,8058a4 <__alt_mem_onchip_mem+0xff7fd8a4>
  805ba8:	003ec806 	br	8056cc <__alt_mem_onchip_mem+0xff7fd6cc>
  805bac:	0005883a 	mov	r2,zero
  805bb0:	003fb106 	br	805a78 <__alt_mem_onchip_mem+0xff7fda78>
  805bb4:	0007883a 	mov	r3,zero
  805bb8:	003fbc06 	br	805aac <__alt_mem_onchip_mem+0xff7fdaac>
  805bbc:	4444b03a 	or	r2,r8,r17
  805bc0:	8000871e 	bne	r16,zero,805de0 <__adddf3+0x790>
  805bc4:	1000ba26 	beq	r2,zero,805eb0 <__adddf3+0x860>
  805bc8:	4984b03a 	or	r2,r9,r6
  805bcc:	103ebf26 	beq	r2,zero,8056cc <__alt_mem_onchip_mem+0xff7fd6cc>
  805bd0:	8985883a 	add	r2,r17,r6
  805bd4:	4247883a 	add	r3,r8,r9
  805bd8:	1451803a 	cmpltu	r8,r2,r17
  805bdc:	40d1883a 	add	r8,r8,r3
  805be0:	40c0202c 	andhi	r3,r8,128
  805be4:	1023883a 	mov	r17,r2
  805be8:	183f1a26 	beq	r3,zero,805854 <__alt_mem_onchip_mem+0xff7fd854>
  805bec:	00bfe034 	movhi	r2,65408
  805bf0:	10bfffc4 	addi	r2,r2,-1
  805bf4:	2021883a 	mov	r16,r4
  805bf8:	4090703a 	and	r8,r8,r2
  805bfc:	003eb306 	br	8056cc <__alt_mem_onchip_mem+0xff7fd6cc>
  805c00:	4444b03a 	or	r2,r8,r17
  805c04:	8000291e 	bne	r16,zero,805cac <__adddf3+0x65c>
  805c08:	10004b1e 	bne	r2,zero,805d38 <__adddf3+0x6e8>
  805c0c:	4990b03a 	or	r8,r9,r6
  805c10:	40008b26 	beq	r8,zero,805e40 <__adddf3+0x7f0>
  805c14:	4811883a 	mov	r8,r9
  805c18:	3023883a 	mov	r17,r6
  805c1c:	3825883a 	mov	r18,r7
  805c20:	003eaa06 	br	8056cc <__alt_mem_onchip_mem+0xff7fd6cc>
  805c24:	1021883a 	mov	r16,r2
  805c28:	0011883a 	mov	r8,zero
  805c2c:	0005883a 	mov	r2,zero
  805c30:	003f0f06 	br	805870 <__alt_mem_onchip_mem+0xff7fd870>
  805c34:	217ff804 	addi	r5,r4,-32
  805c38:	00800804 	movi	r2,32
  805c3c:	494ad83a 	srl	r5,r9,r5
  805c40:	20807d26 	beq	r4,r2,805e38 <__adddf3+0x7e8>
  805c44:	00801004 	movi	r2,64
  805c48:	1109c83a 	sub	r4,r2,r4
  805c4c:	4912983a 	sll	r9,r9,r4
  805c50:	498cb03a 	or	r6,r9,r6
  805c54:	300cc03a 	cmpne	r6,r6,zero
  805c58:	298ab03a 	or	r5,r5,r6
  805c5c:	0013883a 	mov	r9,zero
  805c60:	003f1506 	br	8058b8 <__alt_mem_onchip_mem+0xff7fd8b8>
  805c64:	0101ffc4 	movi	r4,2047
  805c68:	113f9a1e 	bne	r2,r4,805ad4 <__alt_mem_onchip_mem+0xff7fdad4>
  805c6c:	4811883a 	mov	r8,r9
  805c70:	3023883a 	mov	r17,r6
  805c74:	1021883a 	mov	r16,r2
  805c78:	3825883a 	mov	r18,r7
  805c7c:	003e9306 	br	8056cc <__alt_mem_onchip_mem+0xff7fd6cc>
  805c80:	8000161e 	bne	r16,zero,805cdc <__adddf3+0x68c>
  805c84:	444ab03a 	or	r5,r8,r17
  805c88:	28005126 	beq	r5,zero,805dd0 <__adddf3+0x780>
  805c8c:	0108303a 	nor	r4,zero,r4
  805c90:	20004d1e 	bne	r4,zero,805dc8 <__adddf3+0x778>
  805c94:	89a3883a 	add	r17,r17,r6
  805c98:	4253883a 	add	r9,r8,r9
  805c9c:	898d803a 	cmpltu	r6,r17,r6
  805ca0:	3251883a 	add	r8,r6,r9
  805ca4:	1021883a 	mov	r16,r2
  805ca8:	003f0806 	br	8058cc <__alt_mem_onchip_mem+0xff7fd8cc>
  805cac:	1000301e 	bne	r2,zero,805d70 <__adddf3+0x720>
  805cb0:	4984b03a 	or	r2,r9,r6
  805cb4:	10007126 	beq	r2,zero,805e7c <__adddf3+0x82c>
  805cb8:	4811883a 	mov	r8,r9
  805cbc:	3023883a 	mov	r17,r6
  805cc0:	3825883a 	mov	r18,r7
  805cc4:	0401ffc4 	movi	r16,2047
  805cc8:	003e8006 	br	8056cc <__alt_mem_onchip_mem+0xff7fd6cc>
  805ccc:	4462b03a 	or	r17,r8,r17
  805cd0:	8822c03a 	cmpne	r17,r17,zero
  805cd4:	0007883a 	mov	r3,zero
  805cd8:	003f8b06 	br	805b08 <__alt_mem_onchip_mem+0xff7fdb08>
  805cdc:	0141ffc4 	movi	r5,2047
  805ce0:	11403b26 	beq	r2,r5,805dd0 <__adddf3+0x780>
  805ce4:	0109c83a 	sub	r4,zero,r4
  805ce8:	42002034 	orhi	r8,r8,128
  805cec:	01400e04 	movi	r5,56
  805cf0:	29006716 	blt	r5,r4,805e90 <__adddf3+0x840>
  805cf4:	014007c4 	movi	r5,31
  805cf8:	29007016 	blt	r5,r4,805ebc <__adddf3+0x86c>
  805cfc:	01400804 	movi	r5,32
  805d00:	290bc83a 	sub	r5,r5,r4
  805d04:	4154983a 	sll	r10,r8,r5
  805d08:	890ed83a 	srl	r7,r17,r4
  805d0c:	894a983a 	sll	r5,r17,r5
  805d10:	4108d83a 	srl	r4,r8,r4
  805d14:	51e2b03a 	or	r17,r10,r7
  805d18:	280ac03a 	cmpne	r5,r5,zero
  805d1c:	8962b03a 	or	r17,r17,r5
  805d20:	89a3883a 	add	r17,r17,r6
  805d24:	2253883a 	add	r9,r4,r9
  805d28:	898d803a 	cmpltu	r6,r17,r6
  805d2c:	3251883a 	add	r8,r6,r9
  805d30:	1021883a 	mov	r16,r2
  805d34:	003ee506 	br	8058cc <__alt_mem_onchip_mem+0xff7fd8cc>
  805d38:	4984b03a 	or	r2,r9,r6
  805d3c:	103e6326 	beq	r2,zero,8056cc <__alt_mem_onchip_mem+0xff7fd6cc>
  805d40:	8987c83a 	sub	r3,r17,r6
  805d44:	88c9803a 	cmpltu	r4,r17,r3
  805d48:	4245c83a 	sub	r2,r8,r9
  805d4c:	1105c83a 	sub	r2,r2,r4
  805d50:	1100202c 	andhi	r4,r2,128
  805d54:	203ebb26 	beq	r4,zero,805844 <__alt_mem_onchip_mem+0xff7fd844>
  805d58:	3463c83a 	sub	r17,r6,r17
  805d5c:	4a07c83a 	sub	r3,r9,r8
  805d60:	344d803a 	cmpltu	r6,r6,r17
  805d64:	1991c83a 	sub	r8,r3,r6
  805d68:	3825883a 	mov	r18,r7
  805d6c:	003e5706 	br	8056cc <__alt_mem_onchip_mem+0xff7fd6cc>
  805d70:	4984b03a 	or	r2,r9,r6
  805d74:	10002e26 	beq	r2,zero,805e30 <__adddf3+0x7e0>
  805d78:	4004d0fa 	srli	r2,r8,3
  805d7c:	8822d0fa 	srli	r17,r17,3
  805d80:	4010977a 	slli	r8,r8,29
  805d84:	10c0022c 	andhi	r3,r2,8
  805d88:	4462b03a 	or	r17,r8,r17
  805d8c:	18000826 	beq	r3,zero,805db0 <__adddf3+0x760>
  805d90:	4808d0fa 	srli	r4,r9,3
  805d94:	20c0022c 	andhi	r3,r4,8
  805d98:	1800051e 	bne	r3,zero,805db0 <__adddf3+0x760>
  805d9c:	300cd0fa 	srli	r6,r6,3
  805da0:	4806977a 	slli	r3,r9,29
  805da4:	2005883a 	mov	r2,r4
  805da8:	3825883a 	mov	r18,r7
  805dac:	19a2b03a 	or	r17,r3,r6
  805db0:	8810d77a 	srli	r8,r17,29
  805db4:	100490fa 	slli	r2,r2,3
  805db8:	882290fa 	slli	r17,r17,3
  805dbc:	0401ffc4 	movi	r16,2047
  805dc0:	4090b03a 	or	r8,r8,r2
  805dc4:	003e4106 	br	8056cc <__alt_mem_onchip_mem+0xff7fd6cc>
  805dc8:	0141ffc4 	movi	r5,2047
  805dcc:	117fc71e 	bne	r2,r5,805cec <__alt_mem_onchip_mem+0xff7fdcec>
  805dd0:	4811883a 	mov	r8,r9
  805dd4:	3023883a 	mov	r17,r6
  805dd8:	1021883a 	mov	r16,r2
  805ddc:	003e3b06 	br	8056cc <__alt_mem_onchip_mem+0xff7fd6cc>
  805de0:	10002f26 	beq	r2,zero,805ea0 <__adddf3+0x850>
  805de4:	4984b03a 	or	r2,r9,r6
  805de8:	10001126 	beq	r2,zero,805e30 <__adddf3+0x7e0>
  805dec:	4004d0fa 	srli	r2,r8,3
  805df0:	8822d0fa 	srli	r17,r17,3
  805df4:	4010977a 	slli	r8,r8,29
  805df8:	10c0022c 	andhi	r3,r2,8
  805dfc:	4462b03a 	or	r17,r8,r17
  805e00:	183feb26 	beq	r3,zero,805db0 <__alt_mem_onchip_mem+0xff7fddb0>
  805e04:	4808d0fa 	srli	r4,r9,3
  805e08:	20c0022c 	andhi	r3,r4,8
  805e0c:	183fe81e 	bne	r3,zero,805db0 <__alt_mem_onchip_mem+0xff7fddb0>
  805e10:	300cd0fa 	srli	r6,r6,3
  805e14:	4806977a 	slli	r3,r9,29
  805e18:	2005883a 	mov	r2,r4
  805e1c:	19a2b03a 	or	r17,r3,r6
  805e20:	003fe306 	br	805db0 <__alt_mem_onchip_mem+0xff7fddb0>
  805e24:	0011883a 	mov	r8,zero
  805e28:	0005883a 	mov	r2,zero
  805e2c:	003e3f06 	br	80572c <__alt_mem_onchip_mem+0xff7fd72c>
  805e30:	0401ffc4 	movi	r16,2047
  805e34:	003e2506 	br	8056cc <__alt_mem_onchip_mem+0xff7fd6cc>
  805e38:	0013883a 	mov	r9,zero
  805e3c:	003f8406 	br	805c50 <__alt_mem_onchip_mem+0xff7fdc50>
  805e40:	0005883a 	mov	r2,zero
  805e44:	0007883a 	mov	r3,zero
  805e48:	003e8906 	br	805870 <__alt_mem_onchip_mem+0xff7fd870>
  805e4c:	197ff804 	addi	r5,r3,-32
  805e50:	01000804 	movi	r4,32
  805e54:	414ad83a 	srl	r5,r8,r5
  805e58:	19002426 	beq	r3,r4,805eec <__adddf3+0x89c>
  805e5c:	01001004 	movi	r4,64
  805e60:	20c7c83a 	sub	r3,r4,r3
  805e64:	40c6983a 	sll	r3,r8,r3
  805e68:	1c46b03a 	or	r3,r3,r17
  805e6c:	1806c03a 	cmpne	r3,r3,zero
  805e70:	28e2b03a 	or	r17,r5,r3
  805e74:	0007883a 	mov	r3,zero
  805e78:	003f2306 	br	805b08 <__alt_mem_onchip_mem+0xff7fdb08>
  805e7c:	0007883a 	mov	r3,zero
  805e80:	5811883a 	mov	r8,r11
  805e84:	00bfffc4 	movi	r2,-1
  805e88:	0401ffc4 	movi	r16,2047
  805e8c:	003e7806 	br	805870 <__alt_mem_onchip_mem+0xff7fd870>
  805e90:	4462b03a 	or	r17,r8,r17
  805e94:	8822c03a 	cmpne	r17,r17,zero
  805e98:	0009883a 	mov	r4,zero
  805e9c:	003fa006 	br	805d20 <__alt_mem_onchip_mem+0xff7fdd20>
  805ea0:	4811883a 	mov	r8,r9
  805ea4:	3023883a 	mov	r17,r6
  805ea8:	0401ffc4 	movi	r16,2047
  805eac:	003e0706 	br	8056cc <__alt_mem_onchip_mem+0xff7fd6cc>
  805eb0:	4811883a 	mov	r8,r9
  805eb4:	3023883a 	mov	r17,r6
  805eb8:	003e0406 	br	8056cc <__alt_mem_onchip_mem+0xff7fd6cc>
  805ebc:	21fff804 	addi	r7,r4,-32
  805ec0:	01400804 	movi	r5,32
  805ec4:	41ced83a 	srl	r7,r8,r7
  805ec8:	21400a26 	beq	r4,r5,805ef4 <__adddf3+0x8a4>
  805ecc:	01401004 	movi	r5,64
  805ed0:	2909c83a 	sub	r4,r5,r4
  805ed4:	4108983a 	sll	r4,r8,r4
  805ed8:	2448b03a 	or	r4,r4,r17
  805edc:	2008c03a 	cmpne	r4,r4,zero
  805ee0:	3922b03a 	or	r17,r7,r4
  805ee4:	0009883a 	mov	r4,zero
  805ee8:	003f8d06 	br	805d20 <__alt_mem_onchip_mem+0xff7fdd20>
  805eec:	0007883a 	mov	r3,zero
  805ef0:	003fdd06 	br	805e68 <__alt_mem_onchip_mem+0xff7fde68>
  805ef4:	0009883a 	mov	r4,zero
  805ef8:	003ff706 	br	805ed8 <__alt_mem_onchip_mem+0xff7fded8>

00805efc <__gedf2>:
  805efc:	2804d53a 	srli	r2,r5,20
  805f00:	3806d53a 	srli	r3,r7,20
  805f04:	02000434 	movhi	r8,16
  805f08:	423fffc4 	addi	r8,r8,-1
  805f0c:	1081ffcc 	andi	r2,r2,2047
  805f10:	0241ffc4 	movi	r9,2047
  805f14:	2a14703a 	and	r10,r5,r8
  805f18:	18c1ffcc 	andi	r3,r3,2047
  805f1c:	3a10703a 	and	r8,r7,r8
  805f20:	280ad7fa 	srli	r5,r5,31
  805f24:	380ed7fa 	srli	r7,r7,31
  805f28:	12401d26 	beq	r2,r9,805fa0 <__gedf2+0xa4>
  805f2c:	0241ffc4 	movi	r9,2047
  805f30:	1a401226 	beq	r3,r9,805f7c <__gedf2+0x80>
  805f34:	1000081e 	bne	r2,zero,805f58 <__gedf2+0x5c>
  805f38:	2296b03a 	or	r11,r4,r10
  805f3c:	5813003a 	cmpeq	r9,r11,zero
  805f40:	1800091e 	bne	r3,zero,805f68 <__gedf2+0x6c>
  805f44:	3218b03a 	or	r12,r6,r8
  805f48:	6000071e 	bne	r12,zero,805f68 <__gedf2+0x6c>
  805f4c:	0005883a 	mov	r2,zero
  805f50:	5800101e 	bne	r11,zero,805f94 <__gedf2+0x98>
  805f54:	f800283a 	ret
  805f58:	18000c1e 	bne	r3,zero,805f8c <__gedf2+0x90>
  805f5c:	3212b03a 	or	r9,r6,r8
  805f60:	48000c26 	beq	r9,zero,805f94 <__gedf2+0x98>
  805f64:	0013883a 	mov	r9,zero
  805f68:	39c03fcc 	andi	r7,r7,255
  805f6c:	48000826 	beq	r9,zero,805f90 <__gedf2+0x94>
  805f70:	38000926 	beq	r7,zero,805f98 <__gedf2+0x9c>
  805f74:	00800044 	movi	r2,1
  805f78:	f800283a 	ret
  805f7c:	3212b03a 	or	r9,r6,r8
  805f80:	483fec26 	beq	r9,zero,805f34 <__alt_mem_onchip_mem+0xff7fdf34>
  805f84:	00bfff84 	movi	r2,-2
  805f88:	f800283a 	ret
  805f8c:	39c03fcc 	andi	r7,r7,255
  805f90:	29c00626 	beq	r5,r7,805fac <__gedf2+0xb0>
  805f94:	283ff726 	beq	r5,zero,805f74 <__alt_mem_onchip_mem+0xff7fdf74>
  805f98:	00bfffc4 	movi	r2,-1
  805f9c:	f800283a 	ret
  805fa0:	2292b03a 	or	r9,r4,r10
  805fa4:	483fe126 	beq	r9,zero,805f2c <__alt_mem_onchip_mem+0xff7fdf2c>
  805fa8:	003ff606 	br	805f84 <__alt_mem_onchip_mem+0xff7fdf84>
  805fac:	18bff916 	blt	r3,r2,805f94 <__alt_mem_onchip_mem+0xff7fdf94>
  805fb0:	10c00316 	blt	r2,r3,805fc0 <__gedf2+0xc4>
  805fb4:	42bff736 	bltu	r8,r10,805f94 <__alt_mem_onchip_mem+0xff7fdf94>
  805fb8:	52000326 	beq	r10,r8,805fc8 <__gedf2+0xcc>
  805fbc:	5200042e 	bgeu	r10,r8,805fd0 <__gedf2+0xd4>
  805fc0:	283fec1e 	bne	r5,zero,805f74 <__alt_mem_onchip_mem+0xff7fdf74>
  805fc4:	003ff406 	br	805f98 <__alt_mem_onchip_mem+0xff7fdf98>
  805fc8:	313ff236 	bltu	r6,r4,805f94 <__alt_mem_onchip_mem+0xff7fdf94>
  805fcc:	21bffc36 	bltu	r4,r6,805fc0 <__alt_mem_onchip_mem+0xff7fdfc0>
  805fd0:	0005883a 	mov	r2,zero
  805fd4:	f800283a 	ret

00805fd8 <__ledf2>:
  805fd8:	2804d53a 	srli	r2,r5,20
  805fdc:	3810d53a 	srli	r8,r7,20
  805fe0:	00c00434 	movhi	r3,16
  805fe4:	18ffffc4 	addi	r3,r3,-1
  805fe8:	1081ffcc 	andi	r2,r2,2047
  805fec:	0241ffc4 	movi	r9,2047
  805ff0:	28d4703a 	and	r10,r5,r3
  805ff4:	4201ffcc 	andi	r8,r8,2047
  805ff8:	38c6703a 	and	r3,r7,r3
  805ffc:	280ad7fa 	srli	r5,r5,31
  806000:	380ed7fa 	srli	r7,r7,31
  806004:	12401f26 	beq	r2,r9,806084 <__ledf2+0xac>
  806008:	0241ffc4 	movi	r9,2047
  80600c:	42401426 	beq	r8,r9,806060 <__ledf2+0x88>
  806010:	1000091e 	bne	r2,zero,806038 <__ledf2+0x60>
  806014:	2296b03a 	or	r11,r4,r10
  806018:	5813003a 	cmpeq	r9,r11,zero
  80601c:	29403fcc 	andi	r5,r5,255
  806020:	40000a1e 	bne	r8,zero,80604c <__ledf2+0x74>
  806024:	30d8b03a 	or	r12,r6,r3
  806028:	6000081e 	bne	r12,zero,80604c <__ledf2+0x74>
  80602c:	0005883a 	mov	r2,zero
  806030:	5800111e 	bne	r11,zero,806078 <__ledf2+0xa0>
  806034:	f800283a 	ret
  806038:	29403fcc 	andi	r5,r5,255
  80603c:	40000c1e 	bne	r8,zero,806070 <__ledf2+0x98>
  806040:	30d2b03a 	or	r9,r6,r3
  806044:	48000c26 	beq	r9,zero,806078 <__ledf2+0xa0>
  806048:	0013883a 	mov	r9,zero
  80604c:	39c03fcc 	andi	r7,r7,255
  806050:	48000826 	beq	r9,zero,806074 <__ledf2+0x9c>
  806054:	38001126 	beq	r7,zero,80609c <__ledf2+0xc4>
  806058:	00800044 	movi	r2,1
  80605c:	f800283a 	ret
  806060:	30d2b03a 	or	r9,r6,r3
  806064:	483fea26 	beq	r9,zero,806010 <__alt_mem_onchip_mem+0xff7fe010>
  806068:	00800084 	movi	r2,2
  80606c:	f800283a 	ret
  806070:	39c03fcc 	andi	r7,r7,255
  806074:	39400726 	beq	r7,r5,806094 <__ledf2+0xbc>
  806078:	2800081e 	bne	r5,zero,80609c <__ledf2+0xc4>
  80607c:	00800044 	movi	r2,1
  806080:	f800283a 	ret
  806084:	2292b03a 	or	r9,r4,r10
  806088:	483fdf26 	beq	r9,zero,806008 <__alt_mem_onchip_mem+0xff7fe008>
  80608c:	00800084 	movi	r2,2
  806090:	f800283a 	ret
  806094:	4080030e 	bge	r8,r2,8060a4 <__ledf2+0xcc>
  806098:	383fef26 	beq	r7,zero,806058 <__alt_mem_onchip_mem+0xff7fe058>
  80609c:	00bfffc4 	movi	r2,-1
  8060a0:	f800283a 	ret
  8060a4:	123feb16 	blt	r2,r8,806054 <__alt_mem_onchip_mem+0xff7fe054>
  8060a8:	1abff336 	bltu	r3,r10,806078 <__alt_mem_onchip_mem+0xff7fe078>
  8060ac:	50c00326 	beq	r10,r3,8060bc <__ledf2+0xe4>
  8060b0:	50c0042e 	bgeu	r10,r3,8060c4 <__ledf2+0xec>
  8060b4:	283fe81e 	bne	r5,zero,806058 <__alt_mem_onchip_mem+0xff7fe058>
  8060b8:	003ff806 	br	80609c <__alt_mem_onchip_mem+0xff7fe09c>
  8060bc:	313fee36 	bltu	r6,r4,806078 <__alt_mem_onchip_mem+0xff7fe078>
  8060c0:	21bffc36 	bltu	r4,r6,8060b4 <__alt_mem_onchip_mem+0xff7fe0b4>
  8060c4:	0005883a 	mov	r2,zero
  8060c8:	f800283a 	ret

008060cc <__subdf3>:
  8060cc:	02000434 	movhi	r8,16
  8060d0:	423fffc4 	addi	r8,r8,-1
  8060d4:	defffb04 	addi	sp,sp,-20
  8060d8:	2a14703a 	and	r10,r5,r8
  8060dc:	3812d53a 	srli	r9,r7,20
  8060e0:	3a10703a 	and	r8,r7,r8
  8060e4:	2006d77a 	srli	r3,r4,29
  8060e8:	3004d77a 	srli	r2,r6,29
  8060ec:	dc000015 	stw	r16,0(sp)
  8060f0:	501490fa 	slli	r10,r10,3
  8060f4:	2820d53a 	srli	r16,r5,20
  8060f8:	401090fa 	slli	r8,r8,3
  8060fc:	dc800215 	stw	r18,8(sp)
  806100:	dc400115 	stw	r17,4(sp)
  806104:	dfc00415 	stw	ra,16(sp)
  806108:	202290fa 	slli	r17,r4,3
  80610c:	dcc00315 	stw	r19,12(sp)
  806110:	4a41ffcc 	andi	r9,r9,2047
  806114:	0101ffc4 	movi	r4,2047
  806118:	2824d7fa 	srli	r18,r5,31
  80611c:	8401ffcc 	andi	r16,r16,2047
  806120:	50c6b03a 	or	r3,r10,r3
  806124:	380ed7fa 	srli	r7,r7,31
  806128:	408ab03a 	or	r5,r8,r2
  80612c:	300c90fa 	slli	r6,r6,3
  806130:	49009626 	beq	r9,r4,80638c <__subdf3+0x2c0>
  806134:	39c0005c 	xori	r7,r7,1
  806138:	8245c83a 	sub	r2,r16,r9
  80613c:	3c807426 	beq	r7,r18,806310 <__subdf3+0x244>
  806140:	0080af0e 	bge	zero,r2,806400 <__subdf3+0x334>
  806144:	48002a1e 	bne	r9,zero,8061f0 <__subdf3+0x124>
  806148:	2988b03a 	or	r4,r5,r6
  80614c:	20009a1e 	bne	r4,zero,8063b8 <__subdf3+0x2ec>
  806150:	888001cc 	andi	r2,r17,7
  806154:	10000726 	beq	r2,zero,806174 <__subdf3+0xa8>
  806158:	888003cc 	andi	r2,r17,15
  80615c:	01000104 	movi	r4,4
  806160:	11000426 	beq	r2,r4,806174 <__subdf3+0xa8>
  806164:	890b883a 	add	r5,r17,r4
  806168:	2c63803a 	cmpltu	r17,r5,r17
  80616c:	1c47883a 	add	r3,r3,r17
  806170:	2823883a 	mov	r17,r5
  806174:	1880202c 	andhi	r2,r3,128
  806178:	10005926 	beq	r2,zero,8062e0 <__subdf3+0x214>
  80617c:	84000044 	addi	r16,r16,1
  806180:	0081ffc4 	movi	r2,2047
  806184:	8080be26 	beq	r16,r2,806480 <__subdf3+0x3b4>
  806188:	017fe034 	movhi	r5,65408
  80618c:	297fffc4 	addi	r5,r5,-1
  806190:	1946703a 	and	r3,r3,r5
  806194:	1804977a 	slli	r2,r3,29
  806198:	1806927a 	slli	r3,r3,9
  80619c:	8822d0fa 	srli	r17,r17,3
  8061a0:	8401ffcc 	andi	r16,r16,2047
  8061a4:	180ad33a 	srli	r5,r3,12
  8061a8:	9100004c 	andi	r4,r18,1
  8061ac:	1444b03a 	or	r2,r2,r17
  8061b0:	80c1ffcc 	andi	r3,r16,2047
  8061b4:	1820953a 	slli	r16,r3,20
  8061b8:	20c03fcc 	andi	r3,r4,255
  8061bc:	180897fa 	slli	r4,r3,31
  8061c0:	00c00434 	movhi	r3,16
  8061c4:	18ffffc4 	addi	r3,r3,-1
  8061c8:	28c6703a 	and	r3,r5,r3
  8061cc:	1c06b03a 	or	r3,r3,r16
  8061d0:	1906b03a 	or	r3,r3,r4
  8061d4:	dfc00417 	ldw	ra,16(sp)
  8061d8:	dcc00317 	ldw	r19,12(sp)
  8061dc:	dc800217 	ldw	r18,8(sp)
  8061e0:	dc400117 	ldw	r17,4(sp)
  8061e4:	dc000017 	ldw	r16,0(sp)
  8061e8:	dec00504 	addi	sp,sp,20
  8061ec:	f800283a 	ret
  8061f0:	0101ffc4 	movi	r4,2047
  8061f4:	813fd626 	beq	r16,r4,806150 <__alt_mem_onchip_mem+0xff7fe150>
  8061f8:	29402034 	orhi	r5,r5,128
  8061fc:	01000e04 	movi	r4,56
  806200:	2080a316 	blt	r4,r2,806490 <__subdf3+0x3c4>
  806204:	010007c4 	movi	r4,31
  806208:	2080c616 	blt	r4,r2,806524 <__subdf3+0x458>
  80620c:	01000804 	movi	r4,32
  806210:	2089c83a 	sub	r4,r4,r2
  806214:	2910983a 	sll	r8,r5,r4
  806218:	308ed83a 	srl	r7,r6,r2
  80621c:	3108983a 	sll	r4,r6,r4
  806220:	2884d83a 	srl	r2,r5,r2
  806224:	41ccb03a 	or	r6,r8,r7
  806228:	2008c03a 	cmpne	r4,r4,zero
  80622c:	310cb03a 	or	r6,r6,r4
  806230:	898dc83a 	sub	r6,r17,r6
  806234:	89a3803a 	cmpltu	r17,r17,r6
  806238:	1887c83a 	sub	r3,r3,r2
  80623c:	1c47c83a 	sub	r3,r3,r17
  806240:	3023883a 	mov	r17,r6
  806244:	1880202c 	andhi	r2,r3,128
  806248:	10002326 	beq	r2,zero,8062d8 <__subdf3+0x20c>
  80624c:	04c02034 	movhi	r19,128
  806250:	9cffffc4 	addi	r19,r19,-1
  806254:	1ce6703a 	and	r19,r3,r19
  806258:	98007a26 	beq	r19,zero,806444 <__subdf3+0x378>
  80625c:	9809883a 	mov	r4,r19
  806260:	0806aa40 	call	806aa4 <__clzsi2>
  806264:	113ffe04 	addi	r4,r2,-8
  806268:	00c007c4 	movi	r3,31
  80626c:	19007b16 	blt	r3,r4,80645c <__subdf3+0x390>
  806270:	00800804 	movi	r2,32
  806274:	1105c83a 	sub	r2,r2,r4
  806278:	8884d83a 	srl	r2,r17,r2
  80627c:	9906983a 	sll	r3,r19,r4
  806280:	8922983a 	sll	r17,r17,r4
  806284:	10c4b03a 	or	r2,r2,r3
  806288:	24007816 	blt	r4,r16,80646c <__subdf3+0x3a0>
  80628c:	2421c83a 	sub	r16,r4,r16
  806290:	80c00044 	addi	r3,r16,1
  806294:	010007c4 	movi	r4,31
  806298:	20c09516 	blt	r4,r3,8064f0 <__subdf3+0x424>
  80629c:	01400804 	movi	r5,32
  8062a0:	28cbc83a 	sub	r5,r5,r3
  8062a4:	88c8d83a 	srl	r4,r17,r3
  8062a8:	8962983a 	sll	r17,r17,r5
  8062ac:	114a983a 	sll	r5,r2,r5
  8062b0:	10c6d83a 	srl	r3,r2,r3
  8062b4:	8804c03a 	cmpne	r2,r17,zero
  8062b8:	290ab03a 	or	r5,r5,r4
  8062bc:	28a2b03a 	or	r17,r5,r2
  8062c0:	0021883a 	mov	r16,zero
  8062c4:	003fa206 	br	806150 <__alt_mem_onchip_mem+0xff7fe150>
  8062c8:	2090b03a 	or	r8,r4,r2
  8062cc:	40018e26 	beq	r8,zero,806908 <__subdf3+0x83c>
  8062d0:	1007883a 	mov	r3,r2
  8062d4:	2023883a 	mov	r17,r4
  8062d8:	888001cc 	andi	r2,r17,7
  8062dc:	103f9e1e 	bne	r2,zero,806158 <__alt_mem_onchip_mem+0xff7fe158>
  8062e0:	1804977a 	slli	r2,r3,29
  8062e4:	8822d0fa 	srli	r17,r17,3
  8062e8:	1810d0fa 	srli	r8,r3,3
  8062ec:	9100004c 	andi	r4,r18,1
  8062f0:	1444b03a 	or	r2,r2,r17
  8062f4:	00c1ffc4 	movi	r3,2047
  8062f8:	80c02826 	beq	r16,r3,80639c <__subdf3+0x2d0>
  8062fc:	01400434 	movhi	r5,16
  806300:	297fffc4 	addi	r5,r5,-1
  806304:	80e0703a 	and	r16,r16,r3
  806308:	414a703a 	and	r5,r8,r5
  80630c:	003fa806 	br	8061b0 <__alt_mem_onchip_mem+0xff7fe1b0>
  806310:	0080630e 	bge	zero,r2,8064a0 <__subdf3+0x3d4>
  806314:	48003026 	beq	r9,zero,8063d8 <__subdf3+0x30c>
  806318:	0101ffc4 	movi	r4,2047
  80631c:	813f8c26 	beq	r16,r4,806150 <__alt_mem_onchip_mem+0xff7fe150>
  806320:	29402034 	orhi	r5,r5,128
  806324:	01000e04 	movi	r4,56
  806328:	2080a90e 	bge	r4,r2,8065d0 <__subdf3+0x504>
  80632c:	298cb03a 	or	r6,r5,r6
  806330:	3012c03a 	cmpne	r9,r6,zero
  806334:	0005883a 	mov	r2,zero
  806338:	4c53883a 	add	r9,r9,r17
  80633c:	4c63803a 	cmpltu	r17,r9,r17
  806340:	10c7883a 	add	r3,r2,r3
  806344:	88c7883a 	add	r3,r17,r3
  806348:	4823883a 	mov	r17,r9
  80634c:	1880202c 	andhi	r2,r3,128
  806350:	1000d026 	beq	r2,zero,806694 <__subdf3+0x5c8>
  806354:	84000044 	addi	r16,r16,1
  806358:	0081ffc4 	movi	r2,2047
  80635c:	8080fe26 	beq	r16,r2,806758 <__subdf3+0x68c>
  806360:	00bfe034 	movhi	r2,65408
  806364:	10bfffc4 	addi	r2,r2,-1
  806368:	1886703a 	and	r3,r3,r2
  80636c:	880ad07a 	srli	r5,r17,1
  806370:	180497fa 	slli	r2,r3,31
  806374:	8900004c 	andi	r4,r17,1
  806378:	2922b03a 	or	r17,r5,r4
  80637c:	1806d07a 	srli	r3,r3,1
  806380:	1462b03a 	or	r17,r2,r17
  806384:	3825883a 	mov	r18,r7
  806388:	003f7106 	br	806150 <__alt_mem_onchip_mem+0xff7fe150>
  80638c:	2984b03a 	or	r2,r5,r6
  806390:	103f6826 	beq	r2,zero,806134 <__alt_mem_onchip_mem+0xff7fe134>
  806394:	39c03fcc 	andi	r7,r7,255
  806398:	003f6706 	br	806138 <__alt_mem_onchip_mem+0xff7fe138>
  80639c:	4086b03a 	or	r3,r8,r2
  8063a0:	18015226 	beq	r3,zero,8068ec <__subdf3+0x820>
  8063a4:	00c00434 	movhi	r3,16
  8063a8:	41400234 	orhi	r5,r8,8
  8063ac:	18ffffc4 	addi	r3,r3,-1
  8063b0:	28ca703a 	and	r5,r5,r3
  8063b4:	003f7e06 	br	8061b0 <__alt_mem_onchip_mem+0xff7fe1b0>
  8063b8:	10bfffc4 	addi	r2,r2,-1
  8063bc:	1000491e 	bne	r2,zero,8064e4 <__subdf3+0x418>
  8063c0:	898fc83a 	sub	r7,r17,r6
  8063c4:	89e3803a 	cmpltu	r17,r17,r7
  8063c8:	1947c83a 	sub	r3,r3,r5
  8063cc:	1c47c83a 	sub	r3,r3,r17
  8063d0:	3823883a 	mov	r17,r7
  8063d4:	003f9b06 	br	806244 <__alt_mem_onchip_mem+0xff7fe244>
  8063d8:	2988b03a 	or	r4,r5,r6
  8063dc:	203f5c26 	beq	r4,zero,806150 <__alt_mem_onchip_mem+0xff7fe150>
  8063e0:	10bfffc4 	addi	r2,r2,-1
  8063e4:	1000931e 	bne	r2,zero,806634 <__subdf3+0x568>
  8063e8:	898d883a 	add	r6,r17,r6
  8063ec:	3463803a 	cmpltu	r17,r6,r17
  8063f0:	1947883a 	add	r3,r3,r5
  8063f4:	88c7883a 	add	r3,r17,r3
  8063f8:	3023883a 	mov	r17,r6
  8063fc:	003fd306 	br	80634c <__alt_mem_onchip_mem+0xff7fe34c>
  806400:	1000541e 	bne	r2,zero,806554 <__subdf3+0x488>
  806404:	80800044 	addi	r2,r16,1
  806408:	1081ffcc 	andi	r2,r2,2047
  80640c:	01000044 	movi	r4,1
  806410:	2080a20e 	bge	r4,r2,80669c <__subdf3+0x5d0>
  806414:	8989c83a 	sub	r4,r17,r6
  806418:	8905803a 	cmpltu	r2,r17,r4
  80641c:	1967c83a 	sub	r19,r3,r5
  806420:	98a7c83a 	sub	r19,r19,r2
  806424:	9880202c 	andhi	r2,r19,128
  806428:	10006326 	beq	r2,zero,8065b8 <__subdf3+0x4ec>
  80642c:	3463c83a 	sub	r17,r6,r17
  806430:	28c7c83a 	sub	r3,r5,r3
  806434:	344d803a 	cmpltu	r6,r6,r17
  806438:	19a7c83a 	sub	r19,r3,r6
  80643c:	3825883a 	mov	r18,r7
  806440:	983f861e 	bne	r19,zero,80625c <__alt_mem_onchip_mem+0xff7fe25c>
  806444:	8809883a 	mov	r4,r17
  806448:	0806aa40 	call	806aa4 <__clzsi2>
  80644c:	10800804 	addi	r2,r2,32
  806450:	113ffe04 	addi	r4,r2,-8
  806454:	00c007c4 	movi	r3,31
  806458:	193f850e 	bge	r3,r4,806270 <__alt_mem_onchip_mem+0xff7fe270>
  80645c:	10bff604 	addi	r2,r2,-40
  806460:	8884983a 	sll	r2,r17,r2
  806464:	0023883a 	mov	r17,zero
  806468:	243f880e 	bge	r4,r16,80628c <__alt_mem_onchip_mem+0xff7fe28c>
  80646c:	00ffe034 	movhi	r3,65408
  806470:	18ffffc4 	addi	r3,r3,-1
  806474:	8121c83a 	sub	r16,r16,r4
  806478:	10c6703a 	and	r3,r2,r3
  80647c:	003f3406 	br	806150 <__alt_mem_onchip_mem+0xff7fe150>
  806480:	9100004c 	andi	r4,r18,1
  806484:	000b883a 	mov	r5,zero
  806488:	0005883a 	mov	r2,zero
  80648c:	003f4806 	br	8061b0 <__alt_mem_onchip_mem+0xff7fe1b0>
  806490:	298cb03a 	or	r6,r5,r6
  806494:	300cc03a 	cmpne	r6,r6,zero
  806498:	0005883a 	mov	r2,zero
  80649c:	003f6406 	br	806230 <__alt_mem_onchip_mem+0xff7fe230>
  8064a0:	10009a1e 	bne	r2,zero,80670c <__subdf3+0x640>
  8064a4:	82400044 	addi	r9,r16,1
  8064a8:	4881ffcc 	andi	r2,r9,2047
  8064ac:	02800044 	movi	r10,1
  8064b0:	5080670e 	bge	r10,r2,806650 <__subdf3+0x584>
  8064b4:	0081ffc4 	movi	r2,2047
  8064b8:	4880af26 	beq	r9,r2,806778 <__subdf3+0x6ac>
  8064bc:	898d883a 	add	r6,r17,r6
  8064c0:	1945883a 	add	r2,r3,r5
  8064c4:	3447803a 	cmpltu	r3,r6,r17
  8064c8:	1887883a 	add	r3,r3,r2
  8064cc:	182297fa 	slli	r17,r3,31
  8064d0:	300cd07a 	srli	r6,r6,1
  8064d4:	1806d07a 	srli	r3,r3,1
  8064d8:	4821883a 	mov	r16,r9
  8064dc:	89a2b03a 	or	r17,r17,r6
  8064e0:	003f1b06 	br	806150 <__alt_mem_onchip_mem+0xff7fe150>
  8064e4:	0101ffc4 	movi	r4,2047
  8064e8:	813f441e 	bne	r16,r4,8061fc <__alt_mem_onchip_mem+0xff7fe1fc>
  8064ec:	003f1806 	br	806150 <__alt_mem_onchip_mem+0xff7fe150>
  8064f0:	843ff844 	addi	r16,r16,-31
  8064f4:	01400804 	movi	r5,32
  8064f8:	1408d83a 	srl	r4,r2,r16
  8064fc:	19405026 	beq	r3,r5,806640 <__subdf3+0x574>
  806500:	01401004 	movi	r5,64
  806504:	28c7c83a 	sub	r3,r5,r3
  806508:	10c4983a 	sll	r2,r2,r3
  80650c:	88a2b03a 	or	r17,r17,r2
  806510:	8822c03a 	cmpne	r17,r17,zero
  806514:	2462b03a 	or	r17,r4,r17
  806518:	0007883a 	mov	r3,zero
  80651c:	0021883a 	mov	r16,zero
  806520:	003f6d06 	br	8062d8 <__alt_mem_onchip_mem+0xff7fe2d8>
  806524:	11fff804 	addi	r7,r2,-32
  806528:	01000804 	movi	r4,32
  80652c:	29ced83a 	srl	r7,r5,r7
  806530:	11004526 	beq	r2,r4,806648 <__subdf3+0x57c>
  806534:	01001004 	movi	r4,64
  806538:	2089c83a 	sub	r4,r4,r2
  80653c:	2904983a 	sll	r2,r5,r4
  806540:	118cb03a 	or	r6,r2,r6
  806544:	300cc03a 	cmpne	r6,r6,zero
  806548:	398cb03a 	or	r6,r7,r6
  80654c:	0005883a 	mov	r2,zero
  806550:	003f3706 	br	806230 <__alt_mem_onchip_mem+0xff7fe230>
  806554:	80002a26 	beq	r16,zero,806600 <__subdf3+0x534>
  806558:	0101ffc4 	movi	r4,2047
  80655c:	49006626 	beq	r9,r4,8066f8 <__subdf3+0x62c>
  806560:	0085c83a 	sub	r2,zero,r2
  806564:	18c02034 	orhi	r3,r3,128
  806568:	01000e04 	movi	r4,56
  80656c:	20807e16 	blt	r4,r2,806768 <__subdf3+0x69c>
  806570:	010007c4 	movi	r4,31
  806574:	2080e716 	blt	r4,r2,806914 <__subdf3+0x848>
  806578:	01000804 	movi	r4,32
  80657c:	2089c83a 	sub	r4,r4,r2
  806580:	1914983a 	sll	r10,r3,r4
  806584:	8890d83a 	srl	r8,r17,r2
  806588:	8908983a 	sll	r4,r17,r4
  80658c:	1884d83a 	srl	r2,r3,r2
  806590:	5222b03a 	or	r17,r10,r8
  806594:	2006c03a 	cmpne	r3,r4,zero
  806598:	88e2b03a 	or	r17,r17,r3
  80659c:	3463c83a 	sub	r17,r6,r17
  8065a0:	2885c83a 	sub	r2,r5,r2
  8065a4:	344d803a 	cmpltu	r6,r6,r17
  8065a8:	1187c83a 	sub	r3,r2,r6
  8065ac:	4821883a 	mov	r16,r9
  8065b0:	3825883a 	mov	r18,r7
  8065b4:	003f2306 	br	806244 <__alt_mem_onchip_mem+0xff7fe244>
  8065b8:	24d0b03a 	or	r8,r4,r19
  8065bc:	40001b1e 	bne	r8,zero,80662c <__subdf3+0x560>
  8065c0:	0005883a 	mov	r2,zero
  8065c4:	0009883a 	mov	r4,zero
  8065c8:	0021883a 	mov	r16,zero
  8065cc:	003f4906 	br	8062f4 <__alt_mem_onchip_mem+0xff7fe2f4>
  8065d0:	010007c4 	movi	r4,31
  8065d4:	20803a16 	blt	r4,r2,8066c0 <__subdf3+0x5f4>
  8065d8:	01000804 	movi	r4,32
  8065dc:	2089c83a 	sub	r4,r4,r2
  8065e0:	2912983a 	sll	r9,r5,r4
  8065e4:	3090d83a 	srl	r8,r6,r2
  8065e8:	3108983a 	sll	r4,r6,r4
  8065ec:	2884d83a 	srl	r2,r5,r2
  8065f0:	4a12b03a 	or	r9,r9,r8
  8065f4:	2008c03a 	cmpne	r4,r4,zero
  8065f8:	4912b03a 	or	r9,r9,r4
  8065fc:	003f4e06 	br	806338 <__alt_mem_onchip_mem+0xff7fe338>
  806600:	1c48b03a 	or	r4,r3,r17
  806604:	20003c26 	beq	r4,zero,8066f8 <__subdf3+0x62c>
  806608:	0084303a 	nor	r2,zero,r2
  80660c:	1000381e 	bne	r2,zero,8066f0 <__subdf3+0x624>
  806610:	3463c83a 	sub	r17,r6,r17
  806614:	28c5c83a 	sub	r2,r5,r3
  806618:	344d803a 	cmpltu	r6,r6,r17
  80661c:	1187c83a 	sub	r3,r2,r6
  806620:	4821883a 	mov	r16,r9
  806624:	3825883a 	mov	r18,r7
  806628:	003f0606 	br	806244 <__alt_mem_onchip_mem+0xff7fe244>
  80662c:	2023883a 	mov	r17,r4
  806630:	003f0906 	br	806258 <__alt_mem_onchip_mem+0xff7fe258>
  806634:	0101ffc4 	movi	r4,2047
  806638:	813f3a1e 	bne	r16,r4,806324 <__alt_mem_onchip_mem+0xff7fe324>
  80663c:	003ec406 	br	806150 <__alt_mem_onchip_mem+0xff7fe150>
  806640:	0005883a 	mov	r2,zero
  806644:	003fb106 	br	80650c <__alt_mem_onchip_mem+0xff7fe50c>
  806648:	0005883a 	mov	r2,zero
  80664c:	003fbc06 	br	806540 <__alt_mem_onchip_mem+0xff7fe540>
  806650:	1c44b03a 	or	r2,r3,r17
  806654:	80008e1e 	bne	r16,zero,806890 <__subdf3+0x7c4>
  806658:	1000c826 	beq	r2,zero,80697c <__subdf3+0x8b0>
  80665c:	2984b03a 	or	r2,r5,r6
  806660:	103ebb26 	beq	r2,zero,806150 <__alt_mem_onchip_mem+0xff7fe150>
  806664:	8989883a 	add	r4,r17,r6
  806668:	1945883a 	add	r2,r3,r5
  80666c:	2447803a 	cmpltu	r3,r4,r17
  806670:	1887883a 	add	r3,r3,r2
  806674:	1880202c 	andhi	r2,r3,128
  806678:	2023883a 	mov	r17,r4
  80667c:	103f1626 	beq	r2,zero,8062d8 <__alt_mem_onchip_mem+0xff7fe2d8>
  806680:	00bfe034 	movhi	r2,65408
  806684:	10bfffc4 	addi	r2,r2,-1
  806688:	5021883a 	mov	r16,r10
  80668c:	1886703a 	and	r3,r3,r2
  806690:	003eaf06 	br	806150 <__alt_mem_onchip_mem+0xff7fe150>
  806694:	3825883a 	mov	r18,r7
  806698:	003f0f06 	br	8062d8 <__alt_mem_onchip_mem+0xff7fe2d8>
  80669c:	1c44b03a 	or	r2,r3,r17
  8066a0:	8000251e 	bne	r16,zero,806738 <__subdf3+0x66c>
  8066a4:	1000661e 	bne	r2,zero,806840 <__subdf3+0x774>
  8066a8:	2990b03a 	or	r8,r5,r6
  8066ac:	40009626 	beq	r8,zero,806908 <__subdf3+0x83c>
  8066b0:	2807883a 	mov	r3,r5
  8066b4:	3023883a 	mov	r17,r6
  8066b8:	3825883a 	mov	r18,r7
  8066bc:	003ea406 	br	806150 <__alt_mem_onchip_mem+0xff7fe150>
  8066c0:	127ff804 	addi	r9,r2,-32
  8066c4:	01000804 	movi	r4,32
  8066c8:	2a52d83a 	srl	r9,r5,r9
  8066cc:	11008c26 	beq	r2,r4,806900 <__subdf3+0x834>
  8066d0:	01001004 	movi	r4,64
  8066d4:	2085c83a 	sub	r2,r4,r2
  8066d8:	2884983a 	sll	r2,r5,r2
  8066dc:	118cb03a 	or	r6,r2,r6
  8066e0:	300cc03a 	cmpne	r6,r6,zero
  8066e4:	4992b03a 	or	r9,r9,r6
  8066e8:	0005883a 	mov	r2,zero
  8066ec:	003f1206 	br	806338 <__alt_mem_onchip_mem+0xff7fe338>
  8066f0:	0101ffc4 	movi	r4,2047
  8066f4:	493f9c1e 	bne	r9,r4,806568 <__alt_mem_onchip_mem+0xff7fe568>
  8066f8:	2807883a 	mov	r3,r5
  8066fc:	3023883a 	mov	r17,r6
  806700:	4821883a 	mov	r16,r9
  806704:	3825883a 	mov	r18,r7
  806708:	003e9106 	br	806150 <__alt_mem_onchip_mem+0xff7fe150>
  80670c:	80001f1e 	bne	r16,zero,80678c <__subdf3+0x6c0>
  806710:	1c48b03a 	or	r4,r3,r17
  806714:	20005a26 	beq	r4,zero,806880 <__subdf3+0x7b4>
  806718:	0084303a 	nor	r2,zero,r2
  80671c:	1000561e 	bne	r2,zero,806878 <__subdf3+0x7ac>
  806720:	89a3883a 	add	r17,r17,r6
  806724:	1945883a 	add	r2,r3,r5
  806728:	898d803a 	cmpltu	r6,r17,r6
  80672c:	3087883a 	add	r3,r6,r2
  806730:	4821883a 	mov	r16,r9
  806734:	003f0506 	br	80634c <__alt_mem_onchip_mem+0xff7fe34c>
  806738:	10002b1e 	bne	r2,zero,8067e8 <__subdf3+0x71c>
  80673c:	2984b03a 	or	r2,r5,r6
  806740:	10008026 	beq	r2,zero,806944 <__subdf3+0x878>
  806744:	2807883a 	mov	r3,r5
  806748:	3023883a 	mov	r17,r6
  80674c:	3825883a 	mov	r18,r7
  806750:	0401ffc4 	movi	r16,2047
  806754:	003e7e06 	br	806150 <__alt_mem_onchip_mem+0xff7fe150>
  806758:	3809883a 	mov	r4,r7
  80675c:	0011883a 	mov	r8,zero
  806760:	0005883a 	mov	r2,zero
  806764:	003ee306 	br	8062f4 <__alt_mem_onchip_mem+0xff7fe2f4>
  806768:	1c62b03a 	or	r17,r3,r17
  80676c:	8822c03a 	cmpne	r17,r17,zero
  806770:	0005883a 	mov	r2,zero
  806774:	003f8906 	br	80659c <__alt_mem_onchip_mem+0xff7fe59c>
  806778:	3809883a 	mov	r4,r7
  80677c:	4821883a 	mov	r16,r9
  806780:	0011883a 	mov	r8,zero
  806784:	0005883a 	mov	r2,zero
  806788:	003eda06 	br	8062f4 <__alt_mem_onchip_mem+0xff7fe2f4>
  80678c:	0101ffc4 	movi	r4,2047
  806790:	49003b26 	beq	r9,r4,806880 <__subdf3+0x7b4>
  806794:	0085c83a 	sub	r2,zero,r2
  806798:	18c02034 	orhi	r3,r3,128
  80679c:	01000e04 	movi	r4,56
  8067a0:	20806e16 	blt	r4,r2,80695c <__subdf3+0x890>
  8067a4:	010007c4 	movi	r4,31
  8067a8:	20807716 	blt	r4,r2,806988 <__subdf3+0x8bc>
  8067ac:	01000804 	movi	r4,32
  8067b0:	2089c83a 	sub	r4,r4,r2
  8067b4:	1914983a 	sll	r10,r3,r4
  8067b8:	8890d83a 	srl	r8,r17,r2
  8067bc:	8908983a 	sll	r4,r17,r4
  8067c0:	1884d83a 	srl	r2,r3,r2
  8067c4:	5222b03a 	or	r17,r10,r8
  8067c8:	2006c03a 	cmpne	r3,r4,zero
  8067cc:	88e2b03a 	or	r17,r17,r3
  8067d0:	89a3883a 	add	r17,r17,r6
  8067d4:	1145883a 	add	r2,r2,r5
  8067d8:	898d803a 	cmpltu	r6,r17,r6
  8067dc:	3087883a 	add	r3,r6,r2
  8067e0:	4821883a 	mov	r16,r9
  8067e4:	003ed906 	br	80634c <__alt_mem_onchip_mem+0xff7fe34c>
  8067e8:	2984b03a 	or	r2,r5,r6
  8067ec:	10004226 	beq	r2,zero,8068f8 <__subdf3+0x82c>
  8067f0:	1808d0fa 	srli	r4,r3,3
  8067f4:	8822d0fa 	srli	r17,r17,3
  8067f8:	1806977a 	slli	r3,r3,29
  8067fc:	2080022c 	andhi	r2,r4,8
  806800:	1c62b03a 	or	r17,r3,r17
  806804:	10000826 	beq	r2,zero,806828 <__subdf3+0x75c>
  806808:	2812d0fa 	srli	r9,r5,3
  80680c:	4880022c 	andhi	r2,r9,8
  806810:	1000051e 	bne	r2,zero,806828 <__subdf3+0x75c>
  806814:	300cd0fa 	srli	r6,r6,3
  806818:	2804977a 	slli	r2,r5,29
  80681c:	4809883a 	mov	r4,r9
  806820:	3825883a 	mov	r18,r7
  806824:	11a2b03a 	or	r17,r2,r6
  806828:	8806d77a 	srli	r3,r17,29
  80682c:	200890fa 	slli	r4,r4,3
  806830:	882290fa 	slli	r17,r17,3
  806834:	0401ffc4 	movi	r16,2047
  806838:	1906b03a 	or	r3,r3,r4
  80683c:	003e4406 	br	806150 <__alt_mem_onchip_mem+0xff7fe150>
  806840:	2984b03a 	or	r2,r5,r6
  806844:	103e4226 	beq	r2,zero,806150 <__alt_mem_onchip_mem+0xff7fe150>
  806848:	8989c83a 	sub	r4,r17,r6
  80684c:	8911803a 	cmpltu	r8,r17,r4
  806850:	1945c83a 	sub	r2,r3,r5
  806854:	1205c83a 	sub	r2,r2,r8
  806858:	1200202c 	andhi	r8,r2,128
  80685c:	403e9a26 	beq	r8,zero,8062c8 <__alt_mem_onchip_mem+0xff7fe2c8>
  806860:	3463c83a 	sub	r17,r6,r17
  806864:	28c5c83a 	sub	r2,r5,r3
  806868:	344d803a 	cmpltu	r6,r6,r17
  80686c:	1187c83a 	sub	r3,r2,r6
  806870:	3825883a 	mov	r18,r7
  806874:	003e3606 	br	806150 <__alt_mem_onchip_mem+0xff7fe150>
  806878:	0101ffc4 	movi	r4,2047
  80687c:	493fc71e 	bne	r9,r4,80679c <__alt_mem_onchip_mem+0xff7fe79c>
  806880:	2807883a 	mov	r3,r5
  806884:	3023883a 	mov	r17,r6
  806888:	4821883a 	mov	r16,r9
  80688c:	003e3006 	br	806150 <__alt_mem_onchip_mem+0xff7fe150>
  806890:	10003626 	beq	r2,zero,80696c <__subdf3+0x8a0>
  806894:	2984b03a 	or	r2,r5,r6
  806898:	10001726 	beq	r2,zero,8068f8 <__subdf3+0x82c>
  80689c:	1808d0fa 	srli	r4,r3,3
  8068a0:	8822d0fa 	srli	r17,r17,3
  8068a4:	1806977a 	slli	r3,r3,29
  8068a8:	2080022c 	andhi	r2,r4,8
  8068ac:	1c62b03a 	or	r17,r3,r17
  8068b0:	10000726 	beq	r2,zero,8068d0 <__subdf3+0x804>
  8068b4:	2812d0fa 	srli	r9,r5,3
  8068b8:	4880022c 	andhi	r2,r9,8
  8068bc:	1000041e 	bne	r2,zero,8068d0 <__subdf3+0x804>
  8068c0:	300cd0fa 	srli	r6,r6,3
  8068c4:	2804977a 	slli	r2,r5,29
  8068c8:	4809883a 	mov	r4,r9
  8068cc:	11a2b03a 	or	r17,r2,r6
  8068d0:	8806d77a 	srli	r3,r17,29
  8068d4:	200890fa 	slli	r4,r4,3
  8068d8:	882290fa 	slli	r17,r17,3
  8068dc:	3825883a 	mov	r18,r7
  8068e0:	1906b03a 	or	r3,r3,r4
  8068e4:	0401ffc4 	movi	r16,2047
  8068e8:	003e1906 	br	806150 <__alt_mem_onchip_mem+0xff7fe150>
  8068ec:	000b883a 	mov	r5,zero
  8068f0:	0005883a 	mov	r2,zero
  8068f4:	003e2e06 	br	8061b0 <__alt_mem_onchip_mem+0xff7fe1b0>
  8068f8:	0401ffc4 	movi	r16,2047
  8068fc:	003e1406 	br	806150 <__alt_mem_onchip_mem+0xff7fe150>
  806900:	0005883a 	mov	r2,zero
  806904:	003f7506 	br	8066dc <__alt_mem_onchip_mem+0xff7fe6dc>
  806908:	0005883a 	mov	r2,zero
  80690c:	0009883a 	mov	r4,zero
  806910:	003e7806 	br	8062f4 <__alt_mem_onchip_mem+0xff7fe2f4>
  806914:	123ff804 	addi	r8,r2,-32
  806918:	01000804 	movi	r4,32
  80691c:	1a10d83a 	srl	r8,r3,r8
  806920:	11002526 	beq	r2,r4,8069b8 <__subdf3+0x8ec>
  806924:	01001004 	movi	r4,64
  806928:	2085c83a 	sub	r2,r4,r2
  80692c:	1884983a 	sll	r2,r3,r2
  806930:	1444b03a 	or	r2,r2,r17
  806934:	1004c03a 	cmpne	r2,r2,zero
  806938:	40a2b03a 	or	r17,r8,r2
  80693c:	0005883a 	mov	r2,zero
  806940:	003f1606 	br	80659c <__alt_mem_onchip_mem+0xff7fe59c>
  806944:	02000434 	movhi	r8,16
  806948:	0009883a 	mov	r4,zero
  80694c:	423fffc4 	addi	r8,r8,-1
  806950:	00bfffc4 	movi	r2,-1
  806954:	0401ffc4 	movi	r16,2047
  806958:	003e6606 	br	8062f4 <__alt_mem_onchip_mem+0xff7fe2f4>
  80695c:	1c62b03a 	or	r17,r3,r17
  806960:	8822c03a 	cmpne	r17,r17,zero
  806964:	0005883a 	mov	r2,zero
  806968:	003f9906 	br	8067d0 <__alt_mem_onchip_mem+0xff7fe7d0>
  80696c:	2807883a 	mov	r3,r5
  806970:	3023883a 	mov	r17,r6
  806974:	0401ffc4 	movi	r16,2047
  806978:	003df506 	br	806150 <__alt_mem_onchip_mem+0xff7fe150>
  80697c:	2807883a 	mov	r3,r5
  806980:	3023883a 	mov	r17,r6
  806984:	003df206 	br	806150 <__alt_mem_onchip_mem+0xff7fe150>
  806988:	123ff804 	addi	r8,r2,-32
  80698c:	01000804 	movi	r4,32
  806990:	1a10d83a 	srl	r8,r3,r8
  806994:	11000a26 	beq	r2,r4,8069c0 <__subdf3+0x8f4>
  806998:	01001004 	movi	r4,64
  80699c:	2085c83a 	sub	r2,r4,r2
  8069a0:	1884983a 	sll	r2,r3,r2
  8069a4:	1444b03a 	or	r2,r2,r17
  8069a8:	1004c03a 	cmpne	r2,r2,zero
  8069ac:	40a2b03a 	or	r17,r8,r2
  8069b0:	0005883a 	mov	r2,zero
  8069b4:	003f8606 	br	8067d0 <__alt_mem_onchip_mem+0xff7fe7d0>
  8069b8:	0005883a 	mov	r2,zero
  8069bc:	003fdc06 	br	806930 <__alt_mem_onchip_mem+0xff7fe930>
  8069c0:	0005883a 	mov	r2,zero
  8069c4:	003ff706 	br	8069a4 <__alt_mem_onchip_mem+0xff7fe9a4>

008069c8 <__floatsidf>:
  8069c8:	defffd04 	addi	sp,sp,-12
  8069cc:	dfc00215 	stw	ra,8(sp)
  8069d0:	dc400115 	stw	r17,4(sp)
  8069d4:	dc000015 	stw	r16,0(sp)
  8069d8:	20002b26 	beq	r4,zero,806a88 <__floatsidf+0xc0>
  8069dc:	2023883a 	mov	r17,r4
  8069e0:	2020d7fa 	srli	r16,r4,31
  8069e4:	20002d16 	blt	r4,zero,806a9c <__floatsidf+0xd4>
  8069e8:	8809883a 	mov	r4,r17
  8069ec:	0806aa40 	call	806aa4 <__clzsi2>
  8069f0:	01410784 	movi	r5,1054
  8069f4:	288bc83a 	sub	r5,r5,r2
  8069f8:	01010cc4 	movi	r4,1075
  8069fc:	2149c83a 	sub	r4,r4,r5
  806a00:	00c007c4 	movi	r3,31
  806a04:	1900160e 	bge	r3,r4,806a60 <__floatsidf+0x98>
  806a08:	00c104c4 	movi	r3,1043
  806a0c:	1947c83a 	sub	r3,r3,r5
  806a10:	88c6983a 	sll	r3,r17,r3
  806a14:	00800434 	movhi	r2,16
  806a18:	10bfffc4 	addi	r2,r2,-1
  806a1c:	1886703a 	and	r3,r3,r2
  806a20:	2941ffcc 	andi	r5,r5,2047
  806a24:	800d883a 	mov	r6,r16
  806a28:	0005883a 	mov	r2,zero
  806a2c:	280a953a 	slli	r5,r5,20
  806a30:	31803fcc 	andi	r6,r6,255
  806a34:	01000434 	movhi	r4,16
  806a38:	300c97fa 	slli	r6,r6,31
  806a3c:	213fffc4 	addi	r4,r4,-1
  806a40:	1906703a 	and	r3,r3,r4
  806a44:	1946b03a 	or	r3,r3,r5
  806a48:	1986b03a 	or	r3,r3,r6
  806a4c:	dfc00217 	ldw	ra,8(sp)
  806a50:	dc400117 	ldw	r17,4(sp)
  806a54:	dc000017 	ldw	r16,0(sp)
  806a58:	dec00304 	addi	sp,sp,12
  806a5c:	f800283a 	ret
  806a60:	00c002c4 	movi	r3,11
  806a64:	1887c83a 	sub	r3,r3,r2
  806a68:	88c6d83a 	srl	r3,r17,r3
  806a6c:	8904983a 	sll	r2,r17,r4
  806a70:	01000434 	movhi	r4,16
  806a74:	213fffc4 	addi	r4,r4,-1
  806a78:	2941ffcc 	andi	r5,r5,2047
  806a7c:	1906703a 	and	r3,r3,r4
  806a80:	800d883a 	mov	r6,r16
  806a84:	003fe906 	br	806a2c <__alt_mem_onchip_mem+0xff7fea2c>
  806a88:	000d883a 	mov	r6,zero
  806a8c:	000b883a 	mov	r5,zero
  806a90:	0007883a 	mov	r3,zero
  806a94:	0005883a 	mov	r2,zero
  806a98:	003fe406 	br	806a2c <__alt_mem_onchip_mem+0xff7fea2c>
  806a9c:	0123c83a 	sub	r17,zero,r4
  806aa0:	003fd106 	br	8069e8 <__alt_mem_onchip_mem+0xff7fe9e8>

00806aa4 <__clzsi2>:
  806aa4:	00bfffd4 	movui	r2,65535
  806aa8:	11000536 	bltu	r2,r4,806ac0 <__clzsi2+0x1c>
  806aac:	00803fc4 	movi	r2,255
  806ab0:	11000f36 	bltu	r2,r4,806af0 <__clzsi2+0x4c>
  806ab4:	00800804 	movi	r2,32
  806ab8:	0007883a 	mov	r3,zero
  806abc:	00000506 	br	806ad4 <__clzsi2+0x30>
  806ac0:	00804034 	movhi	r2,256
  806ac4:	10bfffc4 	addi	r2,r2,-1
  806ac8:	11000c2e 	bgeu	r2,r4,806afc <__clzsi2+0x58>
  806acc:	00800204 	movi	r2,8
  806ad0:	00c00604 	movi	r3,24
  806ad4:	20c8d83a 	srl	r4,r4,r3
  806ad8:	00c02074 	movhi	r3,129
  806adc:	18db6084 	addi	r3,r3,28034
  806ae0:	1909883a 	add	r4,r3,r4
  806ae4:	20c00003 	ldbu	r3,0(r4)
  806ae8:	10c5c83a 	sub	r2,r2,r3
  806aec:	f800283a 	ret
  806af0:	00800604 	movi	r2,24
  806af4:	00c00204 	movi	r3,8
  806af8:	003ff606 	br	806ad4 <__alt_mem_onchip_mem+0xff7fead4>
  806afc:	00800404 	movi	r2,16
  806b00:	1007883a 	mov	r3,r2
  806b04:	003ff306 	br	806ad4 <__alt_mem_onchip_mem+0xff7fead4>

00806b08 <_fclose_r>:
  806b08:	28003926 	beq	r5,zero,806bf0 <_fclose_r+0xe8>
  806b0c:	defffc04 	addi	sp,sp,-16
  806b10:	dc400115 	stw	r17,4(sp)
  806b14:	dc000015 	stw	r16,0(sp)
  806b18:	dfc00315 	stw	ra,12(sp)
  806b1c:	dc800215 	stw	r18,8(sp)
  806b20:	2023883a 	mov	r17,r4
  806b24:	2821883a 	mov	r16,r5
  806b28:	20000226 	beq	r4,zero,806b34 <_fclose_r+0x2c>
  806b2c:	20800e17 	ldw	r2,56(r4)
  806b30:	10002726 	beq	r2,zero,806bd0 <_fclose_r+0xc8>
  806b34:	8080030f 	ldh	r2,12(r16)
  806b38:	1000071e 	bne	r2,zero,806b58 <_fclose_r+0x50>
  806b3c:	0005883a 	mov	r2,zero
  806b40:	dfc00317 	ldw	ra,12(sp)
  806b44:	dc800217 	ldw	r18,8(sp)
  806b48:	dc400117 	ldw	r17,4(sp)
  806b4c:	dc000017 	ldw	r16,0(sp)
  806b50:	dec00404 	addi	sp,sp,16
  806b54:	f800283a 	ret
  806b58:	800b883a 	mov	r5,r16
  806b5c:	8809883a 	mov	r4,r17
  806b60:	0806c0c0 	call	806c0c <__sflush_r>
  806b64:	1025883a 	mov	r18,r2
  806b68:	80800b17 	ldw	r2,44(r16)
  806b6c:	10000426 	beq	r2,zero,806b80 <_fclose_r+0x78>
  806b70:	81400717 	ldw	r5,28(r16)
  806b74:	8809883a 	mov	r4,r17
  806b78:	103ee83a 	callr	r2
  806b7c:	10001616 	blt	r2,zero,806bd8 <_fclose_r+0xd0>
  806b80:	8080030b 	ldhu	r2,12(r16)
  806b84:	1080200c 	andi	r2,r2,128
  806b88:	1000151e 	bne	r2,zero,806be0 <_fclose_r+0xd8>
  806b8c:	81400c17 	ldw	r5,48(r16)
  806b90:	28000526 	beq	r5,zero,806ba8 <_fclose_r+0xa0>
  806b94:	80801004 	addi	r2,r16,64
  806b98:	28800226 	beq	r5,r2,806ba4 <_fclose_r+0x9c>
  806b9c:	8809883a 	mov	r4,r17
  806ba0:	08075700 	call	807570 <_free_r>
  806ba4:	80000c15 	stw	zero,48(r16)
  806ba8:	81401117 	ldw	r5,68(r16)
  806bac:	28000326 	beq	r5,zero,806bbc <_fclose_r+0xb4>
  806bb0:	8809883a 	mov	r4,r17
  806bb4:	08075700 	call	807570 <_free_r>
  806bb8:	80001115 	stw	zero,68(r16)
  806bbc:	08072140 	call	807214 <__sfp_lock_acquire>
  806bc0:	8000030d 	sth	zero,12(r16)
  806bc4:	08072180 	call	807218 <__sfp_lock_release>
  806bc8:	9005883a 	mov	r2,r18
  806bcc:	003fdc06 	br	806b40 <__alt_mem_onchip_mem+0xff7feb40>
  806bd0:	08072040 	call	807204 <__sinit>
  806bd4:	003fd706 	br	806b34 <__alt_mem_onchip_mem+0xff7feb34>
  806bd8:	04bfffc4 	movi	r18,-1
  806bdc:	003fe806 	br	806b80 <__alt_mem_onchip_mem+0xff7feb80>
  806be0:	81400417 	ldw	r5,16(r16)
  806be4:	8809883a 	mov	r4,r17
  806be8:	08075700 	call	807570 <_free_r>
  806bec:	003fe706 	br	806b8c <__alt_mem_onchip_mem+0xff7feb8c>
  806bf0:	0005883a 	mov	r2,zero
  806bf4:	f800283a 	ret

00806bf8 <fclose>:
  806bf8:	008020b4 	movhi	r2,130
  806bfc:	10a3ea04 	addi	r2,r2,-28760
  806c00:	200b883a 	mov	r5,r4
  806c04:	11000017 	ldw	r4,0(r2)
  806c08:	0806b081 	jmpi	806b08 <_fclose_r>

00806c0c <__sflush_r>:
  806c0c:	2880030b 	ldhu	r2,12(r5)
  806c10:	defffb04 	addi	sp,sp,-20
  806c14:	dcc00315 	stw	r19,12(sp)
  806c18:	dc400115 	stw	r17,4(sp)
  806c1c:	dfc00415 	stw	ra,16(sp)
  806c20:	dc800215 	stw	r18,8(sp)
  806c24:	dc000015 	stw	r16,0(sp)
  806c28:	10c0020c 	andi	r3,r2,8
  806c2c:	2823883a 	mov	r17,r5
  806c30:	2027883a 	mov	r19,r4
  806c34:	1800311e 	bne	r3,zero,806cfc <__sflush_r+0xf0>
  806c38:	28c00117 	ldw	r3,4(r5)
  806c3c:	10820014 	ori	r2,r2,2048
  806c40:	2880030d 	sth	r2,12(r5)
  806c44:	00c04b0e 	bge	zero,r3,806d74 <__sflush_r+0x168>
  806c48:	8a000a17 	ldw	r8,40(r17)
  806c4c:	40002326 	beq	r8,zero,806cdc <__sflush_r+0xd0>
  806c50:	9c000017 	ldw	r16,0(r19)
  806c54:	10c4000c 	andi	r3,r2,4096
  806c58:	98000015 	stw	zero,0(r19)
  806c5c:	18004826 	beq	r3,zero,806d80 <__sflush_r+0x174>
  806c60:	89801417 	ldw	r6,80(r17)
  806c64:	10c0010c 	andi	r3,r2,4
  806c68:	18000626 	beq	r3,zero,806c84 <__sflush_r+0x78>
  806c6c:	88c00117 	ldw	r3,4(r17)
  806c70:	88800c17 	ldw	r2,48(r17)
  806c74:	30cdc83a 	sub	r6,r6,r3
  806c78:	10000226 	beq	r2,zero,806c84 <__sflush_r+0x78>
  806c7c:	88800f17 	ldw	r2,60(r17)
  806c80:	308dc83a 	sub	r6,r6,r2
  806c84:	89400717 	ldw	r5,28(r17)
  806c88:	000f883a 	mov	r7,zero
  806c8c:	9809883a 	mov	r4,r19
  806c90:	403ee83a 	callr	r8
  806c94:	00ffffc4 	movi	r3,-1
  806c98:	10c04426 	beq	r2,r3,806dac <__sflush_r+0x1a0>
  806c9c:	88c0030b 	ldhu	r3,12(r17)
  806ca0:	89000417 	ldw	r4,16(r17)
  806ca4:	88000115 	stw	zero,4(r17)
  806ca8:	197dffcc 	andi	r5,r3,63487
  806cac:	8940030d 	sth	r5,12(r17)
  806cb0:	89000015 	stw	r4,0(r17)
  806cb4:	18c4000c 	andi	r3,r3,4096
  806cb8:	18002c1e 	bne	r3,zero,806d6c <__sflush_r+0x160>
  806cbc:	89400c17 	ldw	r5,48(r17)
  806cc0:	9c000015 	stw	r16,0(r19)
  806cc4:	28000526 	beq	r5,zero,806cdc <__sflush_r+0xd0>
  806cc8:	88801004 	addi	r2,r17,64
  806ccc:	28800226 	beq	r5,r2,806cd8 <__sflush_r+0xcc>
  806cd0:	9809883a 	mov	r4,r19
  806cd4:	08075700 	call	807570 <_free_r>
  806cd8:	88000c15 	stw	zero,48(r17)
  806cdc:	0005883a 	mov	r2,zero
  806ce0:	dfc00417 	ldw	ra,16(sp)
  806ce4:	dcc00317 	ldw	r19,12(sp)
  806ce8:	dc800217 	ldw	r18,8(sp)
  806cec:	dc400117 	ldw	r17,4(sp)
  806cf0:	dc000017 	ldw	r16,0(sp)
  806cf4:	dec00504 	addi	sp,sp,20
  806cf8:	f800283a 	ret
  806cfc:	2c800417 	ldw	r18,16(r5)
  806d00:	903ff626 	beq	r18,zero,806cdc <__alt_mem_onchip_mem+0xff7fecdc>
  806d04:	2c000017 	ldw	r16,0(r5)
  806d08:	108000cc 	andi	r2,r2,3
  806d0c:	2c800015 	stw	r18,0(r5)
  806d10:	84a1c83a 	sub	r16,r16,r18
  806d14:	1000131e 	bne	r2,zero,806d64 <__sflush_r+0x158>
  806d18:	28800517 	ldw	r2,20(r5)
  806d1c:	88800215 	stw	r2,8(r17)
  806d20:	04000316 	blt	zero,r16,806d30 <__sflush_r+0x124>
  806d24:	003fed06 	br	806cdc <__alt_mem_onchip_mem+0xff7fecdc>
  806d28:	90a5883a 	add	r18,r18,r2
  806d2c:	043feb0e 	bge	zero,r16,806cdc <__alt_mem_onchip_mem+0xff7fecdc>
  806d30:	88800917 	ldw	r2,36(r17)
  806d34:	89400717 	ldw	r5,28(r17)
  806d38:	800f883a 	mov	r7,r16
  806d3c:	900d883a 	mov	r6,r18
  806d40:	9809883a 	mov	r4,r19
  806d44:	103ee83a 	callr	r2
  806d48:	80a1c83a 	sub	r16,r16,r2
  806d4c:	00bff616 	blt	zero,r2,806d28 <__alt_mem_onchip_mem+0xff7fed28>
  806d50:	88c0030b 	ldhu	r3,12(r17)
  806d54:	00bfffc4 	movi	r2,-1
  806d58:	18c01014 	ori	r3,r3,64
  806d5c:	88c0030d 	sth	r3,12(r17)
  806d60:	003fdf06 	br	806ce0 <__alt_mem_onchip_mem+0xff7fece0>
  806d64:	0005883a 	mov	r2,zero
  806d68:	003fec06 	br	806d1c <__alt_mem_onchip_mem+0xff7fed1c>
  806d6c:	88801415 	stw	r2,80(r17)
  806d70:	003fd206 	br	806cbc <__alt_mem_onchip_mem+0xff7fecbc>
  806d74:	28c00f17 	ldw	r3,60(r5)
  806d78:	00ffb316 	blt	zero,r3,806c48 <__alt_mem_onchip_mem+0xff7fec48>
  806d7c:	003fd706 	br	806cdc <__alt_mem_onchip_mem+0xff7fecdc>
  806d80:	89400717 	ldw	r5,28(r17)
  806d84:	000d883a 	mov	r6,zero
  806d88:	01c00044 	movi	r7,1
  806d8c:	9809883a 	mov	r4,r19
  806d90:	403ee83a 	callr	r8
  806d94:	100d883a 	mov	r6,r2
  806d98:	00bfffc4 	movi	r2,-1
  806d9c:	30801426 	beq	r6,r2,806df0 <__sflush_r+0x1e4>
  806da0:	8880030b 	ldhu	r2,12(r17)
  806da4:	8a000a17 	ldw	r8,40(r17)
  806da8:	003fae06 	br	806c64 <__alt_mem_onchip_mem+0xff7fec64>
  806dac:	98c00017 	ldw	r3,0(r19)
  806db0:	183fba26 	beq	r3,zero,806c9c <__alt_mem_onchip_mem+0xff7fec9c>
  806db4:	01000744 	movi	r4,29
  806db8:	19000626 	beq	r3,r4,806dd4 <__sflush_r+0x1c8>
  806dbc:	01000584 	movi	r4,22
  806dc0:	19000426 	beq	r3,r4,806dd4 <__sflush_r+0x1c8>
  806dc4:	88c0030b 	ldhu	r3,12(r17)
  806dc8:	18c01014 	ori	r3,r3,64
  806dcc:	88c0030d 	sth	r3,12(r17)
  806dd0:	003fc306 	br	806ce0 <__alt_mem_onchip_mem+0xff7fece0>
  806dd4:	8880030b 	ldhu	r2,12(r17)
  806dd8:	88c00417 	ldw	r3,16(r17)
  806ddc:	88000115 	stw	zero,4(r17)
  806de0:	10bdffcc 	andi	r2,r2,63487
  806de4:	8880030d 	sth	r2,12(r17)
  806de8:	88c00015 	stw	r3,0(r17)
  806dec:	003fb306 	br	806cbc <__alt_mem_onchip_mem+0xff7fecbc>
  806df0:	98800017 	ldw	r2,0(r19)
  806df4:	103fea26 	beq	r2,zero,806da0 <__alt_mem_onchip_mem+0xff7feda0>
  806df8:	00c00744 	movi	r3,29
  806dfc:	10c00226 	beq	r2,r3,806e08 <__sflush_r+0x1fc>
  806e00:	00c00584 	movi	r3,22
  806e04:	10c0031e 	bne	r2,r3,806e14 <__sflush_r+0x208>
  806e08:	9c000015 	stw	r16,0(r19)
  806e0c:	0005883a 	mov	r2,zero
  806e10:	003fb306 	br	806ce0 <__alt_mem_onchip_mem+0xff7fece0>
  806e14:	88c0030b 	ldhu	r3,12(r17)
  806e18:	3005883a 	mov	r2,r6
  806e1c:	18c01014 	ori	r3,r3,64
  806e20:	88c0030d 	sth	r3,12(r17)
  806e24:	003fae06 	br	806ce0 <__alt_mem_onchip_mem+0xff7fece0>

00806e28 <_fflush_r>:
  806e28:	defffd04 	addi	sp,sp,-12
  806e2c:	dc000115 	stw	r16,4(sp)
  806e30:	dfc00215 	stw	ra,8(sp)
  806e34:	2021883a 	mov	r16,r4
  806e38:	20000226 	beq	r4,zero,806e44 <_fflush_r+0x1c>
  806e3c:	20800e17 	ldw	r2,56(r4)
  806e40:	10000c26 	beq	r2,zero,806e74 <_fflush_r+0x4c>
  806e44:	2880030f 	ldh	r2,12(r5)
  806e48:	1000051e 	bne	r2,zero,806e60 <_fflush_r+0x38>
  806e4c:	0005883a 	mov	r2,zero
  806e50:	dfc00217 	ldw	ra,8(sp)
  806e54:	dc000117 	ldw	r16,4(sp)
  806e58:	dec00304 	addi	sp,sp,12
  806e5c:	f800283a 	ret
  806e60:	8009883a 	mov	r4,r16
  806e64:	dfc00217 	ldw	ra,8(sp)
  806e68:	dc000117 	ldw	r16,4(sp)
  806e6c:	dec00304 	addi	sp,sp,12
  806e70:	0806c0c1 	jmpi	806c0c <__sflush_r>
  806e74:	d9400015 	stw	r5,0(sp)
  806e78:	08072040 	call	807204 <__sinit>
  806e7c:	d9400017 	ldw	r5,0(sp)
  806e80:	003ff006 	br	806e44 <__alt_mem_onchip_mem+0xff7fee44>

00806e84 <fflush>:
  806e84:	20000526 	beq	r4,zero,806e9c <fflush+0x18>
  806e88:	008020b4 	movhi	r2,130
  806e8c:	10a3ea04 	addi	r2,r2,-28760
  806e90:	200b883a 	mov	r5,r4
  806e94:	11000017 	ldw	r4,0(r2)
  806e98:	0806e281 	jmpi	806e28 <_fflush_r>
  806e9c:	008020b4 	movhi	r2,130
  806ea0:	10a3e904 	addi	r2,r2,-28764
  806ea4:	11000017 	ldw	r4,0(r2)
  806ea8:	01402034 	movhi	r5,128
  806eac:	295b8a04 	addi	r5,r5,28200
  806eb0:	0807e201 	jmpi	807e20 <_fwalk_reent>

00806eb4 <__fp_unlock>:
  806eb4:	0005883a 	mov	r2,zero
  806eb8:	f800283a 	ret

00806ebc <_cleanup_r>:
  806ebc:	01402034 	movhi	r5,128
  806ec0:	295ac204 	addi	r5,r5,27400
  806ec4:	0807e201 	jmpi	807e20 <_fwalk_reent>

00806ec8 <__sinit.part.1>:
  806ec8:	defff704 	addi	sp,sp,-36
  806ecc:	00c02034 	movhi	r3,128
  806ed0:	dfc00815 	stw	ra,32(sp)
  806ed4:	ddc00715 	stw	r23,28(sp)
  806ed8:	dd800615 	stw	r22,24(sp)
  806edc:	dd400515 	stw	r21,20(sp)
  806ee0:	dd000415 	stw	r20,16(sp)
  806ee4:	dcc00315 	stw	r19,12(sp)
  806ee8:	dc800215 	stw	r18,8(sp)
  806eec:	dc400115 	stw	r17,4(sp)
  806ef0:	dc000015 	stw	r16,0(sp)
  806ef4:	18dbaf04 	addi	r3,r3,28348
  806ef8:	24000117 	ldw	r16,4(r4)
  806efc:	20c00f15 	stw	r3,60(r4)
  806f00:	2080bb04 	addi	r2,r4,748
  806f04:	00c000c4 	movi	r3,3
  806f08:	20c0b915 	stw	r3,740(r4)
  806f0c:	2080ba15 	stw	r2,744(r4)
  806f10:	2000b815 	stw	zero,736(r4)
  806f14:	05c00204 	movi	r23,8
  806f18:	00800104 	movi	r2,4
  806f1c:	2025883a 	mov	r18,r4
  806f20:	b80d883a 	mov	r6,r23
  806f24:	81001704 	addi	r4,r16,92
  806f28:	000b883a 	mov	r5,zero
  806f2c:	80000015 	stw	zero,0(r16)
  806f30:	80000115 	stw	zero,4(r16)
  806f34:	80000215 	stw	zero,8(r16)
  806f38:	8080030d 	sth	r2,12(r16)
  806f3c:	80001915 	stw	zero,100(r16)
  806f40:	8000038d 	sth	zero,14(r16)
  806f44:	80000415 	stw	zero,16(r16)
  806f48:	80000515 	stw	zero,20(r16)
  806f4c:	80000615 	stw	zero,24(r16)
  806f50:	08088ac0 	call	8088ac <memset>
  806f54:	05802074 	movhi	r22,129
  806f58:	94400217 	ldw	r17,8(r18)
  806f5c:	05402074 	movhi	r21,129
  806f60:	05002074 	movhi	r20,129
  806f64:	04c02074 	movhi	r19,129
  806f68:	b5a3c804 	addi	r22,r22,-28896
  806f6c:	ad63df04 	addi	r21,r21,-28804
  806f70:	a523fe04 	addi	r20,r20,-28680
  806f74:	9ce41504 	addi	r19,r19,-28588
  806f78:	85800815 	stw	r22,32(r16)
  806f7c:	85400915 	stw	r21,36(r16)
  806f80:	85000a15 	stw	r20,40(r16)
  806f84:	84c00b15 	stw	r19,44(r16)
  806f88:	84000715 	stw	r16,28(r16)
  806f8c:	00800284 	movi	r2,10
  806f90:	8880030d 	sth	r2,12(r17)
  806f94:	00800044 	movi	r2,1
  806f98:	b80d883a 	mov	r6,r23
  806f9c:	89001704 	addi	r4,r17,92
  806fa0:	000b883a 	mov	r5,zero
  806fa4:	88000015 	stw	zero,0(r17)
  806fa8:	88000115 	stw	zero,4(r17)
  806fac:	88000215 	stw	zero,8(r17)
  806fb0:	88001915 	stw	zero,100(r17)
  806fb4:	8880038d 	sth	r2,14(r17)
  806fb8:	88000415 	stw	zero,16(r17)
  806fbc:	88000515 	stw	zero,20(r17)
  806fc0:	88000615 	stw	zero,24(r17)
  806fc4:	08088ac0 	call	8088ac <memset>
  806fc8:	94000317 	ldw	r16,12(r18)
  806fcc:	00800484 	movi	r2,18
  806fd0:	8c400715 	stw	r17,28(r17)
  806fd4:	8d800815 	stw	r22,32(r17)
  806fd8:	8d400915 	stw	r21,36(r17)
  806fdc:	8d000a15 	stw	r20,40(r17)
  806fe0:	8cc00b15 	stw	r19,44(r17)
  806fe4:	8080030d 	sth	r2,12(r16)
  806fe8:	00800084 	movi	r2,2
  806fec:	80000015 	stw	zero,0(r16)
  806ff0:	80000115 	stw	zero,4(r16)
  806ff4:	80000215 	stw	zero,8(r16)
  806ff8:	80001915 	stw	zero,100(r16)
  806ffc:	8080038d 	sth	r2,14(r16)
  807000:	80000415 	stw	zero,16(r16)
  807004:	80000515 	stw	zero,20(r16)
  807008:	80000615 	stw	zero,24(r16)
  80700c:	b80d883a 	mov	r6,r23
  807010:	000b883a 	mov	r5,zero
  807014:	81001704 	addi	r4,r16,92
  807018:	08088ac0 	call	8088ac <memset>
  80701c:	00800044 	movi	r2,1
  807020:	84000715 	stw	r16,28(r16)
  807024:	85800815 	stw	r22,32(r16)
  807028:	85400915 	stw	r21,36(r16)
  80702c:	85000a15 	stw	r20,40(r16)
  807030:	84c00b15 	stw	r19,44(r16)
  807034:	90800e15 	stw	r2,56(r18)
  807038:	dfc00817 	ldw	ra,32(sp)
  80703c:	ddc00717 	ldw	r23,28(sp)
  807040:	dd800617 	ldw	r22,24(sp)
  807044:	dd400517 	ldw	r21,20(sp)
  807048:	dd000417 	ldw	r20,16(sp)
  80704c:	dcc00317 	ldw	r19,12(sp)
  807050:	dc800217 	ldw	r18,8(sp)
  807054:	dc400117 	ldw	r17,4(sp)
  807058:	dc000017 	ldw	r16,0(sp)
  80705c:	dec00904 	addi	sp,sp,36
  807060:	f800283a 	ret

00807064 <__fp_lock>:
  807064:	0005883a 	mov	r2,zero
  807068:	f800283a 	ret

0080706c <__sfmoreglue>:
  80706c:	defffc04 	addi	sp,sp,-16
  807070:	dc400115 	stw	r17,4(sp)
  807074:	2c7fffc4 	addi	r17,r5,-1
  807078:	8c401a24 	muli	r17,r17,104
  80707c:	dc800215 	stw	r18,8(sp)
  807080:	2825883a 	mov	r18,r5
  807084:	89401d04 	addi	r5,r17,116
  807088:	dc000015 	stw	r16,0(sp)
  80708c:	dfc00315 	stw	ra,12(sp)
  807090:	08080a00 	call	8080a0 <_malloc_r>
  807094:	1021883a 	mov	r16,r2
  807098:	10000726 	beq	r2,zero,8070b8 <__sfmoreglue+0x4c>
  80709c:	11000304 	addi	r4,r2,12
  8070a0:	10000015 	stw	zero,0(r2)
  8070a4:	14800115 	stw	r18,4(r2)
  8070a8:	11000215 	stw	r4,8(r2)
  8070ac:	89801a04 	addi	r6,r17,104
  8070b0:	000b883a 	mov	r5,zero
  8070b4:	08088ac0 	call	8088ac <memset>
  8070b8:	8005883a 	mov	r2,r16
  8070bc:	dfc00317 	ldw	ra,12(sp)
  8070c0:	dc800217 	ldw	r18,8(sp)
  8070c4:	dc400117 	ldw	r17,4(sp)
  8070c8:	dc000017 	ldw	r16,0(sp)
  8070cc:	dec00404 	addi	sp,sp,16
  8070d0:	f800283a 	ret

008070d4 <__sfp>:
  8070d4:	defffb04 	addi	sp,sp,-20
  8070d8:	dc000015 	stw	r16,0(sp)
  8070dc:	040020b4 	movhi	r16,130
  8070e0:	8423e904 	addi	r16,r16,-28764
  8070e4:	dcc00315 	stw	r19,12(sp)
  8070e8:	2027883a 	mov	r19,r4
  8070ec:	81000017 	ldw	r4,0(r16)
  8070f0:	dfc00415 	stw	ra,16(sp)
  8070f4:	dc800215 	stw	r18,8(sp)
  8070f8:	20800e17 	ldw	r2,56(r4)
  8070fc:	dc400115 	stw	r17,4(sp)
  807100:	1000021e 	bne	r2,zero,80710c <__sfp+0x38>
  807104:	0806ec80 	call	806ec8 <__sinit.part.1>
  807108:	81000017 	ldw	r4,0(r16)
  80710c:	2480b804 	addi	r18,r4,736
  807110:	047fffc4 	movi	r17,-1
  807114:	91000117 	ldw	r4,4(r18)
  807118:	94000217 	ldw	r16,8(r18)
  80711c:	213fffc4 	addi	r4,r4,-1
  807120:	20000a16 	blt	r4,zero,80714c <__sfp+0x78>
  807124:	8080030f 	ldh	r2,12(r16)
  807128:	10000c26 	beq	r2,zero,80715c <__sfp+0x88>
  80712c:	80c01d04 	addi	r3,r16,116
  807130:	00000206 	br	80713c <__sfp+0x68>
  807134:	18bfe60f 	ldh	r2,-104(r3)
  807138:	10000826 	beq	r2,zero,80715c <__sfp+0x88>
  80713c:	213fffc4 	addi	r4,r4,-1
  807140:	1c3ffd04 	addi	r16,r3,-12
  807144:	18c01a04 	addi	r3,r3,104
  807148:	247ffa1e 	bne	r4,r17,807134 <__alt_mem_onchip_mem+0xff7ff134>
  80714c:	90800017 	ldw	r2,0(r18)
  807150:	10001d26 	beq	r2,zero,8071c8 <__sfp+0xf4>
  807154:	1025883a 	mov	r18,r2
  807158:	003fee06 	br	807114 <__alt_mem_onchip_mem+0xff7ff114>
  80715c:	00bfffc4 	movi	r2,-1
  807160:	8080038d 	sth	r2,14(r16)
  807164:	00800044 	movi	r2,1
  807168:	8080030d 	sth	r2,12(r16)
  80716c:	80001915 	stw	zero,100(r16)
  807170:	80000015 	stw	zero,0(r16)
  807174:	80000215 	stw	zero,8(r16)
  807178:	80000115 	stw	zero,4(r16)
  80717c:	80000415 	stw	zero,16(r16)
  807180:	80000515 	stw	zero,20(r16)
  807184:	80000615 	stw	zero,24(r16)
  807188:	01800204 	movi	r6,8
  80718c:	000b883a 	mov	r5,zero
  807190:	81001704 	addi	r4,r16,92
  807194:	08088ac0 	call	8088ac <memset>
  807198:	8005883a 	mov	r2,r16
  80719c:	80000c15 	stw	zero,48(r16)
  8071a0:	80000d15 	stw	zero,52(r16)
  8071a4:	80001115 	stw	zero,68(r16)
  8071a8:	80001215 	stw	zero,72(r16)
  8071ac:	dfc00417 	ldw	ra,16(sp)
  8071b0:	dcc00317 	ldw	r19,12(sp)
  8071b4:	dc800217 	ldw	r18,8(sp)
  8071b8:	dc400117 	ldw	r17,4(sp)
  8071bc:	dc000017 	ldw	r16,0(sp)
  8071c0:	dec00504 	addi	sp,sp,20
  8071c4:	f800283a 	ret
  8071c8:	01400104 	movi	r5,4
  8071cc:	9809883a 	mov	r4,r19
  8071d0:	080706c0 	call	80706c <__sfmoreglue>
  8071d4:	90800015 	stw	r2,0(r18)
  8071d8:	103fde1e 	bne	r2,zero,807154 <__alt_mem_onchip_mem+0xff7ff154>
  8071dc:	00800304 	movi	r2,12
  8071e0:	98800015 	stw	r2,0(r19)
  8071e4:	0005883a 	mov	r2,zero
  8071e8:	003ff006 	br	8071ac <__alt_mem_onchip_mem+0xff7ff1ac>

008071ec <_cleanup>:
  8071ec:	008020b4 	movhi	r2,130
  8071f0:	10a3e904 	addi	r2,r2,-28764
  8071f4:	11000017 	ldw	r4,0(r2)
  8071f8:	01402034 	movhi	r5,128
  8071fc:	295ac204 	addi	r5,r5,27400
  807200:	0807e201 	jmpi	807e20 <_fwalk_reent>

00807204 <__sinit>:
  807204:	20800e17 	ldw	r2,56(r4)
  807208:	10000126 	beq	r2,zero,807210 <__sinit+0xc>
  80720c:	f800283a 	ret
  807210:	0806ec81 	jmpi	806ec8 <__sinit.part.1>

00807214 <__sfp_lock_acquire>:
  807214:	f800283a 	ret

00807218 <__sfp_lock_release>:
  807218:	f800283a 	ret

0080721c <__sinit_lock_acquire>:
  80721c:	f800283a 	ret

00807220 <__sinit_lock_release>:
  807220:	f800283a 	ret

00807224 <__fp_lock_all>:
  807224:	008020b4 	movhi	r2,130
  807228:	10a3ea04 	addi	r2,r2,-28760
  80722c:	11000017 	ldw	r4,0(r2)
  807230:	01402034 	movhi	r5,128
  807234:	295c1904 	addi	r5,r5,28772
  807238:	0807d5c1 	jmpi	807d5c <_fwalk>

0080723c <__fp_unlock_all>:
  80723c:	008020b4 	movhi	r2,130
  807240:	10a3ea04 	addi	r2,r2,-28760
  807244:	11000017 	ldw	r4,0(r2)
  807248:	01402034 	movhi	r5,128
  80724c:	295bad04 	addi	r5,r5,28340
  807250:	0807d5c1 	jmpi	807d5c <_fwalk>

00807254 <_fopen_r>:
  807254:	defffa04 	addi	sp,sp,-24
  807258:	3005883a 	mov	r2,r6
  80725c:	dcc00415 	stw	r19,16(sp)
  807260:	d80d883a 	mov	r6,sp
  807264:	2827883a 	mov	r19,r5
  807268:	100b883a 	mov	r5,r2
  80726c:	dc800315 	stw	r18,12(sp)
  807270:	dfc00515 	stw	ra,20(sp)
  807274:	dc400215 	stw	r17,8(sp)
  807278:	dc000115 	stw	r16,4(sp)
  80727c:	2025883a 	mov	r18,r4
  807280:	080cfb00 	call	80cfb0 <__sflags>
  807284:	10002726 	beq	r2,zero,807324 <_fopen_r+0xd0>
  807288:	9009883a 	mov	r4,r18
  80728c:	1023883a 	mov	r17,r2
  807290:	08070d40 	call	8070d4 <__sfp>
  807294:	1021883a 	mov	r16,r2
  807298:	10002226 	beq	r2,zero,807324 <_fopen_r+0xd0>
  80729c:	d9800017 	ldw	r6,0(sp)
  8072a0:	01c06d84 	movi	r7,438
  8072a4:	980b883a 	mov	r5,r19
  8072a8:	9009883a 	mov	r4,r18
  8072ac:	08089d40 	call	8089d4 <_open_r>
  8072b0:	10001916 	blt	r2,zero,807318 <_fopen_r+0xc4>
  8072b4:	8080038d 	sth	r2,14(r16)
  8072b8:	00802074 	movhi	r2,129
  8072bc:	10a3c804 	addi	r2,r2,-28896
  8072c0:	80800815 	stw	r2,32(r16)
  8072c4:	00802074 	movhi	r2,129
  8072c8:	10a3df04 	addi	r2,r2,-28804
  8072cc:	80800915 	stw	r2,36(r16)
  8072d0:	00802074 	movhi	r2,129
  8072d4:	10a3fe04 	addi	r2,r2,-28680
  8072d8:	80800a15 	stw	r2,40(r16)
  8072dc:	00802074 	movhi	r2,129
  8072e0:	10a41504 	addi	r2,r2,-28588
  8072e4:	8440030d 	sth	r17,12(r16)
  8072e8:	84000715 	stw	r16,28(r16)
  8072ec:	80800b15 	stw	r2,44(r16)
  8072f0:	8c40400c 	andi	r17,r17,256
  8072f4:	88000d1e 	bne	r17,zero,80732c <_fopen_r+0xd8>
  8072f8:	8005883a 	mov	r2,r16
  8072fc:	dfc00517 	ldw	ra,20(sp)
  807300:	dcc00417 	ldw	r19,16(sp)
  807304:	dc800317 	ldw	r18,12(sp)
  807308:	dc400217 	ldw	r17,8(sp)
  80730c:	dc000117 	ldw	r16,4(sp)
  807310:	dec00604 	addi	sp,sp,24
  807314:	f800283a 	ret
  807318:	08072140 	call	807214 <__sfp_lock_acquire>
  80731c:	8000030d 	sth	zero,12(r16)
  807320:	08072180 	call	807218 <__sfp_lock_release>
  807324:	0005883a 	mov	r2,zero
  807328:	003ff406 	br	8072fc <__alt_mem_onchip_mem+0xff7ff2fc>
  80732c:	01c00084 	movi	r7,2
  807330:	000d883a 	mov	r6,zero
  807334:	800b883a 	mov	r5,r16
  807338:	9009883a 	mov	r4,r18
  80733c:	08078800 	call	807880 <_fseek_r>
  807340:	8005883a 	mov	r2,r16
  807344:	003fed06 	br	8072fc <__alt_mem_onchip_mem+0xff7ff2fc>

00807348 <fopen>:
  807348:	008020b4 	movhi	r2,130
  80734c:	10a3ea04 	addi	r2,r2,-28760
  807350:	280d883a 	mov	r6,r5
  807354:	200b883a 	mov	r5,r4
  807358:	11000017 	ldw	r4,0(r2)
  80735c:	08072541 	jmpi	807254 <_fopen_r>

00807360 <_fprintf_r>:
  807360:	defffe04 	addi	sp,sp,-8
  807364:	2809883a 	mov	r4,r5
  807368:	300b883a 	mov	r5,r6
  80736c:	dfc00015 	stw	ra,0(sp)
  807370:	d9c00115 	stw	r7,4(sp)
  807374:	d9800104 	addi	r6,sp,4
  807378:	080b2ec0 	call	80b2ec <__vfprintf_internal>
  80737c:	dfc00017 	ldw	ra,0(sp)
  807380:	dec00204 	addi	sp,sp,8
  807384:	f800283a 	ret

00807388 <fprintf>:
  807388:	defffd04 	addi	sp,sp,-12
  80738c:	dfc00015 	stw	ra,0(sp)
  807390:	d9800115 	stw	r6,4(sp)
  807394:	d9c00215 	stw	r7,8(sp)
  807398:	d9800104 	addi	r6,sp,4
  80739c:	080b2ec0 	call	80b2ec <__vfprintf_internal>
  8073a0:	dfc00017 	ldw	ra,0(sp)
  8073a4:	dec00304 	addi	sp,sp,12
  8073a8:	f800283a 	ret

008073ac <_fputc_r>:
  8073ac:	defffc04 	addi	sp,sp,-16
  8073b0:	dc000215 	stw	r16,8(sp)
  8073b4:	dfc00315 	stw	ra,12(sp)
  8073b8:	2021883a 	mov	r16,r4
  8073bc:	20000726 	beq	r4,zero,8073dc <_fputc_r+0x30>
  8073c0:	20800e17 	ldw	r2,56(r4)
  8073c4:	1000051e 	bne	r2,zero,8073dc <_fputc_r+0x30>
  8073c8:	d9400015 	stw	r5,0(sp)
  8073cc:	d9800115 	stw	r6,4(sp)
  8073d0:	08072040 	call	807204 <__sinit>
  8073d4:	d9800117 	ldw	r6,4(sp)
  8073d8:	d9400017 	ldw	r5,0(sp)
  8073dc:	8009883a 	mov	r4,r16
  8073e0:	dfc00317 	ldw	ra,12(sp)
  8073e4:	dc000217 	ldw	r16,8(sp)
  8073e8:	dec00404 	addi	sp,sp,16
  8073ec:	0808aa01 	jmpi	808aa0 <_putc_r>

008073f0 <fputc>:
  8073f0:	008020b4 	movhi	r2,130
  8073f4:	defffc04 	addi	sp,sp,-16
  8073f8:	10a3ea04 	addi	r2,r2,-28760
  8073fc:	dc000115 	stw	r16,4(sp)
  807400:	14000017 	ldw	r16,0(r2)
  807404:	dc400215 	stw	r17,8(sp)
  807408:	dfc00315 	stw	ra,12(sp)
  80740c:	2023883a 	mov	r17,r4
  807410:	80000626 	beq	r16,zero,80742c <fputc+0x3c>
  807414:	80800e17 	ldw	r2,56(r16)
  807418:	1000041e 	bne	r2,zero,80742c <fputc+0x3c>
  80741c:	8009883a 	mov	r4,r16
  807420:	d9400015 	stw	r5,0(sp)
  807424:	08072040 	call	807204 <__sinit>
  807428:	d9400017 	ldw	r5,0(sp)
  80742c:	280d883a 	mov	r6,r5
  807430:	8009883a 	mov	r4,r16
  807434:	880b883a 	mov	r5,r17
  807438:	dfc00317 	ldw	ra,12(sp)
  80743c:	dc400217 	ldw	r17,8(sp)
  807440:	dc000117 	ldw	r16,4(sp)
  807444:	dec00404 	addi	sp,sp,16
  807448:	0808aa01 	jmpi	808aa0 <_putc_r>

0080744c <_malloc_trim_r>:
  80744c:	defffb04 	addi	sp,sp,-20
  807450:	dcc00315 	stw	r19,12(sp)
  807454:	04c02074 	movhi	r19,129
  807458:	dc800215 	stw	r18,8(sp)
  80745c:	dc400115 	stw	r17,4(sp)
  807460:	dc000015 	stw	r16,0(sp)
  807464:	dfc00415 	stw	ra,16(sp)
  807468:	2821883a 	mov	r16,r5
  80746c:	9cddce04 	addi	r19,r19,30520
  807470:	2025883a 	mov	r18,r4
  807474:	08132780 	call	813278 <__malloc_lock>
  807478:	98800217 	ldw	r2,8(r19)
  80747c:	14400117 	ldw	r17,4(r2)
  807480:	00bfff04 	movi	r2,-4
  807484:	88a2703a 	and	r17,r17,r2
  807488:	8c21c83a 	sub	r16,r17,r16
  80748c:	8403fbc4 	addi	r16,r16,4079
  807490:	8020d33a 	srli	r16,r16,12
  807494:	0083ffc4 	movi	r2,4095
  807498:	843fffc4 	addi	r16,r16,-1
  80749c:	8020933a 	slli	r16,r16,12
  8074a0:	1400060e 	bge	r2,r16,8074bc <_malloc_trim_r+0x70>
  8074a4:	000b883a 	mov	r5,zero
  8074a8:	9009883a 	mov	r4,r18
  8074ac:	0808ecc0 	call	808ecc <_sbrk_r>
  8074b0:	98c00217 	ldw	r3,8(r19)
  8074b4:	1c47883a 	add	r3,r3,r17
  8074b8:	10c00a26 	beq	r2,r3,8074e4 <_malloc_trim_r+0x98>
  8074bc:	9009883a 	mov	r4,r18
  8074c0:	081329c0 	call	81329c <__malloc_unlock>
  8074c4:	0005883a 	mov	r2,zero
  8074c8:	dfc00417 	ldw	ra,16(sp)
  8074cc:	dcc00317 	ldw	r19,12(sp)
  8074d0:	dc800217 	ldw	r18,8(sp)
  8074d4:	dc400117 	ldw	r17,4(sp)
  8074d8:	dc000017 	ldw	r16,0(sp)
  8074dc:	dec00504 	addi	sp,sp,20
  8074e0:	f800283a 	ret
  8074e4:	040bc83a 	sub	r5,zero,r16
  8074e8:	9009883a 	mov	r4,r18
  8074ec:	0808ecc0 	call	808ecc <_sbrk_r>
  8074f0:	00ffffc4 	movi	r3,-1
  8074f4:	10c00d26 	beq	r2,r3,80752c <_malloc_trim_r+0xe0>
  8074f8:	00c020b4 	movhi	r3,130
  8074fc:	18eb4404 	addi	r3,r3,-21232
  807500:	18800017 	ldw	r2,0(r3)
  807504:	99000217 	ldw	r4,8(r19)
  807508:	8c23c83a 	sub	r17,r17,r16
  80750c:	8c400054 	ori	r17,r17,1
  807510:	1421c83a 	sub	r16,r2,r16
  807514:	24400115 	stw	r17,4(r4)
  807518:	9009883a 	mov	r4,r18
  80751c:	1c000015 	stw	r16,0(r3)
  807520:	081329c0 	call	81329c <__malloc_unlock>
  807524:	00800044 	movi	r2,1
  807528:	003fe706 	br	8074c8 <__alt_mem_onchip_mem+0xff7ff4c8>
  80752c:	000b883a 	mov	r5,zero
  807530:	9009883a 	mov	r4,r18
  807534:	0808ecc0 	call	808ecc <_sbrk_r>
  807538:	99000217 	ldw	r4,8(r19)
  80753c:	014003c4 	movi	r5,15
  807540:	1107c83a 	sub	r3,r2,r4
  807544:	28ffdd0e 	bge	r5,r3,8074bc <__alt_mem_onchip_mem+0xff7ff4bc>
  807548:	014020b4 	movhi	r5,130
  80754c:	2963eb04 	addi	r5,r5,-28756
  807550:	29400017 	ldw	r5,0(r5)
  807554:	18c00054 	ori	r3,r3,1
  807558:	20c00115 	stw	r3,4(r4)
  80755c:	00c020b4 	movhi	r3,130
  807560:	1145c83a 	sub	r2,r2,r5
  807564:	18eb4404 	addi	r3,r3,-21232
  807568:	18800015 	stw	r2,0(r3)
  80756c:	003fd306 	br	8074bc <__alt_mem_onchip_mem+0xff7ff4bc>

00807570 <_free_r>:
  807570:	28004126 	beq	r5,zero,807678 <_free_r+0x108>
  807574:	defffd04 	addi	sp,sp,-12
  807578:	dc400115 	stw	r17,4(sp)
  80757c:	dc000015 	stw	r16,0(sp)
  807580:	2023883a 	mov	r17,r4
  807584:	2821883a 	mov	r16,r5
  807588:	dfc00215 	stw	ra,8(sp)
  80758c:	08132780 	call	813278 <__malloc_lock>
  807590:	81ffff17 	ldw	r7,-4(r16)
  807594:	00bfff84 	movi	r2,-2
  807598:	01002074 	movhi	r4,129
  80759c:	81bffe04 	addi	r6,r16,-8
  8075a0:	3884703a 	and	r2,r7,r2
  8075a4:	211dce04 	addi	r4,r4,30520
  8075a8:	308b883a 	add	r5,r6,r2
  8075ac:	2a400117 	ldw	r9,4(r5)
  8075b0:	22000217 	ldw	r8,8(r4)
  8075b4:	00ffff04 	movi	r3,-4
  8075b8:	48c6703a 	and	r3,r9,r3
  8075bc:	2a005726 	beq	r5,r8,80771c <_free_r+0x1ac>
  8075c0:	28c00115 	stw	r3,4(r5)
  8075c4:	39c0004c 	andi	r7,r7,1
  8075c8:	3800091e 	bne	r7,zero,8075f0 <_free_r+0x80>
  8075cc:	823ffe17 	ldw	r8,-8(r16)
  8075d0:	22400204 	addi	r9,r4,8
  8075d4:	320dc83a 	sub	r6,r6,r8
  8075d8:	31c00217 	ldw	r7,8(r6)
  8075dc:	1205883a 	add	r2,r2,r8
  8075e0:	3a406526 	beq	r7,r9,807778 <_free_r+0x208>
  8075e4:	32000317 	ldw	r8,12(r6)
  8075e8:	3a000315 	stw	r8,12(r7)
  8075ec:	41c00215 	stw	r7,8(r8)
  8075f0:	28cf883a 	add	r7,r5,r3
  8075f4:	39c00117 	ldw	r7,4(r7)
  8075f8:	39c0004c 	andi	r7,r7,1
  8075fc:	38003a26 	beq	r7,zero,8076e8 <_free_r+0x178>
  807600:	10c00054 	ori	r3,r2,1
  807604:	30c00115 	stw	r3,4(r6)
  807608:	3087883a 	add	r3,r6,r2
  80760c:	18800015 	stw	r2,0(r3)
  807610:	00c07fc4 	movi	r3,511
  807614:	18801936 	bltu	r3,r2,80767c <_free_r+0x10c>
  807618:	1004d0fa 	srli	r2,r2,3
  80761c:	01c00044 	movi	r7,1
  807620:	21400117 	ldw	r5,4(r4)
  807624:	10c00044 	addi	r3,r2,1
  807628:	18c7883a 	add	r3,r3,r3
  80762c:	1005d0ba 	srai	r2,r2,2
  807630:	18c7883a 	add	r3,r3,r3
  807634:	18c7883a 	add	r3,r3,r3
  807638:	1907883a 	add	r3,r3,r4
  80763c:	3884983a 	sll	r2,r7,r2
  807640:	19c00017 	ldw	r7,0(r3)
  807644:	1a3ffe04 	addi	r8,r3,-8
  807648:	1144b03a 	or	r2,r2,r5
  80764c:	32000315 	stw	r8,12(r6)
  807650:	31c00215 	stw	r7,8(r6)
  807654:	20800115 	stw	r2,4(r4)
  807658:	19800015 	stw	r6,0(r3)
  80765c:	39800315 	stw	r6,12(r7)
  807660:	8809883a 	mov	r4,r17
  807664:	dfc00217 	ldw	ra,8(sp)
  807668:	dc400117 	ldw	r17,4(sp)
  80766c:	dc000017 	ldw	r16,0(sp)
  807670:	dec00304 	addi	sp,sp,12
  807674:	081329c1 	jmpi	81329c <__malloc_unlock>
  807678:	f800283a 	ret
  80767c:	100ad27a 	srli	r5,r2,9
  807680:	00c00104 	movi	r3,4
  807684:	19404a36 	bltu	r3,r5,8077b0 <_free_r+0x240>
  807688:	100ad1ba 	srli	r5,r2,6
  80768c:	28c00e44 	addi	r3,r5,57
  807690:	18c7883a 	add	r3,r3,r3
  807694:	29400e04 	addi	r5,r5,56
  807698:	18c7883a 	add	r3,r3,r3
  80769c:	18c7883a 	add	r3,r3,r3
  8076a0:	1909883a 	add	r4,r3,r4
  8076a4:	20c00017 	ldw	r3,0(r4)
  8076a8:	01c02074 	movhi	r7,129
  8076ac:	213ffe04 	addi	r4,r4,-8
  8076b0:	39ddce04 	addi	r7,r7,30520
  8076b4:	20c04426 	beq	r4,r3,8077c8 <_free_r+0x258>
  8076b8:	01ffff04 	movi	r7,-4
  8076bc:	19400117 	ldw	r5,4(r3)
  8076c0:	29ca703a 	and	r5,r5,r7
  8076c4:	1140022e 	bgeu	r2,r5,8076d0 <_free_r+0x160>
  8076c8:	18c00217 	ldw	r3,8(r3)
  8076cc:	20fffb1e 	bne	r4,r3,8076bc <__alt_mem_onchip_mem+0xff7ff6bc>
  8076d0:	19000317 	ldw	r4,12(r3)
  8076d4:	31000315 	stw	r4,12(r6)
  8076d8:	30c00215 	stw	r3,8(r6)
  8076dc:	21800215 	stw	r6,8(r4)
  8076e0:	19800315 	stw	r6,12(r3)
  8076e4:	003fde06 	br	807660 <__alt_mem_onchip_mem+0xff7ff660>
  8076e8:	29c00217 	ldw	r7,8(r5)
  8076ec:	10c5883a 	add	r2,r2,r3
  8076f0:	00c02074 	movhi	r3,129
  8076f4:	18ddd004 	addi	r3,r3,30528
  8076f8:	38c03b26 	beq	r7,r3,8077e8 <_free_r+0x278>
  8076fc:	2a000317 	ldw	r8,12(r5)
  807700:	11400054 	ori	r5,r2,1
  807704:	3087883a 	add	r3,r6,r2
  807708:	3a000315 	stw	r8,12(r7)
  80770c:	41c00215 	stw	r7,8(r8)
  807710:	31400115 	stw	r5,4(r6)
  807714:	18800015 	stw	r2,0(r3)
  807718:	003fbd06 	br	807610 <__alt_mem_onchip_mem+0xff7ff610>
  80771c:	39c0004c 	andi	r7,r7,1
  807720:	10c5883a 	add	r2,r2,r3
  807724:	3800071e 	bne	r7,zero,807744 <_free_r+0x1d4>
  807728:	81fffe17 	ldw	r7,-8(r16)
  80772c:	31cdc83a 	sub	r6,r6,r7
  807730:	30c00317 	ldw	r3,12(r6)
  807734:	31400217 	ldw	r5,8(r6)
  807738:	11c5883a 	add	r2,r2,r7
  80773c:	28c00315 	stw	r3,12(r5)
  807740:	19400215 	stw	r5,8(r3)
  807744:	10c00054 	ori	r3,r2,1
  807748:	30c00115 	stw	r3,4(r6)
  80774c:	00c020b4 	movhi	r3,130
  807750:	18e3ec04 	addi	r3,r3,-28752
  807754:	18c00017 	ldw	r3,0(r3)
  807758:	21800215 	stw	r6,8(r4)
  80775c:	10ffc036 	bltu	r2,r3,807660 <__alt_mem_onchip_mem+0xff7ff660>
  807760:	008020b4 	movhi	r2,130
  807764:	10ab3904 	addi	r2,r2,-21276
  807768:	11400017 	ldw	r5,0(r2)
  80776c:	8809883a 	mov	r4,r17
  807770:	080744c0 	call	80744c <_malloc_trim_r>
  807774:	003fba06 	br	807660 <__alt_mem_onchip_mem+0xff7ff660>
  807778:	28c9883a 	add	r4,r5,r3
  80777c:	21000117 	ldw	r4,4(r4)
  807780:	2100004c 	andi	r4,r4,1
  807784:	2000391e 	bne	r4,zero,80786c <_free_r+0x2fc>
  807788:	29c00217 	ldw	r7,8(r5)
  80778c:	29000317 	ldw	r4,12(r5)
  807790:	1885883a 	add	r2,r3,r2
  807794:	10c00054 	ori	r3,r2,1
  807798:	39000315 	stw	r4,12(r7)
  80779c:	21c00215 	stw	r7,8(r4)
  8077a0:	30c00115 	stw	r3,4(r6)
  8077a4:	308d883a 	add	r6,r6,r2
  8077a8:	30800015 	stw	r2,0(r6)
  8077ac:	003fac06 	br	807660 <__alt_mem_onchip_mem+0xff7ff660>
  8077b0:	00c00504 	movi	r3,20
  8077b4:	19401536 	bltu	r3,r5,80780c <_free_r+0x29c>
  8077b8:	28c01704 	addi	r3,r5,92
  8077bc:	18c7883a 	add	r3,r3,r3
  8077c0:	294016c4 	addi	r5,r5,91
  8077c4:	003fb406 	br	807698 <__alt_mem_onchip_mem+0xff7ff698>
  8077c8:	280bd0ba 	srai	r5,r5,2
  8077cc:	00c00044 	movi	r3,1
  8077d0:	38800117 	ldw	r2,4(r7)
  8077d4:	194a983a 	sll	r5,r3,r5
  8077d8:	2007883a 	mov	r3,r4
  8077dc:	2884b03a 	or	r2,r5,r2
  8077e0:	38800115 	stw	r2,4(r7)
  8077e4:	003fbb06 	br	8076d4 <__alt_mem_onchip_mem+0xff7ff6d4>
  8077e8:	21800515 	stw	r6,20(r4)
  8077ec:	21800415 	stw	r6,16(r4)
  8077f0:	10c00054 	ori	r3,r2,1
  8077f4:	31c00315 	stw	r7,12(r6)
  8077f8:	31c00215 	stw	r7,8(r6)
  8077fc:	30c00115 	stw	r3,4(r6)
  807800:	308d883a 	add	r6,r6,r2
  807804:	30800015 	stw	r2,0(r6)
  807808:	003f9506 	br	807660 <__alt_mem_onchip_mem+0xff7ff660>
  80780c:	00c01504 	movi	r3,84
  807810:	19400536 	bltu	r3,r5,807828 <_free_r+0x2b8>
  807814:	100ad33a 	srli	r5,r2,12
  807818:	28c01bc4 	addi	r3,r5,111
  80781c:	18c7883a 	add	r3,r3,r3
  807820:	29401b84 	addi	r5,r5,110
  807824:	003f9c06 	br	807698 <__alt_mem_onchip_mem+0xff7ff698>
  807828:	00c05504 	movi	r3,340
  80782c:	19400536 	bltu	r3,r5,807844 <_free_r+0x2d4>
  807830:	100ad3fa 	srli	r5,r2,15
  807834:	28c01e04 	addi	r3,r5,120
  807838:	18c7883a 	add	r3,r3,r3
  80783c:	29401dc4 	addi	r5,r5,119
  807840:	003f9506 	br	807698 <__alt_mem_onchip_mem+0xff7ff698>
  807844:	00c15504 	movi	r3,1364
  807848:	19400536 	bltu	r3,r5,807860 <_free_r+0x2f0>
  80784c:	100ad4ba 	srli	r5,r2,18
  807850:	28c01f44 	addi	r3,r5,125
  807854:	18c7883a 	add	r3,r3,r3
  807858:	29401f04 	addi	r5,r5,124
  80785c:	003f8e06 	br	807698 <__alt_mem_onchip_mem+0xff7ff698>
  807860:	00c03f84 	movi	r3,254
  807864:	01401f84 	movi	r5,126
  807868:	003f8b06 	br	807698 <__alt_mem_onchip_mem+0xff7ff698>
  80786c:	10c00054 	ori	r3,r2,1
  807870:	30c00115 	stw	r3,4(r6)
  807874:	308d883a 	add	r6,r6,r2
  807878:	30800015 	stw	r2,0(r6)
  80787c:	003f7806 	br	807660 <__alt_mem_onchip_mem+0xff7ff660>

00807880 <_fseek_r>:
  807880:	08078a01 	jmpi	8078a0 <_fseeko_r>

00807884 <fseek>:
  807884:	008020b4 	movhi	r2,130
  807888:	10a3ea04 	addi	r2,r2,-28760
  80788c:	300f883a 	mov	r7,r6
  807890:	280d883a 	mov	r6,r5
  807894:	200b883a 	mov	r5,r4
  807898:	11000017 	ldw	r4,0(r2)
  80789c:	08078a01 	jmpi	8078a0 <_fseeko_r>

008078a0 <_fseeko_r>:
  8078a0:	deffe804 	addi	sp,sp,-96
  8078a4:	dd401415 	stw	r21,80(sp)
  8078a8:	dc801115 	stw	r18,68(sp)
  8078ac:	dc401015 	stw	r17,64(sp)
  8078b0:	dc000f15 	stw	r16,60(sp)
  8078b4:	dfc01715 	stw	ra,92(sp)
  8078b8:	ddc01615 	stw	r23,88(sp)
  8078bc:	dd801515 	stw	r22,84(sp)
  8078c0:	dd001315 	stw	r20,76(sp)
  8078c4:	dcc01215 	stw	r19,72(sp)
  8078c8:	2023883a 	mov	r17,r4
  8078cc:	2821883a 	mov	r16,r5
  8078d0:	302b883a 	mov	r21,r6
  8078d4:	3825883a 	mov	r18,r7
  8078d8:	20000226 	beq	r4,zero,8078e4 <_fseeko_r+0x44>
  8078dc:	20800e17 	ldw	r2,56(r4)
  8078e0:	10005a26 	beq	r2,zero,807a4c <_fseeko_r+0x1ac>
  8078e4:	8080030b 	ldhu	r2,12(r16)
  8078e8:	00c04204 	movi	r3,264
  8078ec:	1080420c 	andi	r2,r2,264
  8078f0:	10c05b26 	beq	r2,r3,807a60 <_fseeko_r+0x1c0>
  8078f4:	85000a17 	ldw	r20,40(r16)
  8078f8:	a000f626 	beq	r20,zero,807cd4 <_fseeko_r+0x434>
  8078fc:	00800044 	movi	r2,1
  807900:	90803e26 	beq	r18,r2,8079fc <_fseeko_r+0x15c>
  807904:	00800084 	movi	r2,2
  807908:	90801026 	beq	r18,r2,80794c <_fseeko_r+0xac>
  80790c:	90000f26 	beq	r18,zero,80794c <_fseeko_r+0xac>
  807910:	00800584 	movi	r2,22
  807914:	88800015 	stw	r2,0(r17)
  807918:	04ffffc4 	movi	r19,-1
  80791c:	9805883a 	mov	r2,r19
  807920:	dfc01717 	ldw	ra,92(sp)
  807924:	ddc01617 	ldw	r23,88(sp)
  807928:	dd801517 	ldw	r22,84(sp)
  80792c:	dd401417 	ldw	r21,80(sp)
  807930:	dd001317 	ldw	r20,76(sp)
  807934:	dcc01217 	ldw	r19,72(sp)
  807938:	dc801117 	ldw	r18,68(sp)
  80793c:	dc401017 	ldw	r17,64(sp)
  807940:	dc000f17 	ldw	r16,60(sp)
  807944:	dec01804 	addi	sp,sp,96
  807948:	f800283a 	ret
  80794c:	80800417 	ldw	r2,16(r16)
  807950:	002f883a 	mov	r23,zero
  807954:	0027883a 	mov	r19,zero
  807958:	1000cb26 	beq	r2,zero,807c88 <_fseeko_r+0x3e8>
  80795c:	8080030b 	ldhu	r2,12(r16)
  807960:	10c2068c 	andi	r3,r2,2074
  807964:	1800071e 	bne	r3,zero,807984 <_fseeko_r+0xe4>
  807968:	10c1000c 	andi	r3,r2,1024
  80796c:	1800451e 	bne	r3,zero,807a84 <_fseeko_r+0x1e4>
  807970:	00c02074 	movhi	r3,129
  807974:	18e3fe04 	addi	r3,r3,-28680
  807978:	a0c0b726 	beq	r20,r3,807c58 <_fseeko_r+0x3b8>
  80797c:	10820014 	ori	r2,r2,2048
  807980:	8080030d 	sth	r2,12(r16)
  807984:	800b883a 	mov	r5,r16
  807988:	8809883a 	mov	r4,r17
  80798c:	0806e280 	call	806e28 <_fflush_r>
  807990:	1027883a 	mov	r19,r2
  807994:	103fe01e 	bne	r2,zero,807918 <__alt_mem_onchip_mem+0xff7ff918>
  807998:	81400717 	ldw	r5,28(r16)
  80799c:	900f883a 	mov	r7,r18
  8079a0:	a80d883a 	mov	r6,r21
  8079a4:	8809883a 	mov	r4,r17
  8079a8:	a03ee83a 	callr	r20
  8079ac:	00ffffc4 	movi	r3,-1
  8079b0:	10ffd926 	beq	r2,r3,807918 <__alt_mem_onchip_mem+0xff7ff918>
  8079b4:	81400c17 	ldw	r5,48(r16)
  8079b8:	28000526 	beq	r5,zero,8079d0 <_fseeko_r+0x130>
  8079bc:	80801004 	addi	r2,r16,64
  8079c0:	28800226 	beq	r5,r2,8079cc <_fseeko_r+0x12c>
  8079c4:	8809883a 	mov	r4,r17
  8079c8:	08075700 	call	807570 <_free_r>
  8079cc:	80000c15 	stw	zero,48(r16)
  8079d0:	8080030b 	ldhu	r2,12(r16)
  8079d4:	80c00417 	ldw	r3,16(r16)
  8079d8:	80000115 	stw	zero,4(r16)
  8079dc:	10bdf7cc 	andi	r2,r2,63455
  8079e0:	80c00015 	stw	r3,0(r16)
  8079e4:	8080030d 	sth	r2,12(r16)
  8079e8:	01800204 	movi	r6,8
  8079ec:	000b883a 	mov	r5,zero
  8079f0:	81001704 	addi	r4,r16,92
  8079f4:	08088ac0 	call	8088ac <memset>
  8079f8:	003fc806 	br	80791c <__alt_mem_onchip_mem+0xff7ff91c>
  8079fc:	800b883a 	mov	r5,r16
  807a00:	8809883a 	mov	r4,r17
  807a04:	0806e280 	call	806e28 <_fflush_r>
  807a08:	8080030b 	ldhu	r2,12(r16)
  807a0c:	10c4000c 	andi	r3,r2,4096
  807a10:	18008726 	beq	r3,zero,807c30 <_fseeko_r+0x390>
  807a14:	84c01417 	ldw	r19,80(r16)
  807a18:	10c0010c 	andi	r3,r2,4
  807a1c:	1800431e 	bne	r3,zero,807b2c <_fseeko_r+0x28c>
  807a20:	1080020c 	andi	r2,r2,8
  807a24:	10008026 	beq	r2,zero,807c28 <_fseeko_r+0x388>
  807a28:	80c00017 	ldw	r3,0(r16)
  807a2c:	80800417 	ldw	r2,16(r16)
  807a30:	18000226 	beq	r3,zero,807a3c <_fseeko_r+0x19c>
  807a34:	1887c83a 	sub	r3,r3,r2
  807a38:	98e7883a 	add	r19,r19,r3
  807a3c:	aceb883a 	add	r21,r21,r19
  807a40:	05c00044 	movi	r23,1
  807a44:	0025883a 	mov	r18,zero
  807a48:	003fc306 	br	807958 <__alt_mem_onchip_mem+0xff7ff958>
  807a4c:	08072040 	call	807204 <__sinit>
  807a50:	8080030b 	ldhu	r2,12(r16)
  807a54:	00c04204 	movi	r3,264
  807a58:	1080420c 	andi	r2,r2,264
  807a5c:	10ffa51e 	bne	r2,r3,8078f4 <__alt_mem_onchip_mem+0xff7ff8f4>
  807a60:	800b883a 	mov	r5,r16
  807a64:	8809883a 	mov	r4,r17
  807a68:	0806e280 	call	806e28 <_fflush_r>
  807a6c:	003fa106 	br	8078f4 <__alt_mem_onchip_mem+0xff7ff8f4>
  807a70:	8080030b 	ldhu	r2,12(r16)
  807a74:	00c10004 	movi	r3,1024
  807a78:	80c01315 	stw	r3,76(r16)
  807a7c:	10c4b03a 	or	r2,r2,r3
  807a80:	8080030d 	sth	r2,12(r16)
  807a84:	9000311e 	bne	r18,zero,807b4c <_fseeko_r+0x2ac>
  807a88:	a82d883a 	mov	r22,r21
  807a8c:	b800371e 	bne	r23,zero,807b6c <_fseeko_r+0x2cc>
  807a90:	8080030b 	ldhu	r2,12(r16)
  807a94:	1084000c 	andi	r2,r2,4096
  807a98:	10007f26 	beq	r2,zero,807c98 <_fseeko_r+0x3f8>
  807a9c:	80801417 	ldw	r2,80(r16)
  807aa0:	81800117 	ldw	r6,4(r16)
  807aa4:	81400c17 	ldw	r5,48(r16)
  807aa8:	11a7c83a 	sub	r19,r2,r6
  807aac:	28008226 	beq	r5,zero,807cb8 <_fseeko_r+0x418>
  807ab0:	81c00f17 	ldw	r7,60(r16)
  807ab4:	99e7c83a 	sub	r19,r19,r7
  807ab8:	81000e17 	ldw	r4,56(r16)
  807abc:	80800417 	ldw	r2,16(r16)
  807ac0:	99a7883a 	add	r19,r19,r6
  807ac4:	2087c83a 	sub	r3,r4,r2
  807ac8:	98e7c83a 	sub	r19,r19,r3
  807acc:	38c7883a 	add	r3,r7,r3
  807ad0:	b4c02b16 	blt	r22,r19,807b80 <_fseeko_r+0x2e0>
  807ad4:	98c9883a 	add	r4,r19,r3
  807ad8:	b100292e 	bgeu	r22,r4,807b80 <_fseeko_r+0x2e0>
  807adc:	b4e7c83a 	sub	r19,r22,r19
  807ae0:	14c5883a 	add	r2,r2,r19
  807ae4:	1ce7c83a 	sub	r19,r3,r19
  807ae8:	80800015 	stw	r2,0(r16)
  807aec:	84c00115 	stw	r19,4(r16)
  807af0:	28000526 	beq	r5,zero,807b08 <_fseeko_r+0x268>
  807af4:	80801004 	addi	r2,r16,64
  807af8:	28800226 	beq	r5,r2,807b04 <_fseeko_r+0x264>
  807afc:	8809883a 	mov	r4,r17
  807b00:	08075700 	call	807570 <_free_r>
  807b04:	80000c15 	stw	zero,48(r16)
  807b08:	8080030b 	ldhu	r2,12(r16)
  807b0c:	01800204 	movi	r6,8
  807b10:	000b883a 	mov	r5,zero
  807b14:	10bff7cc 	andi	r2,r2,65503
  807b18:	8080030d 	sth	r2,12(r16)
  807b1c:	81001704 	addi	r4,r16,92
  807b20:	08088ac0 	call	8088ac <memset>
  807b24:	0027883a 	mov	r19,zero
  807b28:	003f7c06 	br	80791c <__alt_mem_onchip_mem+0xff7ff91c>
  807b2c:	80c00117 	ldw	r3,4(r16)
  807b30:	80800c17 	ldw	r2,48(r16)
  807b34:	98e7c83a 	sub	r19,r19,r3
  807b38:	10003b26 	beq	r2,zero,807c28 <_fseeko_r+0x388>
  807b3c:	80c00f17 	ldw	r3,60(r16)
  807b40:	80800417 	ldw	r2,16(r16)
  807b44:	98e7c83a 	sub	r19,r19,r3
  807b48:	003fbc06 	br	807a3c <__alt_mem_onchip_mem+0xff7ffa3c>
  807b4c:	8140038f 	ldh	r5,14(r16)
  807b50:	d80d883a 	mov	r6,sp
  807b54:	8809883a 	mov	r4,r17
  807b58:	0807d000 	call	807d00 <_fstat_r>
  807b5c:	103f891e 	bne	r2,zero,807984 <__alt_mem_onchip_mem+0xff7ff984>
  807b60:	dd800417 	ldw	r22,16(sp)
  807b64:	adad883a 	add	r22,r21,r22
  807b68:	b83fc926 	beq	r23,zero,807a90 <__alt_mem_onchip_mem+0xff7ffa90>
  807b6c:	81400c17 	ldw	r5,48(r16)
  807b70:	81800117 	ldw	r6,4(r16)
  807b74:	28005026 	beq	r5,zero,807cb8 <_fseeko_r+0x418>
  807b78:	81c00f17 	ldw	r7,60(r16)
  807b7c:	003fce06 	br	807ab8 <__alt_mem_onchip_mem+0xff7ffab8>
  807b80:	84c01317 	ldw	r19,76(r16)
  807b84:	81400717 	ldw	r5,28(r16)
  807b88:	000f883a 	mov	r7,zero
  807b8c:	04e7c83a 	sub	r19,zero,r19
  807b90:	9da6703a 	and	r19,r19,r22
  807b94:	980d883a 	mov	r6,r19
  807b98:	8809883a 	mov	r4,r17
  807b9c:	a03ee83a 	callr	r20
  807ba0:	00ffffc4 	movi	r3,-1
  807ba4:	10ff7726 	beq	r2,r3,807984 <__alt_mem_onchip_mem+0xff7ff984>
  807ba8:	80800417 	ldw	r2,16(r16)
  807bac:	81400c17 	ldw	r5,48(r16)
  807bb0:	80000115 	stw	zero,4(r16)
  807bb4:	80800015 	stw	r2,0(r16)
  807bb8:	28000526 	beq	r5,zero,807bd0 <_fseeko_r+0x330>
  807bbc:	80801004 	addi	r2,r16,64
  807bc0:	28800226 	beq	r5,r2,807bcc <_fseeko_r+0x32c>
  807bc4:	8809883a 	mov	r4,r17
  807bc8:	08075700 	call	807570 <_free_r>
  807bcc:	80000c15 	stw	zero,48(r16)
  807bd0:	8080030b 	ldhu	r2,12(r16)
  807bd4:	b4e7c83a 	sub	r19,r22,r19
  807bd8:	10bff7cc 	andi	r2,r2,65503
  807bdc:	8080030d 	sth	r2,12(r16)
  807be0:	98000b26 	beq	r19,zero,807c10 <_fseeko_r+0x370>
  807be4:	800b883a 	mov	r5,r16
  807be8:	8809883a 	mov	r4,r17
  807bec:	0808cf80 	call	808cf8 <__srefill_r>
  807bf0:	103f641e 	bne	r2,zero,807984 <__alt_mem_onchip_mem+0xff7ff984>
  807bf4:	80800117 	ldw	r2,4(r16)
  807bf8:	14ff6236 	bltu	r2,r19,807984 <__alt_mem_onchip_mem+0xff7ff984>
  807bfc:	80c00017 	ldw	r3,0(r16)
  807c00:	14c5c83a 	sub	r2,r2,r19
  807c04:	80800115 	stw	r2,4(r16)
  807c08:	1ce7883a 	add	r19,r3,r19
  807c0c:	84c00015 	stw	r19,0(r16)
  807c10:	01800204 	movi	r6,8
  807c14:	000b883a 	mov	r5,zero
  807c18:	81001704 	addi	r4,r16,92
  807c1c:	08088ac0 	call	8088ac <memset>
  807c20:	0027883a 	mov	r19,zero
  807c24:	003f3d06 	br	80791c <__alt_mem_onchip_mem+0xff7ff91c>
  807c28:	80800417 	ldw	r2,16(r16)
  807c2c:	003f8306 	br	807a3c <__alt_mem_onchip_mem+0xff7ffa3c>
  807c30:	81400717 	ldw	r5,28(r16)
  807c34:	900f883a 	mov	r7,r18
  807c38:	000d883a 	mov	r6,zero
  807c3c:	8809883a 	mov	r4,r17
  807c40:	a03ee83a 	callr	r20
  807c44:	1027883a 	mov	r19,r2
  807c48:	00bfffc4 	movi	r2,-1
  807c4c:	98bf3226 	beq	r19,r2,807918 <__alt_mem_onchip_mem+0xff7ff918>
  807c50:	8080030b 	ldhu	r2,12(r16)
  807c54:	003f7006 	br	807a18 <__alt_mem_onchip_mem+0xff7ffa18>
  807c58:	8140038f 	ldh	r5,14(r16)
  807c5c:	283f4716 	blt	r5,zero,80797c <__alt_mem_onchip_mem+0xff7ff97c>
  807c60:	d80d883a 	mov	r6,sp
  807c64:	8809883a 	mov	r4,r17
  807c68:	0807d000 	call	807d00 <_fstat_r>
  807c6c:	1000041e 	bne	r2,zero,807c80 <_fseeko_r+0x3e0>
  807c70:	d8800117 	ldw	r2,4(sp)
  807c74:	00e00014 	movui	r3,32768
  807c78:	10bc000c 	andi	r2,r2,61440
  807c7c:	10ff7c26 	beq	r2,r3,807a70 <__alt_mem_onchip_mem+0xff7ffa70>
  807c80:	8080030b 	ldhu	r2,12(r16)
  807c84:	003f3d06 	br	80797c <__alt_mem_onchip_mem+0xff7ff97c>
  807c88:	800b883a 	mov	r5,r16
  807c8c:	8809883a 	mov	r4,r17
  807c90:	0807ee40 	call	807ee4 <__smakebuf_r>
  807c94:	003f3106 	br	80795c <__alt_mem_onchip_mem+0xff7ff95c>
  807c98:	81400717 	ldw	r5,28(r16)
  807c9c:	01c00044 	movi	r7,1
  807ca0:	000d883a 	mov	r6,zero
  807ca4:	8809883a 	mov	r4,r17
  807ca8:	a03ee83a 	callr	r20
  807cac:	00ffffc4 	movi	r3,-1
  807cb0:	10ff7b1e 	bne	r2,r3,807aa0 <__alt_mem_onchip_mem+0xff7ffaa0>
  807cb4:	003f3306 	br	807984 <__alt_mem_onchip_mem+0xff7ff984>
  807cb8:	80c00017 	ldw	r3,0(r16)
  807cbc:	80800417 	ldw	r2,16(r16)
  807cc0:	000b883a 	mov	r5,zero
  807cc4:	1887c83a 	sub	r3,r3,r2
  807cc8:	98e7c83a 	sub	r19,r19,r3
  807ccc:	30c7883a 	add	r3,r6,r3
  807cd0:	003f7f06 	br	807ad0 <__alt_mem_onchip_mem+0xff7ffad0>
  807cd4:	00800744 	movi	r2,29
  807cd8:	88800015 	stw	r2,0(r17)
  807cdc:	04ffffc4 	movi	r19,-1
  807ce0:	003f0e06 	br	80791c <__alt_mem_onchip_mem+0xff7ff91c>

00807ce4 <fseeko>:
  807ce4:	008020b4 	movhi	r2,130
  807ce8:	10a3ea04 	addi	r2,r2,-28760
  807cec:	300f883a 	mov	r7,r6
  807cf0:	280d883a 	mov	r6,r5
  807cf4:	200b883a 	mov	r5,r4
  807cf8:	11000017 	ldw	r4,0(r2)
  807cfc:	08078a01 	jmpi	8078a0 <_fseeko_r>

00807d00 <_fstat_r>:
  807d00:	defffd04 	addi	sp,sp,-12
  807d04:	2805883a 	mov	r2,r5
  807d08:	dc000015 	stw	r16,0(sp)
  807d0c:	040020b4 	movhi	r16,130
  807d10:	dc400115 	stw	r17,4(sp)
  807d14:	842b3604 	addi	r16,r16,-21288
  807d18:	2023883a 	mov	r17,r4
  807d1c:	300b883a 	mov	r5,r6
  807d20:	1009883a 	mov	r4,r2
  807d24:	dfc00215 	stw	ra,8(sp)
  807d28:	80000015 	stw	zero,0(r16)
  807d2c:	0812cf00 	call	812cf0 <fstat>
  807d30:	00ffffc4 	movi	r3,-1
  807d34:	10c00526 	beq	r2,r3,807d4c <_fstat_r+0x4c>
  807d38:	dfc00217 	ldw	ra,8(sp)
  807d3c:	dc400117 	ldw	r17,4(sp)
  807d40:	dc000017 	ldw	r16,0(sp)
  807d44:	dec00304 	addi	sp,sp,12
  807d48:	f800283a 	ret
  807d4c:	80c00017 	ldw	r3,0(r16)
  807d50:	183ff926 	beq	r3,zero,807d38 <__alt_mem_onchip_mem+0xff7ffd38>
  807d54:	88c00015 	stw	r3,0(r17)
  807d58:	003ff706 	br	807d38 <__alt_mem_onchip_mem+0xff7ffd38>

00807d5c <_fwalk>:
  807d5c:	defff704 	addi	sp,sp,-36
  807d60:	dd000415 	stw	r20,16(sp)
  807d64:	dfc00815 	stw	ra,32(sp)
  807d68:	ddc00715 	stw	r23,28(sp)
  807d6c:	dd800615 	stw	r22,24(sp)
  807d70:	dd400515 	stw	r21,20(sp)
  807d74:	dcc00315 	stw	r19,12(sp)
  807d78:	dc800215 	stw	r18,8(sp)
  807d7c:	dc400115 	stw	r17,4(sp)
  807d80:	dc000015 	stw	r16,0(sp)
  807d84:	2500b804 	addi	r20,r4,736
  807d88:	a0002326 	beq	r20,zero,807e18 <_fwalk+0xbc>
  807d8c:	282b883a 	mov	r21,r5
  807d90:	002f883a 	mov	r23,zero
  807d94:	05800044 	movi	r22,1
  807d98:	04ffffc4 	movi	r19,-1
  807d9c:	a4400117 	ldw	r17,4(r20)
  807da0:	a4800217 	ldw	r18,8(r20)
  807da4:	8c7fffc4 	addi	r17,r17,-1
  807da8:	88000d16 	blt	r17,zero,807de0 <_fwalk+0x84>
  807dac:	94000304 	addi	r16,r18,12
  807db0:	94800384 	addi	r18,r18,14
  807db4:	8080000b 	ldhu	r2,0(r16)
  807db8:	8c7fffc4 	addi	r17,r17,-1
  807dbc:	813ffd04 	addi	r4,r16,-12
  807dc0:	b080042e 	bgeu	r22,r2,807dd4 <_fwalk+0x78>
  807dc4:	9080000f 	ldh	r2,0(r18)
  807dc8:	14c00226 	beq	r2,r19,807dd4 <_fwalk+0x78>
  807dcc:	a83ee83a 	callr	r21
  807dd0:	b8aeb03a 	or	r23,r23,r2
  807dd4:	84001a04 	addi	r16,r16,104
  807dd8:	94801a04 	addi	r18,r18,104
  807ddc:	8cfff51e 	bne	r17,r19,807db4 <__alt_mem_onchip_mem+0xff7ffdb4>
  807de0:	a5000017 	ldw	r20,0(r20)
  807de4:	a03fed1e 	bne	r20,zero,807d9c <__alt_mem_onchip_mem+0xff7ffd9c>
  807de8:	b805883a 	mov	r2,r23
  807dec:	dfc00817 	ldw	ra,32(sp)
  807df0:	ddc00717 	ldw	r23,28(sp)
  807df4:	dd800617 	ldw	r22,24(sp)
  807df8:	dd400517 	ldw	r21,20(sp)
  807dfc:	dd000417 	ldw	r20,16(sp)
  807e00:	dcc00317 	ldw	r19,12(sp)
  807e04:	dc800217 	ldw	r18,8(sp)
  807e08:	dc400117 	ldw	r17,4(sp)
  807e0c:	dc000017 	ldw	r16,0(sp)
  807e10:	dec00904 	addi	sp,sp,36
  807e14:	f800283a 	ret
  807e18:	002f883a 	mov	r23,zero
  807e1c:	003ff206 	br	807de8 <__alt_mem_onchip_mem+0xff7ffde8>

00807e20 <_fwalk_reent>:
  807e20:	defff704 	addi	sp,sp,-36
  807e24:	dd000415 	stw	r20,16(sp)
  807e28:	dfc00815 	stw	ra,32(sp)
  807e2c:	ddc00715 	stw	r23,28(sp)
  807e30:	dd800615 	stw	r22,24(sp)
  807e34:	dd400515 	stw	r21,20(sp)
  807e38:	dcc00315 	stw	r19,12(sp)
  807e3c:	dc800215 	stw	r18,8(sp)
  807e40:	dc400115 	stw	r17,4(sp)
  807e44:	dc000015 	stw	r16,0(sp)
  807e48:	2500b804 	addi	r20,r4,736
  807e4c:	a0002326 	beq	r20,zero,807edc <_fwalk_reent+0xbc>
  807e50:	282b883a 	mov	r21,r5
  807e54:	2027883a 	mov	r19,r4
  807e58:	002f883a 	mov	r23,zero
  807e5c:	05800044 	movi	r22,1
  807e60:	04bfffc4 	movi	r18,-1
  807e64:	a4400117 	ldw	r17,4(r20)
  807e68:	a4000217 	ldw	r16,8(r20)
  807e6c:	8c7fffc4 	addi	r17,r17,-1
  807e70:	88000c16 	blt	r17,zero,807ea4 <_fwalk_reent+0x84>
  807e74:	84000304 	addi	r16,r16,12
  807e78:	8080000b 	ldhu	r2,0(r16)
  807e7c:	8c7fffc4 	addi	r17,r17,-1
  807e80:	817ffd04 	addi	r5,r16,-12
  807e84:	b080052e 	bgeu	r22,r2,807e9c <_fwalk_reent+0x7c>
  807e88:	8080008f 	ldh	r2,2(r16)
  807e8c:	9809883a 	mov	r4,r19
  807e90:	14800226 	beq	r2,r18,807e9c <_fwalk_reent+0x7c>
  807e94:	a83ee83a 	callr	r21
  807e98:	b8aeb03a 	or	r23,r23,r2
  807e9c:	84001a04 	addi	r16,r16,104
  807ea0:	8cbff51e 	bne	r17,r18,807e78 <__alt_mem_onchip_mem+0xff7ffe78>
  807ea4:	a5000017 	ldw	r20,0(r20)
  807ea8:	a03fee1e 	bne	r20,zero,807e64 <__alt_mem_onchip_mem+0xff7ffe64>
  807eac:	b805883a 	mov	r2,r23
  807eb0:	dfc00817 	ldw	ra,32(sp)
  807eb4:	ddc00717 	ldw	r23,28(sp)
  807eb8:	dd800617 	ldw	r22,24(sp)
  807ebc:	dd400517 	ldw	r21,20(sp)
  807ec0:	dd000417 	ldw	r20,16(sp)
  807ec4:	dcc00317 	ldw	r19,12(sp)
  807ec8:	dc800217 	ldw	r18,8(sp)
  807ecc:	dc400117 	ldw	r17,4(sp)
  807ed0:	dc000017 	ldw	r16,0(sp)
  807ed4:	dec00904 	addi	sp,sp,36
  807ed8:	f800283a 	ret
  807edc:	002f883a 	mov	r23,zero
  807ee0:	003ff206 	br	807eac <__alt_mem_onchip_mem+0xff7ffeac>

00807ee4 <__smakebuf_r>:
  807ee4:	2880030b 	ldhu	r2,12(r5)
  807ee8:	10c0008c 	andi	r3,r2,2
  807eec:	1800411e 	bne	r3,zero,807ff4 <__smakebuf_r+0x110>
  807ef0:	deffec04 	addi	sp,sp,-80
  807ef4:	dc000f15 	stw	r16,60(sp)
  807ef8:	2821883a 	mov	r16,r5
  807efc:	2940038f 	ldh	r5,14(r5)
  807f00:	dc401015 	stw	r17,64(sp)
  807f04:	dfc01315 	stw	ra,76(sp)
  807f08:	dcc01215 	stw	r19,72(sp)
  807f0c:	dc801115 	stw	r18,68(sp)
  807f10:	2023883a 	mov	r17,r4
  807f14:	28001c16 	blt	r5,zero,807f88 <__smakebuf_r+0xa4>
  807f18:	d80d883a 	mov	r6,sp
  807f1c:	0807d000 	call	807d00 <_fstat_r>
  807f20:	10001816 	blt	r2,zero,807f84 <__smakebuf_r+0xa0>
  807f24:	d8800117 	ldw	r2,4(sp)
  807f28:	00e00014 	movui	r3,32768
  807f2c:	10bc000c 	andi	r2,r2,61440
  807f30:	14c80020 	cmpeqi	r19,r2,8192
  807f34:	10c03726 	beq	r2,r3,808014 <__smakebuf_r+0x130>
  807f38:	80c0030b 	ldhu	r3,12(r16)
  807f3c:	18c20014 	ori	r3,r3,2048
  807f40:	80c0030d 	sth	r3,12(r16)
  807f44:	00c80004 	movi	r3,8192
  807f48:	10c0521e 	bne	r2,r3,808094 <__smakebuf_r+0x1b0>
  807f4c:	8140038f 	ldh	r5,14(r16)
  807f50:	8809883a 	mov	r4,r17
  807f54:	080d5180 	call	80d518 <_isatty_r>
  807f58:	10004c26 	beq	r2,zero,80808c <__smakebuf_r+0x1a8>
  807f5c:	8080030b 	ldhu	r2,12(r16)
  807f60:	80c010c4 	addi	r3,r16,67
  807f64:	80c00015 	stw	r3,0(r16)
  807f68:	10800054 	ori	r2,r2,1
  807f6c:	8080030d 	sth	r2,12(r16)
  807f70:	00800044 	movi	r2,1
  807f74:	80c00415 	stw	r3,16(r16)
  807f78:	80800515 	stw	r2,20(r16)
  807f7c:	04810004 	movi	r18,1024
  807f80:	00000706 	br	807fa0 <__smakebuf_r+0xbc>
  807f84:	8080030b 	ldhu	r2,12(r16)
  807f88:	10c0200c 	andi	r3,r2,128
  807f8c:	18001f1e 	bne	r3,zero,80800c <__smakebuf_r+0x128>
  807f90:	04810004 	movi	r18,1024
  807f94:	10820014 	ori	r2,r2,2048
  807f98:	8080030d 	sth	r2,12(r16)
  807f9c:	0027883a 	mov	r19,zero
  807fa0:	900b883a 	mov	r5,r18
  807fa4:	8809883a 	mov	r4,r17
  807fa8:	08080a00 	call	8080a0 <_malloc_r>
  807fac:	10002c26 	beq	r2,zero,808060 <__smakebuf_r+0x17c>
  807fb0:	80c0030b 	ldhu	r3,12(r16)
  807fb4:	01002034 	movhi	r4,128
  807fb8:	211baf04 	addi	r4,r4,28348
  807fbc:	89000f15 	stw	r4,60(r17)
  807fc0:	18c02014 	ori	r3,r3,128
  807fc4:	80c0030d 	sth	r3,12(r16)
  807fc8:	80800015 	stw	r2,0(r16)
  807fcc:	80800415 	stw	r2,16(r16)
  807fd0:	84800515 	stw	r18,20(r16)
  807fd4:	98001a1e 	bne	r19,zero,808040 <__smakebuf_r+0x15c>
  807fd8:	dfc01317 	ldw	ra,76(sp)
  807fdc:	dcc01217 	ldw	r19,72(sp)
  807fe0:	dc801117 	ldw	r18,68(sp)
  807fe4:	dc401017 	ldw	r17,64(sp)
  807fe8:	dc000f17 	ldw	r16,60(sp)
  807fec:	dec01404 	addi	sp,sp,80
  807ff0:	f800283a 	ret
  807ff4:	288010c4 	addi	r2,r5,67
  807ff8:	28800015 	stw	r2,0(r5)
  807ffc:	28800415 	stw	r2,16(r5)
  808000:	00800044 	movi	r2,1
  808004:	28800515 	stw	r2,20(r5)
  808008:	f800283a 	ret
  80800c:	04801004 	movi	r18,64
  808010:	003fe006 	br	807f94 <__alt_mem_onchip_mem+0xff7fff94>
  808014:	81000a17 	ldw	r4,40(r16)
  808018:	00c02074 	movhi	r3,129
  80801c:	18e3fe04 	addi	r3,r3,-28680
  808020:	20ffc51e 	bne	r4,r3,807f38 <__alt_mem_onchip_mem+0xff7fff38>
  808024:	8080030b 	ldhu	r2,12(r16)
  808028:	04810004 	movi	r18,1024
  80802c:	84801315 	stw	r18,76(r16)
  808030:	1484b03a 	or	r2,r2,r18
  808034:	8080030d 	sth	r2,12(r16)
  808038:	0027883a 	mov	r19,zero
  80803c:	003fd806 	br	807fa0 <__alt_mem_onchip_mem+0xff7fffa0>
  808040:	8140038f 	ldh	r5,14(r16)
  808044:	8809883a 	mov	r4,r17
  808048:	080d5180 	call	80d518 <_isatty_r>
  80804c:	103fe226 	beq	r2,zero,807fd8 <__alt_mem_onchip_mem+0xff7fffd8>
  808050:	8080030b 	ldhu	r2,12(r16)
  808054:	10800054 	ori	r2,r2,1
  808058:	8080030d 	sth	r2,12(r16)
  80805c:	003fde06 	br	807fd8 <__alt_mem_onchip_mem+0xff7fffd8>
  808060:	8080030b 	ldhu	r2,12(r16)
  808064:	10c0800c 	andi	r3,r2,512
  808068:	183fdb1e 	bne	r3,zero,807fd8 <__alt_mem_onchip_mem+0xff7fffd8>
  80806c:	10800094 	ori	r2,r2,2
  808070:	80c010c4 	addi	r3,r16,67
  808074:	8080030d 	sth	r2,12(r16)
  808078:	00800044 	movi	r2,1
  80807c:	80c00015 	stw	r3,0(r16)
  808080:	80c00415 	stw	r3,16(r16)
  808084:	80800515 	stw	r2,20(r16)
  808088:	003fd306 	br	807fd8 <__alt_mem_onchip_mem+0xff7fffd8>
  80808c:	04810004 	movi	r18,1024
  808090:	003fc306 	br	807fa0 <__alt_mem_onchip_mem+0xff7fffa0>
  808094:	0027883a 	mov	r19,zero
  808098:	04810004 	movi	r18,1024
  80809c:	003fc006 	br	807fa0 <__alt_mem_onchip_mem+0xff7fffa0>

008080a0 <_malloc_r>:
  8080a0:	defff504 	addi	sp,sp,-44
  8080a4:	dc800315 	stw	r18,12(sp)
  8080a8:	dfc00a15 	stw	ra,40(sp)
  8080ac:	df000915 	stw	fp,36(sp)
  8080b0:	ddc00815 	stw	r23,32(sp)
  8080b4:	dd800715 	stw	r22,28(sp)
  8080b8:	dd400615 	stw	r21,24(sp)
  8080bc:	dd000515 	stw	r20,20(sp)
  8080c0:	dcc00415 	stw	r19,16(sp)
  8080c4:	dc400215 	stw	r17,8(sp)
  8080c8:	dc000115 	stw	r16,4(sp)
  8080cc:	288002c4 	addi	r2,r5,11
  8080d0:	00c00584 	movi	r3,22
  8080d4:	2025883a 	mov	r18,r4
  8080d8:	18807f2e 	bgeu	r3,r2,8082d8 <_malloc_r+0x238>
  8080dc:	047ffe04 	movi	r17,-8
  8080e0:	1462703a 	and	r17,r2,r17
  8080e4:	8800a316 	blt	r17,zero,808374 <_malloc_r+0x2d4>
  8080e8:	8940a236 	bltu	r17,r5,808374 <_malloc_r+0x2d4>
  8080ec:	08132780 	call	813278 <__malloc_lock>
  8080f0:	00807dc4 	movi	r2,503
  8080f4:	1441e92e 	bgeu	r2,r17,80889c <_malloc_r+0x7fc>
  8080f8:	8804d27a 	srli	r2,r17,9
  8080fc:	1000a126 	beq	r2,zero,808384 <_malloc_r+0x2e4>
  808100:	00c00104 	movi	r3,4
  808104:	18811e36 	bltu	r3,r2,808580 <_malloc_r+0x4e0>
  808108:	8804d1ba 	srli	r2,r17,6
  80810c:	12000e44 	addi	r8,r2,57
  808110:	11c00e04 	addi	r7,r2,56
  808114:	4209883a 	add	r4,r8,r8
  808118:	04c02074 	movhi	r19,129
  80811c:	2109883a 	add	r4,r4,r4
  808120:	9cddce04 	addi	r19,r19,30520
  808124:	2109883a 	add	r4,r4,r4
  808128:	9909883a 	add	r4,r19,r4
  80812c:	24000117 	ldw	r16,4(r4)
  808130:	213ffe04 	addi	r4,r4,-8
  808134:	24009726 	beq	r4,r16,808394 <_malloc_r+0x2f4>
  808138:	80800117 	ldw	r2,4(r16)
  80813c:	01bfff04 	movi	r6,-4
  808140:	014003c4 	movi	r5,15
  808144:	1184703a 	and	r2,r2,r6
  808148:	1447c83a 	sub	r3,r2,r17
  80814c:	28c00716 	blt	r5,r3,80816c <_malloc_r+0xcc>
  808150:	1800920e 	bge	r3,zero,80839c <_malloc_r+0x2fc>
  808154:	84000317 	ldw	r16,12(r16)
  808158:	24008e26 	beq	r4,r16,808394 <_malloc_r+0x2f4>
  80815c:	80800117 	ldw	r2,4(r16)
  808160:	1184703a 	and	r2,r2,r6
  808164:	1447c83a 	sub	r3,r2,r17
  808168:	28fff90e 	bge	r5,r3,808150 <__alt_mem_onchip_mem+0xff800150>
  80816c:	3809883a 	mov	r4,r7
  808170:	01802074 	movhi	r6,129
  808174:	9c000417 	ldw	r16,16(r19)
  808178:	319dce04 	addi	r6,r6,30520
  80817c:	32000204 	addi	r8,r6,8
  808180:	82013426 	beq	r16,r8,808654 <_malloc_r+0x5b4>
  808184:	80c00117 	ldw	r3,4(r16)
  808188:	00bfff04 	movi	r2,-4
  80818c:	188e703a 	and	r7,r3,r2
  808190:	3c45c83a 	sub	r2,r7,r17
  808194:	00c003c4 	movi	r3,15
  808198:	18811f16 	blt	r3,r2,808618 <_malloc_r+0x578>
  80819c:	32000515 	stw	r8,20(r6)
  8081a0:	32000415 	stw	r8,16(r6)
  8081a4:	10007f0e 	bge	r2,zero,8083a4 <_malloc_r+0x304>
  8081a8:	00807fc4 	movi	r2,511
  8081ac:	11c0fd36 	bltu	r2,r7,8085a4 <_malloc_r+0x504>
  8081b0:	3806d0fa 	srli	r3,r7,3
  8081b4:	01c00044 	movi	r7,1
  8081b8:	30800117 	ldw	r2,4(r6)
  8081bc:	19400044 	addi	r5,r3,1
  8081c0:	294b883a 	add	r5,r5,r5
  8081c4:	1807d0ba 	srai	r3,r3,2
  8081c8:	294b883a 	add	r5,r5,r5
  8081cc:	294b883a 	add	r5,r5,r5
  8081d0:	298b883a 	add	r5,r5,r6
  8081d4:	38c6983a 	sll	r3,r7,r3
  8081d8:	29c00017 	ldw	r7,0(r5)
  8081dc:	2a7ffe04 	addi	r9,r5,-8
  8081e0:	1886b03a 	or	r3,r3,r2
  8081e4:	82400315 	stw	r9,12(r16)
  8081e8:	81c00215 	stw	r7,8(r16)
  8081ec:	30c00115 	stw	r3,4(r6)
  8081f0:	2c000015 	stw	r16,0(r5)
  8081f4:	3c000315 	stw	r16,12(r7)
  8081f8:	2005d0ba 	srai	r2,r4,2
  8081fc:	01400044 	movi	r5,1
  808200:	288a983a 	sll	r5,r5,r2
  808204:	19406f36 	bltu	r3,r5,8083c4 <_malloc_r+0x324>
  808208:	28c4703a 	and	r2,r5,r3
  80820c:	10000a1e 	bne	r2,zero,808238 <_malloc_r+0x198>
  808210:	00bfff04 	movi	r2,-4
  808214:	294b883a 	add	r5,r5,r5
  808218:	2088703a 	and	r4,r4,r2
  80821c:	28c4703a 	and	r2,r5,r3
  808220:	21000104 	addi	r4,r4,4
  808224:	1000041e 	bne	r2,zero,808238 <_malloc_r+0x198>
  808228:	294b883a 	add	r5,r5,r5
  80822c:	28c4703a 	and	r2,r5,r3
  808230:	21000104 	addi	r4,r4,4
  808234:	103ffc26 	beq	r2,zero,808228 <__alt_mem_onchip_mem+0xff800228>
  808238:	02bfff04 	movi	r10,-4
  80823c:	024003c4 	movi	r9,15
  808240:	21800044 	addi	r6,r4,1
  808244:	318d883a 	add	r6,r6,r6
  808248:	318d883a 	add	r6,r6,r6
  80824c:	318d883a 	add	r6,r6,r6
  808250:	998d883a 	add	r6,r19,r6
  808254:	333ffe04 	addi	r12,r6,-8
  808258:	2017883a 	mov	r11,r4
  80825c:	31800104 	addi	r6,r6,4
  808260:	34000017 	ldw	r16,0(r6)
  808264:	31fffd04 	addi	r7,r6,-12
  808268:	81c0041e 	bne	r16,r7,80827c <_malloc_r+0x1dc>
  80826c:	0000fb06 	br	80865c <_malloc_r+0x5bc>
  808270:	1801030e 	bge	r3,zero,808680 <_malloc_r+0x5e0>
  808274:	84000317 	ldw	r16,12(r16)
  808278:	81c0f826 	beq	r16,r7,80865c <_malloc_r+0x5bc>
  80827c:	80800117 	ldw	r2,4(r16)
  808280:	1284703a 	and	r2,r2,r10
  808284:	1447c83a 	sub	r3,r2,r17
  808288:	48fff90e 	bge	r9,r3,808270 <__alt_mem_onchip_mem+0xff800270>
  80828c:	80800317 	ldw	r2,12(r16)
  808290:	81000217 	ldw	r4,8(r16)
  808294:	89400054 	ori	r5,r17,1
  808298:	81400115 	stw	r5,4(r16)
  80829c:	20800315 	stw	r2,12(r4)
  8082a0:	11000215 	stw	r4,8(r2)
  8082a4:	8463883a 	add	r17,r16,r17
  8082a8:	9c400515 	stw	r17,20(r19)
  8082ac:	9c400415 	stw	r17,16(r19)
  8082b0:	18800054 	ori	r2,r3,1
  8082b4:	88800115 	stw	r2,4(r17)
  8082b8:	8a000315 	stw	r8,12(r17)
  8082bc:	8a000215 	stw	r8,8(r17)
  8082c0:	88e3883a 	add	r17,r17,r3
  8082c4:	88c00015 	stw	r3,0(r17)
  8082c8:	9009883a 	mov	r4,r18
  8082cc:	081329c0 	call	81329c <__malloc_unlock>
  8082d0:	80800204 	addi	r2,r16,8
  8082d4:	00001b06 	br	808344 <_malloc_r+0x2a4>
  8082d8:	04400404 	movi	r17,16
  8082dc:	89402536 	bltu	r17,r5,808374 <_malloc_r+0x2d4>
  8082e0:	08132780 	call	813278 <__malloc_lock>
  8082e4:	00800184 	movi	r2,6
  8082e8:	01000084 	movi	r4,2
  8082ec:	04c02074 	movhi	r19,129
  8082f0:	1085883a 	add	r2,r2,r2
  8082f4:	9cddce04 	addi	r19,r19,30520
  8082f8:	1085883a 	add	r2,r2,r2
  8082fc:	9885883a 	add	r2,r19,r2
  808300:	14000117 	ldw	r16,4(r2)
  808304:	10fffe04 	addi	r3,r2,-8
  808308:	80c0d926 	beq	r16,r3,808670 <_malloc_r+0x5d0>
  80830c:	80c00117 	ldw	r3,4(r16)
  808310:	81000317 	ldw	r4,12(r16)
  808314:	00bfff04 	movi	r2,-4
  808318:	1884703a 	and	r2,r3,r2
  80831c:	81400217 	ldw	r5,8(r16)
  808320:	8085883a 	add	r2,r16,r2
  808324:	10c00117 	ldw	r3,4(r2)
  808328:	29000315 	stw	r4,12(r5)
  80832c:	21400215 	stw	r5,8(r4)
  808330:	18c00054 	ori	r3,r3,1
  808334:	10c00115 	stw	r3,4(r2)
  808338:	9009883a 	mov	r4,r18
  80833c:	081329c0 	call	81329c <__malloc_unlock>
  808340:	80800204 	addi	r2,r16,8
  808344:	dfc00a17 	ldw	ra,40(sp)
  808348:	df000917 	ldw	fp,36(sp)
  80834c:	ddc00817 	ldw	r23,32(sp)
  808350:	dd800717 	ldw	r22,28(sp)
  808354:	dd400617 	ldw	r21,24(sp)
  808358:	dd000517 	ldw	r20,20(sp)
  80835c:	dcc00417 	ldw	r19,16(sp)
  808360:	dc800317 	ldw	r18,12(sp)
  808364:	dc400217 	ldw	r17,8(sp)
  808368:	dc000117 	ldw	r16,4(sp)
  80836c:	dec00b04 	addi	sp,sp,44
  808370:	f800283a 	ret
  808374:	00800304 	movi	r2,12
  808378:	90800015 	stw	r2,0(r18)
  80837c:	0005883a 	mov	r2,zero
  808380:	003ff006 	br	808344 <__alt_mem_onchip_mem+0xff800344>
  808384:	01002004 	movi	r4,128
  808388:	02001004 	movi	r8,64
  80838c:	01c00fc4 	movi	r7,63
  808390:	003f6106 	br	808118 <__alt_mem_onchip_mem+0xff800118>
  808394:	4009883a 	mov	r4,r8
  808398:	003f7506 	br	808170 <__alt_mem_onchip_mem+0xff800170>
  80839c:	81000317 	ldw	r4,12(r16)
  8083a0:	003fde06 	br	80831c <__alt_mem_onchip_mem+0xff80031c>
  8083a4:	81c5883a 	add	r2,r16,r7
  8083a8:	11400117 	ldw	r5,4(r2)
  8083ac:	9009883a 	mov	r4,r18
  8083b0:	29400054 	ori	r5,r5,1
  8083b4:	11400115 	stw	r5,4(r2)
  8083b8:	081329c0 	call	81329c <__malloc_unlock>
  8083bc:	80800204 	addi	r2,r16,8
  8083c0:	003fe006 	br	808344 <__alt_mem_onchip_mem+0xff800344>
  8083c4:	9c000217 	ldw	r16,8(r19)
  8083c8:	00bfff04 	movi	r2,-4
  8083cc:	85800117 	ldw	r22,4(r16)
  8083d0:	b0ac703a 	and	r22,r22,r2
  8083d4:	b4400336 	bltu	r22,r17,8083e4 <_malloc_r+0x344>
  8083d8:	b445c83a 	sub	r2,r22,r17
  8083dc:	00c003c4 	movi	r3,15
  8083e0:	18805d16 	blt	r3,r2,808558 <_malloc_r+0x4b8>
  8083e4:	05c020b4 	movhi	r23,130
  8083e8:	008020b4 	movhi	r2,130
  8083ec:	10ab3904 	addi	r2,r2,-21276
  8083f0:	bde3eb04 	addi	r23,r23,-28756
  8083f4:	15400017 	ldw	r21,0(r2)
  8083f8:	b8c00017 	ldw	r3,0(r23)
  8083fc:	00bfffc4 	movi	r2,-1
  808400:	858d883a 	add	r6,r16,r22
  808404:	8d6b883a 	add	r21,r17,r21
  808408:	1880ea26 	beq	r3,r2,8087b4 <_malloc_r+0x714>
  80840c:	ad4403c4 	addi	r21,r21,4111
  808410:	00bc0004 	movi	r2,-4096
  808414:	a8aa703a 	and	r21,r21,r2
  808418:	a80b883a 	mov	r5,r21
  80841c:	9009883a 	mov	r4,r18
  808420:	d9800015 	stw	r6,0(sp)
  808424:	0808ecc0 	call	808ecc <_sbrk_r>
  808428:	1029883a 	mov	r20,r2
  80842c:	00bfffc4 	movi	r2,-1
  808430:	d9800017 	ldw	r6,0(sp)
  808434:	a080e826 	beq	r20,r2,8087d8 <_malloc_r+0x738>
  808438:	a180a636 	bltu	r20,r6,8086d4 <_malloc_r+0x634>
  80843c:	070020b4 	movhi	fp,130
  808440:	e72b4404 	addi	fp,fp,-21232
  808444:	e0800017 	ldw	r2,0(fp)
  808448:	a887883a 	add	r3,r21,r2
  80844c:	e0c00015 	stw	r3,0(fp)
  808450:	3500e626 	beq	r6,r20,8087ec <_malloc_r+0x74c>
  808454:	b9000017 	ldw	r4,0(r23)
  808458:	00bfffc4 	movi	r2,-1
  80845c:	2080ee26 	beq	r4,r2,808818 <_malloc_r+0x778>
  808460:	a185c83a 	sub	r2,r20,r6
  808464:	10c5883a 	add	r2,r2,r3
  808468:	e0800015 	stw	r2,0(fp)
  80846c:	a0c001cc 	andi	r3,r20,7
  808470:	1800bc26 	beq	r3,zero,808764 <_malloc_r+0x6c4>
  808474:	a0e9c83a 	sub	r20,r20,r3
  808478:	00840204 	movi	r2,4104
  80847c:	a5000204 	addi	r20,r20,8
  808480:	10c7c83a 	sub	r3,r2,r3
  808484:	a545883a 	add	r2,r20,r21
  808488:	1083ffcc 	andi	r2,r2,4095
  80848c:	18abc83a 	sub	r21,r3,r2
  808490:	a80b883a 	mov	r5,r21
  808494:	9009883a 	mov	r4,r18
  808498:	0808ecc0 	call	808ecc <_sbrk_r>
  80849c:	00ffffc4 	movi	r3,-1
  8084a0:	10c0e126 	beq	r2,r3,808828 <_malloc_r+0x788>
  8084a4:	1505c83a 	sub	r2,r2,r20
  8084a8:	1545883a 	add	r2,r2,r21
  8084ac:	10800054 	ori	r2,r2,1
  8084b0:	e0c00017 	ldw	r3,0(fp)
  8084b4:	9d000215 	stw	r20,8(r19)
  8084b8:	a0800115 	stw	r2,4(r20)
  8084bc:	a8c7883a 	add	r3,r21,r3
  8084c0:	e0c00015 	stw	r3,0(fp)
  8084c4:	84c00e26 	beq	r16,r19,808500 <_malloc_r+0x460>
  8084c8:	018003c4 	movi	r6,15
  8084cc:	3580a72e 	bgeu	r6,r22,80876c <_malloc_r+0x6cc>
  8084d0:	81400117 	ldw	r5,4(r16)
  8084d4:	013ffe04 	movi	r4,-8
  8084d8:	b0bffd04 	addi	r2,r22,-12
  8084dc:	1104703a 	and	r2,r2,r4
  8084e0:	2900004c 	andi	r4,r5,1
  8084e4:	2088b03a 	or	r4,r4,r2
  8084e8:	81000115 	stw	r4,4(r16)
  8084ec:	01400144 	movi	r5,5
  8084f0:	8089883a 	add	r4,r16,r2
  8084f4:	21400115 	stw	r5,4(r4)
  8084f8:	21400215 	stw	r5,8(r4)
  8084fc:	3080cd36 	bltu	r6,r2,808834 <_malloc_r+0x794>
  808500:	008020b4 	movhi	r2,130
  808504:	10ab3804 	addi	r2,r2,-21280
  808508:	11000017 	ldw	r4,0(r2)
  80850c:	20c0012e 	bgeu	r4,r3,808514 <_malloc_r+0x474>
  808510:	10c00015 	stw	r3,0(r2)
  808514:	008020b4 	movhi	r2,130
  808518:	10ab3704 	addi	r2,r2,-21284
  80851c:	11000017 	ldw	r4,0(r2)
  808520:	9c000217 	ldw	r16,8(r19)
  808524:	20c0012e 	bgeu	r4,r3,80852c <_malloc_r+0x48c>
  808528:	10c00015 	stw	r3,0(r2)
  80852c:	80c00117 	ldw	r3,4(r16)
  808530:	00bfff04 	movi	r2,-4
  808534:	1886703a 	and	r3,r3,r2
  808538:	1c45c83a 	sub	r2,r3,r17
  80853c:	1c400236 	bltu	r3,r17,808548 <_malloc_r+0x4a8>
  808540:	00c003c4 	movi	r3,15
  808544:	18800416 	blt	r3,r2,808558 <_malloc_r+0x4b8>
  808548:	9009883a 	mov	r4,r18
  80854c:	081329c0 	call	81329c <__malloc_unlock>
  808550:	0005883a 	mov	r2,zero
  808554:	003f7b06 	br	808344 <__alt_mem_onchip_mem+0xff800344>
  808558:	88c00054 	ori	r3,r17,1
  80855c:	80c00115 	stw	r3,4(r16)
  808560:	8463883a 	add	r17,r16,r17
  808564:	10800054 	ori	r2,r2,1
  808568:	9c400215 	stw	r17,8(r19)
  80856c:	88800115 	stw	r2,4(r17)
  808570:	9009883a 	mov	r4,r18
  808574:	081329c0 	call	81329c <__malloc_unlock>
  808578:	80800204 	addi	r2,r16,8
  80857c:	003f7106 	br	808344 <__alt_mem_onchip_mem+0xff800344>
  808580:	00c00504 	movi	r3,20
  808584:	18804a2e 	bgeu	r3,r2,8086b0 <_malloc_r+0x610>
  808588:	00c01504 	movi	r3,84
  80858c:	18806e36 	bltu	r3,r2,808748 <_malloc_r+0x6a8>
  808590:	8804d33a 	srli	r2,r17,12
  808594:	12001bc4 	addi	r8,r2,111
  808598:	11c01b84 	addi	r7,r2,110
  80859c:	4209883a 	add	r4,r8,r8
  8085a0:	003edd06 	br	808118 <__alt_mem_onchip_mem+0xff800118>
  8085a4:	3804d27a 	srli	r2,r7,9
  8085a8:	00c00104 	movi	r3,4
  8085ac:	1880442e 	bgeu	r3,r2,8086c0 <_malloc_r+0x620>
  8085b0:	00c00504 	movi	r3,20
  8085b4:	18808136 	bltu	r3,r2,8087bc <_malloc_r+0x71c>
  8085b8:	11401704 	addi	r5,r2,92
  8085bc:	10c016c4 	addi	r3,r2,91
  8085c0:	294b883a 	add	r5,r5,r5
  8085c4:	294b883a 	add	r5,r5,r5
  8085c8:	294b883a 	add	r5,r5,r5
  8085cc:	994b883a 	add	r5,r19,r5
  8085d0:	28800017 	ldw	r2,0(r5)
  8085d4:	01802074 	movhi	r6,129
  8085d8:	297ffe04 	addi	r5,r5,-8
  8085dc:	319dce04 	addi	r6,r6,30520
  8085e0:	28806526 	beq	r5,r2,808778 <_malloc_r+0x6d8>
  8085e4:	01bfff04 	movi	r6,-4
  8085e8:	10c00117 	ldw	r3,4(r2)
  8085ec:	1986703a 	and	r3,r3,r6
  8085f0:	38c0022e 	bgeu	r7,r3,8085fc <_malloc_r+0x55c>
  8085f4:	10800217 	ldw	r2,8(r2)
  8085f8:	28bffb1e 	bne	r5,r2,8085e8 <__alt_mem_onchip_mem+0xff8005e8>
  8085fc:	11400317 	ldw	r5,12(r2)
  808600:	98c00117 	ldw	r3,4(r19)
  808604:	81400315 	stw	r5,12(r16)
  808608:	80800215 	stw	r2,8(r16)
  80860c:	2c000215 	stw	r16,8(r5)
  808610:	14000315 	stw	r16,12(r2)
  808614:	003ef806 	br	8081f8 <__alt_mem_onchip_mem+0xff8001f8>
  808618:	88c00054 	ori	r3,r17,1
  80861c:	80c00115 	stw	r3,4(r16)
  808620:	8463883a 	add	r17,r16,r17
  808624:	34400515 	stw	r17,20(r6)
  808628:	34400415 	stw	r17,16(r6)
  80862c:	10c00054 	ori	r3,r2,1
  808630:	8a000315 	stw	r8,12(r17)
  808634:	8a000215 	stw	r8,8(r17)
  808638:	88c00115 	stw	r3,4(r17)
  80863c:	88a3883a 	add	r17,r17,r2
  808640:	88800015 	stw	r2,0(r17)
  808644:	9009883a 	mov	r4,r18
  808648:	081329c0 	call	81329c <__malloc_unlock>
  80864c:	80800204 	addi	r2,r16,8
  808650:	003f3c06 	br	808344 <__alt_mem_onchip_mem+0xff800344>
  808654:	30c00117 	ldw	r3,4(r6)
  808658:	003ee706 	br	8081f8 <__alt_mem_onchip_mem+0xff8001f8>
  80865c:	5ac00044 	addi	r11,r11,1
  808660:	588000cc 	andi	r2,r11,3
  808664:	31800204 	addi	r6,r6,8
  808668:	103efd1e 	bne	r2,zero,808260 <__alt_mem_onchip_mem+0xff800260>
  80866c:	00002406 	br	808700 <_malloc_r+0x660>
  808670:	14000317 	ldw	r16,12(r2)
  808674:	143f251e 	bne	r2,r16,80830c <__alt_mem_onchip_mem+0xff80030c>
  808678:	21000084 	addi	r4,r4,2
  80867c:	003ebc06 	br	808170 <__alt_mem_onchip_mem+0xff800170>
  808680:	8085883a 	add	r2,r16,r2
  808684:	10c00117 	ldw	r3,4(r2)
  808688:	81000317 	ldw	r4,12(r16)
  80868c:	81400217 	ldw	r5,8(r16)
  808690:	18c00054 	ori	r3,r3,1
  808694:	10c00115 	stw	r3,4(r2)
  808698:	29000315 	stw	r4,12(r5)
  80869c:	21400215 	stw	r5,8(r4)
  8086a0:	9009883a 	mov	r4,r18
  8086a4:	081329c0 	call	81329c <__malloc_unlock>
  8086a8:	80800204 	addi	r2,r16,8
  8086ac:	003f2506 	br	808344 <__alt_mem_onchip_mem+0xff800344>
  8086b0:	12001704 	addi	r8,r2,92
  8086b4:	11c016c4 	addi	r7,r2,91
  8086b8:	4209883a 	add	r4,r8,r8
  8086bc:	003e9606 	br	808118 <__alt_mem_onchip_mem+0xff800118>
  8086c0:	3804d1ba 	srli	r2,r7,6
  8086c4:	11400e44 	addi	r5,r2,57
  8086c8:	10c00e04 	addi	r3,r2,56
  8086cc:	294b883a 	add	r5,r5,r5
  8086d0:	003fbc06 	br	8085c4 <__alt_mem_onchip_mem+0xff8005c4>
  8086d4:	84ff5926 	beq	r16,r19,80843c <__alt_mem_onchip_mem+0xff80043c>
  8086d8:	00802074 	movhi	r2,129
  8086dc:	109dce04 	addi	r2,r2,30520
  8086e0:	14000217 	ldw	r16,8(r2)
  8086e4:	00bfff04 	movi	r2,-4
  8086e8:	80c00117 	ldw	r3,4(r16)
  8086ec:	1886703a 	and	r3,r3,r2
  8086f0:	003f9106 	br	808538 <__alt_mem_onchip_mem+0xff800538>
  8086f4:	60800217 	ldw	r2,8(r12)
  8086f8:	213fffc4 	addi	r4,r4,-1
  8086fc:	1300651e 	bne	r2,r12,808894 <_malloc_r+0x7f4>
  808700:	208000cc 	andi	r2,r4,3
  808704:	633ffe04 	addi	r12,r12,-8
  808708:	103ffa1e 	bne	r2,zero,8086f4 <__alt_mem_onchip_mem+0xff8006f4>
  80870c:	98800117 	ldw	r2,4(r19)
  808710:	0146303a 	nor	r3,zero,r5
  808714:	1884703a 	and	r2,r3,r2
  808718:	98800115 	stw	r2,4(r19)
  80871c:	294b883a 	add	r5,r5,r5
  808720:	117f2836 	bltu	r2,r5,8083c4 <__alt_mem_onchip_mem+0xff8003c4>
  808724:	283f2726 	beq	r5,zero,8083c4 <__alt_mem_onchip_mem+0xff8003c4>
  808728:	2886703a 	and	r3,r5,r2
  80872c:	5809883a 	mov	r4,r11
  808730:	183ec31e 	bne	r3,zero,808240 <__alt_mem_onchip_mem+0xff800240>
  808734:	294b883a 	add	r5,r5,r5
  808738:	2886703a 	and	r3,r5,r2
  80873c:	21000104 	addi	r4,r4,4
  808740:	183ffc26 	beq	r3,zero,808734 <__alt_mem_onchip_mem+0xff800734>
  808744:	003ebe06 	br	808240 <__alt_mem_onchip_mem+0xff800240>
  808748:	00c05504 	movi	r3,340
  80874c:	18801236 	bltu	r3,r2,808798 <_malloc_r+0x6f8>
  808750:	8804d3fa 	srli	r2,r17,15
  808754:	12001e04 	addi	r8,r2,120
  808758:	11c01dc4 	addi	r7,r2,119
  80875c:	4209883a 	add	r4,r8,r8
  808760:	003e6d06 	br	808118 <__alt_mem_onchip_mem+0xff800118>
  808764:	00c40004 	movi	r3,4096
  808768:	003f4606 	br	808484 <__alt_mem_onchip_mem+0xff800484>
  80876c:	00800044 	movi	r2,1
  808770:	a0800115 	stw	r2,4(r20)
  808774:	003f7406 	br	808548 <__alt_mem_onchip_mem+0xff800548>
  808778:	1805d0ba 	srai	r2,r3,2
  80877c:	01c00044 	movi	r7,1
  808780:	30c00117 	ldw	r3,4(r6)
  808784:	388e983a 	sll	r7,r7,r2
  808788:	2805883a 	mov	r2,r5
  80878c:	38c6b03a 	or	r3,r7,r3
  808790:	30c00115 	stw	r3,4(r6)
  808794:	003f9b06 	br	808604 <__alt_mem_onchip_mem+0xff800604>
  808798:	00c15504 	movi	r3,1364
  80879c:	18801a36 	bltu	r3,r2,808808 <_malloc_r+0x768>
  8087a0:	8804d4ba 	srli	r2,r17,18
  8087a4:	12001f44 	addi	r8,r2,125
  8087a8:	11c01f04 	addi	r7,r2,124
  8087ac:	4209883a 	add	r4,r8,r8
  8087b0:	003e5906 	br	808118 <__alt_mem_onchip_mem+0xff800118>
  8087b4:	ad400404 	addi	r21,r21,16
  8087b8:	003f1706 	br	808418 <__alt_mem_onchip_mem+0xff800418>
  8087bc:	00c01504 	movi	r3,84
  8087c0:	18802336 	bltu	r3,r2,808850 <_malloc_r+0x7b0>
  8087c4:	3804d33a 	srli	r2,r7,12
  8087c8:	11401bc4 	addi	r5,r2,111
  8087cc:	10c01b84 	addi	r3,r2,110
  8087d0:	294b883a 	add	r5,r5,r5
  8087d4:	003f7b06 	br	8085c4 <__alt_mem_onchip_mem+0xff8005c4>
  8087d8:	9c000217 	ldw	r16,8(r19)
  8087dc:	00bfff04 	movi	r2,-4
  8087e0:	80c00117 	ldw	r3,4(r16)
  8087e4:	1886703a 	and	r3,r3,r2
  8087e8:	003f5306 	br	808538 <__alt_mem_onchip_mem+0xff800538>
  8087ec:	3083ffcc 	andi	r2,r6,4095
  8087f0:	103f181e 	bne	r2,zero,808454 <__alt_mem_onchip_mem+0xff800454>
  8087f4:	99000217 	ldw	r4,8(r19)
  8087f8:	b545883a 	add	r2,r22,r21
  8087fc:	10800054 	ori	r2,r2,1
  808800:	20800115 	stw	r2,4(r4)
  808804:	003f3e06 	br	808500 <__alt_mem_onchip_mem+0xff800500>
  808808:	01003f84 	movi	r4,254
  80880c:	02001fc4 	movi	r8,127
  808810:	01c01f84 	movi	r7,126
  808814:	003e4006 	br	808118 <__alt_mem_onchip_mem+0xff800118>
  808818:	008020b4 	movhi	r2,130
  80881c:	10a3eb04 	addi	r2,r2,-28756
  808820:	15000015 	stw	r20,0(r2)
  808824:	003f1106 	br	80846c <__alt_mem_onchip_mem+0xff80046c>
  808828:	00800044 	movi	r2,1
  80882c:	002b883a 	mov	r21,zero
  808830:	003f1f06 	br	8084b0 <__alt_mem_onchip_mem+0xff8004b0>
  808834:	81400204 	addi	r5,r16,8
  808838:	9009883a 	mov	r4,r18
  80883c:	08075700 	call	807570 <_free_r>
  808840:	008020b4 	movhi	r2,130
  808844:	10ab4404 	addi	r2,r2,-21232
  808848:	10c00017 	ldw	r3,0(r2)
  80884c:	003f2c06 	br	808500 <__alt_mem_onchip_mem+0xff800500>
  808850:	00c05504 	movi	r3,340
  808854:	18800536 	bltu	r3,r2,80886c <_malloc_r+0x7cc>
  808858:	3804d3fa 	srli	r2,r7,15
  80885c:	11401e04 	addi	r5,r2,120
  808860:	10c01dc4 	addi	r3,r2,119
  808864:	294b883a 	add	r5,r5,r5
  808868:	003f5606 	br	8085c4 <__alt_mem_onchip_mem+0xff8005c4>
  80886c:	00c15504 	movi	r3,1364
  808870:	18800536 	bltu	r3,r2,808888 <_malloc_r+0x7e8>
  808874:	3804d4ba 	srli	r2,r7,18
  808878:	11401f44 	addi	r5,r2,125
  80887c:	10c01f04 	addi	r3,r2,124
  808880:	294b883a 	add	r5,r5,r5
  808884:	003f4f06 	br	8085c4 <__alt_mem_onchip_mem+0xff8005c4>
  808888:	01403f84 	movi	r5,254
  80888c:	00c01f84 	movi	r3,126
  808890:	003f4c06 	br	8085c4 <__alt_mem_onchip_mem+0xff8005c4>
  808894:	98800117 	ldw	r2,4(r19)
  808898:	003fa006 	br	80871c <__alt_mem_onchip_mem+0xff80071c>
  80889c:	8808d0fa 	srli	r4,r17,3
  8088a0:	20800044 	addi	r2,r4,1
  8088a4:	1085883a 	add	r2,r2,r2
  8088a8:	003e9006 	br	8082ec <__alt_mem_onchip_mem+0xff8002ec>

008088ac <memset>:
  8088ac:	20c000cc 	andi	r3,r4,3
  8088b0:	2005883a 	mov	r2,r4
  8088b4:	18004426 	beq	r3,zero,8089c8 <memset+0x11c>
  8088b8:	31ffffc4 	addi	r7,r6,-1
  8088bc:	30004026 	beq	r6,zero,8089c0 <memset+0x114>
  8088c0:	2813883a 	mov	r9,r5
  8088c4:	200d883a 	mov	r6,r4
  8088c8:	2007883a 	mov	r3,r4
  8088cc:	00000406 	br	8088e0 <memset+0x34>
  8088d0:	3a3fffc4 	addi	r8,r7,-1
  8088d4:	31800044 	addi	r6,r6,1
  8088d8:	38003926 	beq	r7,zero,8089c0 <memset+0x114>
  8088dc:	400f883a 	mov	r7,r8
  8088e0:	18c00044 	addi	r3,r3,1
  8088e4:	32400005 	stb	r9,0(r6)
  8088e8:	1a0000cc 	andi	r8,r3,3
  8088ec:	403ff81e 	bne	r8,zero,8088d0 <__alt_mem_onchip_mem+0xff8008d0>
  8088f0:	010000c4 	movi	r4,3
  8088f4:	21c02d2e 	bgeu	r4,r7,8089ac <memset+0x100>
  8088f8:	29003fcc 	andi	r4,r5,255
  8088fc:	200c923a 	slli	r6,r4,8
  808900:	3108b03a 	or	r4,r6,r4
  808904:	200c943a 	slli	r6,r4,16
  808908:	218cb03a 	or	r6,r4,r6
  80890c:	010003c4 	movi	r4,15
  808910:	21c0182e 	bgeu	r4,r7,808974 <memset+0xc8>
  808914:	3b3ffc04 	addi	r12,r7,-16
  808918:	6018d13a 	srli	r12,r12,4
  80891c:	1a000104 	addi	r8,r3,4
  808920:	1ac00204 	addi	r11,r3,8
  808924:	6008913a 	slli	r4,r12,4
  808928:	1a800304 	addi	r10,r3,12
  80892c:	1813883a 	mov	r9,r3
  808930:	21000504 	addi	r4,r4,20
  808934:	1909883a 	add	r4,r3,r4
  808938:	49800015 	stw	r6,0(r9)
  80893c:	41800015 	stw	r6,0(r8)
  808940:	59800015 	stw	r6,0(r11)
  808944:	51800015 	stw	r6,0(r10)
  808948:	42000404 	addi	r8,r8,16
  80894c:	4a400404 	addi	r9,r9,16
  808950:	5ac00404 	addi	r11,r11,16
  808954:	52800404 	addi	r10,r10,16
  808958:	413ff71e 	bne	r8,r4,808938 <__alt_mem_onchip_mem+0xff800938>
  80895c:	63000044 	addi	r12,r12,1
  808960:	6018913a 	slli	r12,r12,4
  808964:	39c003cc 	andi	r7,r7,15
  808968:	010000c4 	movi	r4,3
  80896c:	1b07883a 	add	r3,r3,r12
  808970:	21c00e2e 	bgeu	r4,r7,8089ac <memset+0x100>
  808974:	1813883a 	mov	r9,r3
  808978:	3811883a 	mov	r8,r7
  80897c:	010000c4 	movi	r4,3
  808980:	49800015 	stw	r6,0(r9)
  808984:	423fff04 	addi	r8,r8,-4
  808988:	4a400104 	addi	r9,r9,4
  80898c:	223ffc36 	bltu	r4,r8,808980 <__alt_mem_onchip_mem+0xff800980>
  808990:	393fff04 	addi	r4,r7,-4
  808994:	2008d0ba 	srli	r4,r4,2
  808998:	39c000cc 	andi	r7,r7,3
  80899c:	21000044 	addi	r4,r4,1
  8089a0:	2109883a 	add	r4,r4,r4
  8089a4:	2109883a 	add	r4,r4,r4
  8089a8:	1907883a 	add	r3,r3,r4
  8089ac:	38000526 	beq	r7,zero,8089c4 <memset+0x118>
  8089b0:	19cf883a 	add	r7,r3,r7
  8089b4:	19400005 	stb	r5,0(r3)
  8089b8:	18c00044 	addi	r3,r3,1
  8089bc:	38fffd1e 	bne	r7,r3,8089b4 <__alt_mem_onchip_mem+0xff8009b4>
  8089c0:	f800283a 	ret
  8089c4:	f800283a 	ret
  8089c8:	2007883a 	mov	r3,r4
  8089cc:	300f883a 	mov	r7,r6
  8089d0:	003fc706 	br	8088f0 <__alt_mem_onchip_mem+0xff8008f0>

008089d4 <_open_r>:
  8089d4:	defffd04 	addi	sp,sp,-12
  8089d8:	2805883a 	mov	r2,r5
  8089dc:	dc000015 	stw	r16,0(sp)
  8089e0:	040020b4 	movhi	r16,130
  8089e4:	dc400115 	stw	r17,4(sp)
  8089e8:	300b883a 	mov	r5,r6
  8089ec:	842b3604 	addi	r16,r16,-21288
  8089f0:	2023883a 	mov	r17,r4
  8089f4:	380d883a 	mov	r6,r7
  8089f8:	1009883a 	mov	r4,r2
  8089fc:	dfc00215 	stw	ra,8(sp)
  808a00:	80000015 	stw	zero,0(r16)
  808a04:	08133c00 	call	8133c0 <open>
  808a08:	00ffffc4 	movi	r3,-1
  808a0c:	10c00526 	beq	r2,r3,808a24 <_open_r+0x50>
  808a10:	dfc00217 	ldw	ra,8(sp)
  808a14:	dc400117 	ldw	r17,4(sp)
  808a18:	dc000017 	ldw	r16,0(sp)
  808a1c:	dec00304 	addi	sp,sp,12
  808a20:	f800283a 	ret
  808a24:	80c00017 	ldw	r3,0(r16)
  808a28:	183ff926 	beq	r3,zero,808a10 <__alt_mem_onchip_mem+0xff800a10>
  808a2c:	88c00015 	stw	r3,0(r17)
  808a30:	003ff706 	br	808a10 <__alt_mem_onchip_mem+0xff800a10>

00808a34 <_printf_r>:
  808a34:	defffd04 	addi	sp,sp,-12
  808a38:	2805883a 	mov	r2,r5
  808a3c:	dfc00015 	stw	ra,0(sp)
  808a40:	d9800115 	stw	r6,4(sp)
  808a44:	d9c00215 	stw	r7,8(sp)
  808a48:	21400217 	ldw	r5,8(r4)
  808a4c:	d9c00104 	addi	r7,sp,4
  808a50:	100d883a 	mov	r6,r2
  808a54:	08090f40 	call	8090f4 <___vfprintf_internal_r>
  808a58:	dfc00017 	ldw	ra,0(sp)
  808a5c:	dec00304 	addi	sp,sp,12
  808a60:	f800283a 	ret

00808a64 <printf>:
  808a64:	defffc04 	addi	sp,sp,-16
  808a68:	dfc00015 	stw	ra,0(sp)
  808a6c:	d9400115 	stw	r5,4(sp)
  808a70:	d9800215 	stw	r6,8(sp)
  808a74:	d9c00315 	stw	r7,12(sp)
  808a78:	008020b4 	movhi	r2,130
  808a7c:	10a3ea04 	addi	r2,r2,-28760
  808a80:	10800017 	ldw	r2,0(r2)
  808a84:	200b883a 	mov	r5,r4
  808a88:	d9800104 	addi	r6,sp,4
  808a8c:	11000217 	ldw	r4,8(r2)
  808a90:	080b2ec0 	call	80b2ec <__vfprintf_internal>
  808a94:	dfc00017 	ldw	ra,0(sp)
  808a98:	dec00404 	addi	sp,sp,16
  808a9c:	f800283a 	ret

00808aa0 <_putc_r>:
  808aa0:	defffc04 	addi	sp,sp,-16
  808aa4:	dc000215 	stw	r16,8(sp)
  808aa8:	dfc00315 	stw	ra,12(sp)
  808aac:	2021883a 	mov	r16,r4
  808ab0:	20000226 	beq	r4,zero,808abc <_putc_r+0x1c>
  808ab4:	20800e17 	ldw	r2,56(r4)
  808ab8:	10001b26 	beq	r2,zero,808b28 <_putc_r+0x88>
  808abc:	30800217 	ldw	r2,8(r6)
  808ac0:	10bfffc4 	addi	r2,r2,-1
  808ac4:	30800215 	stw	r2,8(r6)
  808ac8:	10000a16 	blt	r2,zero,808af4 <_putc_r+0x54>
  808acc:	30800017 	ldw	r2,0(r6)
  808ad0:	11400005 	stb	r5,0(r2)
  808ad4:	30800017 	ldw	r2,0(r6)
  808ad8:	10c00044 	addi	r3,r2,1
  808adc:	30c00015 	stw	r3,0(r6)
  808ae0:	10800003 	ldbu	r2,0(r2)
  808ae4:	dfc00317 	ldw	ra,12(sp)
  808ae8:	dc000217 	ldw	r16,8(sp)
  808aec:	dec00404 	addi	sp,sp,16
  808af0:	f800283a 	ret
  808af4:	30c00617 	ldw	r3,24(r6)
  808af8:	10c00616 	blt	r2,r3,808b14 <_putc_r+0x74>
  808afc:	30800017 	ldw	r2,0(r6)
  808b00:	00c00284 	movi	r3,10
  808b04:	11400005 	stb	r5,0(r2)
  808b08:	30800017 	ldw	r2,0(r6)
  808b0c:	11400003 	ldbu	r5,0(r2)
  808b10:	28fff11e 	bne	r5,r3,808ad8 <__alt_mem_onchip_mem+0xff800ad8>
  808b14:	8009883a 	mov	r4,r16
  808b18:	dfc00317 	ldw	ra,12(sp)
  808b1c:	dc000217 	ldw	r16,8(sp)
  808b20:	dec00404 	addi	sp,sp,16
  808b24:	080b3c81 	jmpi	80b3c8 <__swbuf_r>
  808b28:	d9400015 	stw	r5,0(sp)
  808b2c:	d9800115 	stw	r6,4(sp)
  808b30:	08072040 	call	807204 <__sinit>
  808b34:	d9800117 	ldw	r6,4(sp)
  808b38:	d9400017 	ldw	r5,0(sp)
  808b3c:	003fdf06 	br	808abc <__alt_mem_onchip_mem+0xff800abc>

00808b40 <putc>:
  808b40:	008020b4 	movhi	r2,130
  808b44:	defffc04 	addi	sp,sp,-16
  808b48:	10a3ea04 	addi	r2,r2,-28760
  808b4c:	dc000115 	stw	r16,4(sp)
  808b50:	14000017 	ldw	r16,0(r2)
  808b54:	dc400215 	stw	r17,8(sp)
  808b58:	dfc00315 	stw	ra,12(sp)
  808b5c:	2023883a 	mov	r17,r4
  808b60:	80000226 	beq	r16,zero,808b6c <putc+0x2c>
  808b64:	80800e17 	ldw	r2,56(r16)
  808b68:	10001a26 	beq	r2,zero,808bd4 <putc+0x94>
  808b6c:	28800217 	ldw	r2,8(r5)
  808b70:	10bfffc4 	addi	r2,r2,-1
  808b74:	28800215 	stw	r2,8(r5)
  808b78:	10000b16 	blt	r2,zero,808ba8 <putc+0x68>
  808b7c:	28800017 	ldw	r2,0(r5)
  808b80:	14400005 	stb	r17,0(r2)
  808b84:	28800017 	ldw	r2,0(r5)
  808b88:	10c00044 	addi	r3,r2,1
  808b8c:	28c00015 	stw	r3,0(r5)
  808b90:	10800003 	ldbu	r2,0(r2)
  808b94:	dfc00317 	ldw	ra,12(sp)
  808b98:	dc400217 	ldw	r17,8(sp)
  808b9c:	dc000117 	ldw	r16,4(sp)
  808ba0:	dec00404 	addi	sp,sp,16
  808ba4:	f800283a 	ret
  808ba8:	28c00617 	ldw	r3,24(r5)
  808bac:	10c00e16 	blt	r2,r3,808be8 <putc+0xa8>
  808bb0:	28800017 	ldw	r2,0(r5)
  808bb4:	01000284 	movi	r4,10
  808bb8:	14400005 	stb	r17,0(r2)
  808bbc:	28800017 	ldw	r2,0(r5)
  808bc0:	10c00003 	ldbu	r3,0(r2)
  808bc4:	193ff01e 	bne	r3,r4,808b88 <__alt_mem_onchip_mem+0xff800b88>
  808bc8:	280d883a 	mov	r6,r5
  808bcc:	180b883a 	mov	r5,r3
  808bd0:	00000706 	br	808bf0 <putc+0xb0>
  808bd4:	8009883a 	mov	r4,r16
  808bd8:	d9400015 	stw	r5,0(sp)
  808bdc:	08072040 	call	807204 <__sinit>
  808be0:	d9400017 	ldw	r5,0(sp)
  808be4:	003fe106 	br	808b6c <__alt_mem_onchip_mem+0xff800b6c>
  808be8:	280d883a 	mov	r6,r5
  808bec:	880b883a 	mov	r5,r17
  808bf0:	8009883a 	mov	r4,r16
  808bf4:	dfc00317 	ldw	ra,12(sp)
  808bf8:	dc400217 	ldw	r17,8(sp)
  808bfc:	dc000117 	ldw	r16,4(sp)
  808c00:	dec00404 	addi	sp,sp,16
  808c04:	080b3c81 	jmpi	80b3c8 <__swbuf_r>

00808c08 <_puts_r>:
  808c08:	defff604 	addi	sp,sp,-40
  808c0c:	dc000715 	stw	r16,28(sp)
  808c10:	2021883a 	mov	r16,r4
  808c14:	2809883a 	mov	r4,r5
  808c18:	dc400815 	stw	r17,32(sp)
  808c1c:	dfc00915 	stw	ra,36(sp)
  808c20:	2823883a 	mov	r17,r5
  808c24:	080905c0 	call	80905c <strlen>
  808c28:	10c00044 	addi	r3,r2,1
  808c2c:	d8800115 	stw	r2,4(sp)
  808c30:	00802074 	movhi	r2,129
  808c34:	109ba204 	addi	r2,r2,28296
  808c38:	d8800215 	stw	r2,8(sp)
  808c3c:	00800044 	movi	r2,1
  808c40:	d8800315 	stw	r2,12(sp)
  808c44:	00800084 	movi	r2,2
  808c48:	dc400015 	stw	r17,0(sp)
  808c4c:	d8c00615 	stw	r3,24(sp)
  808c50:	dec00415 	stw	sp,16(sp)
  808c54:	d8800515 	stw	r2,20(sp)
  808c58:	80000226 	beq	r16,zero,808c64 <_puts_r+0x5c>
  808c5c:	80800e17 	ldw	r2,56(r16)
  808c60:	10001426 	beq	r2,zero,808cb4 <_puts_r+0xac>
  808c64:	81400217 	ldw	r5,8(r16)
  808c68:	2880030b 	ldhu	r2,12(r5)
  808c6c:	10c8000c 	andi	r3,r2,8192
  808c70:	1800061e 	bne	r3,zero,808c8c <_puts_r+0x84>
  808c74:	29001917 	ldw	r4,100(r5)
  808c78:	00f7ffc4 	movi	r3,-8193
  808c7c:	10880014 	ori	r2,r2,8192
  808c80:	20c6703a 	and	r3,r4,r3
  808c84:	2880030d 	sth	r2,12(r5)
  808c88:	28c01915 	stw	r3,100(r5)
  808c8c:	d9800404 	addi	r6,sp,16
  808c90:	8009883a 	mov	r4,r16
  808c94:	080d05c0 	call	80d05c <__sfvwrite_r>
  808c98:	1000091e 	bne	r2,zero,808cc0 <_puts_r+0xb8>
  808c9c:	00800284 	movi	r2,10
  808ca0:	dfc00917 	ldw	ra,36(sp)
  808ca4:	dc400817 	ldw	r17,32(sp)
  808ca8:	dc000717 	ldw	r16,28(sp)
  808cac:	dec00a04 	addi	sp,sp,40
  808cb0:	f800283a 	ret
  808cb4:	8009883a 	mov	r4,r16
  808cb8:	08072040 	call	807204 <__sinit>
  808cbc:	003fe906 	br	808c64 <__alt_mem_onchip_mem+0xff800c64>
  808cc0:	00bfffc4 	movi	r2,-1
  808cc4:	003ff606 	br	808ca0 <__alt_mem_onchip_mem+0xff800ca0>

00808cc8 <puts>:
  808cc8:	008020b4 	movhi	r2,130
  808ccc:	10a3ea04 	addi	r2,r2,-28760
  808cd0:	200b883a 	mov	r5,r4
  808cd4:	11000017 	ldw	r4,0(r2)
  808cd8:	0808c081 	jmpi	808c08 <_puts_r>

00808cdc <lflush>:
  808cdc:	2080030b 	ldhu	r2,12(r4)
  808ce0:	00c00244 	movi	r3,9
  808ce4:	1080024c 	andi	r2,r2,9
  808ce8:	10c00226 	beq	r2,r3,808cf4 <lflush+0x18>
  808cec:	0005883a 	mov	r2,zero
  808cf0:	f800283a 	ret
  808cf4:	0806e841 	jmpi	806e84 <fflush>

00808cf8 <__srefill_r>:
  808cf8:	defffc04 	addi	sp,sp,-16
  808cfc:	dc400115 	stw	r17,4(sp)
  808d00:	dc000015 	stw	r16,0(sp)
  808d04:	dfc00315 	stw	ra,12(sp)
  808d08:	dc800215 	stw	r18,8(sp)
  808d0c:	2023883a 	mov	r17,r4
  808d10:	2821883a 	mov	r16,r5
  808d14:	20000226 	beq	r4,zero,808d20 <__srefill_r+0x28>
  808d18:	20800e17 	ldw	r2,56(r4)
  808d1c:	10003c26 	beq	r2,zero,808e10 <__srefill_r+0x118>
  808d20:	80c0030b 	ldhu	r3,12(r16)
  808d24:	1908000c 	andi	r4,r3,8192
  808d28:	1805883a 	mov	r2,r3
  808d2c:	2000071e 	bne	r4,zero,808d4c <__srefill_r+0x54>
  808d30:	81001917 	ldw	r4,100(r16)
  808d34:	18880014 	ori	r2,r3,8192
  808d38:	00f7ffc4 	movi	r3,-8193
  808d3c:	20c8703a 	and	r4,r4,r3
  808d40:	8080030d 	sth	r2,12(r16)
  808d44:	1007883a 	mov	r3,r2
  808d48:	81001915 	stw	r4,100(r16)
  808d4c:	80000115 	stw	zero,4(r16)
  808d50:	1100080c 	andi	r4,r2,32
  808d54:	2000571e 	bne	r4,zero,808eb4 <__srefill_r+0x1bc>
  808d58:	1100010c 	andi	r4,r2,4
  808d5c:	20001f26 	beq	r4,zero,808ddc <__srefill_r+0xe4>
  808d60:	81400c17 	ldw	r5,48(r16)
  808d64:	28000826 	beq	r5,zero,808d88 <__srefill_r+0x90>
  808d68:	80801004 	addi	r2,r16,64
  808d6c:	28800226 	beq	r5,r2,808d78 <__srefill_r+0x80>
  808d70:	8809883a 	mov	r4,r17
  808d74:	08075700 	call	807570 <_free_r>
  808d78:	80800f17 	ldw	r2,60(r16)
  808d7c:	80000c15 	stw	zero,48(r16)
  808d80:	80800115 	stw	r2,4(r16)
  808d84:	1000391e 	bne	r2,zero,808e6c <__srefill_r+0x174>
  808d88:	80800417 	ldw	r2,16(r16)
  808d8c:	10004b26 	beq	r2,zero,808ebc <__srefill_r+0x1c4>
  808d90:	8480030b 	ldhu	r18,12(r16)
  808d94:	908000cc 	andi	r2,r18,3
  808d98:	10001f1e 	bne	r2,zero,808e18 <__srefill_r+0x120>
  808d9c:	81800417 	ldw	r6,16(r16)
  808da0:	80800817 	ldw	r2,32(r16)
  808da4:	81c00517 	ldw	r7,20(r16)
  808da8:	81400717 	ldw	r5,28(r16)
  808dac:	81800015 	stw	r6,0(r16)
  808db0:	8809883a 	mov	r4,r17
  808db4:	103ee83a 	callr	r2
  808db8:	80800115 	stw	r2,4(r16)
  808dbc:	00800e0e 	bge	zero,r2,808df8 <__srefill_r+0x100>
  808dc0:	0005883a 	mov	r2,zero
  808dc4:	dfc00317 	ldw	ra,12(sp)
  808dc8:	dc800217 	ldw	r18,8(sp)
  808dcc:	dc400117 	ldw	r17,4(sp)
  808dd0:	dc000017 	ldw	r16,0(sp)
  808dd4:	dec00404 	addi	sp,sp,16
  808dd8:	f800283a 	ret
  808ddc:	1100040c 	andi	r4,r2,16
  808de0:	20003026 	beq	r4,zero,808ea4 <__srefill_r+0x1ac>
  808de4:	1080020c 	andi	r2,r2,8
  808de8:	1000241e 	bne	r2,zero,808e7c <__srefill_r+0x184>
  808dec:	18c00114 	ori	r3,r3,4
  808df0:	80c0030d 	sth	r3,12(r16)
  808df4:	003fe406 	br	808d88 <__alt_mem_onchip_mem+0xff800d88>
  808df8:	80c0030b 	ldhu	r3,12(r16)
  808dfc:	1000161e 	bne	r2,zero,808e58 <__srefill_r+0x160>
  808e00:	18c00814 	ori	r3,r3,32
  808e04:	00bfffc4 	movi	r2,-1
  808e08:	80c0030d 	sth	r3,12(r16)
  808e0c:	003fed06 	br	808dc4 <__alt_mem_onchip_mem+0xff800dc4>
  808e10:	08072040 	call	807204 <__sinit>
  808e14:	003fc206 	br	808d20 <__alt_mem_onchip_mem+0xff800d20>
  808e18:	008020b4 	movhi	r2,130
  808e1c:	10a3e904 	addi	r2,r2,-28764
  808e20:	11000017 	ldw	r4,0(r2)
  808e24:	01402074 	movhi	r5,129
  808e28:	00800044 	movi	r2,1
  808e2c:	29633704 	addi	r5,r5,-29476
  808e30:	8080030d 	sth	r2,12(r16)
  808e34:	0807d5c0 	call	807d5c <_fwalk>
  808e38:	00800244 	movi	r2,9
  808e3c:	8480030d 	sth	r18,12(r16)
  808e40:	9480024c 	andi	r18,r18,9
  808e44:	90bfd51e 	bne	r18,r2,808d9c <__alt_mem_onchip_mem+0xff800d9c>
  808e48:	800b883a 	mov	r5,r16
  808e4c:	8809883a 	mov	r4,r17
  808e50:	0806c0c0 	call	806c0c <__sflush_r>
  808e54:	003fd106 	br	808d9c <__alt_mem_onchip_mem+0xff800d9c>
  808e58:	18c01014 	ori	r3,r3,64
  808e5c:	80000115 	stw	zero,4(r16)
  808e60:	00bfffc4 	movi	r2,-1
  808e64:	80c0030d 	sth	r3,12(r16)
  808e68:	003fd606 	br	808dc4 <__alt_mem_onchip_mem+0xff800dc4>
  808e6c:	80c00e17 	ldw	r3,56(r16)
  808e70:	0005883a 	mov	r2,zero
  808e74:	80c00015 	stw	r3,0(r16)
  808e78:	003fd206 	br	808dc4 <__alt_mem_onchip_mem+0xff800dc4>
  808e7c:	800b883a 	mov	r5,r16
  808e80:	8809883a 	mov	r4,r17
  808e84:	0806e280 	call	806e28 <_fflush_r>
  808e88:	10000a1e 	bne	r2,zero,808eb4 <__srefill_r+0x1bc>
  808e8c:	8080030b 	ldhu	r2,12(r16)
  808e90:	00fffdc4 	movi	r3,-9
  808e94:	80000215 	stw	zero,8(r16)
  808e98:	1886703a 	and	r3,r3,r2
  808e9c:	80000615 	stw	zero,24(r16)
  808ea0:	003fd206 	br	808dec <__alt_mem_onchip_mem+0xff800dec>
  808ea4:	00800244 	movi	r2,9
  808ea8:	88800015 	stw	r2,0(r17)
  808eac:	18c01014 	ori	r3,r3,64
  808eb0:	80c0030d 	sth	r3,12(r16)
  808eb4:	00bfffc4 	movi	r2,-1
  808eb8:	003fc206 	br	808dc4 <__alt_mem_onchip_mem+0xff800dc4>
  808ebc:	800b883a 	mov	r5,r16
  808ec0:	8809883a 	mov	r4,r17
  808ec4:	0807ee40 	call	807ee4 <__smakebuf_r>
  808ec8:	003fb106 	br	808d90 <__alt_mem_onchip_mem+0xff800d90>

00808ecc <_sbrk_r>:
  808ecc:	defffd04 	addi	sp,sp,-12
  808ed0:	dc000015 	stw	r16,0(sp)
  808ed4:	040020b4 	movhi	r16,130
  808ed8:	dc400115 	stw	r17,4(sp)
  808edc:	842b3604 	addi	r16,r16,-21288
  808ee0:	2023883a 	mov	r17,r4
  808ee4:	2809883a 	mov	r4,r5
  808ee8:	dfc00215 	stw	ra,8(sp)
  808eec:	80000015 	stw	zero,0(r16)
  808ef0:	08136b00 	call	8136b0 <sbrk>
  808ef4:	00ffffc4 	movi	r3,-1
  808ef8:	10c00526 	beq	r2,r3,808f10 <_sbrk_r+0x44>
  808efc:	dfc00217 	ldw	ra,8(sp)
  808f00:	dc400117 	ldw	r17,4(sp)
  808f04:	dc000017 	ldw	r16,0(sp)
  808f08:	dec00304 	addi	sp,sp,12
  808f0c:	f800283a 	ret
  808f10:	80c00017 	ldw	r3,0(r16)
  808f14:	183ff926 	beq	r3,zero,808efc <__alt_mem_onchip_mem+0xff800efc>
  808f18:	88c00015 	stw	r3,0(r17)
  808f1c:	003ff706 	br	808efc <__alt_mem_onchip_mem+0xff800efc>

00808f20 <__sread>:
  808f20:	defffe04 	addi	sp,sp,-8
  808f24:	dc000015 	stw	r16,0(sp)
  808f28:	2821883a 	mov	r16,r5
  808f2c:	2940038f 	ldh	r5,14(r5)
  808f30:	dfc00115 	stw	ra,4(sp)
  808f34:	080ea2c0 	call	80ea2c <_read_r>
  808f38:	10000716 	blt	r2,zero,808f58 <__sread+0x38>
  808f3c:	80c01417 	ldw	r3,80(r16)
  808f40:	1887883a 	add	r3,r3,r2
  808f44:	80c01415 	stw	r3,80(r16)
  808f48:	dfc00117 	ldw	ra,4(sp)
  808f4c:	dc000017 	ldw	r16,0(sp)
  808f50:	dec00204 	addi	sp,sp,8
  808f54:	f800283a 	ret
  808f58:	80c0030b 	ldhu	r3,12(r16)
  808f5c:	18fbffcc 	andi	r3,r3,61439
  808f60:	80c0030d 	sth	r3,12(r16)
  808f64:	dfc00117 	ldw	ra,4(sp)
  808f68:	dc000017 	ldw	r16,0(sp)
  808f6c:	dec00204 	addi	sp,sp,8
  808f70:	f800283a 	ret

00808f74 <__seofread>:
  808f74:	0005883a 	mov	r2,zero
  808f78:	f800283a 	ret

00808f7c <__swrite>:
  808f7c:	2880030b 	ldhu	r2,12(r5)
  808f80:	defffb04 	addi	sp,sp,-20
  808f84:	dcc00315 	stw	r19,12(sp)
  808f88:	dc800215 	stw	r18,8(sp)
  808f8c:	dc400115 	stw	r17,4(sp)
  808f90:	dc000015 	stw	r16,0(sp)
  808f94:	dfc00415 	stw	ra,16(sp)
  808f98:	10c0400c 	andi	r3,r2,256
  808f9c:	2821883a 	mov	r16,r5
  808fa0:	2023883a 	mov	r17,r4
  808fa4:	3025883a 	mov	r18,r6
  808fa8:	3827883a 	mov	r19,r7
  808fac:	18000526 	beq	r3,zero,808fc4 <__swrite+0x48>
  808fb0:	2940038f 	ldh	r5,14(r5)
  808fb4:	01c00084 	movi	r7,2
  808fb8:	000d883a 	mov	r6,zero
  808fbc:	080d6480 	call	80d648 <_lseek_r>
  808fc0:	8080030b 	ldhu	r2,12(r16)
  808fc4:	8140038f 	ldh	r5,14(r16)
  808fc8:	10bbffcc 	andi	r2,r2,61439
  808fcc:	980f883a 	mov	r7,r19
  808fd0:	900d883a 	mov	r6,r18
  808fd4:	8809883a 	mov	r4,r17
  808fd8:	8080030d 	sth	r2,12(r16)
  808fdc:	dfc00417 	ldw	ra,16(sp)
  808fe0:	dcc00317 	ldw	r19,12(sp)
  808fe4:	dc800217 	ldw	r18,8(sp)
  808fe8:	dc400117 	ldw	r17,4(sp)
  808fec:	dc000017 	ldw	r16,0(sp)
  808ff0:	dec00504 	addi	sp,sp,20
  808ff4:	080b5201 	jmpi	80b520 <_write_r>

00808ff8 <__sseek>:
  808ff8:	defffe04 	addi	sp,sp,-8
  808ffc:	dc000015 	stw	r16,0(sp)
  809000:	2821883a 	mov	r16,r5
  809004:	2940038f 	ldh	r5,14(r5)
  809008:	dfc00115 	stw	ra,4(sp)
  80900c:	080d6480 	call	80d648 <_lseek_r>
  809010:	00ffffc4 	movi	r3,-1
  809014:	10c00826 	beq	r2,r3,809038 <__sseek+0x40>
  809018:	80c0030b 	ldhu	r3,12(r16)
  80901c:	80801415 	stw	r2,80(r16)
  809020:	18c40014 	ori	r3,r3,4096
  809024:	80c0030d 	sth	r3,12(r16)
  809028:	dfc00117 	ldw	ra,4(sp)
  80902c:	dc000017 	ldw	r16,0(sp)
  809030:	dec00204 	addi	sp,sp,8
  809034:	f800283a 	ret
  809038:	80c0030b 	ldhu	r3,12(r16)
  80903c:	18fbffcc 	andi	r3,r3,61439
  809040:	80c0030d 	sth	r3,12(r16)
  809044:	dfc00117 	ldw	ra,4(sp)
  809048:	dc000017 	ldw	r16,0(sp)
  80904c:	dec00204 	addi	sp,sp,8
  809050:	f800283a 	ret

00809054 <__sclose>:
  809054:	2940038f 	ldh	r5,14(r5)
  809058:	080b6d41 	jmpi	80b6d4 <_close_r>

0080905c <strlen>:
  80905c:	208000cc 	andi	r2,r4,3
  809060:	10002026 	beq	r2,zero,8090e4 <strlen+0x88>
  809064:	20800007 	ldb	r2,0(r4)
  809068:	10002026 	beq	r2,zero,8090ec <strlen+0x90>
  80906c:	2005883a 	mov	r2,r4
  809070:	00000206 	br	80907c <strlen+0x20>
  809074:	10c00007 	ldb	r3,0(r2)
  809078:	18001826 	beq	r3,zero,8090dc <strlen+0x80>
  80907c:	10800044 	addi	r2,r2,1
  809080:	10c000cc 	andi	r3,r2,3
  809084:	183ffb1e 	bne	r3,zero,809074 <__alt_mem_onchip_mem+0xff801074>
  809088:	10c00017 	ldw	r3,0(r2)
  80908c:	01ffbff4 	movhi	r7,65279
  809090:	39ffbfc4 	addi	r7,r7,-257
  809094:	00ca303a 	nor	r5,zero,r3
  809098:	01a02074 	movhi	r6,32897
  80909c:	19c7883a 	add	r3,r3,r7
  8090a0:	31a02004 	addi	r6,r6,-32640
  8090a4:	1946703a 	and	r3,r3,r5
  8090a8:	1986703a 	and	r3,r3,r6
  8090ac:	1800091e 	bne	r3,zero,8090d4 <strlen+0x78>
  8090b0:	10800104 	addi	r2,r2,4
  8090b4:	10c00017 	ldw	r3,0(r2)
  8090b8:	19cb883a 	add	r5,r3,r7
  8090bc:	00c6303a 	nor	r3,zero,r3
  8090c0:	28c6703a 	and	r3,r5,r3
  8090c4:	1986703a 	and	r3,r3,r6
  8090c8:	183ff926 	beq	r3,zero,8090b0 <__alt_mem_onchip_mem+0xff8010b0>
  8090cc:	00000106 	br	8090d4 <strlen+0x78>
  8090d0:	10800044 	addi	r2,r2,1
  8090d4:	10c00007 	ldb	r3,0(r2)
  8090d8:	183ffd1e 	bne	r3,zero,8090d0 <__alt_mem_onchip_mem+0xff8010d0>
  8090dc:	1105c83a 	sub	r2,r2,r4
  8090e0:	f800283a 	ret
  8090e4:	2005883a 	mov	r2,r4
  8090e8:	003fe706 	br	809088 <__alt_mem_onchip_mem+0xff801088>
  8090ec:	0005883a 	mov	r2,zero
  8090f0:	f800283a 	ret

008090f4 <___vfprintf_internal_r>:
  8090f4:	deffb804 	addi	sp,sp,-288
  8090f8:	dfc04715 	stw	ra,284(sp)
  8090fc:	ddc04515 	stw	r23,276(sp)
  809100:	dd404315 	stw	r21,268(sp)
  809104:	d9002c15 	stw	r4,176(sp)
  809108:	282f883a 	mov	r23,r5
  80910c:	302b883a 	mov	r21,r6
  809110:	d9c02d15 	stw	r7,180(sp)
  809114:	df004615 	stw	fp,280(sp)
  809118:	dd804415 	stw	r22,272(sp)
  80911c:	dd004215 	stw	r20,264(sp)
  809120:	dcc04115 	stw	r19,260(sp)
  809124:	dc804015 	stw	r18,256(sp)
  809128:	dc403f15 	stw	r17,252(sp)
  80912c:	dc003e15 	stw	r16,248(sp)
  809130:	080d6180 	call	80d618 <_localeconv_r>
  809134:	10800017 	ldw	r2,0(r2)
  809138:	1009883a 	mov	r4,r2
  80913c:	d8803415 	stw	r2,208(sp)
  809140:	080905c0 	call	80905c <strlen>
  809144:	d8803715 	stw	r2,220(sp)
  809148:	d8802c17 	ldw	r2,176(sp)
  80914c:	10000226 	beq	r2,zero,809158 <___vfprintf_internal_r+0x64>
  809150:	10800e17 	ldw	r2,56(r2)
  809154:	1000f926 	beq	r2,zero,80953c <___vfprintf_internal_r+0x448>
  809158:	b880030b 	ldhu	r2,12(r23)
  80915c:	10c8000c 	andi	r3,r2,8192
  809160:	1800061e 	bne	r3,zero,80917c <___vfprintf_internal_r+0x88>
  809164:	b9001917 	ldw	r4,100(r23)
  809168:	00f7ffc4 	movi	r3,-8193
  80916c:	10880014 	ori	r2,r2,8192
  809170:	20c6703a 	and	r3,r4,r3
  809174:	b880030d 	sth	r2,12(r23)
  809178:	b8c01915 	stw	r3,100(r23)
  80917c:	10c0020c 	andi	r3,r2,8
  809180:	1800c126 	beq	r3,zero,809488 <___vfprintf_internal_r+0x394>
  809184:	b8c00417 	ldw	r3,16(r23)
  809188:	1800bf26 	beq	r3,zero,809488 <___vfprintf_internal_r+0x394>
  80918c:	1080068c 	andi	r2,r2,26
  809190:	00c00284 	movi	r3,10
  809194:	10c0c426 	beq	r2,r3,8094a8 <___vfprintf_internal_r+0x3b4>
  809198:	d8c00404 	addi	r3,sp,16
  80919c:	05002074 	movhi	r20,129
  8091a0:	d9001e04 	addi	r4,sp,120
  8091a4:	a51bb384 	addi	r20,r20,28366
  8091a8:	d8c01e15 	stw	r3,120(sp)
  8091ac:	d8002015 	stw	zero,128(sp)
  8091b0:	d8001f15 	stw	zero,124(sp)
  8091b4:	d8003315 	stw	zero,204(sp)
  8091b8:	d8003615 	stw	zero,216(sp)
  8091bc:	d8003815 	stw	zero,224(sp)
  8091c0:	1811883a 	mov	r8,r3
  8091c4:	d8003915 	stw	zero,228(sp)
  8091c8:	d8003a15 	stw	zero,232(sp)
  8091cc:	d8002f15 	stw	zero,188(sp)
  8091d0:	d9002815 	stw	r4,160(sp)
  8091d4:	a8800007 	ldb	r2,0(r21)
  8091d8:	10027b26 	beq	r2,zero,809bc8 <___vfprintf_internal_r+0xad4>
  8091dc:	00c00944 	movi	r3,37
  8091e0:	a821883a 	mov	r16,r21
  8091e4:	10c0021e 	bne	r2,r3,8091f0 <___vfprintf_internal_r+0xfc>
  8091e8:	00001406 	br	80923c <___vfprintf_internal_r+0x148>
  8091ec:	10c00326 	beq	r2,r3,8091fc <___vfprintf_internal_r+0x108>
  8091f0:	84000044 	addi	r16,r16,1
  8091f4:	80800007 	ldb	r2,0(r16)
  8091f8:	103ffc1e 	bne	r2,zero,8091ec <__alt_mem_onchip_mem+0xff8011ec>
  8091fc:	8563c83a 	sub	r17,r16,r21
  809200:	88000e26 	beq	r17,zero,80923c <___vfprintf_internal_r+0x148>
  809204:	d8c02017 	ldw	r3,128(sp)
  809208:	d8801f17 	ldw	r2,124(sp)
  80920c:	45400015 	stw	r21,0(r8)
  809210:	1c47883a 	add	r3,r3,r17
  809214:	10800044 	addi	r2,r2,1
  809218:	d8c02015 	stw	r3,128(sp)
  80921c:	44400115 	stw	r17,4(r8)
  809220:	d8801f15 	stw	r2,124(sp)
  809224:	00c001c4 	movi	r3,7
  809228:	1880a716 	blt	r3,r2,8094c8 <___vfprintf_internal_r+0x3d4>
  80922c:	42000204 	addi	r8,r8,8
  809230:	d9402f17 	ldw	r5,188(sp)
  809234:	2c4b883a 	add	r5,r5,r17
  809238:	d9402f15 	stw	r5,188(sp)
  80923c:	80800007 	ldb	r2,0(r16)
  809240:	1000a826 	beq	r2,zero,8094e4 <___vfprintf_internal_r+0x3f0>
  809244:	84400047 	ldb	r17,1(r16)
  809248:	00bfffc4 	movi	r2,-1
  80924c:	85400044 	addi	r21,r16,1
  809250:	d8002785 	stb	zero,158(sp)
  809254:	0007883a 	mov	r3,zero
  809258:	000f883a 	mov	r7,zero
  80925c:	d8802915 	stw	r2,164(sp)
  809260:	d8003115 	stw	zero,196(sp)
  809264:	0025883a 	mov	r18,zero
  809268:	01401604 	movi	r5,88
  80926c:	01800244 	movi	r6,9
  809270:	02800a84 	movi	r10,42
  809274:	02401b04 	movi	r9,108
  809278:	ad400044 	addi	r21,r21,1
  80927c:	88bff804 	addi	r2,r17,-32
  809280:	28830436 	bltu	r5,r2,809e94 <___vfprintf_internal_r+0xda0>
  809284:	100490ba 	slli	r2,r2,2
  809288:	01002074 	movhi	r4,129
  80928c:	2124a704 	addi	r4,r4,-28004
  809290:	1105883a 	add	r2,r2,r4
  809294:	10800017 	ldw	r2,0(r2)
  809298:	1000683a 	jmp	r2
  80929c:	00809db4 	movhi	r2,630
  8092a0:	00809e94 	movui	r2,634
  8092a4:	00809e94 	movui	r2,634
  8092a8:	00809dd4 	movui	r2,631
  8092ac:	00809e94 	movui	r2,634
  8092b0:	00809e94 	movui	r2,634
  8092b4:	00809e94 	movui	r2,634
  8092b8:	00809e94 	movui	r2,634
  8092bc:	00809e94 	movui	r2,634
  8092c0:	00809e94 	movui	r2,634
  8092c4:	00809548 	cmpgei	r2,zero,597
  8092c8:	00809cf0 	cmpltui	r2,zero,627
  8092cc:	00809e94 	movui	r2,634
  8092d0:	00809410 	cmplti	r2,zero,592
  8092d4:	00809570 	cmpltui	r2,zero,597
  8092d8:	00809e94 	movui	r2,634
  8092dc:	008095b0 	cmpltui	r2,zero,598
  8092e0:	008095bc 	xorhi	r2,zero,598
  8092e4:	008095bc 	xorhi	r2,zero,598
  8092e8:	008095bc 	xorhi	r2,zero,598
  8092ec:	008095bc 	xorhi	r2,zero,598
  8092f0:	008095bc 	xorhi	r2,zero,598
  8092f4:	008095bc 	xorhi	r2,zero,598
  8092f8:	008095bc 	xorhi	r2,zero,598
  8092fc:	008095bc 	xorhi	r2,zero,598
  809300:	008095bc 	xorhi	r2,zero,598
  809304:	00809e94 	movui	r2,634
  809308:	00809e94 	movui	r2,634
  80930c:	00809e94 	movui	r2,634
  809310:	00809e94 	movui	r2,634
  809314:	00809e94 	movui	r2,634
  809318:	00809e94 	movui	r2,634
  80931c:	00809e94 	movui	r2,634
  809320:	00809e94 	movui	r2,634
  809324:	00809e94 	movui	r2,634
  809328:	00809e94 	movui	r2,634
  80932c:	008095f0 	cmpltui	r2,zero,599
  809330:	008096ac 	andhi	r2,zero,602
  809334:	00809e94 	movui	r2,634
  809338:	008096ac 	andhi	r2,zero,602
  80933c:	00809e94 	movui	r2,634
  809340:	00809e94 	movui	r2,634
  809344:	00809e94 	movui	r2,634
  809348:	00809e94 	movui	r2,634
  80934c:	0080974c 	andi	r2,zero,605
  809350:	00809e94 	movui	r2,634
  809354:	00809e94 	movui	r2,634
  809358:	00809758 	cmpnei	r2,zero,605
  80935c:	00809e94 	movui	r2,634
  809360:	00809e94 	movui	r2,634
  809364:	00809e94 	movui	r2,634
  809368:	00809e94 	movui	r2,634
  80936c:	00809e94 	movui	r2,634
  809370:	00809bd0 	cmplti	r2,zero,623
  809374:	00809e94 	movui	r2,634
  809378:	00809e94 	movui	r2,634
  80937c:	00809c30 	cmpltui	r2,zero,624
  809380:	00809e94 	movui	r2,634
  809384:	00809e94 	movui	r2,634
  809388:	00809e94 	movui	r2,634
  80938c:	00809e94 	movui	r2,634
  809390:	00809e94 	movui	r2,634
  809394:	00809e94 	movui	r2,634
  809398:	00809e94 	movui	r2,634
  80939c:	00809e94 	movui	r2,634
  8093a0:	00809e94 	movui	r2,634
  8093a4:	00809e94 	movui	r2,634
  8093a8:	00809e40 	call	809e4 <__alt_mem_sdram-0x77f61c>
  8093ac:	00809de0 	cmpeqi	r2,zero,631
  8093b0:	008096ac 	andhi	r2,zero,602
  8093b4:	008096ac 	andhi	r2,zero,602
  8093b8:	008096ac 	andhi	r2,zero,602
  8093bc:	00809df0 	cmpltui	r2,zero,631
  8093c0:	00809de0 	cmpeqi	r2,zero,631
  8093c4:	00809e94 	movui	r2,634
  8093c8:	00809e94 	movui	r2,634
  8093cc:	00809dfc 	xorhi	r2,zero,631
  8093d0:	00809e94 	movui	r2,634
  8093d4:	00809e0c 	andi	r2,zero,632
  8093d8:	00809ce0 	cmpeqi	r2,zero,627
  8093dc:	0080941c 	xori	r2,zero,592
  8093e0:	00809d00 	call	809d0 <__alt_mem_sdram-0x77f630>
  8093e4:	00809e94 	movui	r2,634
  8093e8:	00809d0c 	andi	r2,zero,628
  8093ec:	00809e94 	movui	r2,634
  8093f0:	00809d68 	cmpgeui	r2,zero,629
  8093f4:	00809e94 	movui	r2,634
  8093f8:	00809e94 	movui	r2,634
  8093fc:	00809d78 	rdprs	r2,zero,629
  809400:	d9003117 	ldw	r4,196(sp)
  809404:	d8802d15 	stw	r2,180(sp)
  809408:	0109c83a 	sub	r4,zero,r4
  80940c:	d9003115 	stw	r4,196(sp)
  809410:	94800114 	ori	r18,r18,4
  809414:	ac400007 	ldb	r17,0(r21)
  809418:	003f9706 	br	809278 <__alt_mem_onchip_mem+0xff801278>
  80941c:	00800c04 	movi	r2,48
  809420:	d9002d17 	ldw	r4,180(sp)
  809424:	d9402917 	ldw	r5,164(sp)
  809428:	d8802705 	stb	r2,156(sp)
  80942c:	00801e04 	movi	r2,120
  809430:	d8802745 	stb	r2,157(sp)
  809434:	d8002785 	stb	zero,158(sp)
  809438:	20c00104 	addi	r3,r4,4
  80943c:	24c00017 	ldw	r19,0(r4)
  809440:	002d883a 	mov	r22,zero
  809444:	90800094 	ori	r2,r18,2
  809448:	28029a16 	blt	r5,zero,809eb4 <___vfprintf_internal_r+0xdc0>
  80944c:	00bfdfc4 	movi	r2,-129
  809450:	90a4703a 	and	r18,r18,r2
  809454:	d8c02d15 	stw	r3,180(sp)
  809458:	94800094 	ori	r18,r18,2
  80945c:	9802871e 	bne	r19,zero,809e7c <___vfprintf_internal_r+0xd88>
  809460:	00802074 	movhi	r2,129
  809464:	109bac04 	addi	r2,r2,28336
  809468:	d8803915 	stw	r2,228(sp)
  80946c:	04401e04 	movi	r17,120
  809470:	d8802917 	ldw	r2,164(sp)
  809474:	0039883a 	mov	fp,zero
  809478:	1001e926 	beq	r2,zero,809c20 <___vfprintf_internal_r+0xb2c>
  80947c:	0027883a 	mov	r19,zero
  809480:	002d883a 	mov	r22,zero
  809484:	00020506 	br	809c9c <___vfprintf_internal_r+0xba8>
  809488:	d9002c17 	ldw	r4,176(sp)
  80948c:	b80b883a 	mov	r5,r23
  809490:	080b5800 	call	80b580 <__swsetup_r>
  809494:	1005ac1e 	bne	r2,zero,80ab48 <___vfprintf_internal_r+0x1a54>
  809498:	b880030b 	ldhu	r2,12(r23)
  80949c:	00c00284 	movi	r3,10
  8094a0:	1080068c 	andi	r2,r2,26
  8094a4:	10ff3c1e 	bne	r2,r3,809198 <__alt_mem_onchip_mem+0xff801198>
  8094a8:	b880038f 	ldh	r2,14(r23)
  8094ac:	103f3a16 	blt	r2,zero,809198 <__alt_mem_onchip_mem+0xff801198>
  8094b0:	d9c02d17 	ldw	r7,180(sp)
  8094b4:	d9002c17 	ldw	r4,176(sp)
  8094b8:	a80d883a 	mov	r6,r21
  8094bc:	b80b883a 	mov	r5,r23
  8094c0:	080b3080 	call	80b308 <__sbprintf>
  8094c4:	00001106 	br	80950c <___vfprintf_internal_r+0x418>
  8094c8:	d9002c17 	ldw	r4,176(sp)
  8094cc:	d9801e04 	addi	r6,sp,120
  8094d0:	b80b883a 	mov	r5,r23
  8094d4:	080f23c0 	call	80f23c <__sprint_r>
  8094d8:	1000081e 	bne	r2,zero,8094fc <___vfprintf_internal_r+0x408>
  8094dc:	da000404 	addi	r8,sp,16
  8094e0:	003f5306 	br	809230 <__alt_mem_onchip_mem+0xff801230>
  8094e4:	d8802017 	ldw	r2,128(sp)
  8094e8:	10000426 	beq	r2,zero,8094fc <___vfprintf_internal_r+0x408>
  8094ec:	d9002c17 	ldw	r4,176(sp)
  8094f0:	d9801e04 	addi	r6,sp,120
  8094f4:	b80b883a 	mov	r5,r23
  8094f8:	080f23c0 	call	80f23c <__sprint_r>
  8094fc:	b880030b 	ldhu	r2,12(r23)
  809500:	1080100c 	andi	r2,r2,64
  809504:	1005901e 	bne	r2,zero,80ab48 <___vfprintf_internal_r+0x1a54>
  809508:	d8802f17 	ldw	r2,188(sp)
  80950c:	dfc04717 	ldw	ra,284(sp)
  809510:	df004617 	ldw	fp,280(sp)
  809514:	ddc04517 	ldw	r23,276(sp)
  809518:	dd804417 	ldw	r22,272(sp)
  80951c:	dd404317 	ldw	r21,268(sp)
  809520:	dd004217 	ldw	r20,264(sp)
  809524:	dcc04117 	ldw	r19,260(sp)
  809528:	dc804017 	ldw	r18,256(sp)
  80952c:	dc403f17 	ldw	r17,252(sp)
  809530:	dc003e17 	ldw	r16,248(sp)
  809534:	dec04804 	addi	sp,sp,288
  809538:	f800283a 	ret
  80953c:	d9002c17 	ldw	r4,176(sp)
  809540:	08072040 	call	807204 <__sinit>
  809544:	003f0406 	br	809158 <__alt_mem_onchip_mem+0xff801158>
  809548:	d8802d17 	ldw	r2,180(sp)
  80954c:	d9002d17 	ldw	r4,180(sp)
  809550:	10800017 	ldw	r2,0(r2)
  809554:	d8803115 	stw	r2,196(sp)
  809558:	20800104 	addi	r2,r4,4
  80955c:	d9003117 	ldw	r4,196(sp)
  809560:	203fa716 	blt	r4,zero,809400 <__alt_mem_onchip_mem+0xff801400>
  809564:	d8802d15 	stw	r2,180(sp)
  809568:	ac400007 	ldb	r17,0(r21)
  80956c:	003f4206 	br	809278 <__alt_mem_onchip_mem+0xff801278>
  809570:	ac400007 	ldb	r17,0(r21)
  809574:	aac00044 	addi	r11,r21,1
  809578:	8a872826 	beq	r17,r10,80b21c <___vfprintf_internal_r+0x2128>
  80957c:	88bff404 	addi	r2,r17,-48
  809580:	0009883a 	mov	r4,zero
  809584:	30867d36 	bltu	r6,r2,80af7c <___vfprintf_internal_r+0x1e88>
  809588:	5c400007 	ldb	r17,0(r11)
  80958c:	210002a4 	muli	r4,r4,10
  809590:	5d400044 	addi	r21,r11,1
  809594:	a817883a 	mov	r11,r21
  809598:	2089883a 	add	r4,r4,r2
  80959c:	88bff404 	addi	r2,r17,-48
  8095a0:	30bff92e 	bgeu	r6,r2,809588 <__alt_mem_onchip_mem+0xff801588>
  8095a4:	2005c916 	blt	r4,zero,80accc <___vfprintf_internal_r+0x1bd8>
  8095a8:	d9002915 	stw	r4,164(sp)
  8095ac:	003f3306 	br	80927c <__alt_mem_onchip_mem+0xff80127c>
  8095b0:	94802014 	ori	r18,r18,128
  8095b4:	ac400007 	ldb	r17,0(r21)
  8095b8:	003f2f06 	br	809278 <__alt_mem_onchip_mem+0xff801278>
  8095bc:	a809883a 	mov	r4,r21
  8095c0:	d8003115 	stw	zero,196(sp)
  8095c4:	88bff404 	addi	r2,r17,-48
  8095c8:	0017883a 	mov	r11,zero
  8095cc:	24400007 	ldb	r17,0(r4)
  8095d0:	5ac002a4 	muli	r11,r11,10
  8095d4:	ad400044 	addi	r21,r21,1
  8095d8:	a809883a 	mov	r4,r21
  8095dc:	12d7883a 	add	r11,r2,r11
  8095e0:	88bff404 	addi	r2,r17,-48
  8095e4:	30bff92e 	bgeu	r6,r2,8095cc <__alt_mem_onchip_mem+0xff8015cc>
  8095e8:	dac03115 	stw	r11,196(sp)
  8095ec:	003f2306 	br	80927c <__alt_mem_onchip_mem+0xff80127c>
  8095f0:	18c03fcc 	andi	r3,r3,255
  8095f4:	18072b1e 	bne	r3,zero,80b2a4 <___vfprintf_internal_r+0x21b0>
  8095f8:	94800414 	ori	r18,r18,16
  8095fc:	9080080c 	andi	r2,r18,32
  809600:	10037b26 	beq	r2,zero,80a3f0 <___vfprintf_internal_r+0x12fc>
  809604:	d9402d17 	ldw	r5,180(sp)
  809608:	28800117 	ldw	r2,4(r5)
  80960c:	2cc00017 	ldw	r19,0(r5)
  809610:	29400204 	addi	r5,r5,8
  809614:	d9402d15 	stw	r5,180(sp)
  809618:	102d883a 	mov	r22,r2
  80961c:	10044b16 	blt	r2,zero,80a74c <___vfprintf_internal_r+0x1658>
  809620:	d9402917 	ldw	r5,164(sp)
  809624:	df002783 	ldbu	fp,158(sp)
  809628:	2803bc16 	blt	r5,zero,80a51c <___vfprintf_internal_r+0x1428>
  80962c:	00ffdfc4 	movi	r3,-129
  809630:	9d84b03a 	or	r2,r19,r22
  809634:	90e4703a 	and	r18,r18,r3
  809638:	10017726 	beq	r2,zero,809c18 <___vfprintf_internal_r+0xb24>
  80963c:	b0038326 	beq	r22,zero,80a44c <___vfprintf_internal_r+0x1358>
  809640:	dc402a15 	stw	r17,168(sp)
  809644:	dc001e04 	addi	r16,sp,120
  809648:	b023883a 	mov	r17,r22
  80964c:	402d883a 	mov	r22,r8
  809650:	9809883a 	mov	r4,r19
  809654:	880b883a 	mov	r5,r17
  809658:	01800284 	movi	r6,10
  80965c:	000f883a 	mov	r7,zero
  809660:	08111b40 	call	8111b4 <__umoddi3>
  809664:	10800c04 	addi	r2,r2,48
  809668:	843fffc4 	addi	r16,r16,-1
  80966c:	9809883a 	mov	r4,r19
  809670:	880b883a 	mov	r5,r17
  809674:	80800005 	stb	r2,0(r16)
  809678:	01800284 	movi	r6,10
  80967c:	000f883a 	mov	r7,zero
  809680:	0810c3c0 	call	810c3c <__udivdi3>
  809684:	1027883a 	mov	r19,r2
  809688:	10c4b03a 	or	r2,r2,r3
  80968c:	1823883a 	mov	r17,r3
  809690:	103fef1e 	bne	r2,zero,809650 <__alt_mem_onchip_mem+0xff801650>
  809694:	d8c02817 	ldw	r3,160(sp)
  809698:	dc402a17 	ldw	r17,168(sp)
  80969c:	b011883a 	mov	r8,r22
  8096a0:	1c07c83a 	sub	r3,r3,r16
  8096a4:	d8c02e15 	stw	r3,184(sp)
  8096a8:	00005906 	br	809810 <___vfprintf_internal_r+0x71c>
  8096ac:	18c03fcc 	andi	r3,r3,255
  8096b0:	1806fa1e 	bne	r3,zero,80b29c <___vfprintf_internal_r+0x21a8>
  8096b4:	9080020c 	andi	r2,r18,8
  8096b8:	10048a26 	beq	r2,zero,80a8e4 <___vfprintf_internal_r+0x17f0>
  8096bc:	d8c02d17 	ldw	r3,180(sp)
  8096c0:	d9002d17 	ldw	r4,180(sp)
  8096c4:	d9402d17 	ldw	r5,180(sp)
  8096c8:	18c00017 	ldw	r3,0(r3)
  8096cc:	21000117 	ldw	r4,4(r4)
  8096d0:	29400204 	addi	r5,r5,8
  8096d4:	d8c03615 	stw	r3,216(sp)
  8096d8:	d9003815 	stw	r4,224(sp)
  8096dc:	d9402d15 	stw	r5,180(sp)
  8096e0:	d9003617 	ldw	r4,216(sp)
  8096e4:	d9403817 	ldw	r5,224(sp)
  8096e8:	da003d15 	stw	r8,244(sp)
  8096ec:	04000044 	movi	r16,1
  8096f0:	080eff00 	call	80eff0 <__fpclassifyd>
  8096f4:	da003d17 	ldw	r8,244(sp)
  8096f8:	14041f1e 	bne	r2,r16,80a778 <___vfprintf_internal_r+0x1684>
  8096fc:	d9003617 	ldw	r4,216(sp)
  809700:	d9403817 	ldw	r5,224(sp)
  809704:	000d883a 	mov	r6,zero
  809708:	000f883a 	mov	r7,zero
  80970c:	0805fd80 	call	805fd8 <__ledf2>
  809710:	da003d17 	ldw	r8,244(sp)
  809714:	1005be16 	blt	r2,zero,80ae10 <___vfprintf_internal_r+0x1d1c>
  809718:	df002783 	ldbu	fp,158(sp)
  80971c:	008011c4 	movi	r2,71
  809720:	1445330e 	bge	r2,r17,80abf0 <___vfprintf_internal_r+0x1afc>
  809724:	04002074 	movhi	r16,129
  809728:	841ba404 	addi	r16,r16,28304
  80972c:	00c000c4 	movi	r3,3
  809730:	00bfdfc4 	movi	r2,-129
  809734:	d8c02a15 	stw	r3,168(sp)
  809738:	90a4703a 	and	r18,r18,r2
  80973c:	d8c02e15 	stw	r3,184(sp)
  809740:	d8002915 	stw	zero,164(sp)
  809744:	d8003215 	stw	zero,200(sp)
  809748:	00003706 	br	809828 <___vfprintf_internal_r+0x734>
  80974c:	94800214 	ori	r18,r18,8
  809750:	ac400007 	ldb	r17,0(r21)
  809754:	003ec806 	br	809278 <__alt_mem_onchip_mem+0xff801278>
  809758:	18c03fcc 	andi	r3,r3,255
  80975c:	1806db1e 	bne	r3,zero,80b2cc <___vfprintf_internal_r+0x21d8>
  809760:	94800414 	ori	r18,r18,16
  809764:	9080080c 	andi	r2,r18,32
  809768:	1002d826 	beq	r2,zero,80a2cc <___vfprintf_internal_r+0x11d8>
  80976c:	d9402d17 	ldw	r5,180(sp)
  809770:	d8c02917 	ldw	r3,164(sp)
  809774:	d8002785 	stb	zero,158(sp)
  809778:	28800204 	addi	r2,r5,8
  80977c:	2cc00017 	ldw	r19,0(r5)
  809780:	2d800117 	ldw	r22,4(r5)
  809784:	18048f16 	blt	r3,zero,80a9c4 <___vfprintf_internal_r+0x18d0>
  809788:	013fdfc4 	movi	r4,-129
  80978c:	9d86b03a 	or	r3,r19,r22
  809790:	d8802d15 	stw	r2,180(sp)
  809794:	9124703a 	and	r18,r18,r4
  809798:	1802d91e 	bne	r3,zero,80a300 <___vfprintf_internal_r+0x120c>
  80979c:	d8c02917 	ldw	r3,164(sp)
  8097a0:	0039883a 	mov	fp,zero
  8097a4:	1805c326 	beq	r3,zero,80aeb4 <___vfprintf_internal_r+0x1dc0>
  8097a8:	0027883a 	mov	r19,zero
  8097ac:	002d883a 	mov	r22,zero
  8097b0:	dc001e04 	addi	r16,sp,120
  8097b4:	9806d0fa 	srli	r3,r19,3
  8097b8:	b008977a 	slli	r4,r22,29
  8097bc:	b02cd0fa 	srli	r22,r22,3
  8097c0:	9cc001cc 	andi	r19,r19,7
  8097c4:	98800c04 	addi	r2,r19,48
  8097c8:	843fffc4 	addi	r16,r16,-1
  8097cc:	20e6b03a 	or	r19,r4,r3
  8097d0:	80800005 	stb	r2,0(r16)
  8097d4:	9d86b03a 	or	r3,r19,r22
  8097d8:	183ff61e 	bne	r3,zero,8097b4 <__alt_mem_onchip_mem+0xff8017b4>
  8097dc:	90c0004c 	andi	r3,r18,1
  8097e0:	18013b26 	beq	r3,zero,809cd0 <___vfprintf_internal_r+0xbdc>
  8097e4:	10803fcc 	andi	r2,r2,255
  8097e8:	1080201c 	xori	r2,r2,128
  8097ec:	10bfe004 	addi	r2,r2,-128
  8097f0:	00c00c04 	movi	r3,48
  8097f4:	10c13626 	beq	r2,r3,809cd0 <___vfprintf_internal_r+0xbdc>
  8097f8:	80ffffc5 	stb	r3,-1(r16)
  8097fc:	d8c02817 	ldw	r3,160(sp)
  809800:	80bfffc4 	addi	r2,r16,-1
  809804:	1021883a 	mov	r16,r2
  809808:	1887c83a 	sub	r3,r3,r2
  80980c:	d8c02e15 	stw	r3,184(sp)
  809810:	d8802e17 	ldw	r2,184(sp)
  809814:	d9002917 	ldw	r4,164(sp)
  809818:	1100010e 	bge	r2,r4,809820 <___vfprintf_internal_r+0x72c>
  80981c:	2005883a 	mov	r2,r4
  809820:	d8802a15 	stw	r2,168(sp)
  809824:	d8003215 	stw	zero,200(sp)
  809828:	e7003fcc 	andi	fp,fp,255
  80982c:	e700201c 	xori	fp,fp,128
  809830:	e73fe004 	addi	fp,fp,-128
  809834:	e0000326 	beq	fp,zero,809844 <___vfprintf_internal_r+0x750>
  809838:	d8c02a17 	ldw	r3,168(sp)
  80983c:	18c00044 	addi	r3,r3,1
  809840:	d8c02a15 	stw	r3,168(sp)
  809844:	90c0008c 	andi	r3,r18,2
  809848:	d8c02b15 	stw	r3,172(sp)
  80984c:	18000326 	beq	r3,zero,80985c <___vfprintf_internal_r+0x768>
  809850:	d8c02a17 	ldw	r3,168(sp)
  809854:	18c00084 	addi	r3,r3,2
  809858:	d8c02a15 	stw	r3,168(sp)
  80985c:	90c0210c 	andi	r3,r18,132
  809860:	d8c03015 	stw	r3,192(sp)
  809864:	1801a31e 	bne	r3,zero,809ef4 <___vfprintf_internal_r+0xe00>
  809868:	d9003117 	ldw	r4,196(sp)
  80986c:	d8c02a17 	ldw	r3,168(sp)
  809870:	20e7c83a 	sub	r19,r4,r3
  809874:	04c19f0e 	bge	zero,r19,809ef4 <___vfprintf_internal_r+0xe00>
  809878:	02400404 	movi	r9,16
  80987c:	d8c02017 	ldw	r3,128(sp)
  809880:	d8801f17 	ldw	r2,124(sp)
  809884:	4cc50d0e 	bge	r9,r19,80acbc <___vfprintf_internal_r+0x1bc8>
  809888:	01402074 	movhi	r5,129
  80988c:	295bb784 	addi	r5,r5,28382
  809890:	dc403b15 	stw	r17,236(sp)
  809894:	d9403515 	stw	r5,212(sp)
  809898:	9823883a 	mov	r17,r19
  80989c:	482d883a 	mov	r22,r9
  8098a0:	9027883a 	mov	r19,r18
  8098a4:	070001c4 	movi	fp,7
  8098a8:	8025883a 	mov	r18,r16
  8098ac:	dc002c17 	ldw	r16,176(sp)
  8098b0:	00000306 	br	8098c0 <___vfprintf_internal_r+0x7cc>
  8098b4:	8c7ffc04 	addi	r17,r17,-16
  8098b8:	42000204 	addi	r8,r8,8
  8098bc:	b440130e 	bge	r22,r17,80990c <___vfprintf_internal_r+0x818>
  8098c0:	01002074 	movhi	r4,129
  8098c4:	18c00404 	addi	r3,r3,16
  8098c8:	10800044 	addi	r2,r2,1
  8098cc:	211bb784 	addi	r4,r4,28382
  8098d0:	41000015 	stw	r4,0(r8)
  8098d4:	45800115 	stw	r22,4(r8)
  8098d8:	d8c02015 	stw	r3,128(sp)
  8098dc:	d8801f15 	stw	r2,124(sp)
  8098e0:	e0bff40e 	bge	fp,r2,8098b4 <__alt_mem_onchip_mem+0xff8018b4>
  8098e4:	d9801e04 	addi	r6,sp,120
  8098e8:	b80b883a 	mov	r5,r23
  8098ec:	8009883a 	mov	r4,r16
  8098f0:	080f23c0 	call	80f23c <__sprint_r>
  8098f4:	103f011e 	bne	r2,zero,8094fc <__alt_mem_onchip_mem+0xff8014fc>
  8098f8:	8c7ffc04 	addi	r17,r17,-16
  8098fc:	d8c02017 	ldw	r3,128(sp)
  809900:	d8801f17 	ldw	r2,124(sp)
  809904:	da000404 	addi	r8,sp,16
  809908:	b47fed16 	blt	r22,r17,8098c0 <__alt_mem_onchip_mem+0xff8018c0>
  80990c:	9021883a 	mov	r16,r18
  809910:	9825883a 	mov	r18,r19
  809914:	8827883a 	mov	r19,r17
  809918:	dc403b17 	ldw	r17,236(sp)
  80991c:	d9403517 	ldw	r5,212(sp)
  809920:	98c7883a 	add	r3,r19,r3
  809924:	10800044 	addi	r2,r2,1
  809928:	41400015 	stw	r5,0(r8)
  80992c:	44c00115 	stw	r19,4(r8)
  809930:	d8c02015 	stw	r3,128(sp)
  809934:	d8801f15 	stw	r2,124(sp)
  809938:	010001c4 	movi	r4,7
  80993c:	2082a316 	blt	r4,r2,80a3cc <___vfprintf_internal_r+0x12d8>
  809940:	df002787 	ldb	fp,158(sp)
  809944:	42000204 	addi	r8,r8,8
  809948:	e0000c26 	beq	fp,zero,80997c <___vfprintf_internal_r+0x888>
  80994c:	d8801f17 	ldw	r2,124(sp)
  809950:	d9002784 	addi	r4,sp,158
  809954:	18c00044 	addi	r3,r3,1
  809958:	10800044 	addi	r2,r2,1
  80995c:	41000015 	stw	r4,0(r8)
  809960:	01000044 	movi	r4,1
  809964:	41000115 	stw	r4,4(r8)
  809968:	d8c02015 	stw	r3,128(sp)
  80996c:	d8801f15 	stw	r2,124(sp)
  809970:	010001c4 	movi	r4,7
  809974:	20823c16 	blt	r4,r2,80a268 <___vfprintf_internal_r+0x1174>
  809978:	42000204 	addi	r8,r8,8
  80997c:	d8802b17 	ldw	r2,172(sp)
  809980:	10000c26 	beq	r2,zero,8099b4 <___vfprintf_internal_r+0x8c0>
  809984:	d8801f17 	ldw	r2,124(sp)
  809988:	d9002704 	addi	r4,sp,156
  80998c:	18c00084 	addi	r3,r3,2
  809990:	10800044 	addi	r2,r2,1
  809994:	41000015 	stw	r4,0(r8)
  809998:	01000084 	movi	r4,2
  80999c:	41000115 	stw	r4,4(r8)
  8099a0:	d8c02015 	stw	r3,128(sp)
  8099a4:	d8801f15 	stw	r2,124(sp)
  8099a8:	010001c4 	movi	r4,7
  8099ac:	20823616 	blt	r4,r2,80a288 <___vfprintf_internal_r+0x1194>
  8099b0:	42000204 	addi	r8,r8,8
  8099b4:	d9003017 	ldw	r4,192(sp)
  8099b8:	00802004 	movi	r2,128
  8099bc:	20819926 	beq	r4,r2,80a024 <___vfprintf_internal_r+0xf30>
  8099c0:	d9402917 	ldw	r5,164(sp)
  8099c4:	d8802e17 	ldw	r2,184(sp)
  8099c8:	28adc83a 	sub	r22,r5,r2
  8099cc:	0580310e 	bge	zero,r22,809a94 <___vfprintf_internal_r+0x9a0>
  8099d0:	07000404 	movi	fp,16
  8099d4:	d8801f17 	ldw	r2,124(sp)
  8099d8:	e584140e 	bge	fp,r22,80aa2c <___vfprintf_internal_r+0x1938>
  8099dc:	01402074 	movhi	r5,129
  8099e0:	295bb384 	addi	r5,r5,28366
  8099e4:	dc402915 	stw	r17,164(sp)
  8099e8:	d9402b15 	stw	r5,172(sp)
  8099ec:	b023883a 	mov	r17,r22
  8099f0:	04c001c4 	movi	r19,7
  8099f4:	a82d883a 	mov	r22,r21
  8099f8:	902b883a 	mov	r21,r18
  8099fc:	8025883a 	mov	r18,r16
  809a00:	dc002c17 	ldw	r16,176(sp)
  809a04:	00000306 	br	809a14 <___vfprintf_internal_r+0x920>
  809a08:	8c7ffc04 	addi	r17,r17,-16
  809a0c:	42000204 	addi	r8,r8,8
  809a10:	e440110e 	bge	fp,r17,809a58 <___vfprintf_internal_r+0x964>
  809a14:	18c00404 	addi	r3,r3,16
  809a18:	10800044 	addi	r2,r2,1
  809a1c:	45000015 	stw	r20,0(r8)
  809a20:	47000115 	stw	fp,4(r8)
  809a24:	d8c02015 	stw	r3,128(sp)
  809a28:	d8801f15 	stw	r2,124(sp)
  809a2c:	98bff60e 	bge	r19,r2,809a08 <__alt_mem_onchip_mem+0xff801a08>
  809a30:	d9801e04 	addi	r6,sp,120
  809a34:	b80b883a 	mov	r5,r23
  809a38:	8009883a 	mov	r4,r16
  809a3c:	080f23c0 	call	80f23c <__sprint_r>
  809a40:	103eae1e 	bne	r2,zero,8094fc <__alt_mem_onchip_mem+0xff8014fc>
  809a44:	8c7ffc04 	addi	r17,r17,-16
  809a48:	d8c02017 	ldw	r3,128(sp)
  809a4c:	d8801f17 	ldw	r2,124(sp)
  809a50:	da000404 	addi	r8,sp,16
  809a54:	e47fef16 	blt	fp,r17,809a14 <__alt_mem_onchip_mem+0xff801a14>
  809a58:	9021883a 	mov	r16,r18
  809a5c:	a825883a 	mov	r18,r21
  809a60:	b02b883a 	mov	r21,r22
  809a64:	882d883a 	mov	r22,r17
  809a68:	dc402917 	ldw	r17,164(sp)
  809a6c:	d9002b17 	ldw	r4,172(sp)
  809a70:	1d87883a 	add	r3,r3,r22
  809a74:	10800044 	addi	r2,r2,1
  809a78:	41000015 	stw	r4,0(r8)
  809a7c:	45800115 	stw	r22,4(r8)
  809a80:	d8c02015 	stw	r3,128(sp)
  809a84:	d8801f15 	stw	r2,124(sp)
  809a88:	010001c4 	movi	r4,7
  809a8c:	2081ee16 	blt	r4,r2,80a248 <___vfprintf_internal_r+0x1154>
  809a90:	42000204 	addi	r8,r8,8
  809a94:	9080400c 	andi	r2,r18,256
  809a98:	1001181e 	bne	r2,zero,809efc <___vfprintf_internal_r+0xe08>
  809a9c:	d9402e17 	ldw	r5,184(sp)
  809aa0:	d8801f17 	ldw	r2,124(sp)
  809aa4:	44000015 	stw	r16,0(r8)
  809aa8:	1947883a 	add	r3,r3,r5
  809aac:	10800044 	addi	r2,r2,1
  809ab0:	41400115 	stw	r5,4(r8)
  809ab4:	d8c02015 	stw	r3,128(sp)
  809ab8:	d8801f15 	stw	r2,124(sp)
  809abc:	010001c4 	movi	r4,7
  809ac0:	2081d316 	blt	r4,r2,80a210 <___vfprintf_internal_r+0x111c>
  809ac4:	42000204 	addi	r8,r8,8
  809ac8:	9480010c 	andi	r18,r18,4
  809acc:	90003226 	beq	r18,zero,809b98 <___vfprintf_internal_r+0xaa4>
  809ad0:	d9403117 	ldw	r5,196(sp)
  809ad4:	d8802a17 	ldw	r2,168(sp)
  809ad8:	28a1c83a 	sub	r16,r5,r2
  809adc:	04002e0e 	bge	zero,r16,809b98 <___vfprintf_internal_r+0xaa4>
  809ae0:	04400404 	movi	r17,16
  809ae4:	d8801f17 	ldw	r2,124(sp)
  809ae8:	8c04a20e 	bge	r17,r16,80ad74 <___vfprintf_internal_r+0x1c80>
  809aec:	01402074 	movhi	r5,129
  809af0:	295bb784 	addi	r5,r5,28382
  809af4:	d9403515 	stw	r5,212(sp)
  809af8:	048001c4 	movi	r18,7
  809afc:	dcc02c17 	ldw	r19,176(sp)
  809b00:	00000306 	br	809b10 <___vfprintf_internal_r+0xa1c>
  809b04:	843ffc04 	addi	r16,r16,-16
  809b08:	42000204 	addi	r8,r8,8
  809b0c:	8c00130e 	bge	r17,r16,809b5c <___vfprintf_internal_r+0xa68>
  809b10:	01002074 	movhi	r4,129
  809b14:	18c00404 	addi	r3,r3,16
  809b18:	10800044 	addi	r2,r2,1
  809b1c:	211bb784 	addi	r4,r4,28382
  809b20:	41000015 	stw	r4,0(r8)
  809b24:	44400115 	stw	r17,4(r8)
  809b28:	d8c02015 	stw	r3,128(sp)
  809b2c:	d8801f15 	stw	r2,124(sp)
  809b30:	90bff40e 	bge	r18,r2,809b04 <__alt_mem_onchip_mem+0xff801b04>
  809b34:	d9801e04 	addi	r6,sp,120
  809b38:	b80b883a 	mov	r5,r23
  809b3c:	9809883a 	mov	r4,r19
  809b40:	080f23c0 	call	80f23c <__sprint_r>
  809b44:	103e6d1e 	bne	r2,zero,8094fc <__alt_mem_onchip_mem+0xff8014fc>
  809b48:	843ffc04 	addi	r16,r16,-16
  809b4c:	d8c02017 	ldw	r3,128(sp)
  809b50:	d8801f17 	ldw	r2,124(sp)
  809b54:	da000404 	addi	r8,sp,16
  809b58:	8c3fed16 	blt	r17,r16,809b10 <__alt_mem_onchip_mem+0xff801b10>
  809b5c:	d9403517 	ldw	r5,212(sp)
  809b60:	1c07883a 	add	r3,r3,r16
  809b64:	10800044 	addi	r2,r2,1
  809b68:	41400015 	stw	r5,0(r8)
  809b6c:	44000115 	stw	r16,4(r8)
  809b70:	d8c02015 	stw	r3,128(sp)
  809b74:	d8801f15 	stw	r2,124(sp)
  809b78:	010001c4 	movi	r4,7
  809b7c:	2080060e 	bge	r4,r2,809b98 <___vfprintf_internal_r+0xaa4>
  809b80:	d9002c17 	ldw	r4,176(sp)
  809b84:	d9801e04 	addi	r6,sp,120
  809b88:	b80b883a 	mov	r5,r23
  809b8c:	080f23c0 	call	80f23c <__sprint_r>
  809b90:	103e5a1e 	bne	r2,zero,8094fc <__alt_mem_onchip_mem+0xff8014fc>
  809b94:	d8c02017 	ldw	r3,128(sp)
  809b98:	d8803117 	ldw	r2,196(sp)
  809b9c:	d9002a17 	ldw	r4,168(sp)
  809ba0:	1100010e 	bge	r2,r4,809ba8 <___vfprintf_internal_r+0xab4>
  809ba4:	2005883a 	mov	r2,r4
  809ba8:	d9402f17 	ldw	r5,188(sp)
  809bac:	288b883a 	add	r5,r5,r2
  809bb0:	d9402f15 	stw	r5,188(sp)
  809bb4:	18019e1e 	bne	r3,zero,80a230 <___vfprintf_internal_r+0x113c>
  809bb8:	a8800007 	ldb	r2,0(r21)
  809bbc:	d8001f15 	stw	zero,124(sp)
  809bc0:	da000404 	addi	r8,sp,16
  809bc4:	103d851e 	bne	r2,zero,8091dc <__alt_mem_onchip_mem+0xff8011dc>
  809bc8:	a821883a 	mov	r16,r21
  809bcc:	003d9b06 	br	80923c <__alt_mem_onchip_mem+0xff80123c>
  809bd0:	18c03fcc 	andi	r3,r3,255
  809bd4:	1805c11e 	bne	r3,zero,80b2dc <___vfprintf_internal_r+0x21e8>
  809bd8:	94800414 	ori	r18,r18,16
  809bdc:	9080080c 	andi	r2,r18,32
  809be0:	10020c26 	beq	r2,zero,80a414 <___vfprintf_internal_r+0x1320>
  809be4:	d8802d17 	ldw	r2,180(sp)
  809be8:	d9002917 	ldw	r4,164(sp)
  809bec:	d8002785 	stb	zero,158(sp)
  809bf0:	10c00204 	addi	r3,r2,8
  809bf4:	14c00017 	ldw	r19,0(r2)
  809bf8:	15800117 	ldw	r22,4(r2)
  809bfc:	20040f16 	blt	r4,zero,80ac3c <___vfprintf_internal_r+0x1b48>
  809c00:	013fdfc4 	movi	r4,-129
  809c04:	9d84b03a 	or	r2,r19,r22
  809c08:	d8c02d15 	stw	r3,180(sp)
  809c0c:	9124703a 	and	r18,r18,r4
  809c10:	0039883a 	mov	fp,zero
  809c14:	103e891e 	bne	r2,zero,80963c <__alt_mem_onchip_mem+0xff80163c>
  809c18:	d9002917 	ldw	r4,164(sp)
  809c1c:	2002c11e 	bne	r4,zero,80a724 <___vfprintf_internal_r+0x1630>
  809c20:	d8002915 	stw	zero,164(sp)
  809c24:	d8002e15 	stw	zero,184(sp)
  809c28:	dc001e04 	addi	r16,sp,120
  809c2c:	003ef806 	br	809810 <__alt_mem_onchip_mem+0xff801810>
  809c30:	18c03fcc 	andi	r3,r3,255
  809c34:	18059d1e 	bne	r3,zero,80b2ac <___vfprintf_internal_r+0x21b8>
  809c38:	01402074 	movhi	r5,129
  809c3c:	295ba704 	addi	r5,r5,28316
  809c40:	d9403915 	stw	r5,228(sp)
  809c44:	9080080c 	andi	r2,r18,32
  809c48:	10005226 	beq	r2,zero,809d94 <___vfprintf_internal_r+0xca0>
  809c4c:	d8802d17 	ldw	r2,180(sp)
  809c50:	14c00017 	ldw	r19,0(r2)
  809c54:	15800117 	ldw	r22,4(r2)
  809c58:	10800204 	addi	r2,r2,8
  809c5c:	d8802d15 	stw	r2,180(sp)
  809c60:	9080004c 	andi	r2,r18,1
  809c64:	10019026 	beq	r2,zero,80a2a8 <___vfprintf_internal_r+0x11b4>
  809c68:	9d84b03a 	or	r2,r19,r22
  809c6c:	10036926 	beq	r2,zero,80aa14 <___vfprintf_internal_r+0x1920>
  809c70:	d8c02917 	ldw	r3,164(sp)
  809c74:	00800c04 	movi	r2,48
  809c78:	d8802705 	stb	r2,156(sp)
  809c7c:	dc402745 	stb	r17,157(sp)
  809c80:	d8002785 	stb	zero,158(sp)
  809c84:	90800094 	ori	r2,r18,2
  809c88:	18045d16 	blt	r3,zero,80ae00 <___vfprintf_internal_r+0x1d0c>
  809c8c:	00bfdfc4 	movi	r2,-129
  809c90:	90a4703a 	and	r18,r18,r2
  809c94:	94800094 	ori	r18,r18,2
  809c98:	0039883a 	mov	fp,zero
  809c9c:	d9003917 	ldw	r4,228(sp)
  809ca0:	dc001e04 	addi	r16,sp,120
  809ca4:	988003cc 	andi	r2,r19,15
  809ca8:	b006973a 	slli	r3,r22,28
  809cac:	2085883a 	add	r2,r4,r2
  809cb0:	9826d13a 	srli	r19,r19,4
  809cb4:	10800003 	ldbu	r2,0(r2)
  809cb8:	b02cd13a 	srli	r22,r22,4
  809cbc:	843fffc4 	addi	r16,r16,-1
  809cc0:	1ce6b03a 	or	r19,r3,r19
  809cc4:	80800005 	stb	r2,0(r16)
  809cc8:	9d84b03a 	or	r2,r19,r22
  809ccc:	103ff51e 	bne	r2,zero,809ca4 <__alt_mem_onchip_mem+0xff801ca4>
  809cd0:	d8c02817 	ldw	r3,160(sp)
  809cd4:	1c07c83a 	sub	r3,r3,r16
  809cd8:	d8c02e15 	stw	r3,184(sp)
  809cdc:	003ecc06 	br	809810 <__alt_mem_onchip_mem+0xff801810>
  809ce0:	18c03fcc 	andi	r3,r3,255
  809ce4:	183e9f26 	beq	r3,zero,809764 <__alt_mem_onchip_mem+0xff801764>
  809ce8:	d9c02785 	stb	r7,158(sp)
  809cec:	003e9d06 	br	809764 <__alt_mem_onchip_mem+0xff801764>
  809cf0:	00c00044 	movi	r3,1
  809cf4:	01c00ac4 	movi	r7,43
  809cf8:	ac400007 	ldb	r17,0(r21)
  809cfc:	003d5e06 	br	809278 <__alt_mem_onchip_mem+0xff801278>
  809d00:	94800814 	ori	r18,r18,32
  809d04:	ac400007 	ldb	r17,0(r21)
  809d08:	003d5b06 	br	809278 <__alt_mem_onchip_mem+0xff801278>
  809d0c:	d8c02d17 	ldw	r3,180(sp)
  809d10:	d8002785 	stb	zero,158(sp)
  809d14:	1c000017 	ldw	r16,0(r3)
  809d18:	1cc00104 	addi	r19,r3,4
  809d1c:	80041926 	beq	r16,zero,80ad84 <___vfprintf_internal_r+0x1c90>
  809d20:	d9002917 	ldw	r4,164(sp)
  809d24:	2003d016 	blt	r4,zero,80ac68 <___vfprintf_internal_r+0x1b74>
  809d28:	200d883a 	mov	r6,r4
  809d2c:	000b883a 	mov	r5,zero
  809d30:	8009883a 	mov	r4,r16
  809d34:	da003d15 	stw	r8,244(sp)
  809d38:	080d6a80 	call	80d6a8 <memchr>
  809d3c:	da003d17 	ldw	r8,244(sp)
  809d40:	10045426 	beq	r2,zero,80ae94 <___vfprintf_internal_r+0x1da0>
  809d44:	1405c83a 	sub	r2,r2,r16
  809d48:	d8802e15 	stw	r2,184(sp)
  809d4c:	1003cc16 	blt	r2,zero,80ac80 <___vfprintf_internal_r+0x1b8c>
  809d50:	df002783 	ldbu	fp,158(sp)
  809d54:	d8802a15 	stw	r2,168(sp)
  809d58:	dcc02d15 	stw	r19,180(sp)
  809d5c:	d8002915 	stw	zero,164(sp)
  809d60:	d8003215 	stw	zero,200(sp)
  809d64:	003eb006 	br	809828 <__alt_mem_onchip_mem+0xff801828>
  809d68:	18c03fcc 	andi	r3,r3,255
  809d6c:	183f9b26 	beq	r3,zero,809bdc <__alt_mem_onchip_mem+0xff801bdc>
  809d70:	d9c02785 	stb	r7,158(sp)
  809d74:	003f9906 	br	809bdc <__alt_mem_onchip_mem+0xff801bdc>
  809d78:	18c03fcc 	andi	r3,r3,255
  809d7c:	1805551e 	bne	r3,zero,80b2d4 <___vfprintf_internal_r+0x21e0>
  809d80:	01402074 	movhi	r5,129
  809d84:	295bac04 	addi	r5,r5,28336
  809d88:	d9403915 	stw	r5,228(sp)
  809d8c:	9080080c 	andi	r2,r18,32
  809d90:	103fae1e 	bne	r2,zero,809c4c <__alt_mem_onchip_mem+0xff801c4c>
  809d94:	9080040c 	andi	r2,r18,16
  809d98:	1002de26 	beq	r2,zero,80a914 <___vfprintf_internal_r+0x1820>
  809d9c:	d8c02d17 	ldw	r3,180(sp)
  809da0:	002d883a 	mov	r22,zero
  809da4:	1cc00017 	ldw	r19,0(r3)
  809da8:	18c00104 	addi	r3,r3,4
  809dac:	d8c02d15 	stw	r3,180(sp)
  809db0:	003fab06 	br	809c60 <__alt_mem_onchip_mem+0xff801c60>
  809db4:	38803fcc 	andi	r2,r7,255
  809db8:	1080201c 	xori	r2,r2,128
  809dbc:	10bfe004 	addi	r2,r2,-128
  809dc0:	1002d21e 	bne	r2,zero,80a90c <___vfprintf_internal_r+0x1818>
  809dc4:	00c00044 	movi	r3,1
  809dc8:	01c00804 	movi	r7,32
  809dcc:	ac400007 	ldb	r17,0(r21)
  809dd0:	003d2906 	br	809278 <__alt_mem_onchip_mem+0xff801278>
  809dd4:	94800054 	ori	r18,r18,1
  809dd8:	ac400007 	ldb	r17,0(r21)
  809ddc:	003d2606 	br	809278 <__alt_mem_onchip_mem+0xff801278>
  809de0:	18c03fcc 	andi	r3,r3,255
  809de4:	183e0526 	beq	r3,zero,8095fc <__alt_mem_onchip_mem+0xff8015fc>
  809de8:	d9c02785 	stb	r7,158(sp)
  809dec:	003e0306 	br	8095fc <__alt_mem_onchip_mem+0xff8015fc>
  809df0:	94801014 	ori	r18,r18,64
  809df4:	ac400007 	ldb	r17,0(r21)
  809df8:	003d1f06 	br	809278 <__alt_mem_onchip_mem+0xff801278>
  809dfc:	ac400007 	ldb	r17,0(r21)
  809e00:	8a438726 	beq	r17,r9,80ac20 <___vfprintf_internal_r+0x1b2c>
  809e04:	94800414 	ori	r18,r18,16
  809e08:	003d1b06 	br	809278 <__alt_mem_onchip_mem+0xff801278>
  809e0c:	18c03fcc 	andi	r3,r3,255
  809e10:	1805341e 	bne	r3,zero,80b2e4 <___vfprintf_internal_r+0x21f0>
  809e14:	9080080c 	andi	r2,r18,32
  809e18:	1002cd26 	beq	r2,zero,80a950 <___vfprintf_internal_r+0x185c>
  809e1c:	d9402d17 	ldw	r5,180(sp)
  809e20:	d9002f17 	ldw	r4,188(sp)
  809e24:	28800017 	ldw	r2,0(r5)
  809e28:	2007d7fa 	srai	r3,r4,31
  809e2c:	29400104 	addi	r5,r5,4
  809e30:	d9402d15 	stw	r5,180(sp)
  809e34:	11000015 	stw	r4,0(r2)
  809e38:	10c00115 	stw	r3,4(r2)
  809e3c:	003ce506 	br	8091d4 <__alt_mem_onchip_mem+0xff8011d4>
  809e40:	d8c02d17 	ldw	r3,180(sp)
  809e44:	d9002d17 	ldw	r4,180(sp)
  809e48:	d8002785 	stb	zero,158(sp)
  809e4c:	18800017 	ldw	r2,0(r3)
  809e50:	21000104 	addi	r4,r4,4
  809e54:	00c00044 	movi	r3,1
  809e58:	d8c02a15 	stw	r3,168(sp)
  809e5c:	d8801405 	stb	r2,80(sp)
  809e60:	d9002d15 	stw	r4,180(sp)
  809e64:	d8c02e15 	stw	r3,184(sp)
  809e68:	d8002915 	stw	zero,164(sp)
  809e6c:	d8003215 	stw	zero,200(sp)
  809e70:	dc001404 	addi	r16,sp,80
  809e74:	0039883a 	mov	fp,zero
  809e78:	003e7206 	br	809844 <__alt_mem_onchip_mem+0xff801844>
  809e7c:	01002074 	movhi	r4,129
  809e80:	211bac04 	addi	r4,r4,28336
  809e84:	0039883a 	mov	fp,zero
  809e88:	d9003915 	stw	r4,228(sp)
  809e8c:	04401e04 	movi	r17,120
  809e90:	003f8206 	br	809c9c <__alt_mem_onchip_mem+0xff801c9c>
  809e94:	18c03fcc 	andi	r3,r3,255
  809e98:	1805061e 	bne	r3,zero,80b2b4 <___vfprintf_internal_r+0x21c0>
  809e9c:	883d9126 	beq	r17,zero,8094e4 <__alt_mem_onchip_mem+0xff8014e4>
  809ea0:	00c00044 	movi	r3,1
  809ea4:	d8c02a15 	stw	r3,168(sp)
  809ea8:	dc401405 	stb	r17,80(sp)
  809eac:	d8002785 	stb	zero,158(sp)
  809eb0:	003fec06 	br	809e64 <__alt_mem_onchip_mem+0xff801e64>
  809eb4:	01402074 	movhi	r5,129
  809eb8:	295bac04 	addi	r5,r5,28336
  809ebc:	d9403915 	stw	r5,228(sp)
  809ec0:	d8c02d15 	stw	r3,180(sp)
  809ec4:	1025883a 	mov	r18,r2
  809ec8:	04401e04 	movi	r17,120
  809ecc:	9d84b03a 	or	r2,r19,r22
  809ed0:	1000fc1e 	bne	r2,zero,80a2c4 <___vfprintf_internal_r+0x11d0>
  809ed4:	0039883a 	mov	fp,zero
  809ed8:	00800084 	movi	r2,2
  809edc:	10803fcc 	andi	r2,r2,255
  809ee0:	00c00044 	movi	r3,1
  809ee4:	10c20f26 	beq	r2,r3,80a724 <___vfprintf_internal_r+0x1630>
  809ee8:	00c00084 	movi	r3,2
  809eec:	10fd6326 	beq	r2,r3,80947c <__alt_mem_onchip_mem+0xff80147c>
  809ef0:	003e2d06 	br	8097a8 <__alt_mem_onchip_mem+0xff8017a8>
  809ef4:	d8c02017 	ldw	r3,128(sp)
  809ef8:	003e9306 	br	809948 <__alt_mem_onchip_mem+0xff801948>
  809efc:	00801944 	movi	r2,101
  809f00:	14407e0e 	bge	r2,r17,80a0fc <___vfprintf_internal_r+0x1008>
  809f04:	d9003617 	ldw	r4,216(sp)
  809f08:	d9403817 	ldw	r5,224(sp)
  809f0c:	000d883a 	mov	r6,zero
  809f10:	000f883a 	mov	r7,zero
  809f14:	d8c03c15 	stw	r3,240(sp)
  809f18:	da003d15 	stw	r8,244(sp)
  809f1c:	08121880 	call	812188 <__eqdf2>
  809f20:	d8c03c17 	ldw	r3,240(sp)
  809f24:	da003d17 	ldw	r8,244(sp)
  809f28:	1000f71e 	bne	r2,zero,80a308 <___vfprintf_internal_r+0x1214>
  809f2c:	d8801f17 	ldw	r2,124(sp)
  809f30:	01002074 	movhi	r4,129
  809f34:	211bb304 	addi	r4,r4,28364
  809f38:	18c00044 	addi	r3,r3,1
  809f3c:	10800044 	addi	r2,r2,1
  809f40:	41000015 	stw	r4,0(r8)
  809f44:	01000044 	movi	r4,1
  809f48:	41000115 	stw	r4,4(r8)
  809f4c:	d8c02015 	stw	r3,128(sp)
  809f50:	d8801f15 	stw	r2,124(sp)
  809f54:	010001c4 	movi	r4,7
  809f58:	2082b816 	blt	r4,r2,80aa3c <___vfprintf_internal_r+0x1948>
  809f5c:	42000204 	addi	r8,r8,8
  809f60:	d8802617 	ldw	r2,152(sp)
  809f64:	d9403317 	ldw	r5,204(sp)
  809f68:	11400216 	blt	r2,r5,809f74 <___vfprintf_internal_r+0xe80>
  809f6c:	9080004c 	andi	r2,r18,1
  809f70:	103ed526 	beq	r2,zero,809ac8 <__alt_mem_onchip_mem+0xff801ac8>
  809f74:	d8803717 	ldw	r2,220(sp)
  809f78:	d9003417 	ldw	r4,208(sp)
  809f7c:	d9403717 	ldw	r5,220(sp)
  809f80:	1887883a 	add	r3,r3,r2
  809f84:	d8801f17 	ldw	r2,124(sp)
  809f88:	41000015 	stw	r4,0(r8)
  809f8c:	41400115 	stw	r5,4(r8)
  809f90:	10800044 	addi	r2,r2,1
  809f94:	d8c02015 	stw	r3,128(sp)
  809f98:	d8801f15 	stw	r2,124(sp)
  809f9c:	010001c4 	movi	r4,7
  809fa0:	20832916 	blt	r4,r2,80ac48 <___vfprintf_internal_r+0x1b54>
  809fa4:	42000204 	addi	r8,r8,8
  809fa8:	d8803317 	ldw	r2,204(sp)
  809fac:	143fffc4 	addi	r16,r2,-1
  809fb0:	043ec50e 	bge	zero,r16,809ac8 <__alt_mem_onchip_mem+0xff801ac8>
  809fb4:	04400404 	movi	r17,16
  809fb8:	d8801f17 	ldw	r2,124(sp)
  809fbc:	8c00880e 	bge	r17,r16,80a1e0 <___vfprintf_internal_r+0x10ec>
  809fc0:	01402074 	movhi	r5,129
  809fc4:	295bb384 	addi	r5,r5,28366
  809fc8:	d9402b15 	stw	r5,172(sp)
  809fcc:	058001c4 	movi	r22,7
  809fd0:	dcc02c17 	ldw	r19,176(sp)
  809fd4:	00000306 	br	809fe4 <___vfprintf_internal_r+0xef0>
  809fd8:	42000204 	addi	r8,r8,8
  809fdc:	843ffc04 	addi	r16,r16,-16
  809fe0:	8c00820e 	bge	r17,r16,80a1ec <___vfprintf_internal_r+0x10f8>
  809fe4:	18c00404 	addi	r3,r3,16
  809fe8:	10800044 	addi	r2,r2,1
  809fec:	45000015 	stw	r20,0(r8)
  809ff0:	44400115 	stw	r17,4(r8)
  809ff4:	d8c02015 	stw	r3,128(sp)
  809ff8:	d8801f15 	stw	r2,124(sp)
  809ffc:	b0bff60e 	bge	r22,r2,809fd8 <__alt_mem_onchip_mem+0xff801fd8>
  80a000:	d9801e04 	addi	r6,sp,120
  80a004:	b80b883a 	mov	r5,r23
  80a008:	9809883a 	mov	r4,r19
  80a00c:	080f23c0 	call	80f23c <__sprint_r>
  80a010:	103d3a1e 	bne	r2,zero,8094fc <__alt_mem_onchip_mem+0xff8014fc>
  80a014:	d8c02017 	ldw	r3,128(sp)
  80a018:	d8801f17 	ldw	r2,124(sp)
  80a01c:	da000404 	addi	r8,sp,16
  80a020:	003fee06 	br	809fdc <__alt_mem_onchip_mem+0xff801fdc>
  80a024:	d9403117 	ldw	r5,196(sp)
  80a028:	d8802a17 	ldw	r2,168(sp)
  80a02c:	28adc83a 	sub	r22,r5,r2
  80a030:	05be630e 	bge	zero,r22,8099c0 <__alt_mem_onchip_mem+0xff8019c0>
  80a034:	07000404 	movi	fp,16
  80a038:	d8801f17 	ldw	r2,124(sp)
  80a03c:	e5838f0e 	bge	fp,r22,80ae7c <___vfprintf_internal_r+0x1d88>
  80a040:	01402074 	movhi	r5,129
  80a044:	295bb384 	addi	r5,r5,28366
  80a048:	dc403015 	stw	r17,192(sp)
  80a04c:	d9402b15 	stw	r5,172(sp)
  80a050:	b023883a 	mov	r17,r22
  80a054:	04c001c4 	movi	r19,7
  80a058:	a82d883a 	mov	r22,r21
  80a05c:	902b883a 	mov	r21,r18
  80a060:	8025883a 	mov	r18,r16
  80a064:	dc002c17 	ldw	r16,176(sp)
  80a068:	00000306 	br	80a078 <___vfprintf_internal_r+0xf84>
  80a06c:	8c7ffc04 	addi	r17,r17,-16
  80a070:	42000204 	addi	r8,r8,8
  80a074:	e440110e 	bge	fp,r17,80a0bc <___vfprintf_internal_r+0xfc8>
  80a078:	18c00404 	addi	r3,r3,16
  80a07c:	10800044 	addi	r2,r2,1
  80a080:	45000015 	stw	r20,0(r8)
  80a084:	47000115 	stw	fp,4(r8)
  80a088:	d8c02015 	stw	r3,128(sp)
  80a08c:	d8801f15 	stw	r2,124(sp)
  80a090:	98bff60e 	bge	r19,r2,80a06c <__alt_mem_onchip_mem+0xff80206c>
  80a094:	d9801e04 	addi	r6,sp,120
  80a098:	b80b883a 	mov	r5,r23
  80a09c:	8009883a 	mov	r4,r16
  80a0a0:	080f23c0 	call	80f23c <__sprint_r>
  80a0a4:	103d151e 	bne	r2,zero,8094fc <__alt_mem_onchip_mem+0xff8014fc>
  80a0a8:	8c7ffc04 	addi	r17,r17,-16
  80a0ac:	d8c02017 	ldw	r3,128(sp)
  80a0b0:	d8801f17 	ldw	r2,124(sp)
  80a0b4:	da000404 	addi	r8,sp,16
  80a0b8:	e47fef16 	blt	fp,r17,80a078 <__alt_mem_onchip_mem+0xff802078>
  80a0bc:	9021883a 	mov	r16,r18
  80a0c0:	a825883a 	mov	r18,r21
  80a0c4:	b02b883a 	mov	r21,r22
  80a0c8:	882d883a 	mov	r22,r17
  80a0cc:	dc403017 	ldw	r17,192(sp)
  80a0d0:	d9002b17 	ldw	r4,172(sp)
  80a0d4:	1d87883a 	add	r3,r3,r22
  80a0d8:	10800044 	addi	r2,r2,1
  80a0dc:	41000015 	stw	r4,0(r8)
  80a0e0:	45800115 	stw	r22,4(r8)
  80a0e4:	d8c02015 	stw	r3,128(sp)
  80a0e8:	d8801f15 	stw	r2,124(sp)
  80a0ec:	010001c4 	movi	r4,7
  80a0f0:	20818e16 	blt	r4,r2,80a72c <___vfprintf_internal_r+0x1638>
  80a0f4:	42000204 	addi	r8,r8,8
  80a0f8:	003e3106 	br	8099c0 <__alt_mem_onchip_mem+0xff8019c0>
  80a0fc:	d9403317 	ldw	r5,204(sp)
  80a100:	00800044 	movi	r2,1
  80a104:	18c00044 	addi	r3,r3,1
  80a108:	1141530e 	bge	r2,r5,80a658 <___vfprintf_internal_r+0x1564>
  80a10c:	dc401f17 	ldw	r17,124(sp)
  80a110:	00800044 	movi	r2,1
  80a114:	40800115 	stw	r2,4(r8)
  80a118:	8c400044 	addi	r17,r17,1
  80a11c:	44000015 	stw	r16,0(r8)
  80a120:	d8c02015 	stw	r3,128(sp)
  80a124:	dc401f15 	stw	r17,124(sp)
  80a128:	008001c4 	movi	r2,7
  80a12c:	14416b16 	blt	r2,r17,80a6dc <___vfprintf_internal_r+0x15e8>
  80a130:	42000204 	addi	r8,r8,8
  80a134:	d8803717 	ldw	r2,220(sp)
  80a138:	d9003417 	ldw	r4,208(sp)
  80a13c:	8c400044 	addi	r17,r17,1
  80a140:	10c7883a 	add	r3,r2,r3
  80a144:	40800115 	stw	r2,4(r8)
  80a148:	41000015 	stw	r4,0(r8)
  80a14c:	d8c02015 	stw	r3,128(sp)
  80a150:	dc401f15 	stw	r17,124(sp)
  80a154:	008001c4 	movi	r2,7
  80a158:	14416916 	blt	r2,r17,80a700 <___vfprintf_internal_r+0x160c>
  80a15c:	45800204 	addi	r22,r8,8
  80a160:	d9003617 	ldw	r4,216(sp)
  80a164:	d9403817 	ldw	r5,224(sp)
  80a168:	000d883a 	mov	r6,zero
  80a16c:	000f883a 	mov	r7,zero
  80a170:	d8c03c15 	stw	r3,240(sp)
  80a174:	08121880 	call	812188 <__eqdf2>
  80a178:	d8c03c17 	ldw	r3,240(sp)
  80a17c:	1000bc26 	beq	r2,zero,80a470 <___vfprintf_internal_r+0x137c>
  80a180:	d9403317 	ldw	r5,204(sp)
  80a184:	84000044 	addi	r16,r16,1
  80a188:	8c400044 	addi	r17,r17,1
  80a18c:	28bfffc4 	addi	r2,r5,-1
  80a190:	1887883a 	add	r3,r3,r2
  80a194:	b0800115 	stw	r2,4(r22)
  80a198:	b4000015 	stw	r16,0(r22)
  80a19c:	d8c02015 	stw	r3,128(sp)
  80a1a0:	dc401f15 	stw	r17,124(sp)
  80a1a4:	008001c4 	movi	r2,7
  80a1a8:	14414316 	blt	r2,r17,80a6b8 <___vfprintf_internal_r+0x15c4>
  80a1ac:	b5800204 	addi	r22,r22,8
  80a1b0:	d9003a17 	ldw	r4,232(sp)
  80a1b4:	df0022c4 	addi	fp,sp,139
  80a1b8:	8c400044 	addi	r17,r17,1
  80a1bc:	20c7883a 	add	r3,r4,r3
  80a1c0:	b7000015 	stw	fp,0(r22)
  80a1c4:	b1000115 	stw	r4,4(r22)
  80a1c8:	d8c02015 	stw	r3,128(sp)
  80a1cc:	dc401f15 	stw	r17,124(sp)
  80a1d0:	008001c4 	movi	r2,7
  80a1d4:	14400e16 	blt	r2,r17,80a210 <___vfprintf_internal_r+0x111c>
  80a1d8:	b2000204 	addi	r8,r22,8
  80a1dc:	003e3a06 	br	809ac8 <__alt_mem_onchip_mem+0xff801ac8>
  80a1e0:	01002074 	movhi	r4,129
  80a1e4:	211bb384 	addi	r4,r4,28366
  80a1e8:	d9002b15 	stw	r4,172(sp)
  80a1ec:	d9002b17 	ldw	r4,172(sp)
  80a1f0:	1c07883a 	add	r3,r3,r16
  80a1f4:	44000115 	stw	r16,4(r8)
  80a1f8:	41000015 	stw	r4,0(r8)
  80a1fc:	10800044 	addi	r2,r2,1
  80a200:	d8c02015 	stw	r3,128(sp)
  80a204:	d8801f15 	stw	r2,124(sp)
  80a208:	010001c4 	movi	r4,7
  80a20c:	20be2d0e 	bge	r4,r2,809ac4 <__alt_mem_onchip_mem+0xff801ac4>
  80a210:	d9002c17 	ldw	r4,176(sp)
  80a214:	d9801e04 	addi	r6,sp,120
  80a218:	b80b883a 	mov	r5,r23
  80a21c:	080f23c0 	call	80f23c <__sprint_r>
  80a220:	103cb61e 	bne	r2,zero,8094fc <__alt_mem_onchip_mem+0xff8014fc>
  80a224:	d8c02017 	ldw	r3,128(sp)
  80a228:	da000404 	addi	r8,sp,16
  80a22c:	003e2606 	br	809ac8 <__alt_mem_onchip_mem+0xff801ac8>
  80a230:	d9002c17 	ldw	r4,176(sp)
  80a234:	d9801e04 	addi	r6,sp,120
  80a238:	b80b883a 	mov	r5,r23
  80a23c:	080f23c0 	call	80f23c <__sprint_r>
  80a240:	103e5d26 	beq	r2,zero,809bb8 <__alt_mem_onchip_mem+0xff801bb8>
  80a244:	003cad06 	br	8094fc <__alt_mem_onchip_mem+0xff8014fc>
  80a248:	d9002c17 	ldw	r4,176(sp)
  80a24c:	d9801e04 	addi	r6,sp,120
  80a250:	b80b883a 	mov	r5,r23
  80a254:	080f23c0 	call	80f23c <__sprint_r>
  80a258:	103ca81e 	bne	r2,zero,8094fc <__alt_mem_onchip_mem+0xff8014fc>
  80a25c:	d8c02017 	ldw	r3,128(sp)
  80a260:	da000404 	addi	r8,sp,16
  80a264:	003e0b06 	br	809a94 <__alt_mem_onchip_mem+0xff801a94>
  80a268:	d9002c17 	ldw	r4,176(sp)
  80a26c:	d9801e04 	addi	r6,sp,120
  80a270:	b80b883a 	mov	r5,r23
  80a274:	080f23c0 	call	80f23c <__sprint_r>
  80a278:	103ca01e 	bne	r2,zero,8094fc <__alt_mem_onchip_mem+0xff8014fc>
  80a27c:	d8c02017 	ldw	r3,128(sp)
  80a280:	da000404 	addi	r8,sp,16
  80a284:	003dbd06 	br	80997c <__alt_mem_onchip_mem+0xff80197c>
  80a288:	d9002c17 	ldw	r4,176(sp)
  80a28c:	d9801e04 	addi	r6,sp,120
  80a290:	b80b883a 	mov	r5,r23
  80a294:	080f23c0 	call	80f23c <__sprint_r>
  80a298:	103c981e 	bne	r2,zero,8094fc <__alt_mem_onchip_mem+0xff8014fc>
  80a29c:	d8c02017 	ldw	r3,128(sp)
  80a2a0:	da000404 	addi	r8,sp,16
  80a2a4:	003dc306 	br	8099b4 <__alt_mem_onchip_mem+0xff8019b4>
  80a2a8:	d8802917 	ldw	r2,164(sp)
  80a2ac:	d8002785 	stb	zero,158(sp)
  80a2b0:	103f0616 	blt	r2,zero,809ecc <__alt_mem_onchip_mem+0xff801ecc>
  80a2b4:	00ffdfc4 	movi	r3,-129
  80a2b8:	9d84b03a 	or	r2,r19,r22
  80a2bc:	90e4703a 	and	r18,r18,r3
  80a2c0:	103c6b26 	beq	r2,zero,809470 <__alt_mem_onchip_mem+0xff801470>
  80a2c4:	0039883a 	mov	fp,zero
  80a2c8:	003e7406 	br	809c9c <__alt_mem_onchip_mem+0xff801c9c>
  80a2cc:	9080040c 	andi	r2,r18,16
  80a2d0:	1001b326 	beq	r2,zero,80a9a0 <___vfprintf_internal_r+0x18ac>
  80a2d4:	d9002d17 	ldw	r4,180(sp)
  80a2d8:	d9402917 	ldw	r5,164(sp)
  80a2dc:	d8002785 	stb	zero,158(sp)
  80a2e0:	20800104 	addi	r2,r4,4
  80a2e4:	24c00017 	ldw	r19,0(r4)
  80a2e8:	002d883a 	mov	r22,zero
  80a2ec:	2801b516 	blt	r5,zero,80a9c4 <___vfprintf_internal_r+0x18d0>
  80a2f0:	00ffdfc4 	movi	r3,-129
  80a2f4:	d8802d15 	stw	r2,180(sp)
  80a2f8:	90e4703a 	and	r18,r18,r3
  80a2fc:	983d2726 	beq	r19,zero,80979c <__alt_mem_onchip_mem+0xff80179c>
  80a300:	0039883a 	mov	fp,zero
  80a304:	003d2a06 	br	8097b0 <__alt_mem_onchip_mem+0xff8017b0>
  80a308:	dc402617 	ldw	r17,152(sp)
  80a30c:	0441d30e 	bge	zero,r17,80aa5c <___vfprintf_internal_r+0x1968>
  80a310:	dc403217 	ldw	r17,200(sp)
  80a314:	d8803317 	ldw	r2,204(sp)
  80a318:	1440010e 	bge	r2,r17,80a320 <___vfprintf_internal_r+0x122c>
  80a31c:	1023883a 	mov	r17,r2
  80a320:	04400a0e 	bge	zero,r17,80a34c <___vfprintf_internal_r+0x1258>
  80a324:	d8801f17 	ldw	r2,124(sp)
  80a328:	1c47883a 	add	r3,r3,r17
  80a32c:	44000015 	stw	r16,0(r8)
  80a330:	10800044 	addi	r2,r2,1
  80a334:	44400115 	stw	r17,4(r8)
  80a338:	d8c02015 	stw	r3,128(sp)
  80a33c:	d8801f15 	stw	r2,124(sp)
  80a340:	010001c4 	movi	r4,7
  80a344:	20826516 	blt	r4,r2,80acdc <___vfprintf_internal_r+0x1be8>
  80a348:	42000204 	addi	r8,r8,8
  80a34c:	88026116 	blt	r17,zero,80acd4 <___vfprintf_internal_r+0x1be0>
  80a350:	d9003217 	ldw	r4,200(sp)
  80a354:	2463c83a 	sub	r17,r4,r17
  80a358:	04407b0e 	bge	zero,r17,80a548 <___vfprintf_internal_r+0x1454>
  80a35c:	05800404 	movi	r22,16
  80a360:	d8801f17 	ldw	r2,124(sp)
  80a364:	b4419d0e 	bge	r22,r17,80a9dc <___vfprintf_internal_r+0x18e8>
  80a368:	01002074 	movhi	r4,129
  80a36c:	211bb384 	addi	r4,r4,28366
  80a370:	d9002b15 	stw	r4,172(sp)
  80a374:	070001c4 	movi	fp,7
  80a378:	dcc02c17 	ldw	r19,176(sp)
  80a37c:	00000306 	br	80a38c <___vfprintf_internal_r+0x1298>
  80a380:	42000204 	addi	r8,r8,8
  80a384:	8c7ffc04 	addi	r17,r17,-16
  80a388:	b441970e 	bge	r22,r17,80a9e8 <___vfprintf_internal_r+0x18f4>
  80a38c:	18c00404 	addi	r3,r3,16
  80a390:	10800044 	addi	r2,r2,1
  80a394:	45000015 	stw	r20,0(r8)
  80a398:	45800115 	stw	r22,4(r8)
  80a39c:	d8c02015 	stw	r3,128(sp)
  80a3a0:	d8801f15 	stw	r2,124(sp)
  80a3a4:	e0bff60e 	bge	fp,r2,80a380 <__alt_mem_onchip_mem+0xff802380>
  80a3a8:	d9801e04 	addi	r6,sp,120
  80a3ac:	b80b883a 	mov	r5,r23
  80a3b0:	9809883a 	mov	r4,r19
  80a3b4:	080f23c0 	call	80f23c <__sprint_r>
  80a3b8:	103c501e 	bne	r2,zero,8094fc <__alt_mem_onchip_mem+0xff8014fc>
  80a3bc:	d8c02017 	ldw	r3,128(sp)
  80a3c0:	d8801f17 	ldw	r2,124(sp)
  80a3c4:	da000404 	addi	r8,sp,16
  80a3c8:	003fee06 	br	80a384 <__alt_mem_onchip_mem+0xff802384>
  80a3cc:	d9002c17 	ldw	r4,176(sp)
  80a3d0:	d9801e04 	addi	r6,sp,120
  80a3d4:	b80b883a 	mov	r5,r23
  80a3d8:	080f23c0 	call	80f23c <__sprint_r>
  80a3dc:	103c471e 	bne	r2,zero,8094fc <__alt_mem_onchip_mem+0xff8014fc>
  80a3e0:	d8c02017 	ldw	r3,128(sp)
  80a3e4:	df002787 	ldb	fp,158(sp)
  80a3e8:	da000404 	addi	r8,sp,16
  80a3ec:	003d5606 	br	809948 <__alt_mem_onchip_mem+0xff801948>
  80a3f0:	9080040c 	andi	r2,r18,16
  80a3f4:	10016126 	beq	r2,zero,80a97c <___vfprintf_internal_r+0x1888>
  80a3f8:	d8802d17 	ldw	r2,180(sp)
  80a3fc:	14c00017 	ldw	r19,0(r2)
  80a400:	10800104 	addi	r2,r2,4
  80a404:	d8802d15 	stw	r2,180(sp)
  80a408:	982dd7fa 	srai	r22,r19,31
  80a40c:	b005883a 	mov	r2,r22
  80a410:	003c8206 	br	80961c <__alt_mem_onchip_mem+0xff80161c>
  80a414:	9080040c 	andi	r2,r18,16
  80a418:	10003526 	beq	r2,zero,80a4f0 <___vfprintf_internal_r+0x13fc>
  80a41c:	d9402d17 	ldw	r5,180(sp)
  80a420:	d8c02917 	ldw	r3,164(sp)
  80a424:	d8002785 	stb	zero,158(sp)
  80a428:	28800104 	addi	r2,r5,4
  80a42c:	2cc00017 	ldw	r19,0(r5)
  80a430:	002d883a 	mov	r22,zero
  80a434:	18003716 	blt	r3,zero,80a514 <___vfprintf_internal_r+0x1420>
  80a438:	00ffdfc4 	movi	r3,-129
  80a43c:	d8802d15 	stw	r2,180(sp)
  80a440:	90e4703a 	and	r18,r18,r3
  80a444:	0039883a 	mov	fp,zero
  80a448:	983df326 	beq	r19,zero,809c18 <__alt_mem_onchip_mem+0xff801c18>
  80a44c:	00800244 	movi	r2,9
  80a450:	14fc7b36 	bltu	r2,r19,809640 <__alt_mem_onchip_mem+0xff801640>
  80a454:	d8c02817 	ldw	r3,160(sp)
  80a458:	dc001dc4 	addi	r16,sp,119
  80a45c:	9cc00c04 	addi	r19,r19,48
  80a460:	1c07c83a 	sub	r3,r3,r16
  80a464:	dcc01dc5 	stb	r19,119(sp)
  80a468:	d8c02e15 	stw	r3,184(sp)
  80a46c:	003ce806 	br	809810 <__alt_mem_onchip_mem+0xff801810>
  80a470:	d8803317 	ldw	r2,204(sp)
  80a474:	143fffc4 	addi	r16,r2,-1
  80a478:	043f4d0e 	bge	zero,r16,80a1b0 <__alt_mem_onchip_mem+0xff8021b0>
  80a47c:	07000404 	movi	fp,16
  80a480:	e400810e 	bge	fp,r16,80a688 <___vfprintf_internal_r+0x1594>
  80a484:	01402074 	movhi	r5,129
  80a488:	295bb384 	addi	r5,r5,28366
  80a48c:	d9402b15 	stw	r5,172(sp)
  80a490:	01c001c4 	movi	r7,7
  80a494:	dcc02c17 	ldw	r19,176(sp)
  80a498:	00000306 	br	80a4a8 <___vfprintf_internal_r+0x13b4>
  80a49c:	b5800204 	addi	r22,r22,8
  80a4a0:	843ffc04 	addi	r16,r16,-16
  80a4a4:	e4007b0e 	bge	fp,r16,80a694 <___vfprintf_internal_r+0x15a0>
  80a4a8:	18c00404 	addi	r3,r3,16
  80a4ac:	8c400044 	addi	r17,r17,1
  80a4b0:	b5000015 	stw	r20,0(r22)
  80a4b4:	b7000115 	stw	fp,4(r22)
  80a4b8:	d8c02015 	stw	r3,128(sp)
  80a4bc:	dc401f15 	stw	r17,124(sp)
  80a4c0:	3c7ff60e 	bge	r7,r17,80a49c <__alt_mem_onchip_mem+0xff80249c>
  80a4c4:	d9801e04 	addi	r6,sp,120
  80a4c8:	b80b883a 	mov	r5,r23
  80a4cc:	9809883a 	mov	r4,r19
  80a4d0:	d9c03c15 	stw	r7,240(sp)
  80a4d4:	080f23c0 	call	80f23c <__sprint_r>
  80a4d8:	d9c03c17 	ldw	r7,240(sp)
  80a4dc:	103c071e 	bne	r2,zero,8094fc <__alt_mem_onchip_mem+0xff8014fc>
  80a4e0:	d8c02017 	ldw	r3,128(sp)
  80a4e4:	dc401f17 	ldw	r17,124(sp)
  80a4e8:	dd800404 	addi	r22,sp,16
  80a4ec:	003fec06 	br	80a4a0 <__alt_mem_onchip_mem+0xff8024a0>
  80a4f0:	9080100c 	andi	r2,r18,64
  80a4f4:	d8002785 	stb	zero,158(sp)
  80a4f8:	10010e26 	beq	r2,zero,80a934 <___vfprintf_internal_r+0x1840>
  80a4fc:	d9002d17 	ldw	r4,180(sp)
  80a500:	d9402917 	ldw	r5,164(sp)
  80a504:	002d883a 	mov	r22,zero
  80a508:	20800104 	addi	r2,r4,4
  80a50c:	24c0000b 	ldhu	r19,0(r4)
  80a510:	283fc90e 	bge	r5,zero,80a438 <__alt_mem_onchip_mem+0xff802438>
  80a514:	d8802d15 	stw	r2,180(sp)
  80a518:	0039883a 	mov	fp,zero
  80a51c:	9d84b03a 	or	r2,r19,r22
  80a520:	103c461e 	bne	r2,zero,80963c <__alt_mem_onchip_mem+0xff80163c>
  80a524:	00800044 	movi	r2,1
  80a528:	003e6c06 	br	809edc <__alt_mem_onchip_mem+0xff801edc>
  80a52c:	d9002c17 	ldw	r4,176(sp)
  80a530:	d9801e04 	addi	r6,sp,120
  80a534:	b80b883a 	mov	r5,r23
  80a538:	080f23c0 	call	80f23c <__sprint_r>
  80a53c:	103bef1e 	bne	r2,zero,8094fc <__alt_mem_onchip_mem+0xff8014fc>
  80a540:	d8c02017 	ldw	r3,128(sp)
  80a544:	da000404 	addi	r8,sp,16
  80a548:	d9003217 	ldw	r4,200(sp)
  80a54c:	d8802617 	ldw	r2,152(sp)
  80a550:	d9403317 	ldw	r5,204(sp)
  80a554:	8123883a 	add	r17,r16,r4
  80a558:	11400216 	blt	r2,r5,80a564 <___vfprintf_internal_r+0x1470>
  80a55c:	9100004c 	andi	r4,r18,1
  80a560:	20000d26 	beq	r4,zero,80a598 <___vfprintf_internal_r+0x14a4>
  80a564:	d9003717 	ldw	r4,220(sp)
  80a568:	d9403417 	ldw	r5,208(sp)
  80a56c:	1907883a 	add	r3,r3,r4
  80a570:	d9001f17 	ldw	r4,124(sp)
  80a574:	41400015 	stw	r5,0(r8)
  80a578:	d9403717 	ldw	r5,220(sp)
  80a57c:	21000044 	addi	r4,r4,1
  80a580:	d8c02015 	stw	r3,128(sp)
  80a584:	41400115 	stw	r5,4(r8)
  80a588:	d9001f15 	stw	r4,124(sp)
  80a58c:	014001c4 	movi	r5,7
  80a590:	2901e816 	blt	r5,r4,80ad34 <___vfprintf_internal_r+0x1c40>
  80a594:	42000204 	addi	r8,r8,8
  80a598:	d9003317 	ldw	r4,204(sp)
  80a59c:	8121883a 	add	r16,r16,r4
  80a5a0:	2085c83a 	sub	r2,r4,r2
  80a5a4:	8461c83a 	sub	r16,r16,r17
  80a5a8:	1400010e 	bge	r2,r16,80a5b0 <___vfprintf_internal_r+0x14bc>
  80a5ac:	1021883a 	mov	r16,r2
  80a5b0:	04000a0e 	bge	zero,r16,80a5dc <___vfprintf_internal_r+0x14e8>
  80a5b4:	d9001f17 	ldw	r4,124(sp)
  80a5b8:	1c07883a 	add	r3,r3,r16
  80a5bc:	44400015 	stw	r17,0(r8)
  80a5c0:	21000044 	addi	r4,r4,1
  80a5c4:	44000115 	stw	r16,4(r8)
  80a5c8:	d8c02015 	stw	r3,128(sp)
  80a5cc:	d9001f15 	stw	r4,124(sp)
  80a5d0:	014001c4 	movi	r5,7
  80a5d4:	2901fb16 	blt	r5,r4,80adc4 <___vfprintf_internal_r+0x1cd0>
  80a5d8:	42000204 	addi	r8,r8,8
  80a5dc:	8001f716 	blt	r16,zero,80adbc <___vfprintf_internal_r+0x1cc8>
  80a5e0:	1421c83a 	sub	r16,r2,r16
  80a5e4:	043d380e 	bge	zero,r16,809ac8 <__alt_mem_onchip_mem+0xff801ac8>
  80a5e8:	04400404 	movi	r17,16
  80a5ec:	d8801f17 	ldw	r2,124(sp)
  80a5f0:	8c3efb0e 	bge	r17,r16,80a1e0 <__alt_mem_onchip_mem+0xff8021e0>
  80a5f4:	01402074 	movhi	r5,129
  80a5f8:	295bb384 	addi	r5,r5,28366
  80a5fc:	d9402b15 	stw	r5,172(sp)
  80a600:	058001c4 	movi	r22,7
  80a604:	dcc02c17 	ldw	r19,176(sp)
  80a608:	00000306 	br	80a618 <___vfprintf_internal_r+0x1524>
  80a60c:	42000204 	addi	r8,r8,8
  80a610:	843ffc04 	addi	r16,r16,-16
  80a614:	8c3ef50e 	bge	r17,r16,80a1ec <__alt_mem_onchip_mem+0xff8021ec>
  80a618:	18c00404 	addi	r3,r3,16
  80a61c:	10800044 	addi	r2,r2,1
  80a620:	45000015 	stw	r20,0(r8)
  80a624:	44400115 	stw	r17,4(r8)
  80a628:	d8c02015 	stw	r3,128(sp)
  80a62c:	d8801f15 	stw	r2,124(sp)
  80a630:	b0bff60e 	bge	r22,r2,80a60c <__alt_mem_onchip_mem+0xff80260c>
  80a634:	d9801e04 	addi	r6,sp,120
  80a638:	b80b883a 	mov	r5,r23
  80a63c:	9809883a 	mov	r4,r19
  80a640:	080f23c0 	call	80f23c <__sprint_r>
  80a644:	103bad1e 	bne	r2,zero,8094fc <__alt_mem_onchip_mem+0xff8014fc>
  80a648:	d8c02017 	ldw	r3,128(sp)
  80a64c:	d8801f17 	ldw	r2,124(sp)
  80a650:	da000404 	addi	r8,sp,16
  80a654:	003fee06 	br	80a610 <__alt_mem_onchip_mem+0xff802610>
  80a658:	9088703a 	and	r4,r18,r2
  80a65c:	203eab1e 	bne	r4,zero,80a10c <__alt_mem_onchip_mem+0xff80210c>
  80a660:	dc401f17 	ldw	r17,124(sp)
  80a664:	40800115 	stw	r2,4(r8)
  80a668:	44000015 	stw	r16,0(r8)
  80a66c:	8c400044 	addi	r17,r17,1
  80a670:	d8c02015 	stw	r3,128(sp)
  80a674:	dc401f15 	stw	r17,124(sp)
  80a678:	008001c4 	movi	r2,7
  80a67c:	14400e16 	blt	r2,r17,80a6b8 <___vfprintf_internal_r+0x15c4>
  80a680:	45800204 	addi	r22,r8,8
  80a684:	003eca06 	br	80a1b0 <__alt_mem_onchip_mem+0xff8021b0>
  80a688:	01002074 	movhi	r4,129
  80a68c:	211bb384 	addi	r4,r4,28366
  80a690:	d9002b15 	stw	r4,172(sp)
  80a694:	d8802b17 	ldw	r2,172(sp)
  80a698:	1c07883a 	add	r3,r3,r16
  80a69c:	8c400044 	addi	r17,r17,1
  80a6a0:	b0800015 	stw	r2,0(r22)
  80a6a4:	b4000115 	stw	r16,4(r22)
  80a6a8:	d8c02015 	stw	r3,128(sp)
  80a6ac:	dc401f15 	stw	r17,124(sp)
  80a6b0:	008001c4 	movi	r2,7
  80a6b4:	147ebd0e 	bge	r2,r17,80a1ac <__alt_mem_onchip_mem+0xff8021ac>
  80a6b8:	d9002c17 	ldw	r4,176(sp)
  80a6bc:	d9801e04 	addi	r6,sp,120
  80a6c0:	b80b883a 	mov	r5,r23
  80a6c4:	080f23c0 	call	80f23c <__sprint_r>
  80a6c8:	103b8c1e 	bne	r2,zero,8094fc <__alt_mem_onchip_mem+0xff8014fc>
  80a6cc:	d8c02017 	ldw	r3,128(sp)
  80a6d0:	dc401f17 	ldw	r17,124(sp)
  80a6d4:	dd800404 	addi	r22,sp,16
  80a6d8:	003eb506 	br	80a1b0 <__alt_mem_onchip_mem+0xff8021b0>
  80a6dc:	d9002c17 	ldw	r4,176(sp)
  80a6e0:	d9801e04 	addi	r6,sp,120
  80a6e4:	b80b883a 	mov	r5,r23
  80a6e8:	080f23c0 	call	80f23c <__sprint_r>
  80a6ec:	103b831e 	bne	r2,zero,8094fc <__alt_mem_onchip_mem+0xff8014fc>
  80a6f0:	d8c02017 	ldw	r3,128(sp)
  80a6f4:	dc401f17 	ldw	r17,124(sp)
  80a6f8:	da000404 	addi	r8,sp,16
  80a6fc:	003e8d06 	br	80a134 <__alt_mem_onchip_mem+0xff802134>
  80a700:	d9002c17 	ldw	r4,176(sp)
  80a704:	d9801e04 	addi	r6,sp,120
  80a708:	b80b883a 	mov	r5,r23
  80a70c:	080f23c0 	call	80f23c <__sprint_r>
  80a710:	103b7a1e 	bne	r2,zero,8094fc <__alt_mem_onchip_mem+0xff8014fc>
  80a714:	d8c02017 	ldw	r3,128(sp)
  80a718:	dc401f17 	ldw	r17,124(sp)
  80a71c:	dd800404 	addi	r22,sp,16
  80a720:	003e8f06 	br	80a160 <__alt_mem_onchip_mem+0xff802160>
  80a724:	0027883a 	mov	r19,zero
  80a728:	003f4a06 	br	80a454 <__alt_mem_onchip_mem+0xff802454>
  80a72c:	d9002c17 	ldw	r4,176(sp)
  80a730:	d9801e04 	addi	r6,sp,120
  80a734:	b80b883a 	mov	r5,r23
  80a738:	080f23c0 	call	80f23c <__sprint_r>
  80a73c:	103b6f1e 	bne	r2,zero,8094fc <__alt_mem_onchip_mem+0xff8014fc>
  80a740:	d8c02017 	ldw	r3,128(sp)
  80a744:	da000404 	addi	r8,sp,16
  80a748:	003c9d06 	br	8099c0 <__alt_mem_onchip_mem+0xff8019c0>
  80a74c:	04e7c83a 	sub	r19,zero,r19
  80a750:	9804c03a 	cmpne	r2,r19,zero
  80a754:	05adc83a 	sub	r22,zero,r22
  80a758:	b0adc83a 	sub	r22,r22,r2
  80a75c:	d8802917 	ldw	r2,164(sp)
  80a760:	07000b44 	movi	fp,45
  80a764:	df002785 	stb	fp,158(sp)
  80a768:	10017b16 	blt	r2,zero,80ad58 <___vfprintf_internal_r+0x1c64>
  80a76c:	00bfdfc4 	movi	r2,-129
  80a770:	90a4703a 	and	r18,r18,r2
  80a774:	003bb106 	br	80963c <__alt_mem_onchip_mem+0xff80163c>
  80a778:	d9003617 	ldw	r4,216(sp)
  80a77c:	d9403817 	ldw	r5,224(sp)
  80a780:	da003d15 	stw	r8,244(sp)
  80a784:	080eff00 	call	80eff0 <__fpclassifyd>
  80a788:	da003d17 	ldw	r8,244(sp)
  80a78c:	1000f026 	beq	r2,zero,80ab50 <___vfprintf_internal_r+0x1a5c>
  80a790:	d9002917 	ldw	r4,164(sp)
  80a794:	05bff7c4 	movi	r22,-33
  80a798:	00bfffc4 	movi	r2,-1
  80a79c:	8dac703a 	and	r22,r17,r22
  80a7a0:	20820026 	beq	r4,r2,80afa4 <___vfprintf_internal_r+0x1eb0>
  80a7a4:	008011c4 	movi	r2,71
  80a7a8:	b081f726 	beq	r22,r2,80af88 <___vfprintf_internal_r+0x1e94>
  80a7ac:	d9003817 	ldw	r4,224(sp)
  80a7b0:	90c04014 	ori	r3,r18,256
  80a7b4:	d8c02b15 	stw	r3,172(sp)
  80a7b8:	20021516 	blt	r4,zero,80b010 <___vfprintf_internal_r+0x1f1c>
  80a7bc:	dcc03817 	ldw	r19,224(sp)
  80a7c0:	d8002a05 	stb	zero,168(sp)
  80a7c4:	00801984 	movi	r2,102
  80a7c8:	8881f926 	beq	r17,r2,80afb0 <___vfprintf_internal_r+0x1ebc>
  80a7cc:	00801184 	movi	r2,70
  80a7d0:	88821c26 	beq	r17,r2,80b044 <___vfprintf_internal_r+0x1f50>
  80a7d4:	00801144 	movi	r2,69
  80a7d8:	b081ef26 	beq	r22,r2,80af98 <___vfprintf_internal_r+0x1ea4>
  80a7dc:	d8c02917 	ldw	r3,164(sp)
  80a7e0:	d8802104 	addi	r2,sp,132
  80a7e4:	d8800315 	stw	r2,12(sp)
  80a7e8:	d9403617 	ldw	r5,216(sp)
  80a7ec:	d8802504 	addi	r2,sp,148
  80a7f0:	d9002c17 	ldw	r4,176(sp)
  80a7f4:	d8800215 	stw	r2,8(sp)
  80a7f8:	d8802604 	addi	r2,sp,152
  80a7fc:	d8c00015 	stw	r3,0(sp)
  80a800:	d8800115 	stw	r2,4(sp)
  80a804:	01c00084 	movi	r7,2
  80a808:	980d883a 	mov	r6,r19
  80a80c:	d8c03c15 	stw	r3,240(sp)
  80a810:	da003d15 	stw	r8,244(sp)
  80a814:	080b9280 	call	80b928 <_dtoa_r>
  80a818:	1021883a 	mov	r16,r2
  80a81c:	008019c4 	movi	r2,103
  80a820:	d8c03c17 	ldw	r3,240(sp)
  80a824:	da003d17 	ldw	r8,244(sp)
  80a828:	88817126 	beq	r17,r2,80adf0 <___vfprintf_internal_r+0x1cfc>
  80a82c:	008011c4 	movi	r2,71
  80a830:	88829226 	beq	r17,r2,80b27c <___vfprintf_internal_r+0x2188>
  80a834:	80f9883a 	add	fp,r16,r3
  80a838:	d9003617 	ldw	r4,216(sp)
  80a83c:	000d883a 	mov	r6,zero
  80a840:	000f883a 	mov	r7,zero
  80a844:	980b883a 	mov	r5,r19
  80a848:	da003d15 	stw	r8,244(sp)
  80a84c:	08121880 	call	812188 <__eqdf2>
  80a850:	da003d17 	ldw	r8,244(sp)
  80a854:	10018d26 	beq	r2,zero,80ae8c <___vfprintf_internal_r+0x1d98>
  80a858:	d8802117 	ldw	r2,132(sp)
  80a85c:	1700062e 	bgeu	r2,fp,80a878 <___vfprintf_internal_r+0x1784>
  80a860:	01000c04 	movi	r4,48
  80a864:	10c00044 	addi	r3,r2,1
  80a868:	d8c02115 	stw	r3,132(sp)
  80a86c:	11000005 	stb	r4,0(r2)
  80a870:	d8802117 	ldw	r2,132(sp)
  80a874:	173ffb36 	bltu	r2,fp,80a864 <__alt_mem_onchip_mem+0xff802864>
  80a878:	1405c83a 	sub	r2,r2,r16
  80a87c:	d8803315 	stw	r2,204(sp)
  80a880:	008011c4 	movi	r2,71
  80a884:	b0817626 	beq	r22,r2,80ae60 <___vfprintf_internal_r+0x1d6c>
  80a888:	00801944 	movi	r2,101
  80a88c:	1442810e 	bge	r2,r17,80b294 <___vfprintf_internal_r+0x21a0>
  80a890:	d8c02617 	ldw	r3,152(sp)
  80a894:	00801984 	movi	r2,102
  80a898:	d8c03215 	stw	r3,200(sp)
  80a89c:	8881fe26 	beq	r17,r2,80b098 <___vfprintf_internal_r+0x1fa4>
  80a8a0:	d8c03217 	ldw	r3,200(sp)
  80a8a4:	d9003317 	ldw	r4,204(sp)
  80a8a8:	1901dd16 	blt	r3,r4,80b020 <___vfprintf_internal_r+0x1f2c>
  80a8ac:	9480004c 	andi	r18,r18,1
  80a8b0:	90022b1e 	bne	r18,zero,80b160 <___vfprintf_internal_r+0x206c>
  80a8b4:	1805883a 	mov	r2,r3
  80a8b8:	18028016 	blt	r3,zero,80b2bc <___vfprintf_internal_r+0x21c8>
  80a8bc:	d8c03217 	ldw	r3,200(sp)
  80a8c0:	044019c4 	movi	r17,103
  80a8c4:	d8c02e15 	stw	r3,184(sp)
  80a8c8:	df002a07 	ldb	fp,168(sp)
  80a8cc:	e001531e 	bne	fp,zero,80ae1c <___vfprintf_internal_r+0x1d28>
  80a8d0:	df002783 	ldbu	fp,158(sp)
  80a8d4:	d8802a15 	stw	r2,168(sp)
  80a8d8:	dc802b17 	ldw	r18,172(sp)
  80a8dc:	d8002915 	stw	zero,164(sp)
  80a8e0:	003bd106 	br	809828 <__alt_mem_onchip_mem+0xff801828>
  80a8e4:	d8802d17 	ldw	r2,180(sp)
  80a8e8:	d8c02d17 	ldw	r3,180(sp)
  80a8ec:	d9002d17 	ldw	r4,180(sp)
  80a8f0:	10800017 	ldw	r2,0(r2)
  80a8f4:	18c00117 	ldw	r3,4(r3)
  80a8f8:	21000204 	addi	r4,r4,8
  80a8fc:	d8803615 	stw	r2,216(sp)
  80a900:	d8c03815 	stw	r3,224(sp)
  80a904:	d9002d15 	stw	r4,180(sp)
  80a908:	003b7506 	br	8096e0 <__alt_mem_onchip_mem+0xff8016e0>
  80a90c:	ac400007 	ldb	r17,0(r21)
  80a910:	003a5906 	br	809278 <__alt_mem_onchip_mem+0xff801278>
  80a914:	9080100c 	andi	r2,r18,64
  80a918:	1000a826 	beq	r2,zero,80abbc <___vfprintf_internal_r+0x1ac8>
  80a91c:	d9002d17 	ldw	r4,180(sp)
  80a920:	002d883a 	mov	r22,zero
  80a924:	24c0000b 	ldhu	r19,0(r4)
  80a928:	21000104 	addi	r4,r4,4
  80a92c:	d9002d15 	stw	r4,180(sp)
  80a930:	003ccb06 	br	809c60 <__alt_mem_onchip_mem+0xff801c60>
  80a934:	d8c02d17 	ldw	r3,180(sp)
  80a938:	d9002917 	ldw	r4,164(sp)
  80a93c:	002d883a 	mov	r22,zero
  80a940:	18800104 	addi	r2,r3,4
  80a944:	1cc00017 	ldw	r19,0(r3)
  80a948:	203ebb0e 	bge	r4,zero,80a438 <__alt_mem_onchip_mem+0xff802438>
  80a94c:	003ef106 	br	80a514 <__alt_mem_onchip_mem+0xff802514>
  80a950:	9080040c 	andi	r2,r18,16
  80a954:	1000921e 	bne	r2,zero,80aba0 <___vfprintf_internal_r+0x1aac>
  80a958:	9480100c 	andi	r18,r18,64
  80a95c:	90013926 	beq	r18,zero,80ae44 <___vfprintf_internal_r+0x1d50>
  80a960:	d9002d17 	ldw	r4,180(sp)
  80a964:	d9402f17 	ldw	r5,188(sp)
  80a968:	20800017 	ldw	r2,0(r4)
  80a96c:	21000104 	addi	r4,r4,4
  80a970:	d9002d15 	stw	r4,180(sp)
  80a974:	1140000d 	sth	r5,0(r2)
  80a978:	003a1606 	br	8091d4 <__alt_mem_onchip_mem+0xff8011d4>
  80a97c:	9080100c 	andi	r2,r18,64
  80a980:	10008026 	beq	r2,zero,80ab84 <___vfprintf_internal_r+0x1a90>
  80a984:	d8c02d17 	ldw	r3,180(sp)
  80a988:	1cc0000f 	ldh	r19,0(r3)
  80a98c:	18c00104 	addi	r3,r3,4
  80a990:	d8c02d15 	stw	r3,180(sp)
  80a994:	982dd7fa 	srai	r22,r19,31
  80a998:	b005883a 	mov	r2,r22
  80a99c:	003b1f06 	br	80961c <__alt_mem_onchip_mem+0xff80161c>
  80a9a0:	9080100c 	andi	r2,r18,64
  80a9a4:	d8002785 	stb	zero,158(sp)
  80a9a8:	10008a1e 	bne	r2,zero,80abd4 <___vfprintf_internal_r+0x1ae0>
  80a9ac:	d9402d17 	ldw	r5,180(sp)
  80a9b0:	d8c02917 	ldw	r3,164(sp)
  80a9b4:	002d883a 	mov	r22,zero
  80a9b8:	28800104 	addi	r2,r5,4
  80a9bc:	2cc00017 	ldw	r19,0(r5)
  80a9c0:	183e4b0e 	bge	r3,zero,80a2f0 <__alt_mem_onchip_mem+0xff8022f0>
  80a9c4:	9d86b03a 	or	r3,r19,r22
  80a9c8:	d8802d15 	stw	r2,180(sp)
  80a9cc:	183e4c1e 	bne	r3,zero,80a300 <__alt_mem_onchip_mem+0xff802300>
  80a9d0:	0039883a 	mov	fp,zero
  80a9d4:	0005883a 	mov	r2,zero
  80a9d8:	003d4006 	br	809edc <__alt_mem_onchip_mem+0xff801edc>
  80a9dc:	01402074 	movhi	r5,129
  80a9e0:	295bb384 	addi	r5,r5,28366
  80a9e4:	d9402b15 	stw	r5,172(sp)
  80a9e8:	d9402b17 	ldw	r5,172(sp)
  80a9ec:	1c47883a 	add	r3,r3,r17
  80a9f0:	10800044 	addi	r2,r2,1
  80a9f4:	41400015 	stw	r5,0(r8)
  80a9f8:	44400115 	stw	r17,4(r8)
  80a9fc:	d8c02015 	stw	r3,128(sp)
  80aa00:	d8801f15 	stw	r2,124(sp)
  80aa04:	010001c4 	movi	r4,7
  80aa08:	20bec816 	blt	r4,r2,80a52c <__alt_mem_onchip_mem+0xff80252c>
  80aa0c:	42000204 	addi	r8,r8,8
  80aa10:	003ecd06 	br	80a548 <__alt_mem_onchip_mem+0xff802548>
  80aa14:	d9002917 	ldw	r4,164(sp)
  80aa18:	d8002785 	stb	zero,158(sp)
  80aa1c:	203d2d16 	blt	r4,zero,809ed4 <__alt_mem_onchip_mem+0xff801ed4>
  80aa20:	00bfdfc4 	movi	r2,-129
  80aa24:	90a4703a 	and	r18,r18,r2
  80aa28:	003a9106 	br	809470 <__alt_mem_onchip_mem+0xff801470>
  80aa2c:	01002074 	movhi	r4,129
  80aa30:	211bb384 	addi	r4,r4,28366
  80aa34:	d9002b15 	stw	r4,172(sp)
  80aa38:	003c0c06 	br	809a6c <__alt_mem_onchip_mem+0xff801a6c>
  80aa3c:	d9002c17 	ldw	r4,176(sp)
  80aa40:	d9801e04 	addi	r6,sp,120
  80aa44:	b80b883a 	mov	r5,r23
  80aa48:	080f23c0 	call	80f23c <__sprint_r>
  80aa4c:	103aab1e 	bne	r2,zero,8094fc <__alt_mem_onchip_mem+0xff8014fc>
  80aa50:	d8c02017 	ldw	r3,128(sp)
  80aa54:	da000404 	addi	r8,sp,16
  80aa58:	003d4106 	br	809f60 <__alt_mem_onchip_mem+0xff801f60>
  80aa5c:	d8801f17 	ldw	r2,124(sp)
  80aa60:	01402074 	movhi	r5,129
  80aa64:	01000044 	movi	r4,1
  80aa68:	18c00044 	addi	r3,r3,1
  80aa6c:	10800044 	addi	r2,r2,1
  80aa70:	295bb304 	addi	r5,r5,28364
  80aa74:	41000115 	stw	r4,4(r8)
  80aa78:	41400015 	stw	r5,0(r8)
  80aa7c:	d8c02015 	stw	r3,128(sp)
  80aa80:	d8801f15 	stw	r2,124(sp)
  80aa84:	010001c4 	movi	r4,7
  80aa88:	20805c16 	blt	r4,r2,80abfc <___vfprintf_internal_r+0x1b08>
  80aa8c:	42000204 	addi	r8,r8,8
  80aa90:	8800041e 	bne	r17,zero,80aaa4 <___vfprintf_internal_r+0x19b0>
  80aa94:	d8803317 	ldw	r2,204(sp)
  80aa98:	1000021e 	bne	r2,zero,80aaa4 <___vfprintf_internal_r+0x19b0>
  80aa9c:	9080004c 	andi	r2,r18,1
  80aaa0:	103c0926 	beq	r2,zero,809ac8 <__alt_mem_onchip_mem+0xff801ac8>
  80aaa4:	d9003717 	ldw	r4,220(sp)
  80aaa8:	d8801f17 	ldw	r2,124(sp)
  80aaac:	d9403417 	ldw	r5,208(sp)
  80aab0:	20c7883a 	add	r3,r4,r3
  80aab4:	10800044 	addi	r2,r2,1
  80aab8:	41000115 	stw	r4,4(r8)
  80aabc:	41400015 	stw	r5,0(r8)
  80aac0:	d8c02015 	stw	r3,128(sp)
  80aac4:	d8801f15 	stw	r2,124(sp)
  80aac8:	010001c4 	movi	r4,7
  80aacc:	20812116 	blt	r4,r2,80af54 <___vfprintf_internal_r+0x1e60>
  80aad0:	42000204 	addi	r8,r8,8
  80aad4:	0463c83a 	sub	r17,zero,r17
  80aad8:	0440730e 	bge	zero,r17,80aca8 <___vfprintf_internal_r+0x1bb4>
  80aadc:	05800404 	movi	r22,16
  80aae0:	b440860e 	bge	r22,r17,80acfc <___vfprintf_internal_r+0x1c08>
  80aae4:	01402074 	movhi	r5,129
  80aae8:	295bb384 	addi	r5,r5,28366
  80aaec:	d9402b15 	stw	r5,172(sp)
  80aaf0:	070001c4 	movi	fp,7
  80aaf4:	dcc02c17 	ldw	r19,176(sp)
  80aaf8:	00000306 	br	80ab08 <___vfprintf_internal_r+0x1a14>
  80aafc:	42000204 	addi	r8,r8,8
  80ab00:	8c7ffc04 	addi	r17,r17,-16
  80ab04:	b440800e 	bge	r22,r17,80ad08 <___vfprintf_internal_r+0x1c14>
  80ab08:	18c00404 	addi	r3,r3,16
  80ab0c:	10800044 	addi	r2,r2,1
  80ab10:	45000015 	stw	r20,0(r8)
  80ab14:	45800115 	stw	r22,4(r8)
  80ab18:	d8c02015 	stw	r3,128(sp)
  80ab1c:	d8801f15 	stw	r2,124(sp)
  80ab20:	e0bff60e 	bge	fp,r2,80aafc <__alt_mem_onchip_mem+0xff802afc>
  80ab24:	d9801e04 	addi	r6,sp,120
  80ab28:	b80b883a 	mov	r5,r23
  80ab2c:	9809883a 	mov	r4,r19
  80ab30:	080f23c0 	call	80f23c <__sprint_r>
  80ab34:	103a711e 	bne	r2,zero,8094fc <__alt_mem_onchip_mem+0xff8014fc>
  80ab38:	d8c02017 	ldw	r3,128(sp)
  80ab3c:	d8801f17 	ldw	r2,124(sp)
  80ab40:	da000404 	addi	r8,sp,16
  80ab44:	003fee06 	br	80ab00 <__alt_mem_onchip_mem+0xff802b00>
  80ab48:	00bfffc4 	movi	r2,-1
  80ab4c:	003a6f06 	br	80950c <__alt_mem_onchip_mem+0xff80150c>
  80ab50:	008011c4 	movi	r2,71
  80ab54:	1440b816 	blt	r2,r17,80ae38 <___vfprintf_internal_r+0x1d44>
  80ab58:	04002074 	movhi	r16,129
  80ab5c:	841ba504 	addi	r16,r16,28308
  80ab60:	00c000c4 	movi	r3,3
  80ab64:	00bfdfc4 	movi	r2,-129
  80ab68:	d8c02a15 	stw	r3,168(sp)
  80ab6c:	90a4703a 	and	r18,r18,r2
  80ab70:	df002783 	ldbu	fp,158(sp)
  80ab74:	d8c02e15 	stw	r3,184(sp)
  80ab78:	d8002915 	stw	zero,164(sp)
  80ab7c:	d8003215 	stw	zero,200(sp)
  80ab80:	003b2906 	br	809828 <__alt_mem_onchip_mem+0xff801828>
  80ab84:	d9002d17 	ldw	r4,180(sp)
  80ab88:	24c00017 	ldw	r19,0(r4)
  80ab8c:	21000104 	addi	r4,r4,4
  80ab90:	d9002d15 	stw	r4,180(sp)
  80ab94:	982dd7fa 	srai	r22,r19,31
  80ab98:	b005883a 	mov	r2,r22
  80ab9c:	003a9f06 	br	80961c <__alt_mem_onchip_mem+0xff80161c>
  80aba0:	d9402d17 	ldw	r5,180(sp)
  80aba4:	d8c02f17 	ldw	r3,188(sp)
  80aba8:	28800017 	ldw	r2,0(r5)
  80abac:	29400104 	addi	r5,r5,4
  80abb0:	d9402d15 	stw	r5,180(sp)
  80abb4:	10c00015 	stw	r3,0(r2)
  80abb8:	00398606 	br	8091d4 <__alt_mem_onchip_mem+0xff8011d4>
  80abbc:	d9402d17 	ldw	r5,180(sp)
  80abc0:	002d883a 	mov	r22,zero
  80abc4:	2cc00017 	ldw	r19,0(r5)
  80abc8:	29400104 	addi	r5,r5,4
  80abcc:	d9402d15 	stw	r5,180(sp)
  80abd0:	003c2306 	br	809c60 <__alt_mem_onchip_mem+0xff801c60>
  80abd4:	d8c02d17 	ldw	r3,180(sp)
  80abd8:	d9002917 	ldw	r4,164(sp)
  80abdc:	002d883a 	mov	r22,zero
  80abe0:	18800104 	addi	r2,r3,4
  80abe4:	1cc0000b 	ldhu	r19,0(r3)
  80abe8:	203dc10e 	bge	r4,zero,80a2f0 <__alt_mem_onchip_mem+0xff8022f0>
  80abec:	003f7506 	br	80a9c4 <__alt_mem_onchip_mem+0xff8029c4>
  80abf0:	04002074 	movhi	r16,129
  80abf4:	841ba304 	addi	r16,r16,28300
  80abf8:	003acc06 	br	80972c <__alt_mem_onchip_mem+0xff80172c>
  80abfc:	d9002c17 	ldw	r4,176(sp)
  80ac00:	d9801e04 	addi	r6,sp,120
  80ac04:	b80b883a 	mov	r5,r23
  80ac08:	080f23c0 	call	80f23c <__sprint_r>
  80ac0c:	103a3b1e 	bne	r2,zero,8094fc <__alt_mem_onchip_mem+0xff8014fc>
  80ac10:	dc402617 	ldw	r17,152(sp)
  80ac14:	d8c02017 	ldw	r3,128(sp)
  80ac18:	da000404 	addi	r8,sp,16
  80ac1c:	003f9c06 	br	80aa90 <__alt_mem_onchip_mem+0xff802a90>
  80ac20:	ac400043 	ldbu	r17,1(r21)
  80ac24:	94800814 	ori	r18,r18,32
  80ac28:	ad400044 	addi	r21,r21,1
  80ac2c:	8c403fcc 	andi	r17,r17,255
  80ac30:	8c40201c 	xori	r17,r17,128
  80ac34:	8c7fe004 	addi	r17,r17,-128
  80ac38:	00398f06 	br	809278 <__alt_mem_onchip_mem+0xff801278>
  80ac3c:	d8c02d15 	stw	r3,180(sp)
  80ac40:	0039883a 	mov	fp,zero
  80ac44:	003e3506 	br	80a51c <__alt_mem_onchip_mem+0xff80251c>
  80ac48:	d9002c17 	ldw	r4,176(sp)
  80ac4c:	d9801e04 	addi	r6,sp,120
  80ac50:	b80b883a 	mov	r5,r23
  80ac54:	080f23c0 	call	80f23c <__sprint_r>
  80ac58:	103a281e 	bne	r2,zero,8094fc <__alt_mem_onchip_mem+0xff8014fc>
  80ac5c:	d8c02017 	ldw	r3,128(sp)
  80ac60:	da000404 	addi	r8,sp,16
  80ac64:	003cd006 	br	809fa8 <__alt_mem_onchip_mem+0xff801fa8>
  80ac68:	8009883a 	mov	r4,r16
  80ac6c:	da003d15 	stw	r8,244(sp)
  80ac70:	080905c0 	call	80905c <strlen>
  80ac74:	d8802e15 	stw	r2,184(sp)
  80ac78:	da003d17 	ldw	r8,244(sp)
  80ac7c:	103c340e 	bge	r2,zero,809d50 <__alt_mem_onchip_mem+0xff801d50>
  80ac80:	0005883a 	mov	r2,zero
  80ac84:	003c3206 	br	809d50 <__alt_mem_onchip_mem+0xff801d50>
  80ac88:	d9002c17 	ldw	r4,176(sp)
  80ac8c:	d9801e04 	addi	r6,sp,120
  80ac90:	b80b883a 	mov	r5,r23
  80ac94:	080f23c0 	call	80f23c <__sprint_r>
  80ac98:	103a181e 	bne	r2,zero,8094fc <__alt_mem_onchip_mem+0xff8014fc>
  80ac9c:	d8c02017 	ldw	r3,128(sp)
  80aca0:	d8801f17 	ldw	r2,124(sp)
  80aca4:	da000404 	addi	r8,sp,16
  80aca8:	d9403317 	ldw	r5,204(sp)
  80acac:	10800044 	addi	r2,r2,1
  80acb0:	44000015 	stw	r16,0(r8)
  80acb4:	28c7883a 	add	r3,r5,r3
  80acb8:	003b7d06 	br	809ab0 <__alt_mem_onchip_mem+0xff801ab0>
  80acbc:	01002074 	movhi	r4,129
  80acc0:	211bb784 	addi	r4,r4,28382
  80acc4:	d9003515 	stw	r4,212(sp)
  80acc8:	003b1406 	br	80991c <__alt_mem_onchip_mem+0xff80191c>
  80accc:	013fffc4 	movi	r4,-1
  80acd0:	003a3506 	br	8095a8 <__alt_mem_onchip_mem+0xff8015a8>
  80acd4:	0023883a 	mov	r17,zero
  80acd8:	003d9d06 	br	80a350 <__alt_mem_onchip_mem+0xff802350>
  80acdc:	d9002c17 	ldw	r4,176(sp)
  80ace0:	d9801e04 	addi	r6,sp,120
  80ace4:	b80b883a 	mov	r5,r23
  80ace8:	080f23c0 	call	80f23c <__sprint_r>
  80acec:	103a031e 	bne	r2,zero,8094fc <__alt_mem_onchip_mem+0xff8014fc>
  80acf0:	d8c02017 	ldw	r3,128(sp)
  80acf4:	da000404 	addi	r8,sp,16
  80acf8:	003d9406 	br	80a34c <__alt_mem_onchip_mem+0xff80234c>
  80acfc:	01002074 	movhi	r4,129
  80ad00:	211bb384 	addi	r4,r4,28366
  80ad04:	d9002b15 	stw	r4,172(sp)
  80ad08:	d9002b17 	ldw	r4,172(sp)
  80ad0c:	1c47883a 	add	r3,r3,r17
  80ad10:	10800044 	addi	r2,r2,1
  80ad14:	41000015 	stw	r4,0(r8)
  80ad18:	44400115 	stw	r17,4(r8)
  80ad1c:	d8c02015 	stw	r3,128(sp)
  80ad20:	d8801f15 	stw	r2,124(sp)
  80ad24:	010001c4 	movi	r4,7
  80ad28:	20bfd716 	blt	r4,r2,80ac88 <__alt_mem_onchip_mem+0xff802c88>
  80ad2c:	42000204 	addi	r8,r8,8
  80ad30:	003fdd06 	br	80aca8 <__alt_mem_onchip_mem+0xff802ca8>
  80ad34:	d9002c17 	ldw	r4,176(sp)
  80ad38:	d9801e04 	addi	r6,sp,120
  80ad3c:	b80b883a 	mov	r5,r23
  80ad40:	080f23c0 	call	80f23c <__sprint_r>
  80ad44:	1039ed1e 	bne	r2,zero,8094fc <__alt_mem_onchip_mem+0xff8014fc>
  80ad48:	d8802617 	ldw	r2,152(sp)
  80ad4c:	d8c02017 	ldw	r3,128(sp)
  80ad50:	da000404 	addi	r8,sp,16
  80ad54:	003e1006 	br	80a598 <__alt_mem_onchip_mem+0xff802598>
  80ad58:	00800044 	movi	r2,1
  80ad5c:	10803fcc 	andi	r2,r2,255
  80ad60:	00c00044 	movi	r3,1
  80ad64:	10fa3526 	beq	r2,r3,80963c <__alt_mem_onchip_mem+0xff80163c>
  80ad68:	00c00084 	movi	r3,2
  80ad6c:	10fbcb26 	beq	r2,r3,809c9c <__alt_mem_onchip_mem+0xff801c9c>
  80ad70:	003a8f06 	br	8097b0 <__alt_mem_onchip_mem+0xff8017b0>
  80ad74:	01002074 	movhi	r4,129
  80ad78:	211bb784 	addi	r4,r4,28382
  80ad7c:	d9003515 	stw	r4,212(sp)
  80ad80:	003b7606 	br	809b5c <__alt_mem_onchip_mem+0xff801b5c>
  80ad84:	d8802917 	ldw	r2,164(sp)
  80ad88:	00c00184 	movi	r3,6
  80ad8c:	1880012e 	bgeu	r3,r2,80ad94 <___vfprintf_internal_r+0x1ca0>
  80ad90:	1805883a 	mov	r2,r3
  80ad94:	d8802e15 	stw	r2,184(sp)
  80ad98:	1000ef16 	blt	r2,zero,80b158 <___vfprintf_internal_r+0x2064>
  80ad9c:	04002074 	movhi	r16,129
  80ada0:	d8802a15 	stw	r2,168(sp)
  80ada4:	dcc02d15 	stw	r19,180(sp)
  80ada8:	d8002915 	stw	zero,164(sp)
  80adac:	d8003215 	stw	zero,200(sp)
  80adb0:	841bb104 	addi	r16,r16,28356
  80adb4:	0039883a 	mov	fp,zero
  80adb8:	003aa206 	br	809844 <__alt_mem_onchip_mem+0xff801844>
  80adbc:	0021883a 	mov	r16,zero
  80adc0:	003e0706 	br	80a5e0 <__alt_mem_onchip_mem+0xff8025e0>
  80adc4:	d9002c17 	ldw	r4,176(sp)
  80adc8:	d9801e04 	addi	r6,sp,120
  80adcc:	b80b883a 	mov	r5,r23
  80add0:	080f23c0 	call	80f23c <__sprint_r>
  80add4:	1039c91e 	bne	r2,zero,8094fc <__alt_mem_onchip_mem+0xff8014fc>
  80add8:	d8802617 	ldw	r2,152(sp)
  80addc:	d9403317 	ldw	r5,204(sp)
  80ade0:	d8c02017 	ldw	r3,128(sp)
  80ade4:	da000404 	addi	r8,sp,16
  80ade8:	2885c83a 	sub	r2,r5,r2
  80adec:	003dfb06 	br	80a5dc <__alt_mem_onchip_mem+0xff8025dc>
  80adf0:	9080004c 	andi	r2,r18,1
  80adf4:	103e8f1e 	bne	r2,zero,80a834 <__alt_mem_onchip_mem+0xff802834>
  80adf8:	d8802117 	ldw	r2,132(sp)
  80adfc:	003e9e06 	br	80a878 <__alt_mem_onchip_mem+0xff802878>
  80ae00:	1025883a 	mov	r18,r2
  80ae04:	0039883a 	mov	fp,zero
  80ae08:	00800084 	movi	r2,2
  80ae0c:	003fd306 	br	80ad5c <__alt_mem_onchip_mem+0xff802d5c>
  80ae10:	07000b44 	movi	fp,45
  80ae14:	df002785 	stb	fp,158(sp)
  80ae18:	003a4006 	br	80971c <__alt_mem_onchip_mem+0xff80171c>
  80ae1c:	00c00b44 	movi	r3,45
  80ae20:	d8c02785 	stb	r3,158(sp)
  80ae24:	d8802a15 	stw	r2,168(sp)
  80ae28:	dc802b17 	ldw	r18,172(sp)
  80ae2c:	d8002915 	stw	zero,164(sp)
  80ae30:	07000b44 	movi	fp,45
  80ae34:	003a8006 	br	809838 <__alt_mem_onchip_mem+0xff801838>
  80ae38:	04002074 	movhi	r16,129
  80ae3c:	841ba604 	addi	r16,r16,28312
  80ae40:	003f4706 	br	80ab60 <__alt_mem_onchip_mem+0xff802b60>
  80ae44:	d8c02d17 	ldw	r3,180(sp)
  80ae48:	d9002f17 	ldw	r4,188(sp)
  80ae4c:	18800017 	ldw	r2,0(r3)
  80ae50:	18c00104 	addi	r3,r3,4
  80ae54:	d8c02d15 	stw	r3,180(sp)
  80ae58:	11000015 	stw	r4,0(r2)
  80ae5c:	0038dd06 	br	8091d4 <__alt_mem_onchip_mem+0xff8011d4>
  80ae60:	dd802617 	ldw	r22,152(sp)
  80ae64:	00bfff44 	movi	r2,-3
  80ae68:	b0801c16 	blt	r22,r2,80aedc <___vfprintf_internal_r+0x1de8>
  80ae6c:	d9402917 	ldw	r5,164(sp)
  80ae70:	2d801a16 	blt	r5,r22,80aedc <___vfprintf_internal_r+0x1de8>
  80ae74:	dd803215 	stw	r22,200(sp)
  80ae78:	003e8906 	br	80a8a0 <__alt_mem_onchip_mem+0xff8028a0>
  80ae7c:	01002074 	movhi	r4,129
  80ae80:	211bb384 	addi	r4,r4,28366
  80ae84:	d9002b15 	stw	r4,172(sp)
  80ae88:	003c9106 	br	80a0d0 <__alt_mem_onchip_mem+0xff8020d0>
  80ae8c:	e005883a 	mov	r2,fp
  80ae90:	003e7906 	br	80a878 <__alt_mem_onchip_mem+0xff802878>
  80ae94:	d9402917 	ldw	r5,164(sp)
  80ae98:	df002783 	ldbu	fp,158(sp)
  80ae9c:	dcc02d15 	stw	r19,180(sp)
  80aea0:	d9402a15 	stw	r5,168(sp)
  80aea4:	d9402e15 	stw	r5,184(sp)
  80aea8:	d8002915 	stw	zero,164(sp)
  80aeac:	d8003215 	stw	zero,200(sp)
  80aeb0:	003a5d06 	br	809828 <__alt_mem_onchip_mem+0xff801828>
  80aeb4:	9080004c 	andi	r2,r18,1
  80aeb8:	0039883a 	mov	fp,zero
  80aebc:	10000426 	beq	r2,zero,80aed0 <___vfprintf_internal_r+0x1ddc>
  80aec0:	00800c04 	movi	r2,48
  80aec4:	dc001dc4 	addi	r16,sp,119
  80aec8:	d8801dc5 	stb	r2,119(sp)
  80aecc:	003b8006 	br	809cd0 <__alt_mem_onchip_mem+0xff801cd0>
  80aed0:	d8002e15 	stw	zero,184(sp)
  80aed4:	dc001e04 	addi	r16,sp,120
  80aed8:	003a4d06 	br	809810 <__alt_mem_onchip_mem+0xff801810>
  80aedc:	8c7fff84 	addi	r17,r17,-2
  80aee0:	b5bfffc4 	addi	r22,r22,-1
  80aee4:	dd802615 	stw	r22,152(sp)
  80aee8:	dc4022c5 	stb	r17,139(sp)
  80aeec:	b000bf16 	blt	r22,zero,80b1ec <___vfprintf_internal_r+0x20f8>
  80aef0:	00800ac4 	movi	r2,43
  80aef4:	d8802305 	stb	r2,140(sp)
  80aef8:	00800244 	movi	r2,9
  80aefc:	15807016 	blt	r2,r22,80b0c0 <___vfprintf_internal_r+0x1fcc>
  80af00:	00800c04 	movi	r2,48
  80af04:	b5800c04 	addi	r22,r22,48
  80af08:	d8802345 	stb	r2,141(sp)
  80af0c:	dd802385 	stb	r22,142(sp)
  80af10:	d88023c4 	addi	r2,sp,143
  80af14:	df0022c4 	addi	fp,sp,139
  80af18:	d8c03317 	ldw	r3,204(sp)
  80af1c:	1739c83a 	sub	fp,r2,fp
  80af20:	d9003317 	ldw	r4,204(sp)
  80af24:	e0c7883a 	add	r3,fp,r3
  80af28:	df003a15 	stw	fp,232(sp)
  80af2c:	d8c02e15 	stw	r3,184(sp)
  80af30:	00800044 	movi	r2,1
  80af34:	1100b30e 	bge	r2,r4,80b204 <___vfprintf_internal_r+0x2110>
  80af38:	d8c02e17 	ldw	r3,184(sp)
  80af3c:	18c00044 	addi	r3,r3,1
  80af40:	d8c02e15 	stw	r3,184(sp)
  80af44:	1805883a 	mov	r2,r3
  80af48:	1800ac16 	blt	r3,zero,80b1fc <___vfprintf_internal_r+0x2108>
  80af4c:	d8003215 	stw	zero,200(sp)
  80af50:	003e5d06 	br	80a8c8 <__alt_mem_onchip_mem+0xff8028c8>
  80af54:	d9002c17 	ldw	r4,176(sp)
  80af58:	d9801e04 	addi	r6,sp,120
  80af5c:	b80b883a 	mov	r5,r23
  80af60:	080f23c0 	call	80f23c <__sprint_r>
  80af64:	1039651e 	bne	r2,zero,8094fc <__alt_mem_onchip_mem+0xff8014fc>
  80af68:	dc402617 	ldw	r17,152(sp)
  80af6c:	d8c02017 	ldw	r3,128(sp)
  80af70:	d8801f17 	ldw	r2,124(sp)
  80af74:	da000404 	addi	r8,sp,16
  80af78:	003ed606 	br	80aad4 <__alt_mem_onchip_mem+0xff802ad4>
  80af7c:	582b883a 	mov	r21,r11
  80af80:	d8002915 	stw	zero,164(sp)
  80af84:	0038bd06 	br	80927c <__alt_mem_onchip_mem+0xff80127c>
  80af88:	d8802917 	ldw	r2,164(sp)
  80af8c:	103e071e 	bne	r2,zero,80a7ac <__alt_mem_onchip_mem+0xff8027ac>
  80af90:	dc002915 	stw	r16,164(sp)
  80af94:	003e0506 	br	80a7ac <__alt_mem_onchip_mem+0xff8027ac>
  80af98:	d9002917 	ldw	r4,164(sp)
  80af9c:	20c00044 	addi	r3,r4,1
  80afa0:	003e0f06 	br	80a7e0 <__alt_mem_onchip_mem+0xff8027e0>
  80afa4:	01400184 	movi	r5,6
  80afa8:	d9402915 	stw	r5,164(sp)
  80afac:	003dff06 	br	80a7ac <__alt_mem_onchip_mem+0xff8027ac>
  80afb0:	d8802104 	addi	r2,sp,132
  80afb4:	d8800315 	stw	r2,12(sp)
  80afb8:	d8802504 	addi	r2,sp,148
  80afbc:	d8800215 	stw	r2,8(sp)
  80afc0:	d8802604 	addi	r2,sp,152
  80afc4:	d8800115 	stw	r2,4(sp)
  80afc8:	d8802917 	ldw	r2,164(sp)
  80afcc:	d9403617 	ldw	r5,216(sp)
  80afd0:	d9002c17 	ldw	r4,176(sp)
  80afd4:	d8800015 	stw	r2,0(sp)
  80afd8:	01c000c4 	movi	r7,3
  80afdc:	980d883a 	mov	r6,r19
  80afe0:	da003d15 	stw	r8,244(sp)
  80afe4:	080b9280 	call	80b928 <_dtoa_r>
  80afe8:	d8c02917 	ldw	r3,164(sp)
  80afec:	da003d17 	ldw	r8,244(sp)
  80aff0:	1021883a 	mov	r16,r2
  80aff4:	10f9883a 	add	fp,r2,r3
  80aff8:	81000007 	ldb	r4,0(r16)
  80affc:	00800c04 	movi	r2,48
  80b000:	20805e26 	beq	r4,r2,80b17c <___vfprintf_internal_r+0x2088>
  80b004:	d8c02617 	ldw	r3,152(sp)
  80b008:	e0f9883a 	add	fp,fp,r3
  80b00c:	003e0a06 	br	80a838 <__alt_mem_onchip_mem+0xff802838>
  80b010:	00c00b44 	movi	r3,45
  80b014:	24e0003c 	xorhi	r19,r4,32768
  80b018:	d8c02a05 	stb	r3,168(sp)
  80b01c:	003de906 	br	80a7c4 <__alt_mem_onchip_mem+0xff8027c4>
  80b020:	d8c03217 	ldw	r3,200(sp)
  80b024:	00c07a0e 	bge	zero,r3,80b210 <___vfprintf_internal_r+0x211c>
  80b028:	00800044 	movi	r2,1
  80b02c:	d9003317 	ldw	r4,204(sp)
  80b030:	1105883a 	add	r2,r2,r4
  80b034:	d8802e15 	stw	r2,184(sp)
  80b038:	10004e16 	blt	r2,zero,80b174 <___vfprintf_internal_r+0x2080>
  80b03c:	044019c4 	movi	r17,103
  80b040:	003e2106 	br	80a8c8 <__alt_mem_onchip_mem+0xff8028c8>
  80b044:	d9002917 	ldw	r4,164(sp)
  80b048:	d8802104 	addi	r2,sp,132
  80b04c:	d8800315 	stw	r2,12(sp)
  80b050:	d9000015 	stw	r4,0(sp)
  80b054:	d8802504 	addi	r2,sp,148
  80b058:	d9403617 	ldw	r5,216(sp)
  80b05c:	d9002c17 	ldw	r4,176(sp)
  80b060:	d8800215 	stw	r2,8(sp)
  80b064:	d8802604 	addi	r2,sp,152
  80b068:	d8800115 	stw	r2,4(sp)
  80b06c:	01c000c4 	movi	r7,3
  80b070:	980d883a 	mov	r6,r19
  80b074:	da003d15 	stw	r8,244(sp)
  80b078:	080b9280 	call	80b928 <_dtoa_r>
  80b07c:	d8c02917 	ldw	r3,164(sp)
  80b080:	da003d17 	ldw	r8,244(sp)
  80b084:	1021883a 	mov	r16,r2
  80b088:	00801184 	movi	r2,70
  80b08c:	80f9883a 	add	fp,r16,r3
  80b090:	88bfd926 	beq	r17,r2,80aff8 <__alt_mem_onchip_mem+0xff802ff8>
  80b094:	003de806 	br	80a838 <__alt_mem_onchip_mem+0xff802838>
  80b098:	d9002917 	ldw	r4,164(sp)
  80b09c:	00c04d0e 	bge	zero,r3,80b1d4 <___vfprintf_internal_r+0x20e0>
  80b0a0:	2000441e 	bne	r4,zero,80b1b4 <___vfprintf_internal_r+0x20c0>
  80b0a4:	9480004c 	andi	r18,r18,1
  80b0a8:	9000421e 	bne	r18,zero,80b1b4 <___vfprintf_internal_r+0x20c0>
  80b0ac:	1805883a 	mov	r2,r3
  80b0b0:	18007016 	blt	r3,zero,80b274 <___vfprintf_internal_r+0x2180>
  80b0b4:	d8c03217 	ldw	r3,200(sp)
  80b0b8:	d8c02e15 	stw	r3,184(sp)
  80b0bc:	003e0206 	br	80a8c8 <__alt_mem_onchip_mem+0xff8028c8>
  80b0c0:	df0022c4 	addi	fp,sp,139
  80b0c4:	dc002915 	stw	r16,164(sp)
  80b0c8:	4027883a 	mov	r19,r8
  80b0cc:	e021883a 	mov	r16,fp
  80b0d0:	b009883a 	mov	r4,r22
  80b0d4:	01400284 	movi	r5,10
  80b0d8:	08117700 	call	811770 <__modsi3>
  80b0dc:	10800c04 	addi	r2,r2,48
  80b0e0:	843fffc4 	addi	r16,r16,-1
  80b0e4:	b009883a 	mov	r4,r22
  80b0e8:	01400284 	movi	r5,10
  80b0ec:	80800005 	stb	r2,0(r16)
  80b0f0:	08116ec0 	call	8116ec <__divsi3>
  80b0f4:	102d883a 	mov	r22,r2
  80b0f8:	00800244 	movi	r2,9
  80b0fc:	15bff416 	blt	r2,r22,80b0d0 <__alt_mem_onchip_mem+0xff8030d0>
  80b100:	9811883a 	mov	r8,r19
  80b104:	b0800c04 	addi	r2,r22,48
  80b108:	8027883a 	mov	r19,r16
  80b10c:	997fffc4 	addi	r5,r19,-1
  80b110:	98bfffc5 	stb	r2,-1(r19)
  80b114:	dc002917 	ldw	r16,164(sp)
  80b118:	2f006a2e 	bgeu	r5,fp,80b2c4 <___vfprintf_internal_r+0x21d0>
  80b11c:	d9c02384 	addi	r7,sp,142
  80b120:	3ccfc83a 	sub	r7,r7,r19
  80b124:	d9002344 	addi	r4,sp,141
  80b128:	e1cf883a 	add	r7,fp,r7
  80b12c:	00000106 	br	80b134 <___vfprintf_internal_r+0x2040>
  80b130:	28800003 	ldbu	r2,0(r5)
  80b134:	20800005 	stb	r2,0(r4)
  80b138:	21000044 	addi	r4,r4,1
  80b13c:	29400044 	addi	r5,r5,1
  80b140:	393ffb1e 	bne	r7,r4,80b130 <__alt_mem_onchip_mem+0xff803130>
  80b144:	d8802304 	addi	r2,sp,140
  80b148:	14c5c83a 	sub	r2,r2,r19
  80b14c:	d8c02344 	addi	r3,sp,141
  80b150:	1885883a 	add	r2,r3,r2
  80b154:	003f7006 	br	80af18 <__alt_mem_onchip_mem+0xff802f18>
  80b158:	0005883a 	mov	r2,zero
  80b15c:	003f0f06 	br	80ad9c <__alt_mem_onchip_mem+0xff802d9c>
  80b160:	d8c03217 	ldw	r3,200(sp)
  80b164:	18c00044 	addi	r3,r3,1
  80b168:	d8c02e15 	stw	r3,184(sp)
  80b16c:	1805883a 	mov	r2,r3
  80b170:	183fb20e 	bge	r3,zero,80b03c <__alt_mem_onchip_mem+0xff80303c>
  80b174:	0005883a 	mov	r2,zero
  80b178:	003fb006 	br	80b03c <__alt_mem_onchip_mem+0xff80303c>
  80b17c:	d9003617 	ldw	r4,216(sp)
  80b180:	000d883a 	mov	r6,zero
  80b184:	000f883a 	mov	r7,zero
  80b188:	980b883a 	mov	r5,r19
  80b18c:	d8c03c15 	stw	r3,240(sp)
  80b190:	da003d15 	stw	r8,244(sp)
  80b194:	08121880 	call	812188 <__eqdf2>
  80b198:	d8c03c17 	ldw	r3,240(sp)
  80b19c:	da003d17 	ldw	r8,244(sp)
  80b1a0:	103f9826 	beq	r2,zero,80b004 <__alt_mem_onchip_mem+0xff803004>
  80b1a4:	00800044 	movi	r2,1
  80b1a8:	10c7c83a 	sub	r3,r2,r3
  80b1ac:	d8c02615 	stw	r3,152(sp)
  80b1b0:	003f9506 	br	80b008 <__alt_mem_onchip_mem+0xff803008>
  80b1b4:	d9002917 	ldw	r4,164(sp)
  80b1b8:	d8c03217 	ldw	r3,200(sp)
  80b1bc:	20800044 	addi	r2,r4,1
  80b1c0:	1885883a 	add	r2,r3,r2
  80b1c4:	d8802e15 	stw	r2,184(sp)
  80b1c8:	103dbf0e 	bge	r2,zero,80a8c8 <__alt_mem_onchip_mem+0xff8028c8>
  80b1cc:	0005883a 	mov	r2,zero
  80b1d0:	003dbd06 	br	80a8c8 <__alt_mem_onchip_mem+0xff8028c8>
  80b1d4:	2000211e 	bne	r4,zero,80b25c <___vfprintf_internal_r+0x2168>
  80b1d8:	9480004c 	andi	r18,r18,1
  80b1dc:	90001f1e 	bne	r18,zero,80b25c <___vfprintf_internal_r+0x2168>
  80b1e0:	00800044 	movi	r2,1
  80b1e4:	d8802e15 	stw	r2,184(sp)
  80b1e8:	003db706 	br	80a8c8 <__alt_mem_onchip_mem+0xff8028c8>
  80b1ec:	00800b44 	movi	r2,45
  80b1f0:	05adc83a 	sub	r22,zero,r22
  80b1f4:	d8802305 	stb	r2,140(sp)
  80b1f8:	003f3f06 	br	80aef8 <__alt_mem_onchip_mem+0xff802ef8>
  80b1fc:	0005883a 	mov	r2,zero
  80b200:	003f5206 	br	80af4c <__alt_mem_onchip_mem+0xff802f4c>
  80b204:	90a4703a 	and	r18,r18,r2
  80b208:	903f4e26 	beq	r18,zero,80af44 <__alt_mem_onchip_mem+0xff802f44>
  80b20c:	003f4a06 	br	80af38 <__alt_mem_onchip_mem+0xff802f38>
  80b210:	00800084 	movi	r2,2
  80b214:	10c5c83a 	sub	r2,r2,r3
  80b218:	003f8406 	br	80b02c <__alt_mem_onchip_mem+0xff80302c>
  80b21c:	d8802d17 	ldw	r2,180(sp)
  80b220:	d9002d17 	ldw	r4,180(sp)
  80b224:	ac400043 	ldbu	r17,1(r21)
  80b228:	10800017 	ldw	r2,0(r2)
  80b22c:	582b883a 	mov	r21,r11
  80b230:	d8802915 	stw	r2,164(sp)
  80b234:	20800104 	addi	r2,r4,4
  80b238:	d9002917 	ldw	r4,164(sp)
  80b23c:	d8802d15 	stw	r2,180(sp)
  80b240:	203e7a0e 	bge	r4,zero,80ac2c <__alt_mem_onchip_mem+0xff802c2c>
  80b244:	8c403fcc 	andi	r17,r17,255
  80b248:	00bfffc4 	movi	r2,-1
  80b24c:	8c40201c 	xori	r17,r17,128
  80b250:	d8802915 	stw	r2,164(sp)
  80b254:	8c7fe004 	addi	r17,r17,-128
  80b258:	00380706 	br	809278 <__alt_mem_onchip_mem+0xff801278>
  80b25c:	d8c02917 	ldw	r3,164(sp)
  80b260:	18c00084 	addi	r3,r3,2
  80b264:	d8c02e15 	stw	r3,184(sp)
  80b268:	1805883a 	mov	r2,r3
  80b26c:	183d960e 	bge	r3,zero,80a8c8 <__alt_mem_onchip_mem+0xff8028c8>
  80b270:	003fd606 	br	80b1cc <__alt_mem_onchip_mem+0xff8031cc>
  80b274:	0005883a 	mov	r2,zero
  80b278:	003f8e06 	br	80b0b4 <__alt_mem_onchip_mem+0xff8030b4>
  80b27c:	9080004c 	andi	r2,r18,1
  80b280:	103f811e 	bne	r2,zero,80b088 <__alt_mem_onchip_mem+0xff803088>
  80b284:	d8802117 	ldw	r2,132(sp)
  80b288:	1405c83a 	sub	r2,r2,r16
  80b28c:	d8803315 	stw	r2,204(sp)
  80b290:	b47ef326 	beq	r22,r17,80ae60 <__alt_mem_onchip_mem+0xff802e60>
  80b294:	dd802617 	ldw	r22,152(sp)
  80b298:	003f1106 	br	80aee0 <__alt_mem_onchip_mem+0xff802ee0>
  80b29c:	d9c02785 	stb	r7,158(sp)
  80b2a0:	00390406 	br	8096b4 <__alt_mem_onchip_mem+0xff8016b4>
  80b2a4:	d9c02785 	stb	r7,158(sp)
  80b2a8:	0038d306 	br	8095f8 <__alt_mem_onchip_mem+0xff8015f8>
  80b2ac:	d9c02785 	stb	r7,158(sp)
  80b2b0:	003a6106 	br	809c38 <__alt_mem_onchip_mem+0xff801c38>
  80b2b4:	d9c02785 	stb	r7,158(sp)
  80b2b8:	003af806 	br	809e9c <__alt_mem_onchip_mem+0xff801e9c>
  80b2bc:	0005883a 	mov	r2,zero
  80b2c0:	003d7e06 	br	80a8bc <__alt_mem_onchip_mem+0xff8028bc>
  80b2c4:	d8802344 	addi	r2,sp,141
  80b2c8:	003f1306 	br	80af18 <__alt_mem_onchip_mem+0xff802f18>
  80b2cc:	d9c02785 	stb	r7,158(sp)
  80b2d0:	00392306 	br	809760 <__alt_mem_onchip_mem+0xff801760>
  80b2d4:	d9c02785 	stb	r7,158(sp)
  80b2d8:	003aa906 	br	809d80 <__alt_mem_onchip_mem+0xff801d80>
  80b2dc:	d9c02785 	stb	r7,158(sp)
  80b2e0:	003a3d06 	br	809bd8 <__alt_mem_onchip_mem+0xff801bd8>
  80b2e4:	d9c02785 	stb	r7,158(sp)
  80b2e8:	003aca06 	br	809e14 <__alt_mem_onchip_mem+0xff801e14>

0080b2ec <__vfprintf_internal>:
  80b2ec:	008020b4 	movhi	r2,130
  80b2f0:	10a3ea04 	addi	r2,r2,-28760
  80b2f4:	300f883a 	mov	r7,r6
  80b2f8:	280d883a 	mov	r6,r5
  80b2fc:	200b883a 	mov	r5,r4
  80b300:	11000017 	ldw	r4,0(r2)
  80b304:	08090f41 	jmpi	8090f4 <___vfprintf_internal_r>

0080b308 <__sbprintf>:
  80b308:	2880030b 	ldhu	r2,12(r5)
  80b30c:	2ac01917 	ldw	r11,100(r5)
  80b310:	2a80038b 	ldhu	r10,14(r5)
  80b314:	2a400717 	ldw	r9,28(r5)
  80b318:	2a000917 	ldw	r8,36(r5)
  80b31c:	defee204 	addi	sp,sp,-1144
  80b320:	00c10004 	movi	r3,1024
  80b324:	dc011a15 	stw	r16,1128(sp)
  80b328:	10bfff4c 	andi	r2,r2,65533
  80b32c:	2821883a 	mov	r16,r5
  80b330:	d8cb883a 	add	r5,sp,r3
  80b334:	dc811c15 	stw	r18,1136(sp)
  80b338:	dc411b15 	stw	r17,1132(sp)
  80b33c:	dfc11d15 	stw	ra,1140(sp)
  80b340:	2025883a 	mov	r18,r4
  80b344:	d881030d 	sth	r2,1036(sp)
  80b348:	dac11915 	stw	r11,1124(sp)
  80b34c:	da81038d 	sth	r10,1038(sp)
  80b350:	da410715 	stw	r9,1052(sp)
  80b354:	da010915 	stw	r8,1060(sp)
  80b358:	dec10015 	stw	sp,1024(sp)
  80b35c:	dec10415 	stw	sp,1040(sp)
  80b360:	d8c10215 	stw	r3,1032(sp)
  80b364:	d8c10515 	stw	r3,1044(sp)
  80b368:	d8010615 	stw	zero,1048(sp)
  80b36c:	08090f40 	call	8090f4 <___vfprintf_internal_r>
  80b370:	1023883a 	mov	r17,r2
  80b374:	10000416 	blt	r2,zero,80b388 <__sbprintf+0x80>
  80b378:	d9410004 	addi	r5,sp,1024
  80b37c:	9009883a 	mov	r4,r18
  80b380:	0806e280 	call	806e28 <_fflush_r>
  80b384:	10000d1e 	bne	r2,zero,80b3bc <__sbprintf+0xb4>
  80b388:	d881030b 	ldhu	r2,1036(sp)
  80b38c:	1080100c 	andi	r2,r2,64
  80b390:	10000326 	beq	r2,zero,80b3a0 <__sbprintf+0x98>
  80b394:	8080030b 	ldhu	r2,12(r16)
  80b398:	10801014 	ori	r2,r2,64
  80b39c:	8080030d 	sth	r2,12(r16)
  80b3a0:	8805883a 	mov	r2,r17
  80b3a4:	dfc11d17 	ldw	ra,1140(sp)
  80b3a8:	dc811c17 	ldw	r18,1136(sp)
  80b3ac:	dc411b17 	ldw	r17,1132(sp)
  80b3b0:	dc011a17 	ldw	r16,1128(sp)
  80b3b4:	dec11e04 	addi	sp,sp,1144
  80b3b8:	f800283a 	ret
  80b3bc:	047fffc4 	movi	r17,-1
  80b3c0:	003ff106 	br	80b388 <__alt_mem_onchip_mem+0xff803388>

0080b3c4 <vfprintf>:
  80b3c4:	080b2ec1 	jmpi	80b2ec <__vfprintf_internal>

0080b3c8 <__swbuf_r>:
  80b3c8:	defffb04 	addi	sp,sp,-20
  80b3cc:	dcc00315 	stw	r19,12(sp)
  80b3d0:	dc800215 	stw	r18,8(sp)
  80b3d4:	dc000015 	stw	r16,0(sp)
  80b3d8:	dfc00415 	stw	ra,16(sp)
  80b3dc:	dc400115 	stw	r17,4(sp)
  80b3e0:	2025883a 	mov	r18,r4
  80b3e4:	2827883a 	mov	r19,r5
  80b3e8:	3021883a 	mov	r16,r6
  80b3ec:	20000226 	beq	r4,zero,80b3f8 <__swbuf_r+0x30>
  80b3f0:	20800e17 	ldw	r2,56(r4)
  80b3f4:	10004226 	beq	r2,zero,80b500 <__swbuf_r+0x138>
  80b3f8:	80800617 	ldw	r2,24(r16)
  80b3fc:	8100030b 	ldhu	r4,12(r16)
  80b400:	80800215 	stw	r2,8(r16)
  80b404:	2080020c 	andi	r2,r4,8
  80b408:	10003626 	beq	r2,zero,80b4e4 <__swbuf_r+0x11c>
  80b40c:	80c00417 	ldw	r3,16(r16)
  80b410:	18003426 	beq	r3,zero,80b4e4 <__swbuf_r+0x11c>
  80b414:	2088000c 	andi	r2,r4,8192
  80b418:	9c403fcc 	andi	r17,r19,255
  80b41c:	10001a26 	beq	r2,zero,80b488 <__swbuf_r+0xc0>
  80b420:	80800017 	ldw	r2,0(r16)
  80b424:	81000517 	ldw	r4,20(r16)
  80b428:	10c7c83a 	sub	r3,r2,r3
  80b42c:	1900200e 	bge	r3,r4,80b4b0 <__swbuf_r+0xe8>
  80b430:	18c00044 	addi	r3,r3,1
  80b434:	81000217 	ldw	r4,8(r16)
  80b438:	11400044 	addi	r5,r2,1
  80b43c:	81400015 	stw	r5,0(r16)
  80b440:	213fffc4 	addi	r4,r4,-1
  80b444:	81000215 	stw	r4,8(r16)
  80b448:	14c00005 	stb	r19,0(r2)
  80b44c:	80800517 	ldw	r2,20(r16)
  80b450:	10c01e26 	beq	r2,r3,80b4cc <__swbuf_r+0x104>
  80b454:	8080030b 	ldhu	r2,12(r16)
  80b458:	1080004c 	andi	r2,r2,1
  80b45c:	10000226 	beq	r2,zero,80b468 <__swbuf_r+0xa0>
  80b460:	00800284 	movi	r2,10
  80b464:	88801926 	beq	r17,r2,80b4cc <__swbuf_r+0x104>
  80b468:	8805883a 	mov	r2,r17
  80b46c:	dfc00417 	ldw	ra,16(sp)
  80b470:	dcc00317 	ldw	r19,12(sp)
  80b474:	dc800217 	ldw	r18,8(sp)
  80b478:	dc400117 	ldw	r17,4(sp)
  80b47c:	dc000017 	ldw	r16,0(sp)
  80b480:	dec00504 	addi	sp,sp,20
  80b484:	f800283a 	ret
  80b488:	81401917 	ldw	r5,100(r16)
  80b48c:	00b7ffc4 	movi	r2,-8193
  80b490:	21080014 	ori	r4,r4,8192
  80b494:	2884703a 	and	r2,r5,r2
  80b498:	80801915 	stw	r2,100(r16)
  80b49c:	80800017 	ldw	r2,0(r16)
  80b4a0:	8100030d 	sth	r4,12(r16)
  80b4a4:	81000517 	ldw	r4,20(r16)
  80b4a8:	10c7c83a 	sub	r3,r2,r3
  80b4ac:	193fe016 	blt	r3,r4,80b430 <__alt_mem_onchip_mem+0xff803430>
  80b4b0:	800b883a 	mov	r5,r16
  80b4b4:	9009883a 	mov	r4,r18
  80b4b8:	0806e280 	call	806e28 <_fflush_r>
  80b4bc:	1000071e 	bne	r2,zero,80b4dc <__swbuf_r+0x114>
  80b4c0:	80800017 	ldw	r2,0(r16)
  80b4c4:	00c00044 	movi	r3,1
  80b4c8:	003fda06 	br	80b434 <__alt_mem_onchip_mem+0xff803434>
  80b4cc:	800b883a 	mov	r5,r16
  80b4d0:	9009883a 	mov	r4,r18
  80b4d4:	0806e280 	call	806e28 <_fflush_r>
  80b4d8:	103fe326 	beq	r2,zero,80b468 <__alt_mem_onchip_mem+0xff803468>
  80b4dc:	00bfffc4 	movi	r2,-1
  80b4e0:	003fe206 	br	80b46c <__alt_mem_onchip_mem+0xff80346c>
  80b4e4:	800b883a 	mov	r5,r16
  80b4e8:	9009883a 	mov	r4,r18
  80b4ec:	080b5800 	call	80b580 <__swsetup_r>
  80b4f0:	103ffa1e 	bne	r2,zero,80b4dc <__alt_mem_onchip_mem+0xff8034dc>
  80b4f4:	8100030b 	ldhu	r4,12(r16)
  80b4f8:	80c00417 	ldw	r3,16(r16)
  80b4fc:	003fc506 	br	80b414 <__alt_mem_onchip_mem+0xff803414>
  80b500:	08072040 	call	807204 <__sinit>
  80b504:	003fbc06 	br	80b3f8 <__alt_mem_onchip_mem+0xff8033f8>

0080b508 <__swbuf>:
  80b508:	008020b4 	movhi	r2,130
  80b50c:	10a3ea04 	addi	r2,r2,-28760
  80b510:	280d883a 	mov	r6,r5
  80b514:	200b883a 	mov	r5,r4
  80b518:	11000017 	ldw	r4,0(r2)
  80b51c:	080b3c81 	jmpi	80b3c8 <__swbuf_r>

0080b520 <_write_r>:
  80b520:	defffd04 	addi	sp,sp,-12
  80b524:	2805883a 	mov	r2,r5
  80b528:	dc000015 	stw	r16,0(sp)
  80b52c:	040020b4 	movhi	r16,130
  80b530:	dc400115 	stw	r17,4(sp)
  80b534:	300b883a 	mov	r5,r6
  80b538:	842b3604 	addi	r16,r16,-21288
  80b53c:	2023883a 	mov	r17,r4
  80b540:	380d883a 	mov	r6,r7
  80b544:	1009883a 	mov	r4,r2
  80b548:	dfc00215 	stw	ra,8(sp)
  80b54c:	80000015 	stw	zero,0(r16)
  80b550:	08139400 	call	813940 <write>
  80b554:	00ffffc4 	movi	r3,-1
  80b558:	10c00526 	beq	r2,r3,80b570 <_write_r+0x50>
  80b55c:	dfc00217 	ldw	ra,8(sp)
  80b560:	dc400117 	ldw	r17,4(sp)
  80b564:	dc000017 	ldw	r16,0(sp)
  80b568:	dec00304 	addi	sp,sp,12
  80b56c:	f800283a 	ret
  80b570:	80c00017 	ldw	r3,0(r16)
  80b574:	183ff926 	beq	r3,zero,80b55c <__alt_mem_onchip_mem+0xff80355c>
  80b578:	88c00015 	stw	r3,0(r17)
  80b57c:	003ff706 	br	80b55c <__alt_mem_onchip_mem+0xff80355c>

0080b580 <__swsetup_r>:
  80b580:	008020b4 	movhi	r2,130
  80b584:	defffd04 	addi	sp,sp,-12
  80b588:	10a3ea04 	addi	r2,r2,-28760
  80b58c:	dc400115 	stw	r17,4(sp)
  80b590:	2023883a 	mov	r17,r4
  80b594:	11000017 	ldw	r4,0(r2)
  80b598:	dc000015 	stw	r16,0(sp)
  80b59c:	dfc00215 	stw	ra,8(sp)
  80b5a0:	2821883a 	mov	r16,r5
  80b5a4:	20000226 	beq	r4,zero,80b5b0 <__swsetup_r+0x30>
  80b5a8:	20800e17 	ldw	r2,56(r4)
  80b5ac:	10003126 	beq	r2,zero,80b674 <__swsetup_r+0xf4>
  80b5b0:	8080030b 	ldhu	r2,12(r16)
  80b5b4:	10c0020c 	andi	r3,r2,8
  80b5b8:	1009883a 	mov	r4,r2
  80b5bc:	18000f26 	beq	r3,zero,80b5fc <__swsetup_r+0x7c>
  80b5c0:	80c00417 	ldw	r3,16(r16)
  80b5c4:	18001526 	beq	r3,zero,80b61c <__swsetup_r+0x9c>
  80b5c8:	1100004c 	andi	r4,r2,1
  80b5cc:	20001c1e 	bne	r4,zero,80b640 <__swsetup_r+0xc0>
  80b5d0:	1080008c 	andi	r2,r2,2
  80b5d4:	1000291e 	bne	r2,zero,80b67c <__swsetup_r+0xfc>
  80b5d8:	80800517 	ldw	r2,20(r16)
  80b5dc:	80800215 	stw	r2,8(r16)
  80b5e0:	18001c26 	beq	r3,zero,80b654 <__swsetup_r+0xd4>
  80b5e4:	0005883a 	mov	r2,zero
  80b5e8:	dfc00217 	ldw	ra,8(sp)
  80b5ec:	dc400117 	ldw	r17,4(sp)
  80b5f0:	dc000017 	ldw	r16,0(sp)
  80b5f4:	dec00304 	addi	sp,sp,12
  80b5f8:	f800283a 	ret
  80b5fc:	2080040c 	andi	r2,r4,16
  80b600:	10002e26 	beq	r2,zero,80b6bc <__swsetup_r+0x13c>
  80b604:	2080010c 	andi	r2,r4,4
  80b608:	10001e1e 	bne	r2,zero,80b684 <__swsetup_r+0x104>
  80b60c:	80c00417 	ldw	r3,16(r16)
  80b610:	20800214 	ori	r2,r4,8
  80b614:	8080030d 	sth	r2,12(r16)
  80b618:	183feb1e 	bne	r3,zero,80b5c8 <__alt_mem_onchip_mem+0xff8035c8>
  80b61c:	1100a00c 	andi	r4,r2,640
  80b620:	01408004 	movi	r5,512
  80b624:	217fe826 	beq	r4,r5,80b5c8 <__alt_mem_onchip_mem+0xff8035c8>
  80b628:	800b883a 	mov	r5,r16
  80b62c:	8809883a 	mov	r4,r17
  80b630:	0807ee40 	call	807ee4 <__smakebuf_r>
  80b634:	8080030b 	ldhu	r2,12(r16)
  80b638:	80c00417 	ldw	r3,16(r16)
  80b63c:	003fe206 	br	80b5c8 <__alt_mem_onchip_mem+0xff8035c8>
  80b640:	80800517 	ldw	r2,20(r16)
  80b644:	80000215 	stw	zero,8(r16)
  80b648:	0085c83a 	sub	r2,zero,r2
  80b64c:	80800615 	stw	r2,24(r16)
  80b650:	183fe41e 	bne	r3,zero,80b5e4 <__alt_mem_onchip_mem+0xff8035e4>
  80b654:	80c0030b 	ldhu	r3,12(r16)
  80b658:	0005883a 	mov	r2,zero
  80b65c:	1900200c 	andi	r4,r3,128
  80b660:	203fe126 	beq	r4,zero,80b5e8 <__alt_mem_onchip_mem+0xff8035e8>
  80b664:	18c01014 	ori	r3,r3,64
  80b668:	80c0030d 	sth	r3,12(r16)
  80b66c:	00bfffc4 	movi	r2,-1
  80b670:	003fdd06 	br	80b5e8 <__alt_mem_onchip_mem+0xff8035e8>
  80b674:	08072040 	call	807204 <__sinit>
  80b678:	003fcd06 	br	80b5b0 <__alt_mem_onchip_mem+0xff8035b0>
  80b67c:	0005883a 	mov	r2,zero
  80b680:	003fd606 	br	80b5dc <__alt_mem_onchip_mem+0xff8035dc>
  80b684:	81400c17 	ldw	r5,48(r16)
  80b688:	28000626 	beq	r5,zero,80b6a4 <__swsetup_r+0x124>
  80b68c:	80801004 	addi	r2,r16,64
  80b690:	28800326 	beq	r5,r2,80b6a0 <__swsetup_r+0x120>
  80b694:	8809883a 	mov	r4,r17
  80b698:	08075700 	call	807570 <_free_r>
  80b69c:	8100030b 	ldhu	r4,12(r16)
  80b6a0:	80000c15 	stw	zero,48(r16)
  80b6a4:	80c00417 	ldw	r3,16(r16)
  80b6a8:	00bff6c4 	movi	r2,-37
  80b6ac:	1108703a 	and	r4,r2,r4
  80b6b0:	80000115 	stw	zero,4(r16)
  80b6b4:	80c00015 	stw	r3,0(r16)
  80b6b8:	003fd506 	br	80b610 <__alt_mem_onchip_mem+0xff803610>
  80b6bc:	00800244 	movi	r2,9
  80b6c0:	88800015 	stw	r2,0(r17)
  80b6c4:	20801014 	ori	r2,r4,64
  80b6c8:	8080030d 	sth	r2,12(r16)
  80b6cc:	00bfffc4 	movi	r2,-1
  80b6d0:	003fc506 	br	80b5e8 <__alt_mem_onchip_mem+0xff8035e8>

0080b6d4 <_close_r>:
  80b6d4:	defffd04 	addi	sp,sp,-12
  80b6d8:	dc000015 	stw	r16,0(sp)
  80b6dc:	040020b4 	movhi	r16,130
  80b6e0:	dc400115 	stw	r17,4(sp)
  80b6e4:	842b3604 	addi	r16,r16,-21288
  80b6e8:	2023883a 	mov	r17,r4
  80b6ec:	2809883a 	mov	r4,r5
  80b6f0:	dfc00215 	stw	ra,8(sp)
  80b6f4:	80000015 	stw	zero,0(r16)
  80b6f8:	0812bb80 	call	812bb8 <close>
  80b6fc:	00ffffc4 	movi	r3,-1
  80b700:	10c00526 	beq	r2,r3,80b718 <_close_r+0x44>
  80b704:	dfc00217 	ldw	ra,8(sp)
  80b708:	dc400117 	ldw	r17,4(sp)
  80b70c:	dc000017 	ldw	r16,0(sp)
  80b710:	dec00304 	addi	sp,sp,12
  80b714:	f800283a 	ret
  80b718:	80c00017 	ldw	r3,0(r16)
  80b71c:	183ff926 	beq	r3,zero,80b704 <__alt_mem_onchip_mem+0xff803704>
  80b720:	88c00015 	stw	r3,0(r17)
  80b724:	003ff706 	br	80b704 <__alt_mem_onchip_mem+0xff803704>

0080b728 <quorem>:
  80b728:	defff704 	addi	sp,sp,-36
  80b72c:	dc800215 	stw	r18,8(sp)
  80b730:	20800417 	ldw	r2,16(r4)
  80b734:	2c800417 	ldw	r18,16(r5)
  80b738:	dfc00815 	stw	ra,32(sp)
  80b73c:	ddc00715 	stw	r23,28(sp)
  80b740:	dd800615 	stw	r22,24(sp)
  80b744:	dd400515 	stw	r21,20(sp)
  80b748:	dd000415 	stw	r20,16(sp)
  80b74c:	dcc00315 	stw	r19,12(sp)
  80b750:	dc400115 	stw	r17,4(sp)
  80b754:	dc000015 	stw	r16,0(sp)
  80b758:	14807116 	blt	r2,r18,80b920 <quorem+0x1f8>
  80b75c:	94bfffc4 	addi	r18,r18,-1
  80b760:	94ad883a 	add	r22,r18,r18
  80b764:	b5ad883a 	add	r22,r22,r22
  80b768:	2c400504 	addi	r17,r5,20
  80b76c:	8da9883a 	add	r20,r17,r22
  80b770:	25400504 	addi	r21,r4,20
  80b774:	282f883a 	mov	r23,r5
  80b778:	adad883a 	add	r22,r21,r22
  80b77c:	a1400017 	ldw	r5,0(r20)
  80b780:	2021883a 	mov	r16,r4
  80b784:	b1000017 	ldw	r4,0(r22)
  80b788:	29400044 	addi	r5,r5,1
  80b78c:	08117e40 	call	8117e4 <__udivsi3>
  80b790:	1027883a 	mov	r19,r2
  80b794:	10002c26 	beq	r2,zero,80b848 <quorem+0x120>
  80b798:	a813883a 	mov	r9,r21
  80b79c:	880b883a 	mov	r5,r17
  80b7a0:	0009883a 	mov	r4,zero
  80b7a4:	000d883a 	mov	r6,zero
  80b7a8:	2a000017 	ldw	r8,0(r5)
  80b7ac:	49c00017 	ldw	r7,0(r9)
  80b7b0:	29400104 	addi	r5,r5,4
  80b7b4:	40bfffcc 	andi	r2,r8,65535
  80b7b8:	14c5383a 	mul	r2,r2,r19
  80b7bc:	4010d43a 	srli	r8,r8,16
  80b7c0:	38ffffcc 	andi	r3,r7,65535
  80b7c4:	1105883a 	add	r2,r2,r4
  80b7c8:	1008d43a 	srli	r4,r2,16
  80b7cc:	44d1383a 	mul	r8,r8,r19
  80b7d0:	198d883a 	add	r6,r3,r6
  80b7d4:	10ffffcc 	andi	r3,r2,65535
  80b7d8:	30c7c83a 	sub	r3,r6,r3
  80b7dc:	380ed43a 	srli	r7,r7,16
  80b7e0:	4105883a 	add	r2,r8,r4
  80b7e4:	180dd43a 	srai	r6,r3,16
  80b7e8:	113fffcc 	andi	r4,r2,65535
  80b7ec:	390fc83a 	sub	r7,r7,r4
  80b7f0:	398d883a 	add	r6,r7,r6
  80b7f4:	300e943a 	slli	r7,r6,16
  80b7f8:	18ffffcc 	andi	r3,r3,65535
  80b7fc:	1008d43a 	srli	r4,r2,16
  80b800:	38ceb03a 	or	r7,r7,r3
  80b804:	49c00015 	stw	r7,0(r9)
  80b808:	300dd43a 	srai	r6,r6,16
  80b80c:	4a400104 	addi	r9,r9,4
  80b810:	a17fe52e 	bgeu	r20,r5,80b7a8 <__alt_mem_onchip_mem+0xff8037a8>
  80b814:	b0800017 	ldw	r2,0(r22)
  80b818:	10000b1e 	bne	r2,zero,80b848 <quorem+0x120>
  80b81c:	b0bfff04 	addi	r2,r22,-4
  80b820:	a880082e 	bgeu	r21,r2,80b844 <quorem+0x11c>
  80b824:	b0ffff17 	ldw	r3,-4(r22)
  80b828:	18000326 	beq	r3,zero,80b838 <quorem+0x110>
  80b82c:	00000506 	br	80b844 <quorem+0x11c>
  80b830:	10c00017 	ldw	r3,0(r2)
  80b834:	1800031e 	bne	r3,zero,80b844 <quorem+0x11c>
  80b838:	10bfff04 	addi	r2,r2,-4
  80b83c:	94bfffc4 	addi	r18,r18,-1
  80b840:	a8bffb36 	bltu	r21,r2,80b830 <__alt_mem_onchip_mem+0xff803830>
  80b844:	84800415 	stw	r18,16(r16)
  80b848:	b80b883a 	mov	r5,r23
  80b84c:	8009883a 	mov	r4,r16
  80b850:	080e2f80 	call	80e2f8 <__mcmp>
  80b854:	10002616 	blt	r2,zero,80b8f0 <quorem+0x1c8>
  80b858:	9cc00044 	addi	r19,r19,1
  80b85c:	a805883a 	mov	r2,r21
  80b860:	000b883a 	mov	r5,zero
  80b864:	11000017 	ldw	r4,0(r2)
  80b868:	89800017 	ldw	r6,0(r17)
  80b86c:	10800104 	addi	r2,r2,4
  80b870:	20ffffcc 	andi	r3,r4,65535
  80b874:	194b883a 	add	r5,r3,r5
  80b878:	30ffffcc 	andi	r3,r6,65535
  80b87c:	28c7c83a 	sub	r3,r5,r3
  80b880:	300cd43a 	srli	r6,r6,16
  80b884:	2008d43a 	srli	r4,r4,16
  80b888:	180bd43a 	srai	r5,r3,16
  80b88c:	18ffffcc 	andi	r3,r3,65535
  80b890:	2189c83a 	sub	r4,r4,r6
  80b894:	2149883a 	add	r4,r4,r5
  80b898:	200c943a 	slli	r6,r4,16
  80b89c:	8c400104 	addi	r17,r17,4
  80b8a0:	200bd43a 	srai	r5,r4,16
  80b8a4:	30c6b03a 	or	r3,r6,r3
  80b8a8:	10ffff15 	stw	r3,-4(r2)
  80b8ac:	a47fed2e 	bgeu	r20,r17,80b864 <__alt_mem_onchip_mem+0xff803864>
  80b8b0:	9485883a 	add	r2,r18,r18
  80b8b4:	1085883a 	add	r2,r2,r2
  80b8b8:	a887883a 	add	r3,r21,r2
  80b8bc:	18800017 	ldw	r2,0(r3)
  80b8c0:	10000b1e 	bne	r2,zero,80b8f0 <quorem+0x1c8>
  80b8c4:	18bfff04 	addi	r2,r3,-4
  80b8c8:	a880082e 	bgeu	r21,r2,80b8ec <quorem+0x1c4>
  80b8cc:	18ffff17 	ldw	r3,-4(r3)
  80b8d0:	18000326 	beq	r3,zero,80b8e0 <quorem+0x1b8>
  80b8d4:	00000506 	br	80b8ec <quorem+0x1c4>
  80b8d8:	10c00017 	ldw	r3,0(r2)
  80b8dc:	1800031e 	bne	r3,zero,80b8ec <quorem+0x1c4>
  80b8e0:	10bfff04 	addi	r2,r2,-4
  80b8e4:	94bfffc4 	addi	r18,r18,-1
  80b8e8:	a8bffb36 	bltu	r21,r2,80b8d8 <__alt_mem_onchip_mem+0xff8038d8>
  80b8ec:	84800415 	stw	r18,16(r16)
  80b8f0:	9805883a 	mov	r2,r19
  80b8f4:	dfc00817 	ldw	ra,32(sp)
  80b8f8:	ddc00717 	ldw	r23,28(sp)
  80b8fc:	dd800617 	ldw	r22,24(sp)
  80b900:	dd400517 	ldw	r21,20(sp)
  80b904:	dd000417 	ldw	r20,16(sp)
  80b908:	dcc00317 	ldw	r19,12(sp)
  80b90c:	dc800217 	ldw	r18,8(sp)
  80b910:	dc400117 	ldw	r17,4(sp)
  80b914:	dc000017 	ldw	r16,0(sp)
  80b918:	dec00904 	addi	sp,sp,36
  80b91c:	f800283a 	ret
  80b920:	0005883a 	mov	r2,zero
  80b924:	003ff306 	br	80b8f4 <__alt_mem_onchip_mem+0xff8038f4>

0080b928 <_dtoa_r>:
  80b928:	20801017 	ldw	r2,64(r4)
  80b92c:	deffde04 	addi	sp,sp,-136
  80b930:	df002015 	stw	fp,128(sp)
  80b934:	dcc01b15 	stw	r19,108(sp)
  80b938:	dc801a15 	stw	r18,104(sp)
  80b93c:	dc401915 	stw	r17,100(sp)
  80b940:	dc001815 	stw	r16,96(sp)
  80b944:	dfc02115 	stw	ra,132(sp)
  80b948:	ddc01f15 	stw	r23,124(sp)
  80b94c:	dd801e15 	stw	r22,120(sp)
  80b950:	dd401d15 	stw	r21,116(sp)
  80b954:	dd001c15 	stw	r20,112(sp)
  80b958:	d9c00315 	stw	r7,12(sp)
  80b95c:	2039883a 	mov	fp,r4
  80b960:	3023883a 	mov	r17,r6
  80b964:	2825883a 	mov	r18,r5
  80b968:	dc002417 	ldw	r16,144(sp)
  80b96c:	3027883a 	mov	r19,r6
  80b970:	10000826 	beq	r2,zero,80b994 <_dtoa_r+0x6c>
  80b974:	21801117 	ldw	r6,68(r4)
  80b978:	00c00044 	movi	r3,1
  80b97c:	100b883a 	mov	r5,r2
  80b980:	1986983a 	sll	r3,r3,r6
  80b984:	11800115 	stw	r6,4(r2)
  80b988:	10c00215 	stw	r3,8(r2)
  80b98c:	080dad80 	call	80dad8 <_Bfree>
  80b990:	e0001015 	stw	zero,64(fp)
  80b994:	88002e16 	blt	r17,zero,80ba50 <_dtoa_r+0x128>
  80b998:	80000015 	stw	zero,0(r16)
  80b99c:	889ffc2c 	andhi	r2,r17,32752
  80b9a0:	00dffc34 	movhi	r3,32752
  80b9a4:	10c01c26 	beq	r2,r3,80ba18 <_dtoa_r+0xf0>
  80b9a8:	000d883a 	mov	r6,zero
  80b9ac:	000f883a 	mov	r7,zero
  80b9b0:	9009883a 	mov	r4,r18
  80b9b4:	980b883a 	mov	r5,r19
  80b9b8:	08121880 	call	812188 <__eqdf2>
  80b9bc:	10002b1e 	bne	r2,zero,80ba6c <_dtoa_r+0x144>
  80b9c0:	d9c02317 	ldw	r7,140(sp)
  80b9c4:	00800044 	movi	r2,1
  80b9c8:	38800015 	stw	r2,0(r7)
  80b9cc:	d8802517 	ldw	r2,148(sp)
  80b9d0:	10019e26 	beq	r2,zero,80c04c <_dtoa_r+0x724>
  80b9d4:	d8c02517 	ldw	r3,148(sp)
  80b9d8:	00802074 	movhi	r2,129
  80b9dc:	109bb344 	addi	r2,r2,28365
  80b9e0:	18800015 	stw	r2,0(r3)
  80b9e4:	10bfffc4 	addi	r2,r2,-1
  80b9e8:	dfc02117 	ldw	ra,132(sp)
  80b9ec:	df002017 	ldw	fp,128(sp)
  80b9f0:	ddc01f17 	ldw	r23,124(sp)
  80b9f4:	dd801e17 	ldw	r22,120(sp)
  80b9f8:	dd401d17 	ldw	r21,116(sp)
  80b9fc:	dd001c17 	ldw	r20,112(sp)
  80ba00:	dcc01b17 	ldw	r19,108(sp)
  80ba04:	dc801a17 	ldw	r18,104(sp)
  80ba08:	dc401917 	ldw	r17,100(sp)
  80ba0c:	dc001817 	ldw	r16,96(sp)
  80ba10:	dec02204 	addi	sp,sp,136
  80ba14:	f800283a 	ret
  80ba18:	d8c02317 	ldw	r3,140(sp)
  80ba1c:	0089c3c4 	movi	r2,9999
  80ba20:	18800015 	stw	r2,0(r3)
  80ba24:	90017726 	beq	r18,zero,80c004 <_dtoa_r+0x6dc>
  80ba28:	00802074 	movhi	r2,129
  80ba2c:	109bbf04 	addi	r2,r2,28412
  80ba30:	d9002517 	ldw	r4,148(sp)
  80ba34:	203fec26 	beq	r4,zero,80b9e8 <__alt_mem_onchip_mem+0xff8039e8>
  80ba38:	10c000c7 	ldb	r3,3(r2)
  80ba3c:	1801781e 	bne	r3,zero,80c020 <_dtoa_r+0x6f8>
  80ba40:	10c000c4 	addi	r3,r2,3
  80ba44:	d9802517 	ldw	r6,148(sp)
  80ba48:	30c00015 	stw	r3,0(r6)
  80ba4c:	003fe606 	br	80b9e8 <__alt_mem_onchip_mem+0xff8039e8>
  80ba50:	04e00034 	movhi	r19,32768
  80ba54:	9cffffc4 	addi	r19,r19,-1
  80ba58:	00800044 	movi	r2,1
  80ba5c:	8ce6703a 	and	r19,r17,r19
  80ba60:	80800015 	stw	r2,0(r16)
  80ba64:	9823883a 	mov	r17,r19
  80ba68:	003fcc06 	br	80b99c <__alt_mem_onchip_mem+0xff80399c>
  80ba6c:	d8800204 	addi	r2,sp,8
  80ba70:	d8800015 	stw	r2,0(sp)
  80ba74:	d9c00104 	addi	r7,sp,4
  80ba78:	900b883a 	mov	r5,r18
  80ba7c:	980d883a 	mov	r6,r19
  80ba80:	e009883a 	mov	r4,fp
  80ba84:	8820d53a 	srli	r16,r17,20
  80ba88:	080e6c40 	call	80e6c4 <__d2b>
  80ba8c:	d8800915 	stw	r2,36(sp)
  80ba90:	8001651e 	bne	r16,zero,80c028 <_dtoa_r+0x700>
  80ba94:	dd800217 	ldw	r22,8(sp)
  80ba98:	dc000117 	ldw	r16,4(sp)
  80ba9c:	00800804 	movi	r2,32
  80baa0:	b421883a 	add	r16,r22,r16
  80baa4:	80c10c84 	addi	r3,r16,1074
  80baa8:	10c2d10e 	bge	r2,r3,80c5f0 <_dtoa_r+0xcc8>
  80baac:	00801004 	movi	r2,64
  80bab0:	81010484 	addi	r4,r16,1042
  80bab4:	10c7c83a 	sub	r3,r2,r3
  80bab8:	9108d83a 	srl	r4,r18,r4
  80babc:	88e2983a 	sll	r17,r17,r3
  80bac0:	2448b03a 	or	r4,r4,r17
  80bac4:	08129a80 	call	8129a8 <__floatunsidf>
  80bac8:	017f8434 	movhi	r5,65040
  80bacc:	01800044 	movi	r6,1
  80bad0:	1009883a 	mov	r4,r2
  80bad4:	194b883a 	add	r5,r3,r5
  80bad8:	843fffc4 	addi	r16,r16,-1
  80badc:	d9801115 	stw	r6,68(sp)
  80bae0:	000d883a 	mov	r6,zero
  80bae4:	01cffe34 	movhi	r7,16376
  80bae8:	08060cc0 	call	8060cc <__subdf3>
  80baec:	0198dbf4 	movhi	r6,25455
  80baf0:	01cff4f4 	movhi	r7,16339
  80baf4:	3190d844 	addi	r6,r6,17249
  80baf8:	39e1e9c4 	addi	r7,r7,-30809
  80bafc:	1009883a 	mov	r4,r2
  80bb00:	180b883a 	mov	r5,r3
  80bb04:	08122100 	call	812210 <__muldf3>
  80bb08:	01a2d874 	movhi	r6,35681
  80bb0c:	01cff1f4 	movhi	r7,16327
  80bb10:	31b22cc4 	addi	r6,r6,-14157
  80bb14:	39e28a04 	addi	r7,r7,-30168
  80bb18:	180b883a 	mov	r5,r3
  80bb1c:	1009883a 	mov	r4,r2
  80bb20:	08056500 	call	805650 <__adddf3>
  80bb24:	8009883a 	mov	r4,r16
  80bb28:	1029883a 	mov	r20,r2
  80bb2c:	1823883a 	mov	r17,r3
  80bb30:	08069c80 	call	8069c8 <__floatsidf>
  80bb34:	019427f4 	movhi	r6,20639
  80bb38:	01cff4f4 	movhi	r7,16339
  80bb3c:	319e7ec4 	addi	r6,r6,31227
  80bb40:	39d104c4 	addi	r7,r7,17427
  80bb44:	1009883a 	mov	r4,r2
  80bb48:	180b883a 	mov	r5,r3
  80bb4c:	08122100 	call	812210 <__muldf3>
  80bb50:	100d883a 	mov	r6,r2
  80bb54:	180f883a 	mov	r7,r3
  80bb58:	a009883a 	mov	r4,r20
  80bb5c:	880b883a 	mov	r5,r17
  80bb60:	08056500 	call	805650 <__adddf3>
  80bb64:	1009883a 	mov	r4,r2
  80bb68:	180b883a 	mov	r5,r3
  80bb6c:	1029883a 	mov	r20,r2
  80bb70:	1823883a 	mov	r17,r3
  80bb74:	08129280 	call	812928 <__fixdfsi>
  80bb78:	000d883a 	mov	r6,zero
  80bb7c:	000f883a 	mov	r7,zero
  80bb80:	a009883a 	mov	r4,r20
  80bb84:	880b883a 	mov	r5,r17
  80bb88:	d8800515 	stw	r2,20(sp)
  80bb8c:	0805fd80 	call	805fd8 <__ledf2>
  80bb90:	10028716 	blt	r2,zero,80c5b0 <_dtoa_r+0xc88>
  80bb94:	d8c00517 	ldw	r3,20(sp)
  80bb98:	00800584 	movi	r2,22
  80bb9c:	10c27536 	bltu	r2,r3,80c574 <_dtoa_r+0xc4c>
  80bba0:	180490fa 	slli	r2,r3,3
  80bba4:	00c02074 	movhi	r3,129
  80bba8:	18dbda04 	addi	r3,r3,28520
  80bbac:	1885883a 	add	r2,r3,r2
  80bbb0:	11000017 	ldw	r4,0(r2)
  80bbb4:	11400117 	ldw	r5,4(r2)
  80bbb8:	900d883a 	mov	r6,r18
  80bbbc:	980f883a 	mov	r7,r19
  80bbc0:	0805efc0 	call	805efc <__gedf2>
  80bbc4:	00828d0e 	bge	zero,r2,80c5fc <_dtoa_r+0xcd4>
  80bbc8:	d9000517 	ldw	r4,20(sp)
  80bbcc:	d8000e15 	stw	zero,56(sp)
  80bbd0:	213fffc4 	addi	r4,r4,-1
  80bbd4:	d9000515 	stw	r4,20(sp)
  80bbd8:	b42dc83a 	sub	r22,r22,r16
  80bbdc:	b5bfffc4 	addi	r22,r22,-1
  80bbe0:	b0026f16 	blt	r22,zero,80c5a0 <_dtoa_r+0xc78>
  80bbe4:	d8000815 	stw	zero,32(sp)
  80bbe8:	d9c00517 	ldw	r7,20(sp)
  80bbec:	38026416 	blt	r7,zero,80c580 <_dtoa_r+0xc58>
  80bbf0:	b1ed883a 	add	r22,r22,r7
  80bbf4:	d9c00d15 	stw	r7,52(sp)
  80bbf8:	d8000a15 	stw	zero,40(sp)
  80bbfc:	d9800317 	ldw	r6,12(sp)
  80bc00:	00800244 	movi	r2,9
  80bc04:	11811436 	bltu	r2,r6,80c058 <_dtoa_r+0x730>
  80bc08:	00800144 	movi	r2,5
  80bc0c:	1184e10e 	bge	r2,r6,80cf94 <_dtoa_r+0x166c>
  80bc10:	31bfff04 	addi	r6,r6,-4
  80bc14:	d9800315 	stw	r6,12(sp)
  80bc18:	0023883a 	mov	r17,zero
  80bc1c:	d9800317 	ldw	r6,12(sp)
  80bc20:	008000c4 	movi	r2,3
  80bc24:	30836726 	beq	r6,r2,80c9c4 <_dtoa_r+0x109c>
  80bc28:	1183410e 	bge	r2,r6,80c930 <_dtoa_r+0x1008>
  80bc2c:	d9c00317 	ldw	r7,12(sp)
  80bc30:	00800104 	movi	r2,4
  80bc34:	38827c26 	beq	r7,r2,80c628 <_dtoa_r+0xd00>
  80bc38:	00800144 	movi	r2,5
  80bc3c:	3884c41e 	bne	r7,r2,80cf50 <_dtoa_r+0x1628>
  80bc40:	00800044 	movi	r2,1
  80bc44:	d8800b15 	stw	r2,44(sp)
  80bc48:	d8c00517 	ldw	r3,20(sp)
  80bc4c:	d9002217 	ldw	r4,136(sp)
  80bc50:	1907883a 	add	r3,r3,r4
  80bc54:	19800044 	addi	r6,r3,1
  80bc58:	d8c00c15 	stw	r3,48(sp)
  80bc5c:	d9800615 	stw	r6,24(sp)
  80bc60:	0183a40e 	bge	zero,r6,80caf4 <_dtoa_r+0x11cc>
  80bc64:	d9800617 	ldw	r6,24(sp)
  80bc68:	3021883a 	mov	r16,r6
  80bc6c:	e0001115 	stw	zero,68(fp)
  80bc70:	008005c4 	movi	r2,23
  80bc74:	1184c92e 	bgeu	r2,r6,80cf9c <_dtoa_r+0x1674>
  80bc78:	00c00044 	movi	r3,1
  80bc7c:	00800104 	movi	r2,4
  80bc80:	1085883a 	add	r2,r2,r2
  80bc84:	11000504 	addi	r4,r2,20
  80bc88:	180b883a 	mov	r5,r3
  80bc8c:	18c00044 	addi	r3,r3,1
  80bc90:	313ffb2e 	bgeu	r6,r4,80bc80 <__alt_mem_onchip_mem+0xff803c80>
  80bc94:	e1401115 	stw	r5,68(fp)
  80bc98:	e009883a 	mov	r4,fp
  80bc9c:	080da300 	call	80da30 <_Balloc>
  80bca0:	d8800715 	stw	r2,28(sp)
  80bca4:	e0801015 	stw	r2,64(fp)
  80bca8:	00800384 	movi	r2,14
  80bcac:	1400f736 	bltu	r2,r16,80c08c <_dtoa_r+0x764>
  80bcb0:	8800f626 	beq	r17,zero,80c08c <_dtoa_r+0x764>
  80bcb4:	d9c00517 	ldw	r7,20(sp)
  80bcb8:	01c39a0e 	bge	zero,r7,80cb24 <_dtoa_r+0x11fc>
  80bcbc:	388003cc 	andi	r2,r7,15
  80bcc0:	100490fa 	slli	r2,r2,3
  80bcc4:	382bd13a 	srai	r21,r7,4
  80bcc8:	00c02074 	movhi	r3,129
  80bccc:	18dbda04 	addi	r3,r3,28520
  80bcd0:	1885883a 	add	r2,r3,r2
  80bcd4:	a8c0040c 	andi	r3,r21,16
  80bcd8:	12400017 	ldw	r9,0(r2)
  80bcdc:	12000117 	ldw	r8,4(r2)
  80bce0:	18037926 	beq	r3,zero,80cac8 <_dtoa_r+0x11a0>
  80bce4:	00802074 	movhi	r2,129
  80bce8:	109bd004 	addi	r2,r2,28480
  80bcec:	11800817 	ldw	r6,32(r2)
  80bcf0:	11c00917 	ldw	r7,36(r2)
  80bcf4:	9009883a 	mov	r4,r18
  80bcf8:	980b883a 	mov	r5,r19
  80bcfc:	da001715 	stw	r8,92(sp)
  80bd00:	da401615 	stw	r9,88(sp)
  80bd04:	08118a00 	call	8118a0 <__divdf3>
  80bd08:	da001717 	ldw	r8,92(sp)
  80bd0c:	da401617 	ldw	r9,88(sp)
  80bd10:	ad4003cc 	andi	r21,r21,15
  80bd14:	040000c4 	movi	r16,3
  80bd18:	1023883a 	mov	r17,r2
  80bd1c:	1829883a 	mov	r20,r3
  80bd20:	a8001126 	beq	r21,zero,80bd68 <_dtoa_r+0x440>
  80bd24:	05c02074 	movhi	r23,129
  80bd28:	bddbd004 	addi	r23,r23,28480
  80bd2c:	4805883a 	mov	r2,r9
  80bd30:	4007883a 	mov	r3,r8
  80bd34:	a980004c 	andi	r6,r21,1
  80bd38:	1009883a 	mov	r4,r2
  80bd3c:	a82bd07a 	srai	r21,r21,1
  80bd40:	180b883a 	mov	r5,r3
  80bd44:	30000426 	beq	r6,zero,80bd58 <_dtoa_r+0x430>
  80bd48:	b9800017 	ldw	r6,0(r23)
  80bd4c:	b9c00117 	ldw	r7,4(r23)
  80bd50:	84000044 	addi	r16,r16,1
  80bd54:	08122100 	call	812210 <__muldf3>
  80bd58:	bdc00204 	addi	r23,r23,8
  80bd5c:	a83ff51e 	bne	r21,zero,80bd34 <__alt_mem_onchip_mem+0xff803d34>
  80bd60:	1013883a 	mov	r9,r2
  80bd64:	1811883a 	mov	r8,r3
  80bd68:	480d883a 	mov	r6,r9
  80bd6c:	400f883a 	mov	r7,r8
  80bd70:	8809883a 	mov	r4,r17
  80bd74:	a00b883a 	mov	r5,r20
  80bd78:	08118a00 	call	8118a0 <__divdf3>
  80bd7c:	d8800f15 	stw	r2,60(sp)
  80bd80:	d8c01015 	stw	r3,64(sp)
  80bd84:	d8c00e17 	ldw	r3,56(sp)
  80bd88:	18000626 	beq	r3,zero,80bda4 <_dtoa_r+0x47c>
  80bd8c:	d9000f17 	ldw	r4,60(sp)
  80bd90:	d9401017 	ldw	r5,64(sp)
  80bd94:	000d883a 	mov	r6,zero
  80bd98:	01cffc34 	movhi	r7,16368
  80bd9c:	0805fd80 	call	805fd8 <__ledf2>
  80bda0:	10040b16 	blt	r2,zero,80cdd0 <_dtoa_r+0x14a8>
  80bda4:	8009883a 	mov	r4,r16
  80bda8:	08069c80 	call	8069c8 <__floatsidf>
  80bdac:	d9800f17 	ldw	r6,60(sp)
  80bdb0:	d9c01017 	ldw	r7,64(sp)
  80bdb4:	1009883a 	mov	r4,r2
  80bdb8:	180b883a 	mov	r5,r3
  80bdbc:	08122100 	call	812210 <__muldf3>
  80bdc0:	000d883a 	mov	r6,zero
  80bdc4:	01d00734 	movhi	r7,16412
  80bdc8:	1009883a 	mov	r4,r2
  80bdcc:	180b883a 	mov	r5,r3
  80bdd0:	08056500 	call	805650 <__adddf3>
  80bdd4:	1021883a 	mov	r16,r2
  80bdd8:	d8800617 	ldw	r2,24(sp)
  80bddc:	047f3034 	movhi	r17,64704
  80bde0:	1c63883a 	add	r17,r3,r17
  80bde4:	10031826 	beq	r2,zero,80ca48 <_dtoa_r+0x1120>
  80bde8:	d8c00517 	ldw	r3,20(sp)
  80bdec:	db000617 	ldw	r12,24(sp)
  80bdf0:	d8c01315 	stw	r3,76(sp)
  80bdf4:	d9000b17 	ldw	r4,44(sp)
  80bdf8:	20038f26 	beq	r4,zero,80cc38 <_dtoa_r+0x1310>
  80bdfc:	60bfffc4 	addi	r2,r12,-1
  80be00:	100490fa 	slli	r2,r2,3
  80be04:	00c02074 	movhi	r3,129
  80be08:	18dbda04 	addi	r3,r3,28520
  80be0c:	1885883a 	add	r2,r3,r2
  80be10:	11800017 	ldw	r6,0(r2)
  80be14:	11c00117 	ldw	r7,4(r2)
  80be18:	d8800717 	ldw	r2,28(sp)
  80be1c:	0009883a 	mov	r4,zero
  80be20:	014ff834 	movhi	r5,16352
  80be24:	db001615 	stw	r12,88(sp)
  80be28:	15c00044 	addi	r23,r2,1
  80be2c:	08118a00 	call	8118a0 <__divdf3>
  80be30:	800d883a 	mov	r6,r16
  80be34:	880f883a 	mov	r7,r17
  80be38:	1009883a 	mov	r4,r2
  80be3c:	180b883a 	mov	r5,r3
  80be40:	08060cc0 	call	8060cc <__subdf3>
  80be44:	d9401017 	ldw	r5,64(sp)
  80be48:	d9000f17 	ldw	r4,60(sp)
  80be4c:	102b883a 	mov	r21,r2
  80be50:	d8c01215 	stw	r3,72(sp)
  80be54:	08129280 	call	812928 <__fixdfsi>
  80be58:	1009883a 	mov	r4,r2
  80be5c:	1029883a 	mov	r20,r2
  80be60:	08069c80 	call	8069c8 <__floatsidf>
  80be64:	d9000f17 	ldw	r4,60(sp)
  80be68:	d9401017 	ldw	r5,64(sp)
  80be6c:	100d883a 	mov	r6,r2
  80be70:	180f883a 	mov	r7,r3
  80be74:	08060cc0 	call	8060cc <__subdf3>
  80be78:	1823883a 	mov	r17,r3
  80be7c:	d8c00717 	ldw	r3,28(sp)
  80be80:	d9401217 	ldw	r5,72(sp)
  80be84:	a2000c04 	addi	r8,r20,48
  80be88:	1021883a 	mov	r16,r2
  80be8c:	1a000005 	stb	r8,0(r3)
  80be90:	800d883a 	mov	r6,r16
  80be94:	880f883a 	mov	r7,r17
  80be98:	a809883a 	mov	r4,r21
  80be9c:	4029883a 	mov	r20,r8
  80bea0:	0805efc0 	call	805efc <__gedf2>
  80bea4:	00841d16 	blt	zero,r2,80cf1c <_dtoa_r+0x15f4>
  80bea8:	800d883a 	mov	r6,r16
  80beac:	880f883a 	mov	r7,r17
  80beb0:	0009883a 	mov	r4,zero
  80beb4:	014ffc34 	movhi	r5,16368
  80beb8:	08060cc0 	call	8060cc <__subdf3>
  80bebc:	d9401217 	ldw	r5,72(sp)
  80bec0:	100d883a 	mov	r6,r2
  80bec4:	180f883a 	mov	r7,r3
  80bec8:	a809883a 	mov	r4,r21
  80becc:	0805efc0 	call	805efc <__gedf2>
  80bed0:	db001617 	ldw	r12,88(sp)
  80bed4:	00840e16 	blt	zero,r2,80cf10 <_dtoa_r+0x15e8>
  80bed8:	00800044 	movi	r2,1
  80bedc:	13006b0e 	bge	r2,r12,80c08c <_dtoa_r+0x764>
  80bee0:	d9000717 	ldw	r4,28(sp)
  80bee4:	dd800f15 	stw	r22,60(sp)
  80bee8:	dcc01015 	stw	r19,64(sp)
  80beec:	2319883a 	add	r12,r4,r12
  80bef0:	dcc01217 	ldw	r19,72(sp)
  80bef4:	602d883a 	mov	r22,r12
  80bef8:	dc801215 	stw	r18,72(sp)
  80befc:	b825883a 	mov	r18,r23
  80bf00:	00000906 	br	80bf28 <_dtoa_r+0x600>
  80bf04:	08060cc0 	call	8060cc <__subdf3>
  80bf08:	a80d883a 	mov	r6,r21
  80bf0c:	980f883a 	mov	r7,r19
  80bf10:	1009883a 	mov	r4,r2
  80bf14:	180b883a 	mov	r5,r3
  80bf18:	0805fd80 	call	805fd8 <__ledf2>
  80bf1c:	1003e816 	blt	r2,zero,80cec0 <_dtoa_r+0x1598>
  80bf20:	b825883a 	mov	r18,r23
  80bf24:	bd83e926 	beq	r23,r22,80cecc <_dtoa_r+0x15a4>
  80bf28:	a809883a 	mov	r4,r21
  80bf2c:	980b883a 	mov	r5,r19
  80bf30:	000d883a 	mov	r6,zero
  80bf34:	01d00934 	movhi	r7,16420
  80bf38:	08122100 	call	812210 <__muldf3>
  80bf3c:	000d883a 	mov	r6,zero
  80bf40:	01d00934 	movhi	r7,16420
  80bf44:	8009883a 	mov	r4,r16
  80bf48:	880b883a 	mov	r5,r17
  80bf4c:	102b883a 	mov	r21,r2
  80bf50:	1827883a 	mov	r19,r3
  80bf54:	08122100 	call	812210 <__muldf3>
  80bf58:	180b883a 	mov	r5,r3
  80bf5c:	1009883a 	mov	r4,r2
  80bf60:	1821883a 	mov	r16,r3
  80bf64:	1023883a 	mov	r17,r2
  80bf68:	08129280 	call	812928 <__fixdfsi>
  80bf6c:	1009883a 	mov	r4,r2
  80bf70:	1029883a 	mov	r20,r2
  80bf74:	08069c80 	call	8069c8 <__floatsidf>
  80bf78:	8809883a 	mov	r4,r17
  80bf7c:	800b883a 	mov	r5,r16
  80bf80:	100d883a 	mov	r6,r2
  80bf84:	180f883a 	mov	r7,r3
  80bf88:	08060cc0 	call	8060cc <__subdf3>
  80bf8c:	a5000c04 	addi	r20,r20,48
  80bf90:	a80d883a 	mov	r6,r21
  80bf94:	980f883a 	mov	r7,r19
  80bf98:	1009883a 	mov	r4,r2
  80bf9c:	180b883a 	mov	r5,r3
  80bfa0:	95000005 	stb	r20,0(r18)
  80bfa4:	1021883a 	mov	r16,r2
  80bfa8:	1823883a 	mov	r17,r3
  80bfac:	0805fd80 	call	805fd8 <__ledf2>
  80bfb0:	bdc00044 	addi	r23,r23,1
  80bfb4:	800d883a 	mov	r6,r16
  80bfb8:	880f883a 	mov	r7,r17
  80bfbc:	0009883a 	mov	r4,zero
  80bfc0:	014ffc34 	movhi	r5,16368
  80bfc4:	103fcf0e 	bge	r2,zero,80bf04 <__alt_mem_onchip_mem+0xff803f04>
  80bfc8:	d8c01317 	ldw	r3,76(sp)
  80bfcc:	d8c00515 	stw	r3,20(sp)
  80bfd0:	d9400917 	ldw	r5,36(sp)
  80bfd4:	e009883a 	mov	r4,fp
  80bfd8:	080dad80 	call	80dad8 <_Bfree>
  80bfdc:	d9000517 	ldw	r4,20(sp)
  80bfe0:	d9802317 	ldw	r6,140(sp)
  80bfe4:	d9c02517 	ldw	r7,148(sp)
  80bfe8:	b8000005 	stb	zero,0(r23)
  80bfec:	20800044 	addi	r2,r4,1
  80bff0:	30800015 	stw	r2,0(r6)
  80bff4:	3802aa26 	beq	r7,zero,80caa0 <_dtoa_r+0x1178>
  80bff8:	3dc00015 	stw	r23,0(r7)
  80bffc:	d8800717 	ldw	r2,28(sp)
  80c000:	003e7906 	br	80b9e8 <__alt_mem_onchip_mem+0xff8039e8>
  80c004:	00800434 	movhi	r2,16
  80c008:	10bfffc4 	addi	r2,r2,-1
  80c00c:	88a2703a 	and	r17,r17,r2
  80c010:	883e851e 	bne	r17,zero,80ba28 <__alt_mem_onchip_mem+0xff803a28>
  80c014:	00802074 	movhi	r2,129
  80c018:	109bbc04 	addi	r2,r2,28400
  80c01c:	003e8406 	br	80ba30 <__alt_mem_onchip_mem+0xff803a30>
  80c020:	10c00204 	addi	r3,r2,8
  80c024:	003e8706 	br	80ba44 <__alt_mem_onchip_mem+0xff803a44>
  80c028:	01400434 	movhi	r5,16
  80c02c:	297fffc4 	addi	r5,r5,-1
  80c030:	994a703a 	and	r5,r19,r5
  80c034:	9009883a 	mov	r4,r18
  80c038:	843f0044 	addi	r16,r16,-1023
  80c03c:	294ffc34 	orhi	r5,r5,16368
  80c040:	dd800217 	ldw	r22,8(sp)
  80c044:	d8001115 	stw	zero,68(sp)
  80c048:	003ea506 	br	80bae0 <__alt_mem_onchip_mem+0xff803ae0>
  80c04c:	00802074 	movhi	r2,129
  80c050:	109bb304 	addi	r2,r2,28364
  80c054:	003e6406 	br	80b9e8 <__alt_mem_onchip_mem+0xff8039e8>
  80c058:	e0001115 	stw	zero,68(fp)
  80c05c:	000b883a 	mov	r5,zero
  80c060:	e009883a 	mov	r4,fp
  80c064:	080da300 	call	80da30 <_Balloc>
  80c068:	01bfffc4 	movi	r6,-1
  80c06c:	01c00044 	movi	r7,1
  80c070:	d8800715 	stw	r2,28(sp)
  80c074:	d9800c15 	stw	r6,48(sp)
  80c078:	e0801015 	stw	r2,64(fp)
  80c07c:	d8000315 	stw	zero,12(sp)
  80c080:	d9c00b15 	stw	r7,44(sp)
  80c084:	d9800615 	stw	r6,24(sp)
  80c088:	d8002215 	stw	zero,136(sp)
  80c08c:	d8800117 	ldw	r2,4(sp)
  80c090:	10008916 	blt	r2,zero,80c2b8 <_dtoa_r+0x990>
  80c094:	d9000517 	ldw	r4,20(sp)
  80c098:	00c00384 	movi	r3,14
  80c09c:	19008616 	blt	r3,r4,80c2b8 <_dtoa_r+0x990>
  80c0a0:	200490fa 	slli	r2,r4,3
  80c0a4:	00c02074 	movhi	r3,129
  80c0a8:	d9802217 	ldw	r6,136(sp)
  80c0ac:	18dbda04 	addi	r3,r3,28520
  80c0b0:	1885883a 	add	r2,r3,r2
  80c0b4:	14000017 	ldw	r16,0(r2)
  80c0b8:	14400117 	ldw	r17,4(r2)
  80c0bc:	30016316 	blt	r6,zero,80c64c <_dtoa_r+0xd24>
  80c0c0:	800d883a 	mov	r6,r16
  80c0c4:	880f883a 	mov	r7,r17
  80c0c8:	9009883a 	mov	r4,r18
  80c0cc:	980b883a 	mov	r5,r19
  80c0d0:	08118a00 	call	8118a0 <__divdf3>
  80c0d4:	180b883a 	mov	r5,r3
  80c0d8:	1009883a 	mov	r4,r2
  80c0dc:	08129280 	call	812928 <__fixdfsi>
  80c0e0:	1009883a 	mov	r4,r2
  80c0e4:	102b883a 	mov	r21,r2
  80c0e8:	08069c80 	call	8069c8 <__floatsidf>
  80c0ec:	800d883a 	mov	r6,r16
  80c0f0:	880f883a 	mov	r7,r17
  80c0f4:	1009883a 	mov	r4,r2
  80c0f8:	180b883a 	mov	r5,r3
  80c0fc:	08122100 	call	812210 <__muldf3>
  80c100:	100d883a 	mov	r6,r2
  80c104:	180f883a 	mov	r7,r3
  80c108:	9009883a 	mov	r4,r18
  80c10c:	980b883a 	mov	r5,r19
  80c110:	08060cc0 	call	8060cc <__subdf3>
  80c114:	d9c00717 	ldw	r7,28(sp)
  80c118:	1009883a 	mov	r4,r2
  80c11c:	a8800c04 	addi	r2,r21,48
  80c120:	38800005 	stb	r2,0(r7)
  80c124:	3dc00044 	addi	r23,r7,1
  80c128:	d9c00617 	ldw	r7,24(sp)
  80c12c:	01800044 	movi	r6,1
  80c130:	180b883a 	mov	r5,r3
  80c134:	2005883a 	mov	r2,r4
  80c138:	39803826 	beq	r7,r6,80c21c <_dtoa_r+0x8f4>
  80c13c:	000d883a 	mov	r6,zero
  80c140:	01d00934 	movhi	r7,16420
  80c144:	08122100 	call	812210 <__muldf3>
  80c148:	000d883a 	mov	r6,zero
  80c14c:	000f883a 	mov	r7,zero
  80c150:	1009883a 	mov	r4,r2
  80c154:	180b883a 	mov	r5,r3
  80c158:	1025883a 	mov	r18,r2
  80c15c:	1827883a 	mov	r19,r3
  80c160:	08121880 	call	812188 <__eqdf2>
  80c164:	103f9a26 	beq	r2,zero,80bfd0 <__alt_mem_onchip_mem+0xff803fd0>
  80c168:	d9c00617 	ldw	r7,24(sp)
  80c16c:	d8c00717 	ldw	r3,28(sp)
  80c170:	b829883a 	mov	r20,r23
  80c174:	38bfffc4 	addi	r2,r7,-1
  80c178:	18ad883a 	add	r22,r3,r2
  80c17c:	00000a06 	br	80c1a8 <_dtoa_r+0x880>
  80c180:	08122100 	call	812210 <__muldf3>
  80c184:	000d883a 	mov	r6,zero
  80c188:	000f883a 	mov	r7,zero
  80c18c:	1009883a 	mov	r4,r2
  80c190:	180b883a 	mov	r5,r3
  80c194:	1025883a 	mov	r18,r2
  80c198:	1827883a 	mov	r19,r3
  80c19c:	b829883a 	mov	r20,r23
  80c1a0:	08121880 	call	812188 <__eqdf2>
  80c1a4:	103f8a26 	beq	r2,zero,80bfd0 <__alt_mem_onchip_mem+0xff803fd0>
  80c1a8:	800d883a 	mov	r6,r16
  80c1ac:	880f883a 	mov	r7,r17
  80c1b0:	9009883a 	mov	r4,r18
  80c1b4:	980b883a 	mov	r5,r19
  80c1b8:	08118a00 	call	8118a0 <__divdf3>
  80c1bc:	180b883a 	mov	r5,r3
  80c1c0:	1009883a 	mov	r4,r2
  80c1c4:	08129280 	call	812928 <__fixdfsi>
  80c1c8:	1009883a 	mov	r4,r2
  80c1cc:	102b883a 	mov	r21,r2
  80c1d0:	08069c80 	call	8069c8 <__floatsidf>
  80c1d4:	800d883a 	mov	r6,r16
  80c1d8:	880f883a 	mov	r7,r17
  80c1dc:	1009883a 	mov	r4,r2
  80c1e0:	180b883a 	mov	r5,r3
  80c1e4:	08122100 	call	812210 <__muldf3>
  80c1e8:	100d883a 	mov	r6,r2
  80c1ec:	180f883a 	mov	r7,r3
  80c1f0:	9009883a 	mov	r4,r18
  80c1f4:	980b883a 	mov	r5,r19
  80c1f8:	08060cc0 	call	8060cc <__subdf3>
  80c1fc:	aa000c04 	addi	r8,r21,48
  80c200:	a2000005 	stb	r8,0(r20)
  80c204:	000d883a 	mov	r6,zero
  80c208:	01d00934 	movhi	r7,16420
  80c20c:	1009883a 	mov	r4,r2
  80c210:	180b883a 	mov	r5,r3
  80c214:	a5c00044 	addi	r23,r20,1
  80c218:	b53fd91e 	bne	r22,r20,80c180 <__alt_mem_onchip_mem+0xff804180>
  80c21c:	100d883a 	mov	r6,r2
  80c220:	180f883a 	mov	r7,r3
  80c224:	1009883a 	mov	r4,r2
  80c228:	180b883a 	mov	r5,r3
  80c22c:	08056500 	call	805650 <__adddf3>
  80c230:	100d883a 	mov	r6,r2
  80c234:	180f883a 	mov	r7,r3
  80c238:	8009883a 	mov	r4,r16
  80c23c:	880b883a 	mov	r5,r17
  80c240:	1027883a 	mov	r19,r2
  80c244:	1825883a 	mov	r18,r3
  80c248:	0805fd80 	call	805fd8 <__ledf2>
  80c24c:	10000816 	blt	r2,zero,80c270 <_dtoa_r+0x948>
  80c250:	980d883a 	mov	r6,r19
  80c254:	900f883a 	mov	r7,r18
  80c258:	8009883a 	mov	r4,r16
  80c25c:	880b883a 	mov	r5,r17
  80c260:	08121880 	call	812188 <__eqdf2>
  80c264:	103f5a1e 	bne	r2,zero,80bfd0 <__alt_mem_onchip_mem+0xff803fd0>
  80c268:	ad40004c 	andi	r21,r21,1
  80c26c:	a83f5826 	beq	r21,zero,80bfd0 <__alt_mem_onchip_mem+0xff803fd0>
  80c270:	bd3fffc3 	ldbu	r20,-1(r23)
  80c274:	b8bfffc4 	addi	r2,r23,-1
  80c278:	1007883a 	mov	r3,r2
  80c27c:	01400e44 	movi	r5,57
  80c280:	d9800717 	ldw	r6,28(sp)
  80c284:	00000506 	br	80c29c <_dtoa_r+0x974>
  80c288:	18ffffc4 	addi	r3,r3,-1
  80c28c:	11824726 	beq	r2,r6,80cbac <_dtoa_r+0x1284>
  80c290:	1d000003 	ldbu	r20,0(r3)
  80c294:	102f883a 	mov	r23,r2
  80c298:	10bfffc4 	addi	r2,r2,-1
  80c29c:	a1003fcc 	andi	r4,r20,255
  80c2a0:	2100201c 	xori	r4,r4,128
  80c2a4:	213fe004 	addi	r4,r4,-128
  80c2a8:	217ff726 	beq	r4,r5,80c288 <__alt_mem_onchip_mem+0xff804288>
  80c2ac:	a2000044 	addi	r8,r20,1
  80c2b0:	12000005 	stb	r8,0(r2)
  80c2b4:	003f4606 	br	80bfd0 <__alt_mem_onchip_mem+0xff803fd0>
  80c2b8:	d9000b17 	ldw	r4,44(sp)
  80c2bc:	2000c826 	beq	r4,zero,80c5e0 <_dtoa_r+0xcb8>
  80c2c0:	d9800317 	ldw	r6,12(sp)
  80c2c4:	00c00044 	movi	r3,1
  80c2c8:	1980f90e 	bge	r3,r6,80c6b0 <_dtoa_r+0xd88>
  80c2cc:	d8800617 	ldw	r2,24(sp)
  80c2d0:	d8c00a17 	ldw	r3,40(sp)
  80c2d4:	157fffc4 	addi	r21,r2,-1
  80c2d8:	1d41f316 	blt	r3,r21,80caa8 <_dtoa_r+0x1180>
  80c2dc:	1d6bc83a 	sub	r21,r3,r21
  80c2e0:	d9c00617 	ldw	r7,24(sp)
  80c2e4:	3802aa16 	blt	r7,zero,80cd90 <_dtoa_r+0x1468>
  80c2e8:	dd000817 	ldw	r20,32(sp)
  80c2ec:	d8800617 	ldw	r2,24(sp)
  80c2f0:	d8c00817 	ldw	r3,32(sp)
  80c2f4:	01400044 	movi	r5,1
  80c2f8:	e009883a 	mov	r4,fp
  80c2fc:	1887883a 	add	r3,r3,r2
  80c300:	d8c00815 	stw	r3,32(sp)
  80c304:	b0ad883a 	add	r22,r22,r2
  80c308:	080de3c0 	call	80de3c <__i2b>
  80c30c:	1023883a 	mov	r17,r2
  80c310:	a0000826 	beq	r20,zero,80c334 <_dtoa_r+0xa0c>
  80c314:	0580070e 	bge	zero,r22,80c334 <_dtoa_r+0xa0c>
  80c318:	a005883a 	mov	r2,r20
  80c31c:	b500b916 	blt	r22,r20,80c604 <_dtoa_r+0xcdc>
  80c320:	d9000817 	ldw	r4,32(sp)
  80c324:	a0a9c83a 	sub	r20,r20,r2
  80c328:	b0adc83a 	sub	r22,r22,r2
  80c32c:	2089c83a 	sub	r4,r4,r2
  80c330:	d9000815 	stw	r4,32(sp)
  80c334:	d9800a17 	ldw	r6,40(sp)
  80c338:	0181810e 	bge	zero,r6,80c940 <_dtoa_r+0x1018>
  80c33c:	d9c00b17 	ldw	r7,44(sp)
  80c340:	3800b326 	beq	r7,zero,80c610 <_dtoa_r+0xce8>
  80c344:	a800b226 	beq	r21,zero,80c610 <_dtoa_r+0xce8>
  80c348:	880b883a 	mov	r5,r17
  80c34c:	a80d883a 	mov	r6,r21
  80c350:	e009883a 	mov	r4,fp
  80c354:	080e0700 	call	80e070 <__pow5mult>
  80c358:	d9800917 	ldw	r6,36(sp)
  80c35c:	100b883a 	mov	r5,r2
  80c360:	e009883a 	mov	r4,fp
  80c364:	1023883a 	mov	r17,r2
  80c368:	080de780 	call	80de78 <__multiply>
  80c36c:	1021883a 	mov	r16,r2
  80c370:	d8800a17 	ldw	r2,40(sp)
  80c374:	d9400917 	ldw	r5,36(sp)
  80c378:	e009883a 	mov	r4,fp
  80c37c:	1545c83a 	sub	r2,r2,r21
  80c380:	d8800a15 	stw	r2,40(sp)
  80c384:	080dad80 	call	80dad8 <_Bfree>
  80c388:	d8c00a17 	ldw	r3,40(sp)
  80c38c:	18009f1e 	bne	r3,zero,80c60c <_dtoa_r+0xce4>
  80c390:	05c00044 	movi	r23,1
  80c394:	e009883a 	mov	r4,fp
  80c398:	b80b883a 	mov	r5,r23
  80c39c:	080de3c0 	call	80de3c <__i2b>
  80c3a0:	d9000d17 	ldw	r4,52(sp)
  80c3a4:	102b883a 	mov	r21,r2
  80c3a8:	2000ce26 	beq	r4,zero,80c6e4 <_dtoa_r+0xdbc>
  80c3ac:	200d883a 	mov	r6,r4
  80c3b0:	100b883a 	mov	r5,r2
  80c3b4:	e009883a 	mov	r4,fp
  80c3b8:	080e0700 	call	80e070 <__pow5mult>
  80c3bc:	d9800317 	ldw	r6,12(sp)
  80c3c0:	102b883a 	mov	r21,r2
  80c3c4:	b981810e 	bge	r23,r6,80c9cc <_dtoa_r+0x10a4>
  80c3c8:	0027883a 	mov	r19,zero
  80c3cc:	a8800417 	ldw	r2,16(r21)
  80c3d0:	05c00804 	movi	r23,32
  80c3d4:	10800104 	addi	r2,r2,4
  80c3d8:	1085883a 	add	r2,r2,r2
  80c3dc:	1085883a 	add	r2,r2,r2
  80c3e0:	a885883a 	add	r2,r21,r2
  80c3e4:	11000017 	ldw	r4,0(r2)
  80c3e8:	080dd240 	call	80dd24 <__hi0bits>
  80c3ec:	b885c83a 	sub	r2,r23,r2
  80c3f0:	1585883a 	add	r2,r2,r22
  80c3f4:	108007cc 	andi	r2,r2,31
  80c3f8:	1000b326 	beq	r2,zero,80c6c8 <_dtoa_r+0xda0>
  80c3fc:	00c00804 	movi	r3,32
  80c400:	1887c83a 	sub	r3,r3,r2
  80c404:	01000104 	movi	r4,4
  80c408:	20c2cd0e 	bge	r4,r3,80cf40 <_dtoa_r+0x1618>
  80c40c:	00c00704 	movi	r3,28
  80c410:	1885c83a 	sub	r2,r3,r2
  80c414:	d8c00817 	ldw	r3,32(sp)
  80c418:	a0a9883a 	add	r20,r20,r2
  80c41c:	b0ad883a 	add	r22,r22,r2
  80c420:	1887883a 	add	r3,r3,r2
  80c424:	d8c00815 	stw	r3,32(sp)
  80c428:	d9800817 	ldw	r6,32(sp)
  80c42c:	0180040e 	bge	zero,r6,80c440 <_dtoa_r+0xb18>
  80c430:	800b883a 	mov	r5,r16
  80c434:	e009883a 	mov	r4,fp
  80c438:	080e1b00 	call	80e1b0 <__lshift>
  80c43c:	1021883a 	mov	r16,r2
  80c440:	0580050e 	bge	zero,r22,80c458 <_dtoa_r+0xb30>
  80c444:	a80b883a 	mov	r5,r21
  80c448:	b00d883a 	mov	r6,r22
  80c44c:	e009883a 	mov	r4,fp
  80c450:	080e1b00 	call	80e1b0 <__lshift>
  80c454:	102b883a 	mov	r21,r2
  80c458:	d9c00e17 	ldw	r7,56(sp)
  80c45c:	3801211e 	bne	r7,zero,80c8e4 <_dtoa_r+0xfbc>
  80c460:	d9800617 	ldw	r6,24(sp)
  80c464:	0181380e 	bge	zero,r6,80c948 <_dtoa_r+0x1020>
  80c468:	d8c00b17 	ldw	r3,44(sp)
  80c46c:	1800ab1e 	bne	r3,zero,80c71c <_dtoa_r+0xdf4>
  80c470:	dc800717 	ldw	r18,28(sp)
  80c474:	dcc00617 	ldw	r19,24(sp)
  80c478:	9029883a 	mov	r20,r18
  80c47c:	00000206 	br	80c488 <_dtoa_r+0xb60>
  80c480:	080db000 	call	80db00 <__multadd>
  80c484:	1021883a 	mov	r16,r2
  80c488:	a80b883a 	mov	r5,r21
  80c48c:	8009883a 	mov	r4,r16
  80c490:	080b7280 	call	80b728 <quorem>
  80c494:	10800c04 	addi	r2,r2,48
  80c498:	90800005 	stb	r2,0(r18)
  80c49c:	94800044 	addi	r18,r18,1
  80c4a0:	9507c83a 	sub	r3,r18,r20
  80c4a4:	000f883a 	mov	r7,zero
  80c4a8:	01800284 	movi	r6,10
  80c4ac:	800b883a 	mov	r5,r16
  80c4b0:	e009883a 	mov	r4,fp
  80c4b4:	1cfff216 	blt	r3,r19,80c480 <__alt_mem_onchip_mem+0xff804480>
  80c4b8:	1011883a 	mov	r8,r2
  80c4bc:	d8800617 	ldw	r2,24(sp)
  80c4c0:	0082370e 	bge	zero,r2,80cda0 <_dtoa_r+0x1478>
  80c4c4:	d9000717 	ldw	r4,28(sp)
  80c4c8:	0025883a 	mov	r18,zero
  80c4cc:	20af883a 	add	r23,r4,r2
  80c4d0:	01800044 	movi	r6,1
  80c4d4:	800b883a 	mov	r5,r16
  80c4d8:	e009883a 	mov	r4,fp
  80c4dc:	da001715 	stw	r8,92(sp)
  80c4e0:	080e1b00 	call	80e1b0 <__lshift>
  80c4e4:	a80b883a 	mov	r5,r21
  80c4e8:	1009883a 	mov	r4,r2
  80c4ec:	d8800915 	stw	r2,36(sp)
  80c4f0:	080e2f80 	call	80e2f8 <__mcmp>
  80c4f4:	da001717 	ldw	r8,92(sp)
  80c4f8:	0081800e 	bge	zero,r2,80cafc <_dtoa_r+0x11d4>
  80c4fc:	b93fffc3 	ldbu	r4,-1(r23)
  80c500:	b8bfffc4 	addi	r2,r23,-1
  80c504:	1007883a 	mov	r3,r2
  80c508:	01800e44 	movi	r6,57
  80c50c:	d9c00717 	ldw	r7,28(sp)
  80c510:	00000506 	br	80c528 <_dtoa_r+0xc00>
  80c514:	18ffffc4 	addi	r3,r3,-1
  80c518:	11c12326 	beq	r2,r7,80c9a8 <_dtoa_r+0x1080>
  80c51c:	19000003 	ldbu	r4,0(r3)
  80c520:	102f883a 	mov	r23,r2
  80c524:	10bfffc4 	addi	r2,r2,-1
  80c528:	21403fcc 	andi	r5,r4,255
  80c52c:	2940201c 	xori	r5,r5,128
  80c530:	297fe004 	addi	r5,r5,-128
  80c534:	29bff726 	beq	r5,r6,80c514 <__alt_mem_onchip_mem+0xff804514>
  80c538:	21000044 	addi	r4,r4,1
  80c53c:	11000005 	stb	r4,0(r2)
  80c540:	a80b883a 	mov	r5,r21
  80c544:	e009883a 	mov	r4,fp
  80c548:	080dad80 	call	80dad8 <_Bfree>
  80c54c:	883ea026 	beq	r17,zero,80bfd0 <__alt_mem_onchip_mem+0xff803fd0>
  80c550:	90000426 	beq	r18,zero,80c564 <_dtoa_r+0xc3c>
  80c554:	94400326 	beq	r18,r17,80c564 <_dtoa_r+0xc3c>
  80c558:	900b883a 	mov	r5,r18
  80c55c:	e009883a 	mov	r4,fp
  80c560:	080dad80 	call	80dad8 <_Bfree>
  80c564:	880b883a 	mov	r5,r17
  80c568:	e009883a 	mov	r4,fp
  80c56c:	080dad80 	call	80dad8 <_Bfree>
  80c570:	003e9706 	br	80bfd0 <__alt_mem_onchip_mem+0xff803fd0>
  80c574:	01800044 	movi	r6,1
  80c578:	d9800e15 	stw	r6,56(sp)
  80c57c:	003d9606 	br	80bbd8 <__alt_mem_onchip_mem+0xff803bd8>
  80c580:	d8800817 	ldw	r2,32(sp)
  80c584:	d8c00517 	ldw	r3,20(sp)
  80c588:	d8000d15 	stw	zero,52(sp)
  80c58c:	10c5c83a 	sub	r2,r2,r3
  80c590:	00c9c83a 	sub	r4,zero,r3
  80c594:	d8800815 	stw	r2,32(sp)
  80c598:	d9000a15 	stw	r4,40(sp)
  80c59c:	003d9706 	br	80bbfc <__alt_mem_onchip_mem+0xff803bfc>
  80c5a0:	05adc83a 	sub	r22,zero,r22
  80c5a4:	dd800815 	stw	r22,32(sp)
  80c5a8:	002d883a 	mov	r22,zero
  80c5ac:	003d8e06 	br	80bbe8 <__alt_mem_onchip_mem+0xff803be8>
  80c5b0:	d9000517 	ldw	r4,20(sp)
  80c5b4:	08069c80 	call	8069c8 <__floatsidf>
  80c5b8:	100d883a 	mov	r6,r2
  80c5bc:	180f883a 	mov	r7,r3
  80c5c0:	a009883a 	mov	r4,r20
  80c5c4:	880b883a 	mov	r5,r17
  80c5c8:	08121880 	call	812188 <__eqdf2>
  80c5cc:	103d7126 	beq	r2,zero,80bb94 <__alt_mem_onchip_mem+0xff803b94>
  80c5d0:	d9c00517 	ldw	r7,20(sp)
  80c5d4:	39ffffc4 	addi	r7,r7,-1
  80c5d8:	d9c00515 	stw	r7,20(sp)
  80c5dc:	003d6d06 	br	80bb94 <__alt_mem_onchip_mem+0xff803b94>
  80c5e0:	dd400a17 	ldw	r21,40(sp)
  80c5e4:	dd000817 	ldw	r20,32(sp)
  80c5e8:	0023883a 	mov	r17,zero
  80c5ec:	003f4806 	br	80c310 <__alt_mem_onchip_mem+0xff804310>
  80c5f0:	10e3c83a 	sub	r17,r2,r3
  80c5f4:	9448983a 	sll	r4,r18,r17
  80c5f8:	003d3206 	br	80bac4 <__alt_mem_onchip_mem+0xff803ac4>
  80c5fc:	d8000e15 	stw	zero,56(sp)
  80c600:	003d7506 	br	80bbd8 <__alt_mem_onchip_mem+0xff803bd8>
  80c604:	b005883a 	mov	r2,r22
  80c608:	003f4506 	br	80c320 <__alt_mem_onchip_mem+0xff804320>
  80c60c:	dc000915 	stw	r16,36(sp)
  80c610:	d9800a17 	ldw	r6,40(sp)
  80c614:	d9400917 	ldw	r5,36(sp)
  80c618:	e009883a 	mov	r4,fp
  80c61c:	080e0700 	call	80e070 <__pow5mult>
  80c620:	1021883a 	mov	r16,r2
  80c624:	003f5a06 	br	80c390 <__alt_mem_onchip_mem+0xff804390>
  80c628:	01c00044 	movi	r7,1
  80c62c:	d9c00b15 	stw	r7,44(sp)
  80c630:	d8802217 	ldw	r2,136(sp)
  80c634:	0081280e 	bge	zero,r2,80cad8 <_dtoa_r+0x11b0>
  80c638:	100d883a 	mov	r6,r2
  80c63c:	1021883a 	mov	r16,r2
  80c640:	d8800c15 	stw	r2,48(sp)
  80c644:	d8800615 	stw	r2,24(sp)
  80c648:	003d8806 	br	80bc6c <__alt_mem_onchip_mem+0xff803c6c>
  80c64c:	d8800617 	ldw	r2,24(sp)
  80c650:	00be9b16 	blt	zero,r2,80c0c0 <__alt_mem_onchip_mem+0xff8040c0>
  80c654:	10010f1e 	bne	r2,zero,80ca94 <_dtoa_r+0x116c>
  80c658:	880b883a 	mov	r5,r17
  80c65c:	000d883a 	mov	r6,zero
  80c660:	01d00534 	movhi	r7,16404
  80c664:	8009883a 	mov	r4,r16
  80c668:	08122100 	call	812210 <__muldf3>
  80c66c:	900d883a 	mov	r6,r18
  80c670:	980f883a 	mov	r7,r19
  80c674:	1009883a 	mov	r4,r2
  80c678:	180b883a 	mov	r5,r3
  80c67c:	0805efc0 	call	805efc <__gedf2>
  80c680:	002b883a 	mov	r21,zero
  80c684:	0023883a 	mov	r17,zero
  80c688:	1000bf16 	blt	r2,zero,80c988 <_dtoa_r+0x1060>
  80c68c:	d9802217 	ldw	r6,136(sp)
  80c690:	ddc00717 	ldw	r23,28(sp)
  80c694:	018c303a 	nor	r6,zero,r6
  80c698:	d9800515 	stw	r6,20(sp)
  80c69c:	a80b883a 	mov	r5,r21
  80c6a0:	e009883a 	mov	r4,fp
  80c6a4:	080dad80 	call	80dad8 <_Bfree>
  80c6a8:	883e4926 	beq	r17,zero,80bfd0 <__alt_mem_onchip_mem+0xff803fd0>
  80c6ac:	003fad06 	br	80c564 <__alt_mem_onchip_mem+0xff804564>
  80c6b0:	d9c01117 	ldw	r7,68(sp)
  80c6b4:	3801bc26 	beq	r7,zero,80cda8 <_dtoa_r+0x1480>
  80c6b8:	10810cc4 	addi	r2,r2,1075
  80c6bc:	dd400a17 	ldw	r21,40(sp)
  80c6c0:	dd000817 	ldw	r20,32(sp)
  80c6c4:	003f0a06 	br	80c2f0 <__alt_mem_onchip_mem+0xff8042f0>
  80c6c8:	00800704 	movi	r2,28
  80c6cc:	d9000817 	ldw	r4,32(sp)
  80c6d0:	a0a9883a 	add	r20,r20,r2
  80c6d4:	b0ad883a 	add	r22,r22,r2
  80c6d8:	2089883a 	add	r4,r4,r2
  80c6dc:	d9000815 	stw	r4,32(sp)
  80c6e0:	003f5106 	br	80c428 <__alt_mem_onchip_mem+0xff804428>
  80c6e4:	d8c00317 	ldw	r3,12(sp)
  80c6e8:	b8c1fc0e 	bge	r23,r3,80cedc <_dtoa_r+0x15b4>
  80c6ec:	0027883a 	mov	r19,zero
  80c6f0:	b805883a 	mov	r2,r23
  80c6f4:	003f3e06 	br	80c3f0 <__alt_mem_onchip_mem+0xff8043f0>
  80c6f8:	880b883a 	mov	r5,r17
  80c6fc:	e009883a 	mov	r4,fp
  80c700:	000f883a 	mov	r7,zero
  80c704:	01800284 	movi	r6,10
  80c708:	080db000 	call	80db00 <__multadd>
  80c70c:	d9000c17 	ldw	r4,48(sp)
  80c710:	1023883a 	mov	r17,r2
  80c714:	0102040e 	bge	zero,r4,80cf28 <_dtoa_r+0x1600>
  80c718:	d9000615 	stw	r4,24(sp)
  80c71c:	0500050e 	bge	zero,r20,80c734 <_dtoa_r+0xe0c>
  80c720:	880b883a 	mov	r5,r17
  80c724:	a00d883a 	mov	r6,r20
  80c728:	e009883a 	mov	r4,fp
  80c72c:	080e1b00 	call	80e1b0 <__lshift>
  80c730:	1023883a 	mov	r17,r2
  80c734:	9801241e 	bne	r19,zero,80cbc8 <_dtoa_r+0x12a0>
  80c738:	8829883a 	mov	r20,r17
  80c73c:	d9000617 	ldw	r4,24(sp)
  80c740:	dcc00717 	ldw	r19,28(sp)
  80c744:	9480004c 	andi	r18,r18,1
  80c748:	20bfffc4 	addi	r2,r4,-1
  80c74c:	9885883a 	add	r2,r19,r2
  80c750:	d8800415 	stw	r2,16(sp)
  80c754:	dc800615 	stw	r18,24(sp)
  80c758:	a80b883a 	mov	r5,r21
  80c75c:	8009883a 	mov	r4,r16
  80c760:	080b7280 	call	80b728 <quorem>
  80c764:	880b883a 	mov	r5,r17
  80c768:	8009883a 	mov	r4,r16
  80c76c:	102f883a 	mov	r23,r2
  80c770:	080e2f80 	call	80e2f8 <__mcmp>
  80c774:	a80b883a 	mov	r5,r21
  80c778:	a00d883a 	mov	r6,r20
  80c77c:	e009883a 	mov	r4,fp
  80c780:	102d883a 	mov	r22,r2
  80c784:	080e3580 	call	80e358 <__mdiff>
  80c788:	1007883a 	mov	r3,r2
  80c78c:	10800317 	ldw	r2,12(r2)
  80c790:	bc800c04 	addi	r18,r23,48
  80c794:	180b883a 	mov	r5,r3
  80c798:	10004e1e 	bne	r2,zero,80c8d4 <_dtoa_r+0xfac>
  80c79c:	8009883a 	mov	r4,r16
  80c7a0:	d8c01615 	stw	r3,88(sp)
  80c7a4:	080e2f80 	call	80e2f8 <__mcmp>
  80c7a8:	d8c01617 	ldw	r3,88(sp)
  80c7ac:	e009883a 	mov	r4,fp
  80c7b0:	d8801615 	stw	r2,88(sp)
  80c7b4:	180b883a 	mov	r5,r3
  80c7b8:	080dad80 	call	80dad8 <_Bfree>
  80c7bc:	d8801617 	ldw	r2,88(sp)
  80c7c0:	1000041e 	bne	r2,zero,80c7d4 <_dtoa_r+0xeac>
  80c7c4:	d9800317 	ldw	r6,12(sp)
  80c7c8:	3000021e 	bne	r6,zero,80c7d4 <_dtoa_r+0xeac>
  80c7cc:	d8c00617 	ldw	r3,24(sp)
  80c7d0:	18003726 	beq	r3,zero,80c8b0 <_dtoa_r+0xf88>
  80c7d4:	b0002016 	blt	r22,zero,80c858 <_dtoa_r+0xf30>
  80c7d8:	b000041e 	bne	r22,zero,80c7ec <_dtoa_r+0xec4>
  80c7dc:	d9000317 	ldw	r4,12(sp)
  80c7e0:	2000021e 	bne	r4,zero,80c7ec <_dtoa_r+0xec4>
  80c7e4:	d8c00617 	ldw	r3,24(sp)
  80c7e8:	18001b26 	beq	r3,zero,80c858 <_dtoa_r+0xf30>
  80c7ec:	00810716 	blt	zero,r2,80cc0c <_dtoa_r+0x12e4>
  80c7f0:	d8c00417 	ldw	r3,16(sp)
  80c7f4:	9d800044 	addi	r22,r19,1
  80c7f8:	9c800005 	stb	r18,0(r19)
  80c7fc:	b02f883a 	mov	r23,r22
  80c800:	98c10626 	beq	r19,r3,80cc1c <_dtoa_r+0x12f4>
  80c804:	800b883a 	mov	r5,r16
  80c808:	000f883a 	mov	r7,zero
  80c80c:	01800284 	movi	r6,10
  80c810:	e009883a 	mov	r4,fp
  80c814:	080db000 	call	80db00 <__multadd>
  80c818:	1021883a 	mov	r16,r2
  80c81c:	000f883a 	mov	r7,zero
  80c820:	01800284 	movi	r6,10
  80c824:	880b883a 	mov	r5,r17
  80c828:	e009883a 	mov	r4,fp
  80c82c:	8d002526 	beq	r17,r20,80c8c4 <_dtoa_r+0xf9c>
  80c830:	080db000 	call	80db00 <__multadd>
  80c834:	a00b883a 	mov	r5,r20
  80c838:	000f883a 	mov	r7,zero
  80c83c:	01800284 	movi	r6,10
  80c840:	e009883a 	mov	r4,fp
  80c844:	1023883a 	mov	r17,r2
  80c848:	080db000 	call	80db00 <__multadd>
  80c84c:	1029883a 	mov	r20,r2
  80c850:	b027883a 	mov	r19,r22
  80c854:	003fc006 	br	80c758 <__alt_mem_onchip_mem+0xff804758>
  80c858:	9011883a 	mov	r8,r18
  80c85c:	00800e0e 	bge	zero,r2,80c898 <_dtoa_r+0xf70>
  80c860:	800b883a 	mov	r5,r16
  80c864:	01800044 	movi	r6,1
  80c868:	e009883a 	mov	r4,fp
  80c86c:	da001715 	stw	r8,92(sp)
  80c870:	080e1b00 	call	80e1b0 <__lshift>
  80c874:	a80b883a 	mov	r5,r21
  80c878:	1009883a 	mov	r4,r2
  80c87c:	1021883a 	mov	r16,r2
  80c880:	080e2f80 	call	80e2f8 <__mcmp>
  80c884:	da001717 	ldw	r8,92(sp)
  80c888:	0081960e 	bge	zero,r2,80cee4 <_dtoa_r+0x15bc>
  80c88c:	00800e44 	movi	r2,57
  80c890:	40817026 	beq	r8,r2,80ce54 <_dtoa_r+0x152c>
  80c894:	ba000c44 	addi	r8,r23,49
  80c898:	8825883a 	mov	r18,r17
  80c89c:	9dc00044 	addi	r23,r19,1
  80c8a0:	9a000005 	stb	r8,0(r19)
  80c8a4:	a023883a 	mov	r17,r20
  80c8a8:	dc000915 	stw	r16,36(sp)
  80c8ac:	003f2406 	br	80c540 <__alt_mem_onchip_mem+0xff804540>
  80c8b0:	00800e44 	movi	r2,57
  80c8b4:	9011883a 	mov	r8,r18
  80c8b8:	90816626 	beq	r18,r2,80ce54 <_dtoa_r+0x152c>
  80c8bc:	05bff516 	blt	zero,r22,80c894 <__alt_mem_onchip_mem+0xff804894>
  80c8c0:	003ff506 	br	80c898 <__alt_mem_onchip_mem+0xff804898>
  80c8c4:	080db000 	call	80db00 <__multadd>
  80c8c8:	1023883a 	mov	r17,r2
  80c8cc:	1029883a 	mov	r20,r2
  80c8d0:	003fdf06 	br	80c850 <__alt_mem_onchip_mem+0xff804850>
  80c8d4:	e009883a 	mov	r4,fp
  80c8d8:	080dad80 	call	80dad8 <_Bfree>
  80c8dc:	00800044 	movi	r2,1
  80c8e0:	003fbc06 	br	80c7d4 <__alt_mem_onchip_mem+0xff8047d4>
  80c8e4:	a80b883a 	mov	r5,r21
  80c8e8:	8009883a 	mov	r4,r16
  80c8ec:	080e2f80 	call	80e2f8 <__mcmp>
  80c8f0:	103edb0e 	bge	r2,zero,80c460 <__alt_mem_onchip_mem+0xff804460>
  80c8f4:	800b883a 	mov	r5,r16
  80c8f8:	000f883a 	mov	r7,zero
  80c8fc:	01800284 	movi	r6,10
  80c900:	e009883a 	mov	r4,fp
  80c904:	080db000 	call	80db00 <__multadd>
  80c908:	1021883a 	mov	r16,r2
  80c90c:	d8800517 	ldw	r2,20(sp)
  80c910:	d8c00b17 	ldw	r3,44(sp)
  80c914:	10bfffc4 	addi	r2,r2,-1
  80c918:	d8800515 	stw	r2,20(sp)
  80c91c:	183f761e 	bne	r3,zero,80c6f8 <__alt_mem_onchip_mem+0xff8046f8>
  80c920:	d9000c17 	ldw	r4,48(sp)
  80c924:	0101730e 	bge	zero,r4,80cef4 <_dtoa_r+0x15cc>
  80c928:	d9000615 	stw	r4,24(sp)
  80c92c:	003ed006 	br	80c470 <__alt_mem_onchip_mem+0xff804470>
  80c930:	00800084 	movi	r2,2
  80c934:	3081861e 	bne	r6,r2,80cf50 <_dtoa_r+0x1628>
  80c938:	d8000b15 	stw	zero,44(sp)
  80c93c:	003f3c06 	br	80c630 <__alt_mem_onchip_mem+0xff804630>
  80c940:	dc000917 	ldw	r16,36(sp)
  80c944:	003e9206 	br	80c390 <__alt_mem_onchip_mem+0xff804390>
  80c948:	d9c00317 	ldw	r7,12(sp)
  80c94c:	00800084 	movi	r2,2
  80c950:	11fec50e 	bge	r2,r7,80c468 <__alt_mem_onchip_mem+0xff804468>
  80c954:	d9000617 	ldw	r4,24(sp)
  80c958:	20013c1e 	bne	r4,zero,80ce4c <_dtoa_r+0x1524>
  80c95c:	a80b883a 	mov	r5,r21
  80c960:	000f883a 	mov	r7,zero
  80c964:	01800144 	movi	r6,5
  80c968:	e009883a 	mov	r4,fp
  80c96c:	080db000 	call	80db00 <__multadd>
  80c970:	100b883a 	mov	r5,r2
  80c974:	8009883a 	mov	r4,r16
  80c978:	102b883a 	mov	r21,r2
  80c97c:	080e2f80 	call	80e2f8 <__mcmp>
  80c980:	dc000915 	stw	r16,36(sp)
  80c984:	00bf410e 	bge	zero,r2,80c68c <__alt_mem_onchip_mem+0xff80468c>
  80c988:	d9c00717 	ldw	r7,28(sp)
  80c98c:	00800c44 	movi	r2,49
  80c990:	38800005 	stb	r2,0(r7)
  80c994:	d8800517 	ldw	r2,20(sp)
  80c998:	3dc00044 	addi	r23,r7,1
  80c99c:	10800044 	addi	r2,r2,1
  80c9a0:	d8800515 	stw	r2,20(sp)
  80c9a4:	003f3d06 	br	80c69c <__alt_mem_onchip_mem+0xff80469c>
  80c9a8:	d9800517 	ldw	r6,20(sp)
  80c9ac:	d9c00717 	ldw	r7,28(sp)
  80c9b0:	00800c44 	movi	r2,49
  80c9b4:	31800044 	addi	r6,r6,1
  80c9b8:	d9800515 	stw	r6,20(sp)
  80c9bc:	38800005 	stb	r2,0(r7)
  80c9c0:	003edf06 	br	80c540 <__alt_mem_onchip_mem+0xff804540>
  80c9c4:	d8000b15 	stw	zero,44(sp)
  80c9c8:	003c9f06 	br	80bc48 <__alt_mem_onchip_mem+0xff803c48>
  80c9cc:	903e7e1e 	bne	r18,zero,80c3c8 <__alt_mem_onchip_mem+0xff8043c8>
  80c9d0:	00800434 	movhi	r2,16
  80c9d4:	10bfffc4 	addi	r2,r2,-1
  80c9d8:	9884703a 	and	r2,r19,r2
  80c9dc:	1000ea1e 	bne	r2,zero,80cd88 <_dtoa_r+0x1460>
  80c9e0:	9cdffc2c 	andhi	r19,r19,32752
  80c9e4:	9800e826 	beq	r19,zero,80cd88 <_dtoa_r+0x1460>
  80c9e8:	d9c00817 	ldw	r7,32(sp)
  80c9ec:	b5800044 	addi	r22,r22,1
  80c9f0:	04c00044 	movi	r19,1
  80c9f4:	39c00044 	addi	r7,r7,1
  80c9f8:	d9c00815 	stw	r7,32(sp)
  80c9fc:	d8800d17 	ldw	r2,52(sp)
  80ca00:	103e721e 	bne	r2,zero,80c3cc <__alt_mem_onchip_mem+0xff8043cc>
  80ca04:	00800044 	movi	r2,1
  80ca08:	003e7906 	br	80c3f0 <__alt_mem_onchip_mem+0xff8043f0>
  80ca0c:	8009883a 	mov	r4,r16
  80ca10:	08069c80 	call	8069c8 <__floatsidf>
  80ca14:	d9800f17 	ldw	r6,60(sp)
  80ca18:	d9c01017 	ldw	r7,64(sp)
  80ca1c:	1009883a 	mov	r4,r2
  80ca20:	180b883a 	mov	r5,r3
  80ca24:	08122100 	call	812210 <__muldf3>
  80ca28:	000d883a 	mov	r6,zero
  80ca2c:	01d00734 	movhi	r7,16412
  80ca30:	1009883a 	mov	r4,r2
  80ca34:	180b883a 	mov	r5,r3
  80ca38:	08056500 	call	805650 <__adddf3>
  80ca3c:	047f3034 	movhi	r17,64704
  80ca40:	1021883a 	mov	r16,r2
  80ca44:	1c63883a 	add	r17,r3,r17
  80ca48:	d9000f17 	ldw	r4,60(sp)
  80ca4c:	d9401017 	ldw	r5,64(sp)
  80ca50:	000d883a 	mov	r6,zero
  80ca54:	01d00534 	movhi	r7,16404
  80ca58:	08060cc0 	call	8060cc <__subdf3>
  80ca5c:	800d883a 	mov	r6,r16
  80ca60:	880f883a 	mov	r7,r17
  80ca64:	1009883a 	mov	r4,r2
  80ca68:	180b883a 	mov	r5,r3
  80ca6c:	102b883a 	mov	r21,r2
  80ca70:	1829883a 	mov	r20,r3
  80ca74:	0805efc0 	call	805efc <__gedf2>
  80ca78:	00806c16 	blt	zero,r2,80cc2c <_dtoa_r+0x1304>
  80ca7c:	89e0003c 	xorhi	r7,r17,32768
  80ca80:	800d883a 	mov	r6,r16
  80ca84:	a809883a 	mov	r4,r21
  80ca88:	a00b883a 	mov	r5,r20
  80ca8c:	0805fd80 	call	805fd8 <__ledf2>
  80ca90:	103d7e0e 	bge	r2,zero,80c08c <__alt_mem_onchip_mem+0xff80408c>
  80ca94:	002b883a 	mov	r21,zero
  80ca98:	0023883a 	mov	r17,zero
  80ca9c:	003efb06 	br	80c68c <__alt_mem_onchip_mem+0xff80468c>
  80caa0:	d8800717 	ldw	r2,28(sp)
  80caa4:	003bd006 	br	80b9e8 <__alt_mem_onchip_mem+0xff8039e8>
  80caa8:	d9000a17 	ldw	r4,40(sp)
  80caac:	d9800d17 	ldw	r6,52(sp)
  80cab0:	dd400a15 	stw	r21,40(sp)
  80cab4:	a905c83a 	sub	r2,r21,r4
  80cab8:	308d883a 	add	r6,r6,r2
  80cabc:	d9800d15 	stw	r6,52(sp)
  80cac0:	002b883a 	mov	r21,zero
  80cac4:	003e0606 	br	80c2e0 <__alt_mem_onchip_mem+0xff8042e0>
  80cac8:	9023883a 	mov	r17,r18
  80cacc:	9829883a 	mov	r20,r19
  80cad0:	04000084 	movi	r16,2
  80cad4:	003c9206 	br	80bd20 <__alt_mem_onchip_mem+0xff803d20>
  80cad8:	04000044 	movi	r16,1
  80cadc:	dc000c15 	stw	r16,48(sp)
  80cae0:	dc000615 	stw	r16,24(sp)
  80cae4:	dc002215 	stw	r16,136(sp)
  80cae8:	e0001115 	stw	zero,68(fp)
  80caec:	000b883a 	mov	r5,zero
  80caf0:	003c6906 	br	80bc98 <__alt_mem_onchip_mem+0xff803c98>
  80caf4:	3021883a 	mov	r16,r6
  80caf8:	003ffb06 	br	80cae8 <__alt_mem_onchip_mem+0xff804ae8>
  80cafc:	1000021e 	bne	r2,zero,80cb08 <_dtoa_r+0x11e0>
  80cb00:	4200004c 	andi	r8,r8,1
  80cb04:	403e7d1e 	bne	r8,zero,80c4fc <__alt_mem_onchip_mem+0xff8044fc>
  80cb08:	01000c04 	movi	r4,48
  80cb0c:	00000106 	br	80cb14 <_dtoa_r+0x11ec>
  80cb10:	102f883a 	mov	r23,r2
  80cb14:	b8bfffc4 	addi	r2,r23,-1
  80cb18:	10c00007 	ldb	r3,0(r2)
  80cb1c:	193ffc26 	beq	r3,r4,80cb10 <__alt_mem_onchip_mem+0xff804b10>
  80cb20:	003e8706 	br	80c540 <__alt_mem_onchip_mem+0xff804540>
  80cb24:	d8800517 	ldw	r2,20(sp)
  80cb28:	00a3c83a 	sub	r17,zero,r2
  80cb2c:	8800a426 	beq	r17,zero,80cdc0 <_dtoa_r+0x1498>
  80cb30:	888003cc 	andi	r2,r17,15
  80cb34:	100490fa 	slli	r2,r2,3
  80cb38:	00c02074 	movhi	r3,129
  80cb3c:	18dbda04 	addi	r3,r3,28520
  80cb40:	1885883a 	add	r2,r3,r2
  80cb44:	11800017 	ldw	r6,0(r2)
  80cb48:	11c00117 	ldw	r7,4(r2)
  80cb4c:	9009883a 	mov	r4,r18
  80cb50:	980b883a 	mov	r5,r19
  80cb54:	8823d13a 	srai	r17,r17,4
  80cb58:	08122100 	call	812210 <__muldf3>
  80cb5c:	d8800f15 	stw	r2,60(sp)
  80cb60:	d8c01015 	stw	r3,64(sp)
  80cb64:	8800e826 	beq	r17,zero,80cf08 <_dtoa_r+0x15e0>
  80cb68:	05002074 	movhi	r20,129
  80cb6c:	a51bd004 	addi	r20,r20,28480
  80cb70:	04000084 	movi	r16,2
  80cb74:	8980004c 	andi	r6,r17,1
  80cb78:	1009883a 	mov	r4,r2
  80cb7c:	8823d07a 	srai	r17,r17,1
  80cb80:	180b883a 	mov	r5,r3
  80cb84:	30000426 	beq	r6,zero,80cb98 <_dtoa_r+0x1270>
  80cb88:	a1800017 	ldw	r6,0(r20)
  80cb8c:	a1c00117 	ldw	r7,4(r20)
  80cb90:	84000044 	addi	r16,r16,1
  80cb94:	08122100 	call	812210 <__muldf3>
  80cb98:	a5000204 	addi	r20,r20,8
  80cb9c:	883ff51e 	bne	r17,zero,80cb74 <__alt_mem_onchip_mem+0xff804b74>
  80cba0:	d8800f15 	stw	r2,60(sp)
  80cba4:	d8c01015 	stw	r3,64(sp)
  80cba8:	003c7606 	br	80bd84 <__alt_mem_onchip_mem+0xff803d84>
  80cbac:	00c00c04 	movi	r3,48
  80cbb0:	10c00005 	stb	r3,0(r2)
  80cbb4:	d8c00517 	ldw	r3,20(sp)
  80cbb8:	bd3fffc3 	ldbu	r20,-1(r23)
  80cbbc:	18c00044 	addi	r3,r3,1
  80cbc0:	d8c00515 	stw	r3,20(sp)
  80cbc4:	003db906 	br	80c2ac <__alt_mem_onchip_mem+0xff8042ac>
  80cbc8:	89400117 	ldw	r5,4(r17)
  80cbcc:	e009883a 	mov	r4,fp
  80cbd0:	080da300 	call	80da30 <_Balloc>
  80cbd4:	89800417 	ldw	r6,16(r17)
  80cbd8:	89400304 	addi	r5,r17,12
  80cbdc:	11000304 	addi	r4,r2,12
  80cbe0:	31800084 	addi	r6,r6,2
  80cbe4:	318d883a 	add	r6,r6,r6
  80cbe8:	318d883a 	add	r6,r6,r6
  80cbec:	1027883a 	mov	r19,r2
  80cbf0:	080d78c0 	call	80d78c <memcpy>
  80cbf4:	01800044 	movi	r6,1
  80cbf8:	980b883a 	mov	r5,r19
  80cbfc:	e009883a 	mov	r4,fp
  80cc00:	080e1b00 	call	80e1b0 <__lshift>
  80cc04:	1029883a 	mov	r20,r2
  80cc08:	003ecc06 	br	80c73c <__alt_mem_onchip_mem+0xff80473c>
  80cc0c:	00800e44 	movi	r2,57
  80cc10:	90809026 	beq	r18,r2,80ce54 <_dtoa_r+0x152c>
  80cc14:	92000044 	addi	r8,r18,1
  80cc18:	003f1f06 	br	80c898 <__alt_mem_onchip_mem+0xff804898>
  80cc1c:	9011883a 	mov	r8,r18
  80cc20:	8825883a 	mov	r18,r17
  80cc24:	a023883a 	mov	r17,r20
  80cc28:	003e2906 	br	80c4d0 <__alt_mem_onchip_mem+0xff8044d0>
  80cc2c:	002b883a 	mov	r21,zero
  80cc30:	0023883a 	mov	r17,zero
  80cc34:	003f5406 	br	80c988 <__alt_mem_onchip_mem+0xff804988>
  80cc38:	61bfffc4 	addi	r6,r12,-1
  80cc3c:	300490fa 	slli	r2,r6,3
  80cc40:	00c02074 	movhi	r3,129
  80cc44:	18dbda04 	addi	r3,r3,28520
  80cc48:	1885883a 	add	r2,r3,r2
  80cc4c:	11000017 	ldw	r4,0(r2)
  80cc50:	11400117 	ldw	r5,4(r2)
  80cc54:	d8800717 	ldw	r2,28(sp)
  80cc58:	880f883a 	mov	r7,r17
  80cc5c:	d9801215 	stw	r6,72(sp)
  80cc60:	800d883a 	mov	r6,r16
  80cc64:	db001615 	stw	r12,88(sp)
  80cc68:	15c00044 	addi	r23,r2,1
  80cc6c:	08122100 	call	812210 <__muldf3>
  80cc70:	d9401017 	ldw	r5,64(sp)
  80cc74:	d9000f17 	ldw	r4,60(sp)
  80cc78:	d8c01515 	stw	r3,84(sp)
  80cc7c:	d8801415 	stw	r2,80(sp)
  80cc80:	08129280 	call	812928 <__fixdfsi>
  80cc84:	1009883a 	mov	r4,r2
  80cc88:	1021883a 	mov	r16,r2
  80cc8c:	08069c80 	call	8069c8 <__floatsidf>
  80cc90:	d9000f17 	ldw	r4,60(sp)
  80cc94:	d9401017 	ldw	r5,64(sp)
  80cc98:	100d883a 	mov	r6,r2
  80cc9c:	180f883a 	mov	r7,r3
  80cca0:	08060cc0 	call	8060cc <__subdf3>
  80cca4:	1829883a 	mov	r20,r3
  80cca8:	d8c00717 	ldw	r3,28(sp)
  80ccac:	84000c04 	addi	r16,r16,48
  80ccb0:	1023883a 	mov	r17,r2
  80ccb4:	1c000005 	stb	r16,0(r3)
  80ccb8:	db001617 	ldw	r12,88(sp)
  80ccbc:	00800044 	movi	r2,1
  80ccc0:	60802226 	beq	r12,r2,80cd4c <_dtoa_r+0x1424>
  80ccc4:	d9c00717 	ldw	r7,28(sp)
  80ccc8:	8805883a 	mov	r2,r17
  80cccc:	b82b883a 	mov	r21,r23
  80ccd0:	3b19883a 	add	r12,r7,r12
  80ccd4:	6023883a 	mov	r17,r12
  80ccd8:	a007883a 	mov	r3,r20
  80ccdc:	dc800f15 	stw	r18,60(sp)
  80cce0:	000d883a 	mov	r6,zero
  80cce4:	01d00934 	movhi	r7,16420
  80cce8:	1009883a 	mov	r4,r2
  80ccec:	180b883a 	mov	r5,r3
  80ccf0:	08122100 	call	812210 <__muldf3>
  80ccf4:	180b883a 	mov	r5,r3
  80ccf8:	1009883a 	mov	r4,r2
  80ccfc:	1829883a 	mov	r20,r3
  80cd00:	1025883a 	mov	r18,r2
  80cd04:	08129280 	call	812928 <__fixdfsi>
  80cd08:	1009883a 	mov	r4,r2
  80cd0c:	1021883a 	mov	r16,r2
  80cd10:	08069c80 	call	8069c8 <__floatsidf>
  80cd14:	100d883a 	mov	r6,r2
  80cd18:	180f883a 	mov	r7,r3
  80cd1c:	9009883a 	mov	r4,r18
  80cd20:	a00b883a 	mov	r5,r20
  80cd24:	84000c04 	addi	r16,r16,48
  80cd28:	08060cc0 	call	8060cc <__subdf3>
  80cd2c:	ad400044 	addi	r21,r21,1
  80cd30:	ac3fffc5 	stb	r16,-1(r21)
  80cd34:	ac7fea1e 	bne	r21,r17,80cce0 <__alt_mem_onchip_mem+0xff804ce0>
  80cd38:	1023883a 	mov	r17,r2
  80cd3c:	d8801217 	ldw	r2,72(sp)
  80cd40:	dc800f17 	ldw	r18,60(sp)
  80cd44:	1829883a 	mov	r20,r3
  80cd48:	b8af883a 	add	r23,r23,r2
  80cd4c:	d9001417 	ldw	r4,80(sp)
  80cd50:	d9401517 	ldw	r5,84(sp)
  80cd54:	000d883a 	mov	r6,zero
  80cd58:	01cff834 	movhi	r7,16352
  80cd5c:	08056500 	call	805650 <__adddf3>
  80cd60:	880d883a 	mov	r6,r17
  80cd64:	a00f883a 	mov	r7,r20
  80cd68:	1009883a 	mov	r4,r2
  80cd6c:	180b883a 	mov	r5,r3
  80cd70:	0805fd80 	call	805fd8 <__ledf2>
  80cd74:	10003e0e 	bge	r2,zero,80ce70 <_dtoa_r+0x1548>
  80cd78:	d9001317 	ldw	r4,76(sp)
  80cd7c:	bd3fffc3 	ldbu	r20,-1(r23)
  80cd80:	d9000515 	stw	r4,20(sp)
  80cd84:	003d3b06 	br	80c274 <__alt_mem_onchip_mem+0xff804274>
  80cd88:	0027883a 	mov	r19,zero
  80cd8c:	003f1b06 	br	80c9fc <__alt_mem_onchip_mem+0xff8049fc>
  80cd90:	d8800817 	ldw	r2,32(sp)
  80cd94:	11e9c83a 	sub	r20,r2,r7
  80cd98:	0005883a 	mov	r2,zero
  80cd9c:	003d5406 	br	80c2f0 <__alt_mem_onchip_mem+0xff8042f0>
  80cda0:	00800044 	movi	r2,1
  80cda4:	003dc706 	br	80c4c4 <__alt_mem_onchip_mem+0xff8044c4>
  80cda8:	d8c00217 	ldw	r3,8(sp)
  80cdac:	00800d84 	movi	r2,54
  80cdb0:	dd400a17 	ldw	r21,40(sp)
  80cdb4:	10c5c83a 	sub	r2,r2,r3
  80cdb8:	dd000817 	ldw	r20,32(sp)
  80cdbc:	003d4c06 	br	80c2f0 <__alt_mem_onchip_mem+0xff8042f0>
  80cdc0:	dc800f15 	stw	r18,60(sp)
  80cdc4:	dcc01015 	stw	r19,64(sp)
  80cdc8:	04000084 	movi	r16,2
  80cdcc:	003bed06 	br	80bd84 <__alt_mem_onchip_mem+0xff803d84>
  80cdd0:	d9000617 	ldw	r4,24(sp)
  80cdd4:	203f0d26 	beq	r4,zero,80ca0c <__alt_mem_onchip_mem+0xff804a0c>
  80cdd8:	d9800c17 	ldw	r6,48(sp)
  80cddc:	01bcab0e 	bge	zero,r6,80c08c <__alt_mem_onchip_mem+0xff80408c>
  80cde0:	d9401017 	ldw	r5,64(sp)
  80cde4:	d9000f17 	ldw	r4,60(sp)
  80cde8:	000d883a 	mov	r6,zero
  80cdec:	01d00934 	movhi	r7,16420
  80cdf0:	08122100 	call	812210 <__muldf3>
  80cdf4:	81000044 	addi	r4,r16,1
  80cdf8:	d8800f15 	stw	r2,60(sp)
  80cdfc:	d8c01015 	stw	r3,64(sp)
  80ce00:	08069c80 	call	8069c8 <__floatsidf>
  80ce04:	d9800f17 	ldw	r6,60(sp)
  80ce08:	d9c01017 	ldw	r7,64(sp)
  80ce0c:	1009883a 	mov	r4,r2
  80ce10:	180b883a 	mov	r5,r3
  80ce14:	08122100 	call	812210 <__muldf3>
  80ce18:	01d00734 	movhi	r7,16412
  80ce1c:	000d883a 	mov	r6,zero
  80ce20:	1009883a 	mov	r4,r2
  80ce24:	180b883a 	mov	r5,r3
  80ce28:	08056500 	call	805650 <__adddf3>
  80ce2c:	d9c00517 	ldw	r7,20(sp)
  80ce30:	047f3034 	movhi	r17,64704
  80ce34:	1021883a 	mov	r16,r2
  80ce38:	39ffffc4 	addi	r7,r7,-1
  80ce3c:	d9c01315 	stw	r7,76(sp)
  80ce40:	1c63883a 	add	r17,r3,r17
  80ce44:	db000c17 	ldw	r12,48(sp)
  80ce48:	003bea06 	br	80bdf4 <__alt_mem_onchip_mem+0xff803df4>
  80ce4c:	dc000915 	stw	r16,36(sp)
  80ce50:	003e0e06 	br	80c68c <__alt_mem_onchip_mem+0xff80468c>
  80ce54:	01000e44 	movi	r4,57
  80ce58:	8825883a 	mov	r18,r17
  80ce5c:	9dc00044 	addi	r23,r19,1
  80ce60:	99000005 	stb	r4,0(r19)
  80ce64:	a023883a 	mov	r17,r20
  80ce68:	dc000915 	stw	r16,36(sp)
  80ce6c:	003da406 	br	80c500 <__alt_mem_onchip_mem+0xff804500>
  80ce70:	d9801417 	ldw	r6,80(sp)
  80ce74:	d9c01517 	ldw	r7,84(sp)
  80ce78:	0009883a 	mov	r4,zero
  80ce7c:	014ff834 	movhi	r5,16352
  80ce80:	08060cc0 	call	8060cc <__subdf3>
  80ce84:	880d883a 	mov	r6,r17
  80ce88:	a00f883a 	mov	r7,r20
  80ce8c:	1009883a 	mov	r4,r2
  80ce90:	180b883a 	mov	r5,r3
  80ce94:	0805efc0 	call	805efc <__gedf2>
  80ce98:	00bc7c0e 	bge	zero,r2,80c08c <__alt_mem_onchip_mem+0xff80408c>
  80ce9c:	01000c04 	movi	r4,48
  80cea0:	00000106 	br	80cea8 <_dtoa_r+0x1580>
  80cea4:	102f883a 	mov	r23,r2
  80cea8:	b8bfffc4 	addi	r2,r23,-1
  80ceac:	10c00007 	ldb	r3,0(r2)
  80ceb0:	193ffc26 	beq	r3,r4,80cea4 <__alt_mem_onchip_mem+0xff804ea4>
  80ceb4:	d9801317 	ldw	r6,76(sp)
  80ceb8:	d9800515 	stw	r6,20(sp)
  80cebc:	003c4406 	br	80bfd0 <__alt_mem_onchip_mem+0xff803fd0>
  80cec0:	d9801317 	ldw	r6,76(sp)
  80cec4:	d9800515 	stw	r6,20(sp)
  80cec8:	003cea06 	br	80c274 <__alt_mem_onchip_mem+0xff804274>
  80cecc:	dd800f17 	ldw	r22,60(sp)
  80ced0:	dcc01017 	ldw	r19,64(sp)
  80ced4:	dc801217 	ldw	r18,72(sp)
  80ced8:	003c6c06 	br	80c08c <__alt_mem_onchip_mem+0xff80408c>
  80cedc:	903e031e 	bne	r18,zero,80c6ec <__alt_mem_onchip_mem+0xff8046ec>
  80cee0:	003ebb06 	br	80c9d0 <__alt_mem_onchip_mem+0xff8049d0>
  80cee4:	103e6c1e 	bne	r2,zero,80c898 <__alt_mem_onchip_mem+0xff804898>
  80cee8:	4080004c 	andi	r2,r8,1
  80ceec:	103e6a26 	beq	r2,zero,80c898 <__alt_mem_onchip_mem+0xff804898>
  80cef0:	003e6606 	br	80c88c <__alt_mem_onchip_mem+0xff80488c>
  80cef4:	d8c00317 	ldw	r3,12(sp)
  80cef8:	00800084 	movi	r2,2
  80cefc:	10c02916 	blt	r2,r3,80cfa4 <_dtoa_r+0x167c>
  80cf00:	d9000c17 	ldw	r4,48(sp)
  80cf04:	003e8806 	br	80c928 <__alt_mem_onchip_mem+0xff804928>
  80cf08:	04000084 	movi	r16,2
  80cf0c:	003b9d06 	br	80bd84 <__alt_mem_onchip_mem+0xff803d84>
  80cf10:	d9001317 	ldw	r4,76(sp)
  80cf14:	d9000515 	stw	r4,20(sp)
  80cf18:	003cd606 	br	80c274 <__alt_mem_onchip_mem+0xff804274>
  80cf1c:	d8801317 	ldw	r2,76(sp)
  80cf20:	d8800515 	stw	r2,20(sp)
  80cf24:	003c2a06 	br	80bfd0 <__alt_mem_onchip_mem+0xff803fd0>
  80cf28:	d9800317 	ldw	r6,12(sp)
  80cf2c:	00800084 	movi	r2,2
  80cf30:	11801516 	blt	r2,r6,80cf88 <_dtoa_r+0x1660>
  80cf34:	d9c00c17 	ldw	r7,48(sp)
  80cf38:	d9c00615 	stw	r7,24(sp)
  80cf3c:	003df706 	br	80c71c <__alt_mem_onchip_mem+0xff80471c>
  80cf40:	193d3926 	beq	r3,r4,80c428 <__alt_mem_onchip_mem+0xff804428>
  80cf44:	00c00f04 	movi	r3,60
  80cf48:	1885c83a 	sub	r2,r3,r2
  80cf4c:	003ddf06 	br	80c6cc <__alt_mem_onchip_mem+0xff8046cc>
  80cf50:	e009883a 	mov	r4,fp
  80cf54:	e0001115 	stw	zero,68(fp)
  80cf58:	000b883a 	mov	r5,zero
  80cf5c:	080da300 	call	80da30 <_Balloc>
  80cf60:	d8800715 	stw	r2,28(sp)
  80cf64:	d8c00717 	ldw	r3,28(sp)
  80cf68:	00bfffc4 	movi	r2,-1
  80cf6c:	01000044 	movi	r4,1
  80cf70:	d8800c15 	stw	r2,48(sp)
  80cf74:	e0c01015 	stw	r3,64(fp)
  80cf78:	d9000b15 	stw	r4,44(sp)
  80cf7c:	d8800615 	stw	r2,24(sp)
  80cf80:	d8002215 	stw	zero,136(sp)
  80cf84:	003c4106 	br	80c08c <__alt_mem_onchip_mem+0xff80408c>
  80cf88:	d8c00c17 	ldw	r3,48(sp)
  80cf8c:	d8c00615 	stw	r3,24(sp)
  80cf90:	003e7006 	br	80c954 <__alt_mem_onchip_mem+0xff804954>
  80cf94:	04400044 	movi	r17,1
  80cf98:	003b2006 	br	80bc1c <__alt_mem_onchip_mem+0xff803c1c>
  80cf9c:	000b883a 	mov	r5,zero
  80cfa0:	003b3d06 	br	80bc98 <__alt_mem_onchip_mem+0xff803c98>
  80cfa4:	d8800c17 	ldw	r2,48(sp)
  80cfa8:	d8800615 	stw	r2,24(sp)
  80cfac:	003e6906 	br	80c954 <__alt_mem_onchip_mem+0xff804954>

0080cfb0 <__sflags>:
  80cfb0:	28800007 	ldb	r2,0(r5)
  80cfb4:	00c01c84 	movi	r3,114
  80cfb8:	10c02426 	beq	r2,r3,80d04c <__sflags+0x9c>
  80cfbc:	00c01dc4 	movi	r3,119
  80cfc0:	10c01e26 	beq	r2,r3,80d03c <__sflags+0x8c>
  80cfc4:	00c01844 	movi	r3,97
  80cfc8:	10c00426 	beq	r2,r3,80cfdc <__sflags+0x2c>
  80cfcc:	00800584 	movi	r2,22
  80cfd0:	20800015 	stw	r2,0(r4)
  80cfd4:	0005883a 	mov	r2,zero
  80cfd8:	f800283a 	ret
  80cfdc:	02c08204 	movi	r11,520
  80cfe0:	01000044 	movi	r4,1
  80cfe4:	00804204 	movi	r2,264
  80cfe8:	01c00ac4 	movi	r7,43
  80cfec:	02bff8c4 	movi	r10,-29
  80cff0:	027fff04 	movi	r9,-4
  80cff4:	02001e04 	movi	r8,120
  80cff8:	29400044 	addi	r5,r5,1
  80cffc:	28c00007 	ldb	r3,0(r5)
  80d000:	18000626 	beq	r3,zero,80d01c <__sflags+0x6c>
  80d004:	19c00826 	beq	r3,r7,80d028 <__sflags+0x78>
  80d008:	1a3ffb1e 	bne	r3,r8,80cff8 <__alt_mem_onchip_mem+0xff804ff8>
  80d00c:	29400044 	addi	r5,r5,1
  80d010:	28c00007 	ldb	r3,0(r5)
  80d014:	21020014 	ori	r4,r4,2048
  80d018:	183ffa1e 	bne	r3,zero,80d004 <__alt_mem_onchip_mem+0xff805004>
  80d01c:	22c8b03a 	or	r4,r4,r11
  80d020:	31000015 	stw	r4,0(r6)
  80d024:	f800283a 	ret
  80d028:	1284703a 	and	r2,r2,r10
  80d02c:	2248703a 	and	r4,r4,r9
  80d030:	10800414 	ori	r2,r2,16
  80d034:	21000094 	ori	r4,r4,2
  80d038:	003fef06 	br	80cff8 <__alt_mem_onchip_mem+0xff804ff8>
  80d03c:	02c18004 	movi	r11,1536
  80d040:	01000044 	movi	r4,1
  80d044:	00800204 	movi	r2,8
  80d048:	003fe706 	br	80cfe8 <__alt_mem_onchip_mem+0xff804fe8>
  80d04c:	0017883a 	mov	r11,zero
  80d050:	0009883a 	mov	r4,zero
  80d054:	00800104 	movi	r2,4
  80d058:	003fe306 	br	80cfe8 <__alt_mem_onchip_mem+0xff804fe8>

0080d05c <__sfvwrite_r>:
  80d05c:	30800217 	ldw	r2,8(r6)
  80d060:	10006726 	beq	r2,zero,80d200 <__sfvwrite_r+0x1a4>
  80d064:	28c0030b 	ldhu	r3,12(r5)
  80d068:	defff404 	addi	sp,sp,-48
  80d06c:	dd400715 	stw	r21,28(sp)
  80d070:	dd000615 	stw	r20,24(sp)
  80d074:	dc000215 	stw	r16,8(sp)
  80d078:	dfc00b15 	stw	ra,44(sp)
  80d07c:	df000a15 	stw	fp,40(sp)
  80d080:	ddc00915 	stw	r23,36(sp)
  80d084:	dd800815 	stw	r22,32(sp)
  80d088:	dcc00515 	stw	r19,20(sp)
  80d08c:	dc800415 	stw	r18,16(sp)
  80d090:	dc400315 	stw	r17,12(sp)
  80d094:	1880020c 	andi	r2,r3,8
  80d098:	2821883a 	mov	r16,r5
  80d09c:	202b883a 	mov	r21,r4
  80d0a0:	3029883a 	mov	r20,r6
  80d0a4:	10002726 	beq	r2,zero,80d144 <__sfvwrite_r+0xe8>
  80d0a8:	28800417 	ldw	r2,16(r5)
  80d0ac:	10002526 	beq	r2,zero,80d144 <__sfvwrite_r+0xe8>
  80d0b0:	1880008c 	andi	r2,r3,2
  80d0b4:	a4400017 	ldw	r17,0(r20)
  80d0b8:	10002a26 	beq	r2,zero,80d164 <__sfvwrite_r+0x108>
  80d0bc:	05a00034 	movhi	r22,32768
  80d0c0:	0027883a 	mov	r19,zero
  80d0c4:	0025883a 	mov	r18,zero
  80d0c8:	b5bf0004 	addi	r22,r22,-1024
  80d0cc:	980d883a 	mov	r6,r19
  80d0d0:	a809883a 	mov	r4,r21
  80d0d4:	90004626 	beq	r18,zero,80d1f0 <__sfvwrite_r+0x194>
  80d0d8:	900f883a 	mov	r7,r18
  80d0dc:	b480022e 	bgeu	r22,r18,80d0e8 <__sfvwrite_r+0x8c>
  80d0e0:	01e00034 	movhi	r7,32768
  80d0e4:	39ff0004 	addi	r7,r7,-1024
  80d0e8:	80800917 	ldw	r2,36(r16)
  80d0ec:	81400717 	ldw	r5,28(r16)
  80d0f0:	103ee83a 	callr	r2
  80d0f4:	0080570e 	bge	zero,r2,80d254 <__sfvwrite_r+0x1f8>
  80d0f8:	a0c00217 	ldw	r3,8(r20)
  80d0fc:	98a7883a 	add	r19,r19,r2
  80d100:	90a5c83a 	sub	r18,r18,r2
  80d104:	1885c83a 	sub	r2,r3,r2
  80d108:	a0800215 	stw	r2,8(r20)
  80d10c:	103fef1e 	bne	r2,zero,80d0cc <__alt_mem_onchip_mem+0xff8050cc>
  80d110:	0005883a 	mov	r2,zero
  80d114:	dfc00b17 	ldw	ra,44(sp)
  80d118:	df000a17 	ldw	fp,40(sp)
  80d11c:	ddc00917 	ldw	r23,36(sp)
  80d120:	dd800817 	ldw	r22,32(sp)
  80d124:	dd400717 	ldw	r21,28(sp)
  80d128:	dd000617 	ldw	r20,24(sp)
  80d12c:	dcc00517 	ldw	r19,20(sp)
  80d130:	dc800417 	ldw	r18,16(sp)
  80d134:	dc400317 	ldw	r17,12(sp)
  80d138:	dc000217 	ldw	r16,8(sp)
  80d13c:	dec00c04 	addi	sp,sp,48
  80d140:	f800283a 	ret
  80d144:	800b883a 	mov	r5,r16
  80d148:	a809883a 	mov	r4,r21
  80d14c:	080b5800 	call	80b580 <__swsetup_r>
  80d150:	1000eb1e 	bne	r2,zero,80d500 <__sfvwrite_r+0x4a4>
  80d154:	80c0030b 	ldhu	r3,12(r16)
  80d158:	a4400017 	ldw	r17,0(r20)
  80d15c:	1880008c 	andi	r2,r3,2
  80d160:	103fd61e 	bne	r2,zero,80d0bc <__alt_mem_onchip_mem+0xff8050bc>
  80d164:	1880004c 	andi	r2,r3,1
  80d168:	10003f1e 	bne	r2,zero,80d268 <__sfvwrite_r+0x20c>
  80d16c:	0039883a 	mov	fp,zero
  80d170:	0025883a 	mov	r18,zero
  80d174:	90001a26 	beq	r18,zero,80d1e0 <__sfvwrite_r+0x184>
  80d178:	1880800c 	andi	r2,r3,512
  80d17c:	84c00217 	ldw	r19,8(r16)
  80d180:	10002126 	beq	r2,zero,80d208 <__sfvwrite_r+0x1ac>
  80d184:	982f883a 	mov	r23,r19
  80d188:	94c09336 	bltu	r18,r19,80d3d8 <__sfvwrite_r+0x37c>
  80d18c:	1881200c 	andi	r2,r3,1152
  80d190:	10009e1e 	bne	r2,zero,80d40c <__sfvwrite_r+0x3b0>
  80d194:	81000017 	ldw	r4,0(r16)
  80d198:	b80d883a 	mov	r6,r23
  80d19c:	e00b883a 	mov	r5,fp
  80d1a0:	080d8d40 	call	80d8d4 <memmove>
  80d1a4:	80c00217 	ldw	r3,8(r16)
  80d1a8:	81000017 	ldw	r4,0(r16)
  80d1ac:	9005883a 	mov	r2,r18
  80d1b0:	1ce7c83a 	sub	r19,r3,r19
  80d1b4:	25cf883a 	add	r7,r4,r23
  80d1b8:	84c00215 	stw	r19,8(r16)
  80d1bc:	81c00015 	stw	r7,0(r16)
  80d1c0:	a0c00217 	ldw	r3,8(r20)
  80d1c4:	e0b9883a 	add	fp,fp,r2
  80d1c8:	90a5c83a 	sub	r18,r18,r2
  80d1cc:	18a7c83a 	sub	r19,r3,r2
  80d1d0:	a4c00215 	stw	r19,8(r20)
  80d1d4:	983fce26 	beq	r19,zero,80d110 <__alt_mem_onchip_mem+0xff805110>
  80d1d8:	80c0030b 	ldhu	r3,12(r16)
  80d1dc:	903fe61e 	bne	r18,zero,80d178 <__alt_mem_onchip_mem+0xff805178>
  80d1e0:	8f000017 	ldw	fp,0(r17)
  80d1e4:	8c800117 	ldw	r18,4(r17)
  80d1e8:	8c400204 	addi	r17,r17,8
  80d1ec:	003fe106 	br	80d174 <__alt_mem_onchip_mem+0xff805174>
  80d1f0:	8cc00017 	ldw	r19,0(r17)
  80d1f4:	8c800117 	ldw	r18,4(r17)
  80d1f8:	8c400204 	addi	r17,r17,8
  80d1fc:	003fb306 	br	80d0cc <__alt_mem_onchip_mem+0xff8050cc>
  80d200:	0005883a 	mov	r2,zero
  80d204:	f800283a 	ret
  80d208:	81000017 	ldw	r4,0(r16)
  80d20c:	80800417 	ldw	r2,16(r16)
  80d210:	11005736 	bltu	r2,r4,80d370 <__sfvwrite_r+0x314>
  80d214:	85c00517 	ldw	r23,20(r16)
  80d218:	95c05536 	bltu	r18,r23,80d370 <__sfvwrite_r+0x314>
  80d21c:	00a00034 	movhi	r2,32768
  80d220:	10bfffc4 	addi	r2,r2,-1
  80d224:	9009883a 	mov	r4,r18
  80d228:	1480012e 	bgeu	r2,r18,80d230 <__sfvwrite_r+0x1d4>
  80d22c:	1009883a 	mov	r4,r2
  80d230:	b80b883a 	mov	r5,r23
  80d234:	08116ec0 	call	8116ec <__divsi3>
  80d238:	15cf383a 	mul	r7,r2,r23
  80d23c:	81400717 	ldw	r5,28(r16)
  80d240:	80800917 	ldw	r2,36(r16)
  80d244:	e00d883a 	mov	r6,fp
  80d248:	a809883a 	mov	r4,r21
  80d24c:	103ee83a 	callr	r2
  80d250:	00bfdb16 	blt	zero,r2,80d1c0 <__alt_mem_onchip_mem+0xff8051c0>
  80d254:	8080030b 	ldhu	r2,12(r16)
  80d258:	10801014 	ori	r2,r2,64
  80d25c:	8080030d 	sth	r2,12(r16)
  80d260:	00bfffc4 	movi	r2,-1
  80d264:	003fab06 	br	80d114 <__alt_mem_onchip_mem+0xff805114>
  80d268:	0027883a 	mov	r19,zero
  80d26c:	0011883a 	mov	r8,zero
  80d270:	0039883a 	mov	fp,zero
  80d274:	0025883a 	mov	r18,zero
  80d278:	90001f26 	beq	r18,zero,80d2f8 <__sfvwrite_r+0x29c>
  80d27c:	40005a26 	beq	r8,zero,80d3e8 <__sfvwrite_r+0x38c>
  80d280:	982d883a 	mov	r22,r19
  80d284:	94c0012e 	bgeu	r18,r19,80d28c <__sfvwrite_r+0x230>
  80d288:	902d883a 	mov	r22,r18
  80d28c:	81000017 	ldw	r4,0(r16)
  80d290:	80800417 	ldw	r2,16(r16)
  80d294:	b02f883a 	mov	r23,r22
  80d298:	81c00517 	ldw	r7,20(r16)
  80d29c:	1100032e 	bgeu	r2,r4,80d2ac <__sfvwrite_r+0x250>
  80d2a0:	80c00217 	ldw	r3,8(r16)
  80d2a4:	38c7883a 	add	r3,r7,r3
  80d2a8:	1d801816 	blt	r3,r22,80d30c <__sfvwrite_r+0x2b0>
  80d2ac:	b1c03e16 	blt	r22,r7,80d3a8 <__sfvwrite_r+0x34c>
  80d2b0:	80800917 	ldw	r2,36(r16)
  80d2b4:	81400717 	ldw	r5,28(r16)
  80d2b8:	e00d883a 	mov	r6,fp
  80d2bc:	da000115 	stw	r8,4(sp)
  80d2c0:	a809883a 	mov	r4,r21
  80d2c4:	103ee83a 	callr	r2
  80d2c8:	102f883a 	mov	r23,r2
  80d2cc:	da000117 	ldw	r8,4(sp)
  80d2d0:	00bfe00e 	bge	zero,r2,80d254 <__alt_mem_onchip_mem+0xff805254>
  80d2d4:	9de7c83a 	sub	r19,r19,r23
  80d2d8:	98001f26 	beq	r19,zero,80d358 <__sfvwrite_r+0x2fc>
  80d2dc:	a0800217 	ldw	r2,8(r20)
  80d2e0:	e5f9883a 	add	fp,fp,r23
  80d2e4:	95e5c83a 	sub	r18,r18,r23
  80d2e8:	15efc83a 	sub	r23,r2,r23
  80d2ec:	a5c00215 	stw	r23,8(r20)
  80d2f0:	b83f8726 	beq	r23,zero,80d110 <__alt_mem_onchip_mem+0xff805110>
  80d2f4:	903fe11e 	bne	r18,zero,80d27c <__alt_mem_onchip_mem+0xff80527c>
  80d2f8:	8f000017 	ldw	fp,0(r17)
  80d2fc:	8c800117 	ldw	r18,4(r17)
  80d300:	0011883a 	mov	r8,zero
  80d304:	8c400204 	addi	r17,r17,8
  80d308:	003fdb06 	br	80d278 <__alt_mem_onchip_mem+0xff805278>
  80d30c:	180d883a 	mov	r6,r3
  80d310:	e00b883a 	mov	r5,fp
  80d314:	da000115 	stw	r8,4(sp)
  80d318:	d8c00015 	stw	r3,0(sp)
  80d31c:	080d8d40 	call	80d8d4 <memmove>
  80d320:	d8c00017 	ldw	r3,0(sp)
  80d324:	80800017 	ldw	r2,0(r16)
  80d328:	800b883a 	mov	r5,r16
  80d32c:	a809883a 	mov	r4,r21
  80d330:	10c5883a 	add	r2,r2,r3
  80d334:	80800015 	stw	r2,0(r16)
  80d338:	d8c00015 	stw	r3,0(sp)
  80d33c:	0806e280 	call	806e28 <_fflush_r>
  80d340:	d8c00017 	ldw	r3,0(sp)
  80d344:	da000117 	ldw	r8,4(sp)
  80d348:	103fc21e 	bne	r2,zero,80d254 <__alt_mem_onchip_mem+0xff805254>
  80d34c:	182f883a 	mov	r23,r3
  80d350:	9de7c83a 	sub	r19,r19,r23
  80d354:	983fe11e 	bne	r19,zero,80d2dc <__alt_mem_onchip_mem+0xff8052dc>
  80d358:	800b883a 	mov	r5,r16
  80d35c:	a809883a 	mov	r4,r21
  80d360:	0806e280 	call	806e28 <_fflush_r>
  80d364:	103fbb1e 	bne	r2,zero,80d254 <__alt_mem_onchip_mem+0xff805254>
  80d368:	0011883a 	mov	r8,zero
  80d36c:	003fdb06 	br	80d2dc <__alt_mem_onchip_mem+0xff8052dc>
  80d370:	94c0012e 	bgeu	r18,r19,80d378 <__sfvwrite_r+0x31c>
  80d374:	9027883a 	mov	r19,r18
  80d378:	980d883a 	mov	r6,r19
  80d37c:	e00b883a 	mov	r5,fp
  80d380:	080d8d40 	call	80d8d4 <memmove>
  80d384:	80800217 	ldw	r2,8(r16)
  80d388:	80c00017 	ldw	r3,0(r16)
  80d38c:	14c5c83a 	sub	r2,r2,r19
  80d390:	1cc7883a 	add	r3,r3,r19
  80d394:	80800215 	stw	r2,8(r16)
  80d398:	80c00015 	stw	r3,0(r16)
  80d39c:	10004326 	beq	r2,zero,80d4ac <__sfvwrite_r+0x450>
  80d3a0:	9805883a 	mov	r2,r19
  80d3a4:	003f8606 	br	80d1c0 <__alt_mem_onchip_mem+0xff8051c0>
  80d3a8:	b00d883a 	mov	r6,r22
  80d3ac:	e00b883a 	mov	r5,fp
  80d3b0:	da000115 	stw	r8,4(sp)
  80d3b4:	080d8d40 	call	80d8d4 <memmove>
  80d3b8:	80800217 	ldw	r2,8(r16)
  80d3bc:	80c00017 	ldw	r3,0(r16)
  80d3c0:	da000117 	ldw	r8,4(sp)
  80d3c4:	1585c83a 	sub	r2,r2,r22
  80d3c8:	1dad883a 	add	r22,r3,r22
  80d3cc:	80800215 	stw	r2,8(r16)
  80d3d0:	85800015 	stw	r22,0(r16)
  80d3d4:	003fbf06 	br	80d2d4 <__alt_mem_onchip_mem+0xff8052d4>
  80d3d8:	81000017 	ldw	r4,0(r16)
  80d3dc:	9027883a 	mov	r19,r18
  80d3e0:	902f883a 	mov	r23,r18
  80d3e4:	003f6c06 	br	80d198 <__alt_mem_onchip_mem+0xff805198>
  80d3e8:	900d883a 	mov	r6,r18
  80d3ec:	01400284 	movi	r5,10
  80d3f0:	e009883a 	mov	r4,fp
  80d3f4:	080d6a80 	call	80d6a8 <memchr>
  80d3f8:	10003e26 	beq	r2,zero,80d4f4 <__sfvwrite_r+0x498>
  80d3fc:	10800044 	addi	r2,r2,1
  80d400:	1727c83a 	sub	r19,r2,fp
  80d404:	02000044 	movi	r8,1
  80d408:	003f9d06 	br	80d280 <__alt_mem_onchip_mem+0xff805280>
  80d40c:	80800517 	ldw	r2,20(r16)
  80d410:	81400417 	ldw	r5,16(r16)
  80d414:	81c00017 	ldw	r7,0(r16)
  80d418:	10a7883a 	add	r19,r2,r2
  80d41c:	9885883a 	add	r2,r19,r2
  80d420:	1026d7fa 	srli	r19,r2,31
  80d424:	396dc83a 	sub	r22,r7,r5
  80d428:	b1000044 	addi	r4,r22,1
  80d42c:	9885883a 	add	r2,r19,r2
  80d430:	1027d07a 	srai	r19,r2,1
  80d434:	2485883a 	add	r2,r4,r18
  80d438:	980d883a 	mov	r6,r19
  80d43c:	9880022e 	bgeu	r19,r2,80d448 <__sfvwrite_r+0x3ec>
  80d440:	1027883a 	mov	r19,r2
  80d444:	100d883a 	mov	r6,r2
  80d448:	18c1000c 	andi	r3,r3,1024
  80d44c:	18001c26 	beq	r3,zero,80d4c0 <__sfvwrite_r+0x464>
  80d450:	300b883a 	mov	r5,r6
  80d454:	a809883a 	mov	r4,r21
  80d458:	08080a00 	call	8080a0 <_malloc_r>
  80d45c:	102f883a 	mov	r23,r2
  80d460:	10002926 	beq	r2,zero,80d508 <__sfvwrite_r+0x4ac>
  80d464:	81400417 	ldw	r5,16(r16)
  80d468:	b00d883a 	mov	r6,r22
  80d46c:	1009883a 	mov	r4,r2
  80d470:	080d78c0 	call	80d78c <memcpy>
  80d474:	8080030b 	ldhu	r2,12(r16)
  80d478:	00fedfc4 	movi	r3,-1153
  80d47c:	10c4703a 	and	r2,r2,r3
  80d480:	10802014 	ori	r2,r2,128
  80d484:	8080030d 	sth	r2,12(r16)
  80d488:	bd89883a 	add	r4,r23,r22
  80d48c:	9d8fc83a 	sub	r7,r19,r22
  80d490:	85c00415 	stw	r23,16(r16)
  80d494:	84c00515 	stw	r19,20(r16)
  80d498:	81000015 	stw	r4,0(r16)
  80d49c:	9027883a 	mov	r19,r18
  80d4a0:	81c00215 	stw	r7,8(r16)
  80d4a4:	902f883a 	mov	r23,r18
  80d4a8:	003f3b06 	br	80d198 <__alt_mem_onchip_mem+0xff805198>
  80d4ac:	800b883a 	mov	r5,r16
  80d4b0:	a809883a 	mov	r4,r21
  80d4b4:	0806e280 	call	806e28 <_fflush_r>
  80d4b8:	103fb926 	beq	r2,zero,80d3a0 <__alt_mem_onchip_mem+0xff8053a0>
  80d4bc:	003f6506 	br	80d254 <__alt_mem_onchip_mem+0xff805254>
  80d4c0:	a809883a 	mov	r4,r21
  80d4c4:	080ea8c0 	call	80ea8c <_realloc_r>
  80d4c8:	102f883a 	mov	r23,r2
  80d4cc:	103fee1e 	bne	r2,zero,80d488 <__alt_mem_onchip_mem+0xff805488>
  80d4d0:	81400417 	ldw	r5,16(r16)
  80d4d4:	a809883a 	mov	r4,r21
  80d4d8:	08075700 	call	807570 <_free_r>
  80d4dc:	8080030b 	ldhu	r2,12(r16)
  80d4e0:	00ffdfc4 	movi	r3,-129
  80d4e4:	1884703a 	and	r2,r3,r2
  80d4e8:	00c00304 	movi	r3,12
  80d4ec:	a8c00015 	stw	r3,0(r21)
  80d4f0:	003f5906 	br	80d258 <__alt_mem_onchip_mem+0xff805258>
  80d4f4:	94c00044 	addi	r19,r18,1
  80d4f8:	02000044 	movi	r8,1
  80d4fc:	003f6006 	br	80d280 <__alt_mem_onchip_mem+0xff805280>
  80d500:	00bfffc4 	movi	r2,-1
  80d504:	003f0306 	br	80d114 <__alt_mem_onchip_mem+0xff805114>
  80d508:	00800304 	movi	r2,12
  80d50c:	a8800015 	stw	r2,0(r21)
  80d510:	8080030b 	ldhu	r2,12(r16)
  80d514:	003f5006 	br	80d258 <__alt_mem_onchip_mem+0xff805258>

0080d518 <_isatty_r>:
  80d518:	defffd04 	addi	sp,sp,-12
  80d51c:	dc000015 	stw	r16,0(sp)
  80d520:	040020b4 	movhi	r16,130
  80d524:	dc400115 	stw	r17,4(sp)
  80d528:	842b3604 	addi	r16,r16,-21288
  80d52c:	2023883a 	mov	r17,r4
  80d530:	2809883a 	mov	r4,r5
  80d534:	dfc00215 	stw	ra,8(sp)
  80d538:	80000015 	stw	zero,0(r16)
  80d53c:	0812f5c0 	call	812f5c <isatty>
  80d540:	00ffffc4 	movi	r3,-1
  80d544:	10c00526 	beq	r2,r3,80d55c <_isatty_r+0x44>
  80d548:	dfc00217 	ldw	ra,8(sp)
  80d54c:	dc400117 	ldw	r17,4(sp)
  80d550:	dc000017 	ldw	r16,0(sp)
  80d554:	dec00304 	addi	sp,sp,12
  80d558:	f800283a 	ret
  80d55c:	80c00017 	ldw	r3,0(r16)
  80d560:	183ff926 	beq	r3,zero,80d548 <__alt_mem_onchip_mem+0xff805548>
  80d564:	88c00015 	stw	r3,0(r17)
  80d568:	003ff706 	br	80d548 <__alt_mem_onchip_mem+0xff805548>

0080d56c <_setlocale_r>:
  80d56c:	30001b26 	beq	r6,zero,80d5dc <_setlocale_r+0x70>
  80d570:	01402074 	movhi	r5,129
  80d574:	defffe04 	addi	sp,sp,-8
  80d578:	295bc004 	addi	r5,r5,28416
  80d57c:	3009883a 	mov	r4,r6
  80d580:	dc000015 	stw	r16,0(sp)
  80d584:	dfc00115 	stw	ra,4(sp)
  80d588:	3021883a 	mov	r16,r6
  80d58c:	080f0640 	call	80f064 <strcmp>
  80d590:	1000061e 	bne	r2,zero,80d5ac <_setlocale_r+0x40>
  80d594:	00802074 	movhi	r2,129
  80d598:	109ba104 	addi	r2,r2,28292
  80d59c:	dfc00117 	ldw	ra,4(sp)
  80d5a0:	dc000017 	ldw	r16,0(sp)
  80d5a4:	dec00204 	addi	sp,sp,8
  80d5a8:	f800283a 	ret
  80d5ac:	01402074 	movhi	r5,129
  80d5b0:	295ba104 	addi	r5,r5,28292
  80d5b4:	8009883a 	mov	r4,r16
  80d5b8:	080f0640 	call	80f064 <strcmp>
  80d5bc:	103ff526 	beq	r2,zero,80d594 <__alt_mem_onchip_mem+0xff805594>
  80d5c0:	01402074 	movhi	r5,129
  80d5c4:	295bab04 	addi	r5,r5,28332
  80d5c8:	8009883a 	mov	r4,r16
  80d5cc:	080f0640 	call	80f064 <strcmp>
  80d5d0:	103ff026 	beq	r2,zero,80d594 <__alt_mem_onchip_mem+0xff805594>
  80d5d4:	0005883a 	mov	r2,zero
  80d5d8:	003ff006 	br	80d59c <__alt_mem_onchip_mem+0xff80559c>
  80d5dc:	00802074 	movhi	r2,129
  80d5e0:	109ba104 	addi	r2,r2,28292
  80d5e4:	f800283a 	ret

0080d5e8 <__locale_charset>:
  80d5e8:	00802074 	movhi	r2,129
  80d5ec:	109ed804 	addi	r2,r2,31584
  80d5f0:	f800283a 	ret

0080d5f4 <__locale_mb_cur_max>:
  80d5f4:	008020b4 	movhi	r2,130
  80d5f8:	10a3ed04 	addi	r2,r2,-28748
  80d5fc:	10800017 	ldw	r2,0(r2)
  80d600:	f800283a 	ret

0080d604 <__locale_msgcharset>:
  80d604:	00802074 	movhi	r2,129
  80d608:	109ed004 	addi	r2,r2,31552
  80d60c:	f800283a 	ret

0080d610 <__locale_cjk_lang>:
  80d610:	0005883a 	mov	r2,zero
  80d614:	f800283a 	ret

0080d618 <_localeconv_r>:
  80d618:	00802074 	movhi	r2,129
  80d61c:	109ee004 	addi	r2,r2,31616
  80d620:	f800283a 	ret

0080d624 <setlocale>:
  80d624:	008020b4 	movhi	r2,130
  80d628:	10a3ea04 	addi	r2,r2,-28760
  80d62c:	280d883a 	mov	r6,r5
  80d630:	200b883a 	mov	r5,r4
  80d634:	11000017 	ldw	r4,0(r2)
  80d638:	080d56c1 	jmpi	80d56c <_setlocale_r>

0080d63c <localeconv>:
  80d63c:	00802074 	movhi	r2,129
  80d640:	109ee004 	addi	r2,r2,31616
  80d644:	f800283a 	ret

0080d648 <_lseek_r>:
  80d648:	defffd04 	addi	sp,sp,-12
  80d64c:	2805883a 	mov	r2,r5
  80d650:	dc000015 	stw	r16,0(sp)
  80d654:	040020b4 	movhi	r16,130
  80d658:	dc400115 	stw	r17,4(sp)
  80d65c:	300b883a 	mov	r5,r6
  80d660:	842b3604 	addi	r16,r16,-21288
  80d664:	2023883a 	mov	r17,r4
  80d668:	380d883a 	mov	r6,r7
  80d66c:	1009883a 	mov	r4,r2
  80d670:	dfc00215 	stw	ra,8(sp)
  80d674:	80000015 	stw	zero,0(r16)
  80d678:	08131280 	call	813128 <lseek>
  80d67c:	00ffffc4 	movi	r3,-1
  80d680:	10c00526 	beq	r2,r3,80d698 <_lseek_r+0x50>
  80d684:	dfc00217 	ldw	ra,8(sp)
  80d688:	dc400117 	ldw	r17,4(sp)
  80d68c:	dc000017 	ldw	r16,0(sp)
  80d690:	dec00304 	addi	sp,sp,12
  80d694:	f800283a 	ret
  80d698:	80c00017 	ldw	r3,0(r16)
  80d69c:	183ff926 	beq	r3,zero,80d684 <__alt_mem_onchip_mem+0xff805684>
  80d6a0:	88c00015 	stw	r3,0(r17)
  80d6a4:	003ff706 	br	80d684 <__alt_mem_onchip_mem+0xff805684>

0080d6a8 <memchr>:
  80d6a8:	208000cc 	andi	r2,r4,3
  80d6ac:	280f883a 	mov	r7,r5
  80d6b0:	10003426 	beq	r2,zero,80d784 <memchr+0xdc>
  80d6b4:	30bfffc4 	addi	r2,r6,-1
  80d6b8:	30001a26 	beq	r6,zero,80d724 <memchr+0x7c>
  80d6bc:	20c00003 	ldbu	r3,0(r4)
  80d6c0:	29803fcc 	andi	r6,r5,255
  80d6c4:	30c0051e 	bne	r6,r3,80d6dc <memchr+0x34>
  80d6c8:	00001806 	br	80d72c <memchr+0x84>
  80d6cc:	10001526 	beq	r2,zero,80d724 <memchr+0x7c>
  80d6d0:	20c00003 	ldbu	r3,0(r4)
  80d6d4:	10bfffc4 	addi	r2,r2,-1
  80d6d8:	30c01426 	beq	r6,r3,80d72c <memchr+0x84>
  80d6dc:	21000044 	addi	r4,r4,1
  80d6e0:	20c000cc 	andi	r3,r4,3
  80d6e4:	183ff91e 	bne	r3,zero,80d6cc <__alt_mem_onchip_mem+0xff8056cc>
  80d6e8:	020000c4 	movi	r8,3
  80d6ec:	40801136 	bltu	r8,r2,80d734 <memchr+0x8c>
  80d6f0:	10000c26 	beq	r2,zero,80d724 <memchr+0x7c>
  80d6f4:	20c00003 	ldbu	r3,0(r4)
  80d6f8:	29403fcc 	andi	r5,r5,255
  80d6fc:	28c00b26 	beq	r5,r3,80d72c <memchr+0x84>
  80d700:	20c00044 	addi	r3,r4,1
  80d704:	39803fcc 	andi	r6,r7,255
  80d708:	2089883a 	add	r4,r4,r2
  80d70c:	00000306 	br	80d71c <memchr+0x74>
  80d710:	18c00044 	addi	r3,r3,1
  80d714:	197fffc3 	ldbu	r5,-1(r3)
  80d718:	31400526 	beq	r6,r5,80d730 <memchr+0x88>
  80d71c:	1805883a 	mov	r2,r3
  80d720:	20fffb1e 	bne	r4,r3,80d710 <__alt_mem_onchip_mem+0xff805710>
  80d724:	0005883a 	mov	r2,zero
  80d728:	f800283a 	ret
  80d72c:	2005883a 	mov	r2,r4
  80d730:	f800283a 	ret
  80d734:	28c03fcc 	andi	r3,r5,255
  80d738:	1812923a 	slli	r9,r3,8
  80d73c:	02ffbff4 	movhi	r11,65279
  80d740:	02a02074 	movhi	r10,32897
  80d744:	48d2b03a 	or	r9,r9,r3
  80d748:	4806943a 	slli	r3,r9,16
  80d74c:	5affbfc4 	addi	r11,r11,-257
  80d750:	52a02004 	addi	r10,r10,-32640
  80d754:	48d2b03a 	or	r9,r9,r3
  80d758:	20c00017 	ldw	r3,0(r4)
  80d75c:	48c6f03a 	xor	r3,r9,r3
  80d760:	1acd883a 	add	r6,r3,r11
  80d764:	00c6303a 	nor	r3,zero,r3
  80d768:	30c6703a 	and	r3,r6,r3
  80d76c:	1a86703a 	and	r3,r3,r10
  80d770:	183fe01e 	bne	r3,zero,80d6f4 <__alt_mem_onchip_mem+0xff8056f4>
  80d774:	10bfff04 	addi	r2,r2,-4
  80d778:	21000104 	addi	r4,r4,4
  80d77c:	40bff636 	bltu	r8,r2,80d758 <__alt_mem_onchip_mem+0xff805758>
  80d780:	003fdb06 	br	80d6f0 <__alt_mem_onchip_mem+0xff8056f0>
  80d784:	3005883a 	mov	r2,r6
  80d788:	003fd706 	br	80d6e8 <__alt_mem_onchip_mem+0xff8056e8>

0080d78c <memcpy>:
  80d78c:	defffd04 	addi	sp,sp,-12
  80d790:	dfc00215 	stw	ra,8(sp)
  80d794:	dc400115 	stw	r17,4(sp)
  80d798:	dc000015 	stw	r16,0(sp)
  80d79c:	00c003c4 	movi	r3,15
  80d7a0:	2005883a 	mov	r2,r4
  80d7a4:	1980452e 	bgeu	r3,r6,80d8bc <memcpy+0x130>
  80d7a8:	2906b03a 	or	r3,r5,r4
  80d7ac:	18c000cc 	andi	r3,r3,3
  80d7b0:	1800441e 	bne	r3,zero,80d8c4 <memcpy+0x138>
  80d7b4:	347ffc04 	addi	r17,r6,-16
  80d7b8:	8822d13a 	srli	r17,r17,4
  80d7bc:	28c00104 	addi	r3,r5,4
  80d7c0:	23400104 	addi	r13,r4,4
  80d7c4:	8820913a 	slli	r16,r17,4
  80d7c8:	2b000204 	addi	r12,r5,8
  80d7cc:	22c00204 	addi	r11,r4,8
  80d7d0:	84000504 	addi	r16,r16,20
  80d7d4:	2a800304 	addi	r10,r5,12
  80d7d8:	22400304 	addi	r9,r4,12
  80d7dc:	2c21883a 	add	r16,r5,r16
  80d7e0:	2811883a 	mov	r8,r5
  80d7e4:	200f883a 	mov	r7,r4
  80d7e8:	41000017 	ldw	r4,0(r8)
  80d7ec:	1fc00017 	ldw	ra,0(r3)
  80d7f0:	63c00017 	ldw	r15,0(r12)
  80d7f4:	39000015 	stw	r4,0(r7)
  80d7f8:	53800017 	ldw	r14,0(r10)
  80d7fc:	6fc00015 	stw	ra,0(r13)
  80d800:	5bc00015 	stw	r15,0(r11)
  80d804:	4b800015 	stw	r14,0(r9)
  80d808:	18c00404 	addi	r3,r3,16
  80d80c:	39c00404 	addi	r7,r7,16
  80d810:	42000404 	addi	r8,r8,16
  80d814:	6b400404 	addi	r13,r13,16
  80d818:	63000404 	addi	r12,r12,16
  80d81c:	5ac00404 	addi	r11,r11,16
  80d820:	52800404 	addi	r10,r10,16
  80d824:	4a400404 	addi	r9,r9,16
  80d828:	1c3fef1e 	bne	r3,r16,80d7e8 <__alt_mem_onchip_mem+0xff8057e8>
  80d82c:	89c00044 	addi	r7,r17,1
  80d830:	380e913a 	slli	r7,r7,4
  80d834:	310003cc 	andi	r4,r6,15
  80d838:	02c000c4 	movi	r11,3
  80d83c:	11c7883a 	add	r3,r2,r7
  80d840:	29cb883a 	add	r5,r5,r7
  80d844:	5900212e 	bgeu	r11,r4,80d8cc <memcpy+0x140>
  80d848:	1813883a 	mov	r9,r3
  80d84c:	2811883a 	mov	r8,r5
  80d850:	200f883a 	mov	r7,r4
  80d854:	42800017 	ldw	r10,0(r8)
  80d858:	4a400104 	addi	r9,r9,4
  80d85c:	39ffff04 	addi	r7,r7,-4
  80d860:	4abfff15 	stw	r10,-4(r9)
  80d864:	42000104 	addi	r8,r8,4
  80d868:	59fffa36 	bltu	r11,r7,80d854 <__alt_mem_onchip_mem+0xff805854>
  80d86c:	213fff04 	addi	r4,r4,-4
  80d870:	2008d0ba 	srli	r4,r4,2
  80d874:	318000cc 	andi	r6,r6,3
  80d878:	21000044 	addi	r4,r4,1
  80d87c:	2109883a 	add	r4,r4,r4
  80d880:	2109883a 	add	r4,r4,r4
  80d884:	1907883a 	add	r3,r3,r4
  80d888:	290b883a 	add	r5,r5,r4
  80d88c:	30000626 	beq	r6,zero,80d8a8 <memcpy+0x11c>
  80d890:	198d883a 	add	r6,r3,r6
  80d894:	29c00003 	ldbu	r7,0(r5)
  80d898:	18c00044 	addi	r3,r3,1
  80d89c:	29400044 	addi	r5,r5,1
  80d8a0:	19ffffc5 	stb	r7,-1(r3)
  80d8a4:	19bffb1e 	bne	r3,r6,80d894 <__alt_mem_onchip_mem+0xff805894>
  80d8a8:	dfc00217 	ldw	ra,8(sp)
  80d8ac:	dc400117 	ldw	r17,4(sp)
  80d8b0:	dc000017 	ldw	r16,0(sp)
  80d8b4:	dec00304 	addi	sp,sp,12
  80d8b8:	f800283a 	ret
  80d8bc:	2007883a 	mov	r3,r4
  80d8c0:	003ff206 	br	80d88c <__alt_mem_onchip_mem+0xff80588c>
  80d8c4:	2007883a 	mov	r3,r4
  80d8c8:	003ff106 	br	80d890 <__alt_mem_onchip_mem+0xff805890>
  80d8cc:	200d883a 	mov	r6,r4
  80d8d0:	003fee06 	br	80d88c <__alt_mem_onchip_mem+0xff80588c>

0080d8d4 <memmove>:
  80d8d4:	2005883a 	mov	r2,r4
  80d8d8:	29000b2e 	bgeu	r5,r4,80d908 <memmove+0x34>
  80d8dc:	298f883a 	add	r7,r5,r6
  80d8e0:	21c0092e 	bgeu	r4,r7,80d908 <memmove+0x34>
  80d8e4:	2187883a 	add	r3,r4,r6
  80d8e8:	198bc83a 	sub	r5,r3,r6
  80d8ec:	30004826 	beq	r6,zero,80da10 <memmove+0x13c>
  80d8f0:	39ffffc4 	addi	r7,r7,-1
  80d8f4:	39000003 	ldbu	r4,0(r7)
  80d8f8:	18ffffc4 	addi	r3,r3,-1
  80d8fc:	19000005 	stb	r4,0(r3)
  80d900:	28fffb1e 	bne	r5,r3,80d8f0 <__alt_mem_onchip_mem+0xff8058f0>
  80d904:	f800283a 	ret
  80d908:	00c003c4 	movi	r3,15
  80d90c:	1980412e 	bgeu	r3,r6,80da14 <memmove+0x140>
  80d910:	2886b03a 	or	r3,r5,r2
  80d914:	18c000cc 	andi	r3,r3,3
  80d918:	1800401e 	bne	r3,zero,80da1c <memmove+0x148>
  80d91c:	33fffc04 	addi	r15,r6,-16
  80d920:	781ed13a 	srli	r15,r15,4
  80d924:	28c00104 	addi	r3,r5,4
  80d928:	13400104 	addi	r13,r2,4
  80d92c:	781c913a 	slli	r14,r15,4
  80d930:	2b000204 	addi	r12,r5,8
  80d934:	12c00204 	addi	r11,r2,8
  80d938:	73800504 	addi	r14,r14,20
  80d93c:	2a800304 	addi	r10,r5,12
  80d940:	12400304 	addi	r9,r2,12
  80d944:	2b9d883a 	add	r14,r5,r14
  80d948:	2811883a 	mov	r8,r5
  80d94c:	100f883a 	mov	r7,r2
  80d950:	41000017 	ldw	r4,0(r8)
  80d954:	39c00404 	addi	r7,r7,16
  80d958:	18c00404 	addi	r3,r3,16
  80d95c:	393ffc15 	stw	r4,-16(r7)
  80d960:	193ffc17 	ldw	r4,-16(r3)
  80d964:	6b400404 	addi	r13,r13,16
  80d968:	5ac00404 	addi	r11,r11,16
  80d96c:	693ffc15 	stw	r4,-16(r13)
  80d970:	61000017 	ldw	r4,0(r12)
  80d974:	4a400404 	addi	r9,r9,16
  80d978:	42000404 	addi	r8,r8,16
  80d97c:	593ffc15 	stw	r4,-16(r11)
  80d980:	51000017 	ldw	r4,0(r10)
  80d984:	63000404 	addi	r12,r12,16
  80d988:	52800404 	addi	r10,r10,16
  80d98c:	493ffc15 	stw	r4,-16(r9)
  80d990:	1bbfef1e 	bne	r3,r14,80d950 <__alt_mem_onchip_mem+0xff805950>
  80d994:	79000044 	addi	r4,r15,1
  80d998:	2008913a 	slli	r4,r4,4
  80d99c:	328003cc 	andi	r10,r6,15
  80d9a0:	02c000c4 	movi	r11,3
  80d9a4:	1107883a 	add	r3,r2,r4
  80d9a8:	290b883a 	add	r5,r5,r4
  80d9ac:	5a801e2e 	bgeu	r11,r10,80da28 <memmove+0x154>
  80d9b0:	1813883a 	mov	r9,r3
  80d9b4:	2811883a 	mov	r8,r5
  80d9b8:	500f883a 	mov	r7,r10
  80d9bc:	41000017 	ldw	r4,0(r8)
  80d9c0:	4a400104 	addi	r9,r9,4
  80d9c4:	39ffff04 	addi	r7,r7,-4
  80d9c8:	493fff15 	stw	r4,-4(r9)
  80d9cc:	42000104 	addi	r8,r8,4
  80d9d0:	59fffa36 	bltu	r11,r7,80d9bc <__alt_mem_onchip_mem+0xff8059bc>
  80d9d4:	513fff04 	addi	r4,r10,-4
  80d9d8:	2008d0ba 	srli	r4,r4,2
  80d9dc:	318000cc 	andi	r6,r6,3
  80d9e0:	21000044 	addi	r4,r4,1
  80d9e4:	2109883a 	add	r4,r4,r4
  80d9e8:	2109883a 	add	r4,r4,r4
  80d9ec:	1907883a 	add	r3,r3,r4
  80d9f0:	290b883a 	add	r5,r5,r4
  80d9f4:	30000b26 	beq	r6,zero,80da24 <memmove+0x150>
  80d9f8:	198d883a 	add	r6,r3,r6
  80d9fc:	29c00003 	ldbu	r7,0(r5)
  80da00:	18c00044 	addi	r3,r3,1
  80da04:	29400044 	addi	r5,r5,1
  80da08:	19ffffc5 	stb	r7,-1(r3)
  80da0c:	19bffb1e 	bne	r3,r6,80d9fc <__alt_mem_onchip_mem+0xff8059fc>
  80da10:	f800283a 	ret
  80da14:	1007883a 	mov	r3,r2
  80da18:	003ff606 	br	80d9f4 <__alt_mem_onchip_mem+0xff8059f4>
  80da1c:	1007883a 	mov	r3,r2
  80da20:	003ff506 	br	80d9f8 <__alt_mem_onchip_mem+0xff8059f8>
  80da24:	f800283a 	ret
  80da28:	500d883a 	mov	r6,r10
  80da2c:	003ff106 	br	80d9f4 <__alt_mem_onchip_mem+0xff8059f4>

0080da30 <_Balloc>:
  80da30:	20801317 	ldw	r2,76(r4)
  80da34:	defffc04 	addi	sp,sp,-16
  80da38:	dc400115 	stw	r17,4(sp)
  80da3c:	dc000015 	stw	r16,0(sp)
  80da40:	dfc00315 	stw	ra,12(sp)
  80da44:	dc800215 	stw	r18,8(sp)
  80da48:	2023883a 	mov	r17,r4
  80da4c:	2821883a 	mov	r16,r5
  80da50:	10000f26 	beq	r2,zero,80da90 <_Balloc+0x60>
  80da54:	8407883a 	add	r3,r16,r16
  80da58:	18c7883a 	add	r3,r3,r3
  80da5c:	10c7883a 	add	r3,r2,r3
  80da60:	18800017 	ldw	r2,0(r3)
  80da64:	10001126 	beq	r2,zero,80daac <_Balloc+0x7c>
  80da68:	11000017 	ldw	r4,0(r2)
  80da6c:	19000015 	stw	r4,0(r3)
  80da70:	10000415 	stw	zero,16(r2)
  80da74:	10000315 	stw	zero,12(r2)
  80da78:	dfc00317 	ldw	ra,12(sp)
  80da7c:	dc800217 	ldw	r18,8(sp)
  80da80:	dc400117 	ldw	r17,4(sp)
  80da84:	dc000017 	ldw	r16,0(sp)
  80da88:	dec00404 	addi	sp,sp,16
  80da8c:	f800283a 	ret
  80da90:	01800844 	movi	r6,33
  80da94:	01400104 	movi	r5,4
  80da98:	08107880 	call	810788 <_calloc_r>
  80da9c:	88801315 	stw	r2,76(r17)
  80daa0:	103fec1e 	bne	r2,zero,80da54 <__alt_mem_onchip_mem+0xff805a54>
  80daa4:	0005883a 	mov	r2,zero
  80daa8:	003ff306 	br	80da78 <__alt_mem_onchip_mem+0xff805a78>
  80daac:	01400044 	movi	r5,1
  80dab0:	2c24983a 	sll	r18,r5,r16
  80dab4:	8809883a 	mov	r4,r17
  80dab8:	91800144 	addi	r6,r18,5
  80dabc:	318d883a 	add	r6,r6,r6
  80dac0:	318d883a 	add	r6,r6,r6
  80dac4:	08107880 	call	810788 <_calloc_r>
  80dac8:	103ff626 	beq	r2,zero,80daa4 <__alt_mem_onchip_mem+0xff805aa4>
  80dacc:	14000115 	stw	r16,4(r2)
  80dad0:	14800215 	stw	r18,8(r2)
  80dad4:	003fe606 	br	80da70 <__alt_mem_onchip_mem+0xff805a70>

0080dad8 <_Bfree>:
  80dad8:	28000826 	beq	r5,zero,80dafc <_Bfree+0x24>
  80dadc:	28c00117 	ldw	r3,4(r5)
  80dae0:	20801317 	ldw	r2,76(r4)
  80dae4:	18c7883a 	add	r3,r3,r3
  80dae8:	18c7883a 	add	r3,r3,r3
  80daec:	10c5883a 	add	r2,r2,r3
  80daf0:	10c00017 	ldw	r3,0(r2)
  80daf4:	28c00015 	stw	r3,0(r5)
  80daf8:	11400015 	stw	r5,0(r2)
  80dafc:	f800283a 	ret

0080db00 <__multadd>:
  80db00:	defffa04 	addi	sp,sp,-24
  80db04:	dc800315 	stw	r18,12(sp)
  80db08:	dc400215 	stw	r17,8(sp)
  80db0c:	dc000115 	stw	r16,4(sp)
  80db10:	2823883a 	mov	r17,r5
  80db14:	2c000417 	ldw	r16,16(r5)
  80db18:	dfc00515 	stw	ra,20(sp)
  80db1c:	dcc00415 	stw	r19,16(sp)
  80db20:	2025883a 	mov	r18,r4
  80db24:	29400504 	addi	r5,r5,20
  80db28:	0011883a 	mov	r8,zero
  80db2c:	28c00017 	ldw	r3,0(r5)
  80db30:	29400104 	addi	r5,r5,4
  80db34:	42000044 	addi	r8,r8,1
  80db38:	18bfffcc 	andi	r2,r3,65535
  80db3c:	1185383a 	mul	r2,r2,r6
  80db40:	1806d43a 	srli	r3,r3,16
  80db44:	11cf883a 	add	r7,r2,r7
  80db48:	3808d43a 	srli	r4,r7,16
  80db4c:	1987383a 	mul	r3,r3,r6
  80db50:	38bfffcc 	andi	r2,r7,65535
  80db54:	1907883a 	add	r3,r3,r4
  80db58:	1808943a 	slli	r4,r3,16
  80db5c:	180ed43a 	srli	r7,r3,16
  80db60:	2085883a 	add	r2,r4,r2
  80db64:	28bfff15 	stw	r2,-4(r5)
  80db68:	443ff016 	blt	r8,r16,80db2c <__alt_mem_onchip_mem+0xff805b2c>
  80db6c:	38000926 	beq	r7,zero,80db94 <__multadd+0x94>
  80db70:	88800217 	ldw	r2,8(r17)
  80db74:	80800f0e 	bge	r16,r2,80dbb4 <__multadd+0xb4>
  80db78:	80800144 	addi	r2,r16,5
  80db7c:	1085883a 	add	r2,r2,r2
  80db80:	1085883a 	add	r2,r2,r2
  80db84:	8885883a 	add	r2,r17,r2
  80db88:	11c00015 	stw	r7,0(r2)
  80db8c:	84000044 	addi	r16,r16,1
  80db90:	8c000415 	stw	r16,16(r17)
  80db94:	8805883a 	mov	r2,r17
  80db98:	dfc00517 	ldw	ra,20(sp)
  80db9c:	dcc00417 	ldw	r19,16(sp)
  80dba0:	dc800317 	ldw	r18,12(sp)
  80dba4:	dc400217 	ldw	r17,8(sp)
  80dba8:	dc000117 	ldw	r16,4(sp)
  80dbac:	dec00604 	addi	sp,sp,24
  80dbb0:	f800283a 	ret
  80dbb4:	89400117 	ldw	r5,4(r17)
  80dbb8:	9009883a 	mov	r4,r18
  80dbbc:	d9c00015 	stw	r7,0(sp)
  80dbc0:	29400044 	addi	r5,r5,1
  80dbc4:	080da300 	call	80da30 <_Balloc>
  80dbc8:	89800417 	ldw	r6,16(r17)
  80dbcc:	89400304 	addi	r5,r17,12
  80dbd0:	11000304 	addi	r4,r2,12
  80dbd4:	31800084 	addi	r6,r6,2
  80dbd8:	318d883a 	add	r6,r6,r6
  80dbdc:	318d883a 	add	r6,r6,r6
  80dbe0:	1027883a 	mov	r19,r2
  80dbe4:	080d78c0 	call	80d78c <memcpy>
  80dbe8:	d9c00017 	ldw	r7,0(sp)
  80dbec:	88000a26 	beq	r17,zero,80dc18 <__multadd+0x118>
  80dbf0:	88c00117 	ldw	r3,4(r17)
  80dbf4:	90801317 	ldw	r2,76(r18)
  80dbf8:	18c7883a 	add	r3,r3,r3
  80dbfc:	18c7883a 	add	r3,r3,r3
  80dc00:	10c5883a 	add	r2,r2,r3
  80dc04:	10c00017 	ldw	r3,0(r2)
  80dc08:	88c00015 	stw	r3,0(r17)
  80dc0c:	14400015 	stw	r17,0(r2)
  80dc10:	9823883a 	mov	r17,r19
  80dc14:	003fd806 	br	80db78 <__alt_mem_onchip_mem+0xff805b78>
  80dc18:	9823883a 	mov	r17,r19
  80dc1c:	003fd606 	br	80db78 <__alt_mem_onchip_mem+0xff805b78>

0080dc20 <__s2b>:
  80dc20:	defff904 	addi	sp,sp,-28
  80dc24:	dc400115 	stw	r17,4(sp)
  80dc28:	dc000015 	stw	r16,0(sp)
  80dc2c:	2023883a 	mov	r17,r4
  80dc30:	2821883a 	mov	r16,r5
  80dc34:	39000204 	addi	r4,r7,8
  80dc38:	01400244 	movi	r5,9
  80dc3c:	dcc00315 	stw	r19,12(sp)
  80dc40:	dc800215 	stw	r18,8(sp)
  80dc44:	dfc00615 	stw	ra,24(sp)
  80dc48:	dd400515 	stw	r21,20(sp)
  80dc4c:	dd000415 	stw	r20,16(sp)
  80dc50:	3825883a 	mov	r18,r7
  80dc54:	3027883a 	mov	r19,r6
  80dc58:	08116ec0 	call	8116ec <__divsi3>
  80dc5c:	00c00044 	movi	r3,1
  80dc60:	000b883a 	mov	r5,zero
  80dc64:	1880030e 	bge	r3,r2,80dc74 <__s2b+0x54>
  80dc68:	18c7883a 	add	r3,r3,r3
  80dc6c:	29400044 	addi	r5,r5,1
  80dc70:	18bffd16 	blt	r3,r2,80dc68 <__alt_mem_onchip_mem+0xff805c68>
  80dc74:	8809883a 	mov	r4,r17
  80dc78:	080da300 	call	80da30 <_Balloc>
  80dc7c:	d8c00717 	ldw	r3,28(sp)
  80dc80:	10c00515 	stw	r3,20(r2)
  80dc84:	00c00044 	movi	r3,1
  80dc88:	10c00415 	stw	r3,16(r2)
  80dc8c:	00c00244 	movi	r3,9
  80dc90:	1cc0210e 	bge	r3,r19,80dd18 <__s2b+0xf8>
  80dc94:	80eb883a 	add	r21,r16,r3
  80dc98:	a829883a 	mov	r20,r21
  80dc9c:	84e1883a 	add	r16,r16,r19
  80dca0:	a1c00007 	ldb	r7,0(r20)
  80dca4:	01800284 	movi	r6,10
  80dca8:	a5000044 	addi	r20,r20,1
  80dcac:	100b883a 	mov	r5,r2
  80dcb0:	39fff404 	addi	r7,r7,-48
  80dcb4:	8809883a 	mov	r4,r17
  80dcb8:	080db000 	call	80db00 <__multadd>
  80dcbc:	a43ff81e 	bne	r20,r16,80dca0 <__alt_mem_onchip_mem+0xff805ca0>
  80dcc0:	ace1883a 	add	r16,r21,r19
  80dcc4:	843ffe04 	addi	r16,r16,-8
  80dcc8:	9c800a0e 	bge	r19,r18,80dcf4 <__s2b+0xd4>
  80dccc:	94e5c83a 	sub	r18,r18,r19
  80dcd0:	84a5883a 	add	r18,r16,r18
  80dcd4:	81c00007 	ldb	r7,0(r16)
  80dcd8:	01800284 	movi	r6,10
  80dcdc:	84000044 	addi	r16,r16,1
  80dce0:	100b883a 	mov	r5,r2
  80dce4:	39fff404 	addi	r7,r7,-48
  80dce8:	8809883a 	mov	r4,r17
  80dcec:	080db000 	call	80db00 <__multadd>
  80dcf0:	84bff81e 	bne	r16,r18,80dcd4 <__alt_mem_onchip_mem+0xff805cd4>
  80dcf4:	dfc00617 	ldw	ra,24(sp)
  80dcf8:	dd400517 	ldw	r21,20(sp)
  80dcfc:	dd000417 	ldw	r20,16(sp)
  80dd00:	dcc00317 	ldw	r19,12(sp)
  80dd04:	dc800217 	ldw	r18,8(sp)
  80dd08:	dc400117 	ldw	r17,4(sp)
  80dd0c:	dc000017 	ldw	r16,0(sp)
  80dd10:	dec00704 	addi	sp,sp,28
  80dd14:	f800283a 	ret
  80dd18:	84000284 	addi	r16,r16,10
  80dd1c:	1827883a 	mov	r19,r3
  80dd20:	003fe906 	br	80dcc8 <__alt_mem_onchip_mem+0xff805cc8>

0080dd24 <__hi0bits>:
  80dd24:	20bfffec 	andhi	r2,r4,65535
  80dd28:	1000141e 	bne	r2,zero,80dd7c <__hi0bits+0x58>
  80dd2c:	2008943a 	slli	r4,r4,16
  80dd30:	00800404 	movi	r2,16
  80dd34:	20ffc02c 	andhi	r3,r4,65280
  80dd38:	1800021e 	bne	r3,zero,80dd44 <__hi0bits+0x20>
  80dd3c:	2008923a 	slli	r4,r4,8
  80dd40:	10800204 	addi	r2,r2,8
  80dd44:	20fc002c 	andhi	r3,r4,61440
  80dd48:	1800021e 	bne	r3,zero,80dd54 <__hi0bits+0x30>
  80dd4c:	2008913a 	slli	r4,r4,4
  80dd50:	10800104 	addi	r2,r2,4
  80dd54:	20f0002c 	andhi	r3,r4,49152
  80dd58:	1800031e 	bne	r3,zero,80dd68 <__hi0bits+0x44>
  80dd5c:	2109883a 	add	r4,r4,r4
  80dd60:	10800084 	addi	r2,r2,2
  80dd64:	2109883a 	add	r4,r4,r4
  80dd68:	20000316 	blt	r4,zero,80dd78 <__hi0bits+0x54>
  80dd6c:	2110002c 	andhi	r4,r4,16384
  80dd70:	2000041e 	bne	r4,zero,80dd84 <__hi0bits+0x60>
  80dd74:	00800804 	movi	r2,32
  80dd78:	f800283a 	ret
  80dd7c:	0005883a 	mov	r2,zero
  80dd80:	003fec06 	br	80dd34 <__alt_mem_onchip_mem+0xff805d34>
  80dd84:	10800044 	addi	r2,r2,1
  80dd88:	f800283a 	ret

0080dd8c <__lo0bits>:
  80dd8c:	20c00017 	ldw	r3,0(r4)
  80dd90:	188001cc 	andi	r2,r3,7
  80dd94:	10000826 	beq	r2,zero,80ddb8 <__lo0bits+0x2c>
  80dd98:	1880004c 	andi	r2,r3,1
  80dd9c:	1000211e 	bne	r2,zero,80de24 <__lo0bits+0x98>
  80dda0:	1880008c 	andi	r2,r3,2
  80dda4:	1000211e 	bne	r2,zero,80de2c <__lo0bits+0xa0>
  80dda8:	1806d0ba 	srli	r3,r3,2
  80ddac:	00800084 	movi	r2,2
  80ddb0:	20c00015 	stw	r3,0(r4)
  80ddb4:	f800283a 	ret
  80ddb8:	18bfffcc 	andi	r2,r3,65535
  80ddbc:	10001326 	beq	r2,zero,80de0c <__lo0bits+0x80>
  80ddc0:	0005883a 	mov	r2,zero
  80ddc4:	19403fcc 	andi	r5,r3,255
  80ddc8:	2800021e 	bne	r5,zero,80ddd4 <__lo0bits+0x48>
  80ddcc:	1806d23a 	srli	r3,r3,8
  80ddd0:	10800204 	addi	r2,r2,8
  80ddd4:	194003cc 	andi	r5,r3,15
  80ddd8:	2800021e 	bne	r5,zero,80dde4 <__lo0bits+0x58>
  80dddc:	1806d13a 	srli	r3,r3,4
  80dde0:	10800104 	addi	r2,r2,4
  80dde4:	194000cc 	andi	r5,r3,3
  80dde8:	2800021e 	bne	r5,zero,80ddf4 <__lo0bits+0x68>
  80ddec:	1806d0ba 	srli	r3,r3,2
  80ddf0:	10800084 	addi	r2,r2,2
  80ddf4:	1940004c 	andi	r5,r3,1
  80ddf8:	2800081e 	bne	r5,zero,80de1c <__lo0bits+0x90>
  80ddfc:	1806d07a 	srli	r3,r3,1
  80de00:	1800051e 	bne	r3,zero,80de18 <__lo0bits+0x8c>
  80de04:	00800804 	movi	r2,32
  80de08:	f800283a 	ret
  80de0c:	1806d43a 	srli	r3,r3,16
  80de10:	00800404 	movi	r2,16
  80de14:	003feb06 	br	80ddc4 <__alt_mem_onchip_mem+0xff805dc4>
  80de18:	10800044 	addi	r2,r2,1
  80de1c:	20c00015 	stw	r3,0(r4)
  80de20:	f800283a 	ret
  80de24:	0005883a 	mov	r2,zero
  80de28:	f800283a 	ret
  80de2c:	1806d07a 	srli	r3,r3,1
  80de30:	00800044 	movi	r2,1
  80de34:	20c00015 	stw	r3,0(r4)
  80de38:	f800283a 	ret

0080de3c <__i2b>:
  80de3c:	defffd04 	addi	sp,sp,-12
  80de40:	dc000015 	stw	r16,0(sp)
  80de44:	04000044 	movi	r16,1
  80de48:	dc400115 	stw	r17,4(sp)
  80de4c:	2823883a 	mov	r17,r5
  80de50:	800b883a 	mov	r5,r16
  80de54:	dfc00215 	stw	ra,8(sp)
  80de58:	080da300 	call	80da30 <_Balloc>
  80de5c:	14400515 	stw	r17,20(r2)
  80de60:	14000415 	stw	r16,16(r2)
  80de64:	dfc00217 	ldw	ra,8(sp)
  80de68:	dc400117 	ldw	r17,4(sp)
  80de6c:	dc000017 	ldw	r16,0(sp)
  80de70:	dec00304 	addi	sp,sp,12
  80de74:	f800283a 	ret

0080de78 <__multiply>:
  80de78:	defffa04 	addi	sp,sp,-24
  80de7c:	dcc00315 	stw	r19,12(sp)
  80de80:	dc800215 	stw	r18,8(sp)
  80de84:	34c00417 	ldw	r19,16(r6)
  80de88:	2c800417 	ldw	r18,16(r5)
  80de8c:	dd000415 	stw	r20,16(sp)
  80de90:	dc400115 	stw	r17,4(sp)
  80de94:	dfc00515 	stw	ra,20(sp)
  80de98:	dc000015 	stw	r16,0(sp)
  80de9c:	2829883a 	mov	r20,r5
  80dea0:	3023883a 	mov	r17,r6
  80dea4:	94c0050e 	bge	r18,r19,80debc <__multiply+0x44>
  80dea8:	9007883a 	mov	r3,r18
  80deac:	3029883a 	mov	r20,r6
  80deb0:	9825883a 	mov	r18,r19
  80deb4:	2823883a 	mov	r17,r5
  80deb8:	1827883a 	mov	r19,r3
  80debc:	a0800217 	ldw	r2,8(r20)
  80dec0:	94e1883a 	add	r16,r18,r19
  80dec4:	a1400117 	ldw	r5,4(r20)
  80dec8:	1400010e 	bge	r2,r16,80ded0 <__multiply+0x58>
  80decc:	29400044 	addi	r5,r5,1
  80ded0:	080da300 	call	80da30 <_Balloc>
  80ded4:	8415883a 	add	r10,r16,r16
  80ded8:	12c00504 	addi	r11,r2,20
  80dedc:	5295883a 	add	r10,r10,r10
  80dee0:	5a95883a 	add	r10,r11,r10
  80dee4:	5807883a 	mov	r3,r11
  80dee8:	5a80032e 	bgeu	r11,r10,80def8 <__multiply+0x80>
  80deec:	18000015 	stw	zero,0(r3)
  80def0:	18c00104 	addi	r3,r3,4
  80def4:	1abffd36 	bltu	r3,r10,80deec <__alt_mem_onchip_mem+0xff805eec>
  80def8:	9ce7883a 	add	r19,r19,r19
  80defc:	94a5883a 	add	r18,r18,r18
  80df00:	89800504 	addi	r6,r17,20
  80df04:	9ce7883a 	add	r19,r19,r19
  80df08:	a3400504 	addi	r13,r20,20
  80df0c:	94a5883a 	add	r18,r18,r18
  80df10:	34d9883a 	add	r12,r6,r19
  80df14:	6c93883a 	add	r9,r13,r18
  80df18:	3300422e 	bgeu	r6,r12,80e024 <__multiply+0x1ac>
  80df1c:	37c00017 	ldw	ra,0(r6)
  80df20:	fbffffcc 	andi	r15,ra,65535
  80df24:	78001b26 	beq	r15,zero,80df94 <__multiply+0x11c>
  80df28:	5811883a 	mov	r8,r11
  80df2c:	681d883a 	mov	r14,r13
  80df30:	000f883a 	mov	r7,zero
  80df34:	71000017 	ldw	r4,0(r14)
  80df38:	40c00017 	ldw	r3,0(r8)
  80df3c:	73800104 	addi	r14,r14,4
  80df40:	217fffcc 	andi	r5,r4,65535
  80df44:	2bcb383a 	mul	r5,r5,r15
  80df48:	2008d43a 	srli	r4,r4,16
  80df4c:	1c7fffcc 	andi	r17,r3,65535
  80df50:	2c4b883a 	add	r5,r5,r17
  80df54:	29cb883a 	add	r5,r5,r7
  80df58:	23c9383a 	mul	r4,r4,r15
  80df5c:	1806d43a 	srli	r3,r3,16
  80df60:	280ed43a 	srli	r7,r5,16
  80df64:	297fffcc 	andi	r5,r5,65535
  80df68:	20c7883a 	add	r3,r4,r3
  80df6c:	19c7883a 	add	r3,r3,r7
  80df70:	1808943a 	slli	r4,r3,16
  80df74:	4023883a 	mov	r17,r8
  80df78:	180ed43a 	srli	r7,r3,16
  80df7c:	214ab03a 	or	r5,r4,r5
  80df80:	41400015 	stw	r5,0(r8)
  80df84:	42000104 	addi	r8,r8,4
  80df88:	727fea36 	bltu	r14,r9,80df34 <__alt_mem_onchip_mem+0xff805f34>
  80df8c:	89c00115 	stw	r7,4(r17)
  80df90:	37c00017 	ldw	ra,0(r6)
  80df94:	f83ed43a 	srli	ra,ra,16
  80df98:	f8001f26 	beq	ra,zero,80e018 <__multiply+0x1a0>
  80df9c:	58c00017 	ldw	r3,0(r11)
  80dfa0:	681d883a 	mov	r14,r13
  80dfa4:	581f883a 	mov	r15,r11
  80dfa8:	1811883a 	mov	r8,r3
  80dfac:	5825883a 	mov	r18,r11
  80dfb0:	000f883a 	mov	r7,zero
  80dfb4:	00000106 	br	80dfbc <__multiply+0x144>
  80dfb8:	8825883a 	mov	r18,r17
  80dfbc:	7140000b 	ldhu	r5,0(r14)
  80dfc0:	4010d43a 	srli	r8,r8,16
  80dfc4:	193fffcc 	andi	r4,r3,65535
  80dfc8:	2fcb383a 	mul	r5,r5,ra
  80dfcc:	7bc00104 	addi	r15,r15,4
  80dfd0:	73800104 	addi	r14,r14,4
  80dfd4:	2a0b883a 	add	r5,r5,r8
  80dfd8:	29cb883a 	add	r5,r5,r7
  80dfdc:	2806943a 	slli	r3,r5,16
  80dfe0:	94400104 	addi	r17,r18,4
  80dfe4:	280ad43a 	srli	r5,r5,16
  80dfe8:	1908b03a 	or	r4,r3,r4
  80dfec:	793fff15 	stw	r4,-4(r15)
  80dff0:	70ffff17 	ldw	r3,-4(r14)
  80dff4:	8a000017 	ldw	r8,0(r17)
  80dff8:	1806d43a 	srli	r3,r3,16
  80dffc:	413fffcc 	andi	r4,r8,65535
  80e000:	1fc7383a 	mul	r3,r3,ra
  80e004:	1907883a 	add	r3,r3,r4
  80e008:	1947883a 	add	r3,r3,r5
  80e00c:	180ed43a 	srli	r7,r3,16
  80e010:	727fe936 	bltu	r14,r9,80dfb8 <__alt_mem_onchip_mem+0xff805fb8>
  80e014:	90c00115 	stw	r3,4(r18)
  80e018:	31800104 	addi	r6,r6,4
  80e01c:	5ac00104 	addi	r11,r11,4
  80e020:	333fbe36 	bltu	r6,r12,80df1c <__alt_mem_onchip_mem+0xff805f1c>
  80e024:	0400090e 	bge	zero,r16,80e04c <__multiply+0x1d4>
  80e028:	50ffff17 	ldw	r3,-4(r10)
  80e02c:	52bfff04 	addi	r10,r10,-4
  80e030:	18000326 	beq	r3,zero,80e040 <__multiply+0x1c8>
  80e034:	00000506 	br	80e04c <__multiply+0x1d4>
  80e038:	50c00017 	ldw	r3,0(r10)
  80e03c:	1800031e 	bne	r3,zero,80e04c <__multiply+0x1d4>
  80e040:	843fffc4 	addi	r16,r16,-1
  80e044:	52bfff04 	addi	r10,r10,-4
  80e048:	803ffb1e 	bne	r16,zero,80e038 <__alt_mem_onchip_mem+0xff806038>
  80e04c:	14000415 	stw	r16,16(r2)
  80e050:	dfc00517 	ldw	ra,20(sp)
  80e054:	dd000417 	ldw	r20,16(sp)
  80e058:	dcc00317 	ldw	r19,12(sp)
  80e05c:	dc800217 	ldw	r18,8(sp)
  80e060:	dc400117 	ldw	r17,4(sp)
  80e064:	dc000017 	ldw	r16,0(sp)
  80e068:	dec00604 	addi	sp,sp,24
  80e06c:	f800283a 	ret

0080e070 <__pow5mult>:
  80e070:	defffa04 	addi	sp,sp,-24
  80e074:	dcc00315 	stw	r19,12(sp)
  80e078:	dc000015 	stw	r16,0(sp)
  80e07c:	dfc00515 	stw	ra,20(sp)
  80e080:	dd000415 	stw	r20,16(sp)
  80e084:	dc800215 	stw	r18,8(sp)
  80e088:	dc400115 	stw	r17,4(sp)
  80e08c:	308000cc 	andi	r2,r6,3
  80e090:	3021883a 	mov	r16,r6
  80e094:	2027883a 	mov	r19,r4
  80e098:	10002f1e 	bne	r2,zero,80e158 <__pow5mult+0xe8>
  80e09c:	2825883a 	mov	r18,r5
  80e0a0:	8021d0ba 	srai	r16,r16,2
  80e0a4:	80001a26 	beq	r16,zero,80e110 <__pow5mult+0xa0>
  80e0a8:	9c401217 	ldw	r17,72(r19)
  80e0ac:	8800061e 	bne	r17,zero,80e0c8 <__pow5mult+0x58>
  80e0b0:	00003406 	br	80e184 <__pow5mult+0x114>
  80e0b4:	8021d07a 	srai	r16,r16,1
  80e0b8:	80001526 	beq	r16,zero,80e110 <__pow5mult+0xa0>
  80e0bc:	88800017 	ldw	r2,0(r17)
  80e0c0:	10001c26 	beq	r2,zero,80e134 <__pow5mult+0xc4>
  80e0c4:	1023883a 	mov	r17,r2
  80e0c8:	8080004c 	andi	r2,r16,1
  80e0cc:	103ff926 	beq	r2,zero,80e0b4 <__alt_mem_onchip_mem+0xff8060b4>
  80e0d0:	880d883a 	mov	r6,r17
  80e0d4:	900b883a 	mov	r5,r18
  80e0d8:	9809883a 	mov	r4,r19
  80e0dc:	080de780 	call	80de78 <__multiply>
  80e0e0:	90001b26 	beq	r18,zero,80e150 <__pow5mult+0xe0>
  80e0e4:	91000117 	ldw	r4,4(r18)
  80e0e8:	98c01317 	ldw	r3,76(r19)
  80e0ec:	8021d07a 	srai	r16,r16,1
  80e0f0:	2109883a 	add	r4,r4,r4
  80e0f4:	2109883a 	add	r4,r4,r4
  80e0f8:	1907883a 	add	r3,r3,r4
  80e0fc:	19000017 	ldw	r4,0(r3)
  80e100:	91000015 	stw	r4,0(r18)
  80e104:	1c800015 	stw	r18,0(r3)
  80e108:	1025883a 	mov	r18,r2
  80e10c:	803feb1e 	bne	r16,zero,80e0bc <__alt_mem_onchip_mem+0xff8060bc>
  80e110:	9005883a 	mov	r2,r18
  80e114:	dfc00517 	ldw	ra,20(sp)
  80e118:	dd000417 	ldw	r20,16(sp)
  80e11c:	dcc00317 	ldw	r19,12(sp)
  80e120:	dc800217 	ldw	r18,8(sp)
  80e124:	dc400117 	ldw	r17,4(sp)
  80e128:	dc000017 	ldw	r16,0(sp)
  80e12c:	dec00604 	addi	sp,sp,24
  80e130:	f800283a 	ret
  80e134:	880d883a 	mov	r6,r17
  80e138:	880b883a 	mov	r5,r17
  80e13c:	9809883a 	mov	r4,r19
  80e140:	080de780 	call	80de78 <__multiply>
  80e144:	88800015 	stw	r2,0(r17)
  80e148:	10000015 	stw	zero,0(r2)
  80e14c:	003fdd06 	br	80e0c4 <__alt_mem_onchip_mem+0xff8060c4>
  80e150:	1025883a 	mov	r18,r2
  80e154:	003fd706 	br	80e0b4 <__alt_mem_onchip_mem+0xff8060b4>
  80e158:	10bfffc4 	addi	r2,r2,-1
  80e15c:	1085883a 	add	r2,r2,r2
  80e160:	00c02074 	movhi	r3,129
  80e164:	18dbc304 	addi	r3,r3,28428
  80e168:	1085883a 	add	r2,r2,r2
  80e16c:	1885883a 	add	r2,r3,r2
  80e170:	11800017 	ldw	r6,0(r2)
  80e174:	000f883a 	mov	r7,zero
  80e178:	080db000 	call	80db00 <__multadd>
  80e17c:	1025883a 	mov	r18,r2
  80e180:	003fc706 	br	80e0a0 <__alt_mem_onchip_mem+0xff8060a0>
  80e184:	05000044 	movi	r20,1
  80e188:	a00b883a 	mov	r5,r20
  80e18c:	9809883a 	mov	r4,r19
  80e190:	080da300 	call	80da30 <_Balloc>
  80e194:	1023883a 	mov	r17,r2
  80e198:	00809c44 	movi	r2,625
  80e19c:	88800515 	stw	r2,20(r17)
  80e1a0:	8d000415 	stw	r20,16(r17)
  80e1a4:	9c401215 	stw	r17,72(r19)
  80e1a8:	88000015 	stw	zero,0(r17)
  80e1ac:	003fc606 	br	80e0c8 <__alt_mem_onchip_mem+0xff8060c8>

0080e1b0 <__lshift>:
  80e1b0:	defff904 	addi	sp,sp,-28
  80e1b4:	dd400515 	stw	r21,20(sp)
  80e1b8:	dcc00315 	stw	r19,12(sp)
  80e1bc:	302bd17a 	srai	r21,r6,5
  80e1c0:	2cc00417 	ldw	r19,16(r5)
  80e1c4:	28800217 	ldw	r2,8(r5)
  80e1c8:	dd000415 	stw	r20,16(sp)
  80e1cc:	ace7883a 	add	r19,r21,r19
  80e1d0:	dc800215 	stw	r18,8(sp)
  80e1d4:	dc400115 	stw	r17,4(sp)
  80e1d8:	dc000015 	stw	r16,0(sp)
  80e1dc:	dfc00615 	stw	ra,24(sp)
  80e1e0:	9c000044 	addi	r16,r19,1
  80e1e4:	2823883a 	mov	r17,r5
  80e1e8:	3029883a 	mov	r20,r6
  80e1ec:	2025883a 	mov	r18,r4
  80e1f0:	29400117 	ldw	r5,4(r5)
  80e1f4:	1400030e 	bge	r2,r16,80e204 <__lshift+0x54>
  80e1f8:	1085883a 	add	r2,r2,r2
  80e1fc:	29400044 	addi	r5,r5,1
  80e200:	143ffd16 	blt	r2,r16,80e1f8 <__alt_mem_onchip_mem+0xff8061f8>
  80e204:	9009883a 	mov	r4,r18
  80e208:	080da300 	call	80da30 <_Balloc>
  80e20c:	10c00504 	addi	r3,r2,20
  80e210:	0540070e 	bge	zero,r21,80e230 <__lshift+0x80>
  80e214:	ad6b883a 	add	r21,r21,r21
  80e218:	ad6b883a 	add	r21,r21,r21
  80e21c:	1809883a 	mov	r4,r3
  80e220:	1d47883a 	add	r3,r3,r21
  80e224:	20000015 	stw	zero,0(r4)
  80e228:	21000104 	addi	r4,r4,4
  80e22c:	193ffd1e 	bne	r3,r4,80e224 <__alt_mem_onchip_mem+0xff806224>
  80e230:	8a000417 	ldw	r8,16(r17)
  80e234:	89000504 	addi	r4,r17,20
  80e238:	a18007cc 	andi	r6,r20,31
  80e23c:	4211883a 	add	r8,r8,r8
  80e240:	4211883a 	add	r8,r8,r8
  80e244:	2211883a 	add	r8,r4,r8
  80e248:	30002326 	beq	r6,zero,80e2d8 <__lshift+0x128>
  80e24c:	02400804 	movi	r9,32
  80e250:	4993c83a 	sub	r9,r9,r6
  80e254:	000b883a 	mov	r5,zero
  80e258:	21c00017 	ldw	r7,0(r4)
  80e25c:	1815883a 	mov	r10,r3
  80e260:	18c00104 	addi	r3,r3,4
  80e264:	398e983a 	sll	r7,r7,r6
  80e268:	21000104 	addi	r4,r4,4
  80e26c:	394ab03a 	or	r5,r7,r5
  80e270:	197fff15 	stw	r5,-4(r3)
  80e274:	217fff17 	ldw	r5,-4(r4)
  80e278:	2a4ad83a 	srl	r5,r5,r9
  80e27c:	223ff636 	bltu	r4,r8,80e258 <__alt_mem_onchip_mem+0xff806258>
  80e280:	51400115 	stw	r5,4(r10)
  80e284:	28001a1e 	bne	r5,zero,80e2f0 <__lshift+0x140>
  80e288:	843fffc4 	addi	r16,r16,-1
  80e28c:	14000415 	stw	r16,16(r2)
  80e290:	88000826 	beq	r17,zero,80e2b4 <__lshift+0x104>
  80e294:	89000117 	ldw	r4,4(r17)
  80e298:	90c01317 	ldw	r3,76(r18)
  80e29c:	2109883a 	add	r4,r4,r4
  80e2a0:	2109883a 	add	r4,r4,r4
  80e2a4:	1907883a 	add	r3,r3,r4
  80e2a8:	19000017 	ldw	r4,0(r3)
  80e2ac:	89000015 	stw	r4,0(r17)
  80e2b0:	1c400015 	stw	r17,0(r3)
  80e2b4:	dfc00617 	ldw	ra,24(sp)
  80e2b8:	dd400517 	ldw	r21,20(sp)
  80e2bc:	dd000417 	ldw	r20,16(sp)
  80e2c0:	dcc00317 	ldw	r19,12(sp)
  80e2c4:	dc800217 	ldw	r18,8(sp)
  80e2c8:	dc400117 	ldw	r17,4(sp)
  80e2cc:	dc000017 	ldw	r16,0(sp)
  80e2d0:	dec00704 	addi	sp,sp,28
  80e2d4:	f800283a 	ret
  80e2d8:	21400017 	ldw	r5,0(r4)
  80e2dc:	18c00104 	addi	r3,r3,4
  80e2e0:	21000104 	addi	r4,r4,4
  80e2e4:	197fff15 	stw	r5,-4(r3)
  80e2e8:	223ffb36 	bltu	r4,r8,80e2d8 <__alt_mem_onchip_mem+0xff8062d8>
  80e2ec:	003fe606 	br	80e288 <__alt_mem_onchip_mem+0xff806288>
  80e2f0:	9c000084 	addi	r16,r19,2
  80e2f4:	003fe406 	br	80e288 <__alt_mem_onchip_mem+0xff806288>

0080e2f8 <__mcmp>:
  80e2f8:	20800417 	ldw	r2,16(r4)
  80e2fc:	28c00417 	ldw	r3,16(r5)
  80e300:	10c5c83a 	sub	r2,r2,r3
  80e304:	1000111e 	bne	r2,zero,80e34c <__mcmp+0x54>
  80e308:	18c7883a 	add	r3,r3,r3
  80e30c:	18c7883a 	add	r3,r3,r3
  80e310:	21000504 	addi	r4,r4,20
  80e314:	29400504 	addi	r5,r5,20
  80e318:	20c5883a 	add	r2,r4,r3
  80e31c:	28cb883a 	add	r5,r5,r3
  80e320:	00000106 	br	80e328 <__mcmp+0x30>
  80e324:	20800a2e 	bgeu	r4,r2,80e350 <__mcmp+0x58>
  80e328:	10bfff04 	addi	r2,r2,-4
  80e32c:	297fff04 	addi	r5,r5,-4
  80e330:	11800017 	ldw	r6,0(r2)
  80e334:	28c00017 	ldw	r3,0(r5)
  80e338:	30fffa26 	beq	r6,r3,80e324 <__alt_mem_onchip_mem+0xff806324>
  80e33c:	30c00236 	bltu	r6,r3,80e348 <__mcmp+0x50>
  80e340:	00800044 	movi	r2,1
  80e344:	f800283a 	ret
  80e348:	00bfffc4 	movi	r2,-1
  80e34c:	f800283a 	ret
  80e350:	0005883a 	mov	r2,zero
  80e354:	f800283a 	ret

0080e358 <__mdiff>:
  80e358:	28c00417 	ldw	r3,16(r5)
  80e35c:	30800417 	ldw	r2,16(r6)
  80e360:	defffa04 	addi	sp,sp,-24
  80e364:	dcc00315 	stw	r19,12(sp)
  80e368:	dc800215 	stw	r18,8(sp)
  80e36c:	dfc00515 	stw	ra,20(sp)
  80e370:	dd000415 	stw	r20,16(sp)
  80e374:	dc400115 	stw	r17,4(sp)
  80e378:	dc000015 	stw	r16,0(sp)
  80e37c:	1887c83a 	sub	r3,r3,r2
  80e380:	2825883a 	mov	r18,r5
  80e384:	3027883a 	mov	r19,r6
  80e388:	1800141e 	bne	r3,zero,80e3dc <__mdiff+0x84>
  80e38c:	1085883a 	add	r2,r2,r2
  80e390:	1085883a 	add	r2,r2,r2
  80e394:	2a000504 	addi	r8,r5,20
  80e398:	34000504 	addi	r16,r6,20
  80e39c:	4087883a 	add	r3,r8,r2
  80e3a0:	8085883a 	add	r2,r16,r2
  80e3a4:	00000106 	br	80e3ac <__mdiff+0x54>
  80e3a8:	40c0592e 	bgeu	r8,r3,80e510 <__mdiff+0x1b8>
  80e3ac:	18ffff04 	addi	r3,r3,-4
  80e3b0:	10bfff04 	addi	r2,r2,-4
  80e3b4:	19c00017 	ldw	r7,0(r3)
  80e3b8:	11400017 	ldw	r5,0(r2)
  80e3bc:	397ffa26 	beq	r7,r5,80e3a8 <__alt_mem_onchip_mem+0xff8063a8>
  80e3c0:	3940592e 	bgeu	r7,r5,80e528 <__mdiff+0x1d0>
  80e3c4:	9005883a 	mov	r2,r18
  80e3c8:	4023883a 	mov	r17,r8
  80e3cc:	9825883a 	mov	r18,r19
  80e3d0:	05000044 	movi	r20,1
  80e3d4:	1027883a 	mov	r19,r2
  80e3d8:	00000406 	br	80e3ec <__mdiff+0x94>
  80e3dc:	18005616 	blt	r3,zero,80e538 <__mdiff+0x1e0>
  80e3e0:	34400504 	addi	r17,r6,20
  80e3e4:	2c000504 	addi	r16,r5,20
  80e3e8:	0029883a 	mov	r20,zero
  80e3ec:	91400117 	ldw	r5,4(r18)
  80e3f0:	080da300 	call	80da30 <_Balloc>
  80e3f4:	92400417 	ldw	r9,16(r18)
  80e3f8:	9b000417 	ldw	r12,16(r19)
  80e3fc:	12c00504 	addi	r11,r2,20
  80e400:	4a51883a 	add	r8,r9,r9
  80e404:	6319883a 	add	r12,r12,r12
  80e408:	4211883a 	add	r8,r8,r8
  80e40c:	6319883a 	add	r12,r12,r12
  80e410:	15000315 	stw	r20,12(r2)
  80e414:	8211883a 	add	r8,r16,r8
  80e418:	8b19883a 	add	r12,r17,r12
  80e41c:	0007883a 	mov	r3,zero
  80e420:	81400017 	ldw	r5,0(r16)
  80e424:	89c00017 	ldw	r7,0(r17)
  80e428:	59800104 	addi	r6,r11,4
  80e42c:	293fffcc 	andi	r4,r5,65535
  80e430:	20c7883a 	add	r3,r4,r3
  80e434:	393fffcc 	andi	r4,r7,65535
  80e438:	1909c83a 	sub	r4,r3,r4
  80e43c:	280ad43a 	srli	r5,r5,16
  80e440:	380ed43a 	srli	r7,r7,16
  80e444:	2007d43a 	srai	r3,r4,16
  80e448:	213fffcc 	andi	r4,r4,65535
  80e44c:	29cbc83a 	sub	r5,r5,r7
  80e450:	28c7883a 	add	r3,r5,r3
  80e454:	180a943a 	slli	r5,r3,16
  80e458:	8c400104 	addi	r17,r17,4
  80e45c:	84000104 	addi	r16,r16,4
  80e460:	2908b03a 	or	r4,r5,r4
  80e464:	59000015 	stw	r4,0(r11)
  80e468:	1807d43a 	srai	r3,r3,16
  80e46c:	3015883a 	mov	r10,r6
  80e470:	3017883a 	mov	r11,r6
  80e474:	8b3fea36 	bltu	r17,r12,80e420 <__alt_mem_onchip_mem+0xff806420>
  80e478:	8200162e 	bgeu	r16,r8,80e4d4 <__mdiff+0x17c>
  80e47c:	8017883a 	mov	r11,r16
  80e480:	59400017 	ldw	r5,0(r11)
  80e484:	31800104 	addi	r6,r6,4
  80e488:	5ac00104 	addi	r11,r11,4
  80e48c:	293fffcc 	andi	r4,r5,65535
  80e490:	20c7883a 	add	r3,r4,r3
  80e494:	280ed43a 	srli	r7,r5,16
  80e498:	180bd43a 	srai	r5,r3,16
  80e49c:	193fffcc 	andi	r4,r3,65535
  80e4a0:	3947883a 	add	r3,r7,r5
  80e4a4:	180a943a 	slli	r5,r3,16
  80e4a8:	1807d43a 	srai	r3,r3,16
  80e4ac:	2908b03a 	or	r4,r5,r4
  80e4b0:	313fff15 	stw	r4,-4(r6)
  80e4b4:	5a3ff236 	bltu	r11,r8,80e480 <__alt_mem_onchip_mem+0xff806480>
  80e4b8:	0406303a 	nor	r3,zero,r16
  80e4bc:	1a07883a 	add	r3,r3,r8
  80e4c0:	1806d0ba 	srli	r3,r3,2
  80e4c4:	18c00044 	addi	r3,r3,1
  80e4c8:	18c7883a 	add	r3,r3,r3
  80e4cc:	18c7883a 	add	r3,r3,r3
  80e4d0:	50d5883a 	add	r10,r10,r3
  80e4d4:	50ffff04 	addi	r3,r10,-4
  80e4d8:	2000041e 	bne	r4,zero,80e4ec <__mdiff+0x194>
  80e4dc:	18ffff04 	addi	r3,r3,-4
  80e4e0:	19000017 	ldw	r4,0(r3)
  80e4e4:	4a7fffc4 	addi	r9,r9,-1
  80e4e8:	203ffc26 	beq	r4,zero,80e4dc <__alt_mem_onchip_mem+0xff8064dc>
  80e4ec:	12400415 	stw	r9,16(r2)
  80e4f0:	dfc00517 	ldw	ra,20(sp)
  80e4f4:	dd000417 	ldw	r20,16(sp)
  80e4f8:	dcc00317 	ldw	r19,12(sp)
  80e4fc:	dc800217 	ldw	r18,8(sp)
  80e500:	dc400117 	ldw	r17,4(sp)
  80e504:	dc000017 	ldw	r16,0(sp)
  80e508:	dec00604 	addi	sp,sp,24
  80e50c:	f800283a 	ret
  80e510:	000b883a 	mov	r5,zero
  80e514:	080da300 	call	80da30 <_Balloc>
  80e518:	00c00044 	movi	r3,1
  80e51c:	10c00415 	stw	r3,16(r2)
  80e520:	10000515 	stw	zero,20(r2)
  80e524:	003ff206 	br	80e4f0 <__alt_mem_onchip_mem+0xff8064f0>
  80e528:	8023883a 	mov	r17,r16
  80e52c:	0029883a 	mov	r20,zero
  80e530:	4021883a 	mov	r16,r8
  80e534:	003fad06 	br	80e3ec <__alt_mem_onchip_mem+0xff8063ec>
  80e538:	9005883a 	mov	r2,r18
  80e53c:	94400504 	addi	r17,r18,20
  80e540:	9c000504 	addi	r16,r19,20
  80e544:	9825883a 	mov	r18,r19
  80e548:	05000044 	movi	r20,1
  80e54c:	1027883a 	mov	r19,r2
  80e550:	003fa606 	br	80e3ec <__alt_mem_onchip_mem+0xff8063ec>

0080e554 <__ulp>:
  80e554:	295ffc2c 	andhi	r5,r5,32752
  80e558:	00bf3034 	movhi	r2,64704
  80e55c:	2887883a 	add	r3,r5,r2
  80e560:	00c0020e 	bge	zero,r3,80e56c <__ulp+0x18>
  80e564:	0005883a 	mov	r2,zero
  80e568:	f800283a 	ret
  80e56c:	00c7c83a 	sub	r3,zero,r3
  80e570:	1807d53a 	srai	r3,r3,20
  80e574:	008004c4 	movi	r2,19
  80e578:	10c00b0e 	bge	r2,r3,80e5a8 <__ulp+0x54>
  80e57c:	18bffb04 	addi	r2,r3,-20
  80e580:	01000784 	movi	r4,30
  80e584:	0007883a 	mov	r3,zero
  80e588:	20800516 	blt	r4,r2,80e5a0 <__ulp+0x4c>
  80e58c:	010007c4 	movi	r4,31
  80e590:	2089c83a 	sub	r4,r4,r2
  80e594:	00800044 	movi	r2,1
  80e598:	1104983a 	sll	r2,r2,r4
  80e59c:	f800283a 	ret
  80e5a0:	00800044 	movi	r2,1
  80e5a4:	f800283a 	ret
  80e5a8:	01400234 	movhi	r5,8
  80e5ac:	28c7d83a 	sra	r3,r5,r3
  80e5b0:	0005883a 	mov	r2,zero
  80e5b4:	f800283a 	ret

0080e5b8 <__b2d>:
  80e5b8:	defffa04 	addi	sp,sp,-24
  80e5bc:	dc000015 	stw	r16,0(sp)
  80e5c0:	24000417 	ldw	r16,16(r4)
  80e5c4:	dc400115 	stw	r17,4(sp)
  80e5c8:	24400504 	addi	r17,r4,20
  80e5cc:	8421883a 	add	r16,r16,r16
  80e5d0:	8421883a 	add	r16,r16,r16
  80e5d4:	8c21883a 	add	r16,r17,r16
  80e5d8:	dc800215 	stw	r18,8(sp)
  80e5dc:	84bfff17 	ldw	r18,-4(r16)
  80e5e0:	dd000415 	stw	r20,16(sp)
  80e5e4:	dcc00315 	stw	r19,12(sp)
  80e5e8:	9009883a 	mov	r4,r18
  80e5ec:	2829883a 	mov	r20,r5
  80e5f0:	dfc00515 	stw	ra,20(sp)
  80e5f4:	080dd240 	call	80dd24 <__hi0bits>
  80e5f8:	00c00804 	movi	r3,32
  80e5fc:	1889c83a 	sub	r4,r3,r2
  80e600:	a1000015 	stw	r4,0(r20)
  80e604:	01000284 	movi	r4,10
  80e608:	84ffff04 	addi	r19,r16,-4
  80e60c:	20801216 	blt	r4,r2,80e658 <__b2d+0xa0>
  80e610:	018002c4 	movi	r6,11
  80e614:	308dc83a 	sub	r6,r6,r2
  80e618:	9186d83a 	srl	r3,r18,r6
  80e61c:	18cffc34 	orhi	r3,r3,16368
  80e620:	8cc0212e 	bgeu	r17,r19,80e6a8 <__b2d+0xf0>
  80e624:	813ffe17 	ldw	r4,-8(r16)
  80e628:	218cd83a 	srl	r6,r4,r6
  80e62c:	10800544 	addi	r2,r2,21
  80e630:	9084983a 	sll	r2,r18,r2
  80e634:	1184b03a 	or	r2,r2,r6
  80e638:	dfc00517 	ldw	ra,20(sp)
  80e63c:	dd000417 	ldw	r20,16(sp)
  80e640:	dcc00317 	ldw	r19,12(sp)
  80e644:	dc800217 	ldw	r18,8(sp)
  80e648:	dc400117 	ldw	r17,4(sp)
  80e64c:	dc000017 	ldw	r16,0(sp)
  80e650:	dec00604 	addi	sp,sp,24
  80e654:	f800283a 	ret
  80e658:	8cc00f2e 	bgeu	r17,r19,80e698 <__b2d+0xe0>
  80e65c:	117ffd44 	addi	r5,r2,-11
  80e660:	80bffe17 	ldw	r2,-8(r16)
  80e664:	28000e26 	beq	r5,zero,80e6a0 <__b2d+0xe8>
  80e668:	1949c83a 	sub	r4,r3,r5
  80e66c:	9164983a 	sll	r18,r18,r5
  80e670:	1106d83a 	srl	r3,r2,r4
  80e674:	81bffe04 	addi	r6,r16,-8
  80e678:	948ffc34 	orhi	r18,r18,16368
  80e67c:	90c6b03a 	or	r3,r18,r3
  80e680:	89800e2e 	bgeu	r17,r6,80e6bc <__b2d+0x104>
  80e684:	81bffd17 	ldw	r6,-12(r16)
  80e688:	1144983a 	sll	r2,r2,r5
  80e68c:	310ad83a 	srl	r5,r6,r4
  80e690:	2884b03a 	or	r2,r5,r2
  80e694:	003fe806 	br	80e638 <__alt_mem_onchip_mem+0xff806638>
  80e698:	10bffd44 	addi	r2,r2,-11
  80e69c:	1000041e 	bne	r2,zero,80e6b0 <__b2d+0xf8>
  80e6a0:	90cffc34 	orhi	r3,r18,16368
  80e6a4:	003fe406 	br	80e638 <__alt_mem_onchip_mem+0xff806638>
  80e6a8:	000d883a 	mov	r6,zero
  80e6ac:	003fdf06 	br	80e62c <__alt_mem_onchip_mem+0xff80662c>
  80e6b0:	90a4983a 	sll	r18,r18,r2
  80e6b4:	0005883a 	mov	r2,zero
  80e6b8:	003ff906 	br	80e6a0 <__alt_mem_onchip_mem+0xff8066a0>
  80e6bc:	1144983a 	sll	r2,r2,r5
  80e6c0:	003fdd06 	br	80e638 <__alt_mem_onchip_mem+0xff806638>

0080e6c4 <__d2b>:
  80e6c4:	defff804 	addi	sp,sp,-32
  80e6c8:	dc000215 	stw	r16,8(sp)
  80e6cc:	3021883a 	mov	r16,r6
  80e6d0:	dc400315 	stw	r17,12(sp)
  80e6d4:	8022907a 	slli	r17,r16,1
  80e6d8:	dd000615 	stw	r20,24(sp)
  80e6dc:	2829883a 	mov	r20,r5
  80e6e0:	01400044 	movi	r5,1
  80e6e4:	dcc00515 	stw	r19,20(sp)
  80e6e8:	dc800415 	stw	r18,16(sp)
  80e6ec:	dfc00715 	stw	ra,28(sp)
  80e6f0:	3825883a 	mov	r18,r7
  80e6f4:	8822d57a 	srli	r17,r17,21
  80e6f8:	080da300 	call	80da30 <_Balloc>
  80e6fc:	1027883a 	mov	r19,r2
  80e700:	00800434 	movhi	r2,16
  80e704:	10bfffc4 	addi	r2,r2,-1
  80e708:	808c703a 	and	r6,r16,r2
  80e70c:	88000126 	beq	r17,zero,80e714 <__d2b+0x50>
  80e710:	31800434 	orhi	r6,r6,16
  80e714:	d9800015 	stw	r6,0(sp)
  80e718:	a0002426 	beq	r20,zero,80e7ac <__d2b+0xe8>
  80e71c:	d9000104 	addi	r4,sp,4
  80e720:	dd000115 	stw	r20,4(sp)
  80e724:	080dd8c0 	call	80dd8c <__lo0bits>
  80e728:	d8c00017 	ldw	r3,0(sp)
  80e72c:	10002f1e 	bne	r2,zero,80e7ec <__d2b+0x128>
  80e730:	d9000117 	ldw	r4,4(sp)
  80e734:	99000515 	stw	r4,20(r19)
  80e738:	1821003a 	cmpeq	r16,r3,zero
  80e73c:	01000084 	movi	r4,2
  80e740:	2421c83a 	sub	r16,r4,r16
  80e744:	98c00615 	stw	r3,24(r19)
  80e748:	9c000415 	stw	r16,16(r19)
  80e74c:	88001f1e 	bne	r17,zero,80e7cc <__d2b+0x108>
  80e750:	10bef384 	addi	r2,r2,-1074
  80e754:	90800015 	stw	r2,0(r18)
  80e758:	00900034 	movhi	r2,16384
  80e75c:	10bfffc4 	addi	r2,r2,-1
  80e760:	8085883a 	add	r2,r16,r2
  80e764:	1085883a 	add	r2,r2,r2
  80e768:	1085883a 	add	r2,r2,r2
  80e76c:	9885883a 	add	r2,r19,r2
  80e770:	11000517 	ldw	r4,20(r2)
  80e774:	8020917a 	slli	r16,r16,5
  80e778:	080dd240 	call	80dd24 <__hi0bits>
  80e77c:	d8c00817 	ldw	r3,32(sp)
  80e780:	8085c83a 	sub	r2,r16,r2
  80e784:	18800015 	stw	r2,0(r3)
  80e788:	9805883a 	mov	r2,r19
  80e78c:	dfc00717 	ldw	ra,28(sp)
  80e790:	dd000617 	ldw	r20,24(sp)
  80e794:	dcc00517 	ldw	r19,20(sp)
  80e798:	dc800417 	ldw	r18,16(sp)
  80e79c:	dc400317 	ldw	r17,12(sp)
  80e7a0:	dc000217 	ldw	r16,8(sp)
  80e7a4:	dec00804 	addi	sp,sp,32
  80e7a8:	f800283a 	ret
  80e7ac:	d809883a 	mov	r4,sp
  80e7b0:	080dd8c0 	call	80dd8c <__lo0bits>
  80e7b4:	d8c00017 	ldw	r3,0(sp)
  80e7b8:	04000044 	movi	r16,1
  80e7bc:	9c000415 	stw	r16,16(r19)
  80e7c0:	98c00515 	stw	r3,20(r19)
  80e7c4:	10800804 	addi	r2,r2,32
  80e7c8:	883fe126 	beq	r17,zero,80e750 <__alt_mem_onchip_mem+0xff806750>
  80e7cc:	00c00d44 	movi	r3,53
  80e7d0:	8c7ef344 	addi	r17,r17,-1075
  80e7d4:	88a3883a 	add	r17,r17,r2
  80e7d8:	1885c83a 	sub	r2,r3,r2
  80e7dc:	d8c00817 	ldw	r3,32(sp)
  80e7e0:	94400015 	stw	r17,0(r18)
  80e7e4:	18800015 	stw	r2,0(r3)
  80e7e8:	003fe706 	br	80e788 <__alt_mem_onchip_mem+0xff806788>
  80e7ec:	01000804 	movi	r4,32
  80e7f0:	2089c83a 	sub	r4,r4,r2
  80e7f4:	1908983a 	sll	r4,r3,r4
  80e7f8:	d9400117 	ldw	r5,4(sp)
  80e7fc:	1886d83a 	srl	r3,r3,r2
  80e800:	2148b03a 	or	r4,r4,r5
  80e804:	99000515 	stw	r4,20(r19)
  80e808:	d8c00015 	stw	r3,0(sp)
  80e80c:	003fca06 	br	80e738 <__alt_mem_onchip_mem+0xff806738>

0080e810 <__ratio>:
  80e810:	defff904 	addi	sp,sp,-28
  80e814:	dc400315 	stw	r17,12(sp)
  80e818:	2823883a 	mov	r17,r5
  80e81c:	d9400104 	addi	r5,sp,4
  80e820:	dfc00615 	stw	ra,24(sp)
  80e824:	dcc00515 	stw	r19,20(sp)
  80e828:	dc800415 	stw	r18,16(sp)
  80e82c:	2027883a 	mov	r19,r4
  80e830:	dc000215 	stw	r16,8(sp)
  80e834:	080e5b80 	call	80e5b8 <__b2d>
  80e838:	d80b883a 	mov	r5,sp
  80e83c:	8809883a 	mov	r4,r17
  80e840:	1025883a 	mov	r18,r2
  80e844:	1821883a 	mov	r16,r3
  80e848:	080e5b80 	call	80e5b8 <__b2d>
  80e84c:	8a000417 	ldw	r8,16(r17)
  80e850:	99000417 	ldw	r4,16(r19)
  80e854:	d9400117 	ldw	r5,4(sp)
  80e858:	2209c83a 	sub	r4,r4,r8
  80e85c:	2010917a 	slli	r8,r4,5
  80e860:	d9000017 	ldw	r4,0(sp)
  80e864:	2909c83a 	sub	r4,r5,r4
  80e868:	4109883a 	add	r4,r8,r4
  80e86c:	01000e0e 	bge	zero,r4,80e8a8 <__ratio+0x98>
  80e870:	2008953a 	slli	r4,r4,20
  80e874:	2421883a 	add	r16,r4,r16
  80e878:	100d883a 	mov	r6,r2
  80e87c:	180f883a 	mov	r7,r3
  80e880:	9009883a 	mov	r4,r18
  80e884:	800b883a 	mov	r5,r16
  80e888:	08118a00 	call	8118a0 <__divdf3>
  80e88c:	dfc00617 	ldw	ra,24(sp)
  80e890:	dcc00517 	ldw	r19,20(sp)
  80e894:	dc800417 	ldw	r18,16(sp)
  80e898:	dc400317 	ldw	r17,12(sp)
  80e89c:	dc000217 	ldw	r16,8(sp)
  80e8a0:	dec00704 	addi	sp,sp,28
  80e8a4:	f800283a 	ret
  80e8a8:	2008953a 	slli	r4,r4,20
  80e8ac:	1907c83a 	sub	r3,r3,r4
  80e8b0:	003ff106 	br	80e878 <__alt_mem_onchip_mem+0xff806878>

0080e8b4 <_mprec_log10>:
  80e8b4:	defffe04 	addi	sp,sp,-8
  80e8b8:	dc000015 	stw	r16,0(sp)
  80e8bc:	dfc00115 	stw	ra,4(sp)
  80e8c0:	008005c4 	movi	r2,23
  80e8c4:	2021883a 	mov	r16,r4
  80e8c8:	11000d0e 	bge	r2,r4,80e900 <_mprec_log10+0x4c>
  80e8cc:	0005883a 	mov	r2,zero
  80e8d0:	00cffc34 	movhi	r3,16368
  80e8d4:	843fffc4 	addi	r16,r16,-1
  80e8d8:	000d883a 	mov	r6,zero
  80e8dc:	01d00934 	movhi	r7,16420
  80e8e0:	1009883a 	mov	r4,r2
  80e8e4:	180b883a 	mov	r5,r3
  80e8e8:	08122100 	call	812210 <__muldf3>
  80e8ec:	803ff91e 	bne	r16,zero,80e8d4 <__alt_mem_onchip_mem+0xff8068d4>
  80e8f0:	dfc00117 	ldw	ra,4(sp)
  80e8f4:	dc000017 	ldw	r16,0(sp)
  80e8f8:	dec00204 	addi	sp,sp,8
  80e8fc:	f800283a 	ret
  80e900:	202090fa 	slli	r16,r4,3
  80e904:	00802074 	movhi	r2,129
  80e908:	109bda04 	addi	r2,r2,28520
  80e90c:	1421883a 	add	r16,r2,r16
  80e910:	80800017 	ldw	r2,0(r16)
  80e914:	80c00117 	ldw	r3,4(r16)
  80e918:	dfc00117 	ldw	ra,4(sp)
  80e91c:	dc000017 	ldw	r16,0(sp)
  80e920:	dec00204 	addi	sp,sp,8
  80e924:	f800283a 	ret

0080e928 <__copybits>:
  80e928:	297fffc4 	addi	r5,r5,-1
  80e92c:	280fd17a 	srai	r7,r5,5
  80e930:	30c00417 	ldw	r3,16(r6)
  80e934:	30800504 	addi	r2,r6,20
  80e938:	39c00044 	addi	r7,r7,1
  80e93c:	18c7883a 	add	r3,r3,r3
  80e940:	39cf883a 	add	r7,r7,r7
  80e944:	18c7883a 	add	r3,r3,r3
  80e948:	39cf883a 	add	r7,r7,r7
  80e94c:	10c7883a 	add	r3,r2,r3
  80e950:	21cf883a 	add	r7,r4,r7
  80e954:	10c00d2e 	bgeu	r2,r3,80e98c <__copybits+0x64>
  80e958:	200b883a 	mov	r5,r4
  80e95c:	12000017 	ldw	r8,0(r2)
  80e960:	29400104 	addi	r5,r5,4
  80e964:	10800104 	addi	r2,r2,4
  80e968:	2a3fff15 	stw	r8,-4(r5)
  80e96c:	10fffb36 	bltu	r2,r3,80e95c <__alt_mem_onchip_mem+0xff80695c>
  80e970:	1985c83a 	sub	r2,r3,r6
  80e974:	10bffac4 	addi	r2,r2,-21
  80e978:	1004d0ba 	srli	r2,r2,2
  80e97c:	10800044 	addi	r2,r2,1
  80e980:	1085883a 	add	r2,r2,r2
  80e984:	1085883a 	add	r2,r2,r2
  80e988:	2089883a 	add	r4,r4,r2
  80e98c:	21c0032e 	bgeu	r4,r7,80e99c <__copybits+0x74>
  80e990:	20000015 	stw	zero,0(r4)
  80e994:	21000104 	addi	r4,r4,4
  80e998:	21fffd36 	bltu	r4,r7,80e990 <__alt_mem_onchip_mem+0xff806990>
  80e99c:	f800283a 	ret

0080e9a0 <__any_on>:
  80e9a0:	20c00417 	ldw	r3,16(r4)
  80e9a4:	2805d17a 	srai	r2,r5,5
  80e9a8:	21000504 	addi	r4,r4,20
  80e9ac:	18800d0e 	bge	r3,r2,80e9e4 <__any_on+0x44>
  80e9b0:	18c7883a 	add	r3,r3,r3
  80e9b4:	18c7883a 	add	r3,r3,r3
  80e9b8:	20c7883a 	add	r3,r4,r3
  80e9bc:	20c0192e 	bgeu	r4,r3,80ea24 <__any_on+0x84>
  80e9c0:	18bfff17 	ldw	r2,-4(r3)
  80e9c4:	18ffff04 	addi	r3,r3,-4
  80e9c8:	1000041e 	bne	r2,zero,80e9dc <__any_on+0x3c>
  80e9cc:	20c0142e 	bgeu	r4,r3,80ea20 <__any_on+0x80>
  80e9d0:	18ffff04 	addi	r3,r3,-4
  80e9d4:	19400017 	ldw	r5,0(r3)
  80e9d8:	283ffc26 	beq	r5,zero,80e9cc <__alt_mem_onchip_mem+0xff8069cc>
  80e9dc:	00800044 	movi	r2,1
  80e9e0:	f800283a 	ret
  80e9e4:	10c00a0e 	bge	r2,r3,80ea10 <__any_on+0x70>
  80e9e8:	1085883a 	add	r2,r2,r2
  80e9ec:	1085883a 	add	r2,r2,r2
  80e9f0:	294007cc 	andi	r5,r5,31
  80e9f4:	2087883a 	add	r3,r4,r2
  80e9f8:	283ff026 	beq	r5,zero,80e9bc <__alt_mem_onchip_mem+0xff8069bc>
  80e9fc:	19800017 	ldw	r6,0(r3)
  80ea00:	3144d83a 	srl	r2,r6,r5
  80ea04:	114a983a 	sll	r5,r2,r5
  80ea08:	317ff41e 	bne	r6,r5,80e9dc <__alt_mem_onchip_mem+0xff8069dc>
  80ea0c:	003feb06 	br	80e9bc <__alt_mem_onchip_mem+0xff8069bc>
  80ea10:	1085883a 	add	r2,r2,r2
  80ea14:	1085883a 	add	r2,r2,r2
  80ea18:	2087883a 	add	r3,r4,r2
  80ea1c:	003fe706 	br	80e9bc <__alt_mem_onchip_mem+0xff8069bc>
  80ea20:	f800283a 	ret
  80ea24:	0005883a 	mov	r2,zero
  80ea28:	f800283a 	ret

0080ea2c <_read_r>:
  80ea2c:	defffd04 	addi	sp,sp,-12
  80ea30:	2805883a 	mov	r2,r5
  80ea34:	dc000015 	stw	r16,0(sp)
  80ea38:	040020b4 	movhi	r16,130
  80ea3c:	dc400115 	stw	r17,4(sp)
  80ea40:	300b883a 	mov	r5,r6
  80ea44:	842b3604 	addi	r16,r16,-21288
  80ea48:	2023883a 	mov	r17,r4
  80ea4c:	380d883a 	mov	r6,r7
  80ea50:	1009883a 	mov	r4,r2
  80ea54:	dfc00215 	stw	ra,8(sp)
  80ea58:	80000015 	stw	zero,0(r16)
  80ea5c:	08135500 	call	813550 <read>
  80ea60:	00ffffc4 	movi	r3,-1
  80ea64:	10c00526 	beq	r2,r3,80ea7c <_read_r+0x50>
  80ea68:	dfc00217 	ldw	ra,8(sp)
  80ea6c:	dc400117 	ldw	r17,4(sp)
  80ea70:	dc000017 	ldw	r16,0(sp)
  80ea74:	dec00304 	addi	sp,sp,12
  80ea78:	f800283a 	ret
  80ea7c:	80c00017 	ldw	r3,0(r16)
  80ea80:	183ff926 	beq	r3,zero,80ea68 <__alt_mem_onchip_mem+0xff806a68>
  80ea84:	88c00015 	stw	r3,0(r17)
  80ea88:	003ff706 	br	80ea68 <__alt_mem_onchip_mem+0xff806a68>

0080ea8c <_realloc_r>:
  80ea8c:	defff604 	addi	sp,sp,-40
  80ea90:	dc800215 	stw	r18,8(sp)
  80ea94:	dfc00915 	stw	ra,36(sp)
  80ea98:	df000815 	stw	fp,32(sp)
  80ea9c:	ddc00715 	stw	r23,28(sp)
  80eaa0:	dd800615 	stw	r22,24(sp)
  80eaa4:	dd400515 	stw	r21,20(sp)
  80eaa8:	dd000415 	stw	r20,16(sp)
  80eaac:	dcc00315 	stw	r19,12(sp)
  80eab0:	dc400115 	stw	r17,4(sp)
  80eab4:	dc000015 	stw	r16,0(sp)
  80eab8:	3025883a 	mov	r18,r6
  80eabc:	2800b726 	beq	r5,zero,80ed9c <_realloc_r+0x310>
  80eac0:	282b883a 	mov	r21,r5
  80eac4:	2029883a 	mov	r20,r4
  80eac8:	08132780 	call	813278 <__malloc_lock>
  80eacc:	a8bfff17 	ldw	r2,-4(r21)
  80ead0:	043fff04 	movi	r16,-4
  80ead4:	90c002c4 	addi	r3,r18,11
  80ead8:	01000584 	movi	r4,22
  80eadc:	acfffe04 	addi	r19,r21,-8
  80eae0:	1420703a 	and	r16,r2,r16
  80eae4:	20c0332e 	bgeu	r4,r3,80ebb4 <_realloc_r+0x128>
  80eae8:	047ffe04 	movi	r17,-8
  80eaec:	1c62703a 	and	r17,r3,r17
  80eaf0:	8807883a 	mov	r3,r17
  80eaf4:	88005816 	blt	r17,zero,80ec58 <_realloc_r+0x1cc>
  80eaf8:	8c805736 	bltu	r17,r18,80ec58 <_realloc_r+0x1cc>
  80eafc:	80c0300e 	bge	r16,r3,80ebc0 <_realloc_r+0x134>
  80eb00:	07002074 	movhi	fp,129
  80eb04:	e71dce04 	addi	fp,fp,30520
  80eb08:	e1c00217 	ldw	r7,8(fp)
  80eb0c:	9c09883a 	add	r4,r19,r16
  80eb10:	22000117 	ldw	r8,4(r4)
  80eb14:	21c06326 	beq	r4,r7,80eca4 <_realloc_r+0x218>
  80eb18:	017fff84 	movi	r5,-2
  80eb1c:	414a703a 	and	r5,r8,r5
  80eb20:	214b883a 	add	r5,r4,r5
  80eb24:	29800117 	ldw	r6,4(r5)
  80eb28:	3180004c 	andi	r6,r6,1
  80eb2c:	30003f26 	beq	r6,zero,80ec2c <_realloc_r+0x1a0>
  80eb30:	1080004c 	andi	r2,r2,1
  80eb34:	10008326 	beq	r2,zero,80ed44 <_realloc_r+0x2b8>
  80eb38:	900b883a 	mov	r5,r18
  80eb3c:	a009883a 	mov	r4,r20
  80eb40:	08080a00 	call	8080a0 <_malloc_r>
  80eb44:	1025883a 	mov	r18,r2
  80eb48:	10011e26 	beq	r2,zero,80efc4 <_realloc_r+0x538>
  80eb4c:	a93fff17 	ldw	r4,-4(r21)
  80eb50:	10fffe04 	addi	r3,r2,-8
  80eb54:	00bfff84 	movi	r2,-2
  80eb58:	2084703a 	and	r2,r4,r2
  80eb5c:	9885883a 	add	r2,r19,r2
  80eb60:	1880ee26 	beq	r3,r2,80ef1c <_realloc_r+0x490>
  80eb64:	81bfff04 	addi	r6,r16,-4
  80eb68:	00800904 	movi	r2,36
  80eb6c:	1180b836 	bltu	r2,r6,80ee50 <_realloc_r+0x3c4>
  80eb70:	00c004c4 	movi	r3,19
  80eb74:	19809636 	bltu	r3,r6,80edd0 <_realloc_r+0x344>
  80eb78:	9005883a 	mov	r2,r18
  80eb7c:	a807883a 	mov	r3,r21
  80eb80:	19000017 	ldw	r4,0(r3)
  80eb84:	11000015 	stw	r4,0(r2)
  80eb88:	19000117 	ldw	r4,4(r3)
  80eb8c:	11000115 	stw	r4,4(r2)
  80eb90:	18c00217 	ldw	r3,8(r3)
  80eb94:	10c00215 	stw	r3,8(r2)
  80eb98:	a80b883a 	mov	r5,r21
  80eb9c:	a009883a 	mov	r4,r20
  80eba0:	08075700 	call	807570 <_free_r>
  80eba4:	a009883a 	mov	r4,r20
  80eba8:	081329c0 	call	81329c <__malloc_unlock>
  80ebac:	9005883a 	mov	r2,r18
  80ebb0:	00001206 	br	80ebfc <_realloc_r+0x170>
  80ebb4:	00c00404 	movi	r3,16
  80ebb8:	1823883a 	mov	r17,r3
  80ebbc:	003fce06 	br	80eaf8 <__alt_mem_onchip_mem+0xff806af8>
  80ebc0:	a825883a 	mov	r18,r21
  80ebc4:	8445c83a 	sub	r2,r16,r17
  80ebc8:	00c003c4 	movi	r3,15
  80ebcc:	18802636 	bltu	r3,r2,80ec68 <_realloc_r+0x1dc>
  80ebd0:	99800117 	ldw	r6,4(r19)
  80ebd4:	9c07883a 	add	r3,r19,r16
  80ebd8:	3180004c 	andi	r6,r6,1
  80ebdc:	3420b03a 	or	r16,r6,r16
  80ebe0:	9c000115 	stw	r16,4(r19)
  80ebe4:	18800117 	ldw	r2,4(r3)
  80ebe8:	10800054 	ori	r2,r2,1
  80ebec:	18800115 	stw	r2,4(r3)
  80ebf0:	a009883a 	mov	r4,r20
  80ebf4:	081329c0 	call	81329c <__malloc_unlock>
  80ebf8:	9005883a 	mov	r2,r18
  80ebfc:	dfc00917 	ldw	ra,36(sp)
  80ec00:	df000817 	ldw	fp,32(sp)
  80ec04:	ddc00717 	ldw	r23,28(sp)
  80ec08:	dd800617 	ldw	r22,24(sp)
  80ec0c:	dd400517 	ldw	r21,20(sp)
  80ec10:	dd000417 	ldw	r20,16(sp)
  80ec14:	dcc00317 	ldw	r19,12(sp)
  80ec18:	dc800217 	ldw	r18,8(sp)
  80ec1c:	dc400117 	ldw	r17,4(sp)
  80ec20:	dc000017 	ldw	r16,0(sp)
  80ec24:	dec00a04 	addi	sp,sp,40
  80ec28:	f800283a 	ret
  80ec2c:	017fff04 	movi	r5,-4
  80ec30:	414a703a 	and	r5,r8,r5
  80ec34:	814d883a 	add	r6,r16,r5
  80ec38:	30c01f16 	blt	r6,r3,80ecb8 <_realloc_r+0x22c>
  80ec3c:	20800317 	ldw	r2,12(r4)
  80ec40:	20c00217 	ldw	r3,8(r4)
  80ec44:	a825883a 	mov	r18,r21
  80ec48:	3021883a 	mov	r16,r6
  80ec4c:	18800315 	stw	r2,12(r3)
  80ec50:	10c00215 	stw	r3,8(r2)
  80ec54:	003fdb06 	br	80ebc4 <__alt_mem_onchip_mem+0xff806bc4>
  80ec58:	00800304 	movi	r2,12
  80ec5c:	a0800015 	stw	r2,0(r20)
  80ec60:	0005883a 	mov	r2,zero
  80ec64:	003fe506 	br	80ebfc <__alt_mem_onchip_mem+0xff806bfc>
  80ec68:	98c00117 	ldw	r3,4(r19)
  80ec6c:	9c4b883a 	add	r5,r19,r17
  80ec70:	11000054 	ori	r4,r2,1
  80ec74:	18c0004c 	andi	r3,r3,1
  80ec78:	1c62b03a 	or	r17,r3,r17
  80ec7c:	9c400115 	stw	r17,4(r19)
  80ec80:	29000115 	stw	r4,4(r5)
  80ec84:	2885883a 	add	r2,r5,r2
  80ec88:	10c00117 	ldw	r3,4(r2)
  80ec8c:	29400204 	addi	r5,r5,8
  80ec90:	a009883a 	mov	r4,r20
  80ec94:	18c00054 	ori	r3,r3,1
  80ec98:	10c00115 	stw	r3,4(r2)
  80ec9c:	08075700 	call	807570 <_free_r>
  80eca0:	003fd306 	br	80ebf0 <__alt_mem_onchip_mem+0xff806bf0>
  80eca4:	017fff04 	movi	r5,-4
  80eca8:	414a703a 	and	r5,r8,r5
  80ecac:	89800404 	addi	r6,r17,16
  80ecb0:	8151883a 	add	r8,r16,r5
  80ecb4:	4180590e 	bge	r8,r6,80ee1c <_realloc_r+0x390>
  80ecb8:	1080004c 	andi	r2,r2,1
  80ecbc:	103f9e1e 	bne	r2,zero,80eb38 <__alt_mem_onchip_mem+0xff806b38>
  80ecc0:	adbffe17 	ldw	r22,-8(r21)
  80ecc4:	00bfff04 	movi	r2,-4
  80ecc8:	9dadc83a 	sub	r22,r19,r22
  80eccc:	b1800117 	ldw	r6,4(r22)
  80ecd0:	3084703a 	and	r2,r6,r2
  80ecd4:	20002026 	beq	r4,zero,80ed58 <_realloc_r+0x2cc>
  80ecd8:	80af883a 	add	r23,r16,r2
  80ecdc:	b96f883a 	add	r23,r23,r5
  80ece0:	21c05f26 	beq	r4,r7,80ee60 <_realloc_r+0x3d4>
  80ece4:	b8c01c16 	blt	r23,r3,80ed58 <_realloc_r+0x2cc>
  80ece8:	20800317 	ldw	r2,12(r4)
  80ecec:	20c00217 	ldw	r3,8(r4)
  80ecf0:	81bfff04 	addi	r6,r16,-4
  80ecf4:	01000904 	movi	r4,36
  80ecf8:	18800315 	stw	r2,12(r3)
  80ecfc:	10c00215 	stw	r3,8(r2)
  80ed00:	b0c00217 	ldw	r3,8(r22)
  80ed04:	b0800317 	ldw	r2,12(r22)
  80ed08:	b4800204 	addi	r18,r22,8
  80ed0c:	18800315 	stw	r2,12(r3)
  80ed10:	10c00215 	stw	r3,8(r2)
  80ed14:	21801b36 	bltu	r4,r6,80ed84 <_realloc_r+0x2f8>
  80ed18:	008004c4 	movi	r2,19
  80ed1c:	1180352e 	bgeu	r2,r6,80edf4 <_realloc_r+0x368>
  80ed20:	a8800017 	ldw	r2,0(r21)
  80ed24:	b0800215 	stw	r2,8(r22)
  80ed28:	a8800117 	ldw	r2,4(r21)
  80ed2c:	b0800315 	stw	r2,12(r22)
  80ed30:	008006c4 	movi	r2,27
  80ed34:	11807f36 	bltu	r2,r6,80ef34 <_realloc_r+0x4a8>
  80ed38:	b0800404 	addi	r2,r22,16
  80ed3c:	ad400204 	addi	r21,r21,8
  80ed40:	00002d06 	br	80edf8 <_realloc_r+0x36c>
  80ed44:	adbffe17 	ldw	r22,-8(r21)
  80ed48:	00bfff04 	movi	r2,-4
  80ed4c:	9dadc83a 	sub	r22,r19,r22
  80ed50:	b1000117 	ldw	r4,4(r22)
  80ed54:	2084703a 	and	r2,r4,r2
  80ed58:	b03f7726 	beq	r22,zero,80eb38 <__alt_mem_onchip_mem+0xff806b38>
  80ed5c:	80af883a 	add	r23,r16,r2
  80ed60:	b8ff7516 	blt	r23,r3,80eb38 <__alt_mem_onchip_mem+0xff806b38>
  80ed64:	b0800317 	ldw	r2,12(r22)
  80ed68:	b0c00217 	ldw	r3,8(r22)
  80ed6c:	81bfff04 	addi	r6,r16,-4
  80ed70:	01000904 	movi	r4,36
  80ed74:	18800315 	stw	r2,12(r3)
  80ed78:	10c00215 	stw	r3,8(r2)
  80ed7c:	b4800204 	addi	r18,r22,8
  80ed80:	21bfe52e 	bgeu	r4,r6,80ed18 <__alt_mem_onchip_mem+0xff806d18>
  80ed84:	a80b883a 	mov	r5,r21
  80ed88:	9009883a 	mov	r4,r18
  80ed8c:	080d8d40 	call	80d8d4 <memmove>
  80ed90:	b821883a 	mov	r16,r23
  80ed94:	b027883a 	mov	r19,r22
  80ed98:	003f8a06 	br	80ebc4 <__alt_mem_onchip_mem+0xff806bc4>
  80ed9c:	300b883a 	mov	r5,r6
  80eda0:	dfc00917 	ldw	ra,36(sp)
  80eda4:	df000817 	ldw	fp,32(sp)
  80eda8:	ddc00717 	ldw	r23,28(sp)
  80edac:	dd800617 	ldw	r22,24(sp)
  80edb0:	dd400517 	ldw	r21,20(sp)
  80edb4:	dd000417 	ldw	r20,16(sp)
  80edb8:	dcc00317 	ldw	r19,12(sp)
  80edbc:	dc800217 	ldw	r18,8(sp)
  80edc0:	dc400117 	ldw	r17,4(sp)
  80edc4:	dc000017 	ldw	r16,0(sp)
  80edc8:	dec00a04 	addi	sp,sp,40
  80edcc:	08080a01 	jmpi	8080a0 <_malloc_r>
  80edd0:	a8c00017 	ldw	r3,0(r21)
  80edd4:	90c00015 	stw	r3,0(r18)
  80edd8:	a8c00117 	ldw	r3,4(r21)
  80eddc:	90c00115 	stw	r3,4(r18)
  80ede0:	00c006c4 	movi	r3,27
  80ede4:	19804536 	bltu	r3,r6,80eefc <_realloc_r+0x470>
  80ede8:	90800204 	addi	r2,r18,8
  80edec:	a8c00204 	addi	r3,r21,8
  80edf0:	003f6306 	br	80eb80 <__alt_mem_onchip_mem+0xff806b80>
  80edf4:	9005883a 	mov	r2,r18
  80edf8:	a8c00017 	ldw	r3,0(r21)
  80edfc:	b821883a 	mov	r16,r23
  80ee00:	b027883a 	mov	r19,r22
  80ee04:	10c00015 	stw	r3,0(r2)
  80ee08:	a8c00117 	ldw	r3,4(r21)
  80ee0c:	10c00115 	stw	r3,4(r2)
  80ee10:	a8c00217 	ldw	r3,8(r21)
  80ee14:	10c00215 	stw	r3,8(r2)
  80ee18:	003f6a06 	br	80ebc4 <__alt_mem_onchip_mem+0xff806bc4>
  80ee1c:	9c67883a 	add	r19,r19,r17
  80ee20:	4445c83a 	sub	r2,r8,r17
  80ee24:	e4c00215 	stw	r19,8(fp)
  80ee28:	10800054 	ori	r2,r2,1
  80ee2c:	98800115 	stw	r2,4(r19)
  80ee30:	a8bfff17 	ldw	r2,-4(r21)
  80ee34:	a009883a 	mov	r4,r20
  80ee38:	1080004c 	andi	r2,r2,1
  80ee3c:	1462b03a 	or	r17,r2,r17
  80ee40:	ac7fff15 	stw	r17,-4(r21)
  80ee44:	081329c0 	call	81329c <__malloc_unlock>
  80ee48:	a805883a 	mov	r2,r21
  80ee4c:	003f6b06 	br	80ebfc <__alt_mem_onchip_mem+0xff806bfc>
  80ee50:	a80b883a 	mov	r5,r21
  80ee54:	9009883a 	mov	r4,r18
  80ee58:	080d8d40 	call	80d8d4 <memmove>
  80ee5c:	003f4e06 	br	80eb98 <__alt_mem_onchip_mem+0xff806b98>
  80ee60:	89000404 	addi	r4,r17,16
  80ee64:	b93fbc16 	blt	r23,r4,80ed58 <__alt_mem_onchip_mem+0xff806d58>
  80ee68:	b0800317 	ldw	r2,12(r22)
  80ee6c:	b0c00217 	ldw	r3,8(r22)
  80ee70:	81bfff04 	addi	r6,r16,-4
  80ee74:	01000904 	movi	r4,36
  80ee78:	18800315 	stw	r2,12(r3)
  80ee7c:	10c00215 	stw	r3,8(r2)
  80ee80:	b4800204 	addi	r18,r22,8
  80ee84:	21804336 	bltu	r4,r6,80ef94 <_realloc_r+0x508>
  80ee88:	008004c4 	movi	r2,19
  80ee8c:	11803f2e 	bgeu	r2,r6,80ef8c <_realloc_r+0x500>
  80ee90:	a8800017 	ldw	r2,0(r21)
  80ee94:	b0800215 	stw	r2,8(r22)
  80ee98:	a8800117 	ldw	r2,4(r21)
  80ee9c:	b0800315 	stw	r2,12(r22)
  80eea0:	008006c4 	movi	r2,27
  80eea4:	11803f36 	bltu	r2,r6,80efa4 <_realloc_r+0x518>
  80eea8:	b0800404 	addi	r2,r22,16
  80eeac:	ad400204 	addi	r21,r21,8
  80eeb0:	a8c00017 	ldw	r3,0(r21)
  80eeb4:	10c00015 	stw	r3,0(r2)
  80eeb8:	a8c00117 	ldw	r3,4(r21)
  80eebc:	10c00115 	stw	r3,4(r2)
  80eec0:	a8c00217 	ldw	r3,8(r21)
  80eec4:	10c00215 	stw	r3,8(r2)
  80eec8:	b447883a 	add	r3,r22,r17
  80eecc:	bc45c83a 	sub	r2,r23,r17
  80eed0:	e0c00215 	stw	r3,8(fp)
  80eed4:	10800054 	ori	r2,r2,1
  80eed8:	18800115 	stw	r2,4(r3)
  80eedc:	b0800117 	ldw	r2,4(r22)
  80eee0:	a009883a 	mov	r4,r20
  80eee4:	1080004c 	andi	r2,r2,1
  80eee8:	1462b03a 	or	r17,r2,r17
  80eeec:	b4400115 	stw	r17,4(r22)
  80eef0:	081329c0 	call	81329c <__malloc_unlock>
  80eef4:	9005883a 	mov	r2,r18
  80eef8:	003f4006 	br	80ebfc <__alt_mem_onchip_mem+0xff806bfc>
  80eefc:	a8c00217 	ldw	r3,8(r21)
  80ef00:	90c00215 	stw	r3,8(r18)
  80ef04:	a8c00317 	ldw	r3,12(r21)
  80ef08:	90c00315 	stw	r3,12(r18)
  80ef0c:	30801126 	beq	r6,r2,80ef54 <_realloc_r+0x4c8>
  80ef10:	90800404 	addi	r2,r18,16
  80ef14:	a8c00404 	addi	r3,r21,16
  80ef18:	003f1906 	br	80eb80 <__alt_mem_onchip_mem+0xff806b80>
  80ef1c:	90ffff17 	ldw	r3,-4(r18)
  80ef20:	00bfff04 	movi	r2,-4
  80ef24:	a825883a 	mov	r18,r21
  80ef28:	1884703a 	and	r2,r3,r2
  80ef2c:	80a1883a 	add	r16,r16,r2
  80ef30:	003f2406 	br	80ebc4 <__alt_mem_onchip_mem+0xff806bc4>
  80ef34:	a8800217 	ldw	r2,8(r21)
  80ef38:	b0800415 	stw	r2,16(r22)
  80ef3c:	a8800317 	ldw	r2,12(r21)
  80ef40:	b0800515 	stw	r2,20(r22)
  80ef44:	31000a26 	beq	r6,r4,80ef70 <_realloc_r+0x4e4>
  80ef48:	b0800604 	addi	r2,r22,24
  80ef4c:	ad400404 	addi	r21,r21,16
  80ef50:	003fa906 	br	80edf8 <__alt_mem_onchip_mem+0xff806df8>
  80ef54:	a9000417 	ldw	r4,16(r21)
  80ef58:	90800604 	addi	r2,r18,24
  80ef5c:	a8c00604 	addi	r3,r21,24
  80ef60:	91000415 	stw	r4,16(r18)
  80ef64:	a9000517 	ldw	r4,20(r21)
  80ef68:	91000515 	stw	r4,20(r18)
  80ef6c:	003f0406 	br	80eb80 <__alt_mem_onchip_mem+0xff806b80>
  80ef70:	a8c00417 	ldw	r3,16(r21)
  80ef74:	ad400604 	addi	r21,r21,24
  80ef78:	b0800804 	addi	r2,r22,32
  80ef7c:	b0c00615 	stw	r3,24(r22)
  80ef80:	a8ffff17 	ldw	r3,-4(r21)
  80ef84:	b0c00715 	stw	r3,28(r22)
  80ef88:	003f9b06 	br	80edf8 <__alt_mem_onchip_mem+0xff806df8>
  80ef8c:	9005883a 	mov	r2,r18
  80ef90:	003fc706 	br	80eeb0 <__alt_mem_onchip_mem+0xff806eb0>
  80ef94:	a80b883a 	mov	r5,r21
  80ef98:	9009883a 	mov	r4,r18
  80ef9c:	080d8d40 	call	80d8d4 <memmove>
  80efa0:	003fc906 	br	80eec8 <__alt_mem_onchip_mem+0xff806ec8>
  80efa4:	a8800217 	ldw	r2,8(r21)
  80efa8:	b0800415 	stw	r2,16(r22)
  80efac:	a8800317 	ldw	r2,12(r21)
  80efb0:	b0800515 	stw	r2,20(r22)
  80efb4:	31000726 	beq	r6,r4,80efd4 <_realloc_r+0x548>
  80efb8:	b0800604 	addi	r2,r22,24
  80efbc:	ad400404 	addi	r21,r21,16
  80efc0:	003fbb06 	br	80eeb0 <__alt_mem_onchip_mem+0xff806eb0>
  80efc4:	a009883a 	mov	r4,r20
  80efc8:	081329c0 	call	81329c <__malloc_unlock>
  80efcc:	0005883a 	mov	r2,zero
  80efd0:	003f0a06 	br	80ebfc <__alt_mem_onchip_mem+0xff806bfc>
  80efd4:	a8c00417 	ldw	r3,16(r21)
  80efd8:	ad400604 	addi	r21,r21,24
  80efdc:	b0800804 	addi	r2,r22,32
  80efe0:	b0c00615 	stw	r3,24(r22)
  80efe4:	a8ffff17 	ldw	r3,-4(r21)
  80efe8:	b0c00715 	stw	r3,28(r22)
  80efec:	003fb006 	br	80eeb0 <__alt_mem_onchip_mem+0xff806eb0>

0080eff0 <__fpclassifyd>:
  80eff0:	00a00034 	movhi	r2,32768
  80eff4:	10bfffc4 	addi	r2,r2,-1
  80eff8:	2884703a 	and	r2,r5,r2
  80effc:	10000726 	beq	r2,zero,80f01c <__fpclassifyd+0x2c>
  80f000:	00fffc34 	movhi	r3,65520
  80f004:	019ff834 	movhi	r6,32736
  80f008:	28c7883a 	add	r3,r5,r3
  80f00c:	31bfffc4 	addi	r6,r6,-1
  80f010:	30c00536 	bltu	r6,r3,80f028 <__fpclassifyd+0x38>
  80f014:	00800104 	movi	r2,4
  80f018:	f800283a 	ret
  80f01c:	2000021e 	bne	r4,zero,80f028 <__fpclassifyd+0x38>
  80f020:	00800084 	movi	r2,2
  80f024:	f800283a 	ret
  80f028:	00dffc34 	movhi	r3,32752
  80f02c:	019ff834 	movhi	r6,32736
  80f030:	28cb883a 	add	r5,r5,r3
  80f034:	31bfffc4 	addi	r6,r6,-1
  80f038:	317ff62e 	bgeu	r6,r5,80f014 <__alt_mem_onchip_mem+0xff807014>
  80f03c:	01400434 	movhi	r5,16
  80f040:	297fffc4 	addi	r5,r5,-1
  80f044:	28800236 	bltu	r5,r2,80f050 <__fpclassifyd+0x60>
  80f048:	008000c4 	movi	r2,3
  80f04c:	f800283a 	ret
  80f050:	10c00226 	beq	r2,r3,80f05c <__fpclassifyd+0x6c>
  80f054:	0005883a 	mov	r2,zero
  80f058:	f800283a 	ret
  80f05c:	2005003a 	cmpeq	r2,r4,zero
  80f060:	f800283a 	ret

0080f064 <strcmp>:
  80f064:	2144b03a 	or	r2,r4,r5
  80f068:	108000cc 	andi	r2,r2,3
  80f06c:	1000171e 	bne	r2,zero,80f0cc <strcmp+0x68>
  80f070:	20800017 	ldw	r2,0(r4)
  80f074:	28c00017 	ldw	r3,0(r5)
  80f078:	10c0141e 	bne	r2,r3,80f0cc <strcmp+0x68>
  80f07c:	027fbff4 	movhi	r9,65279
  80f080:	4a7fbfc4 	addi	r9,r9,-257
  80f084:	0086303a 	nor	r3,zero,r2
  80f088:	02202074 	movhi	r8,32897
  80f08c:	1245883a 	add	r2,r2,r9
  80f090:	42202004 	addi	r8,r8,-32640
  80f094:	10c4703a 	and	r2,r2,r3
  80f098:	1204703a 	and	r2,r2,r8
  80f09c:	10000226 	beq	r2,zero,80f0a8 <strcmp+0x44>
  80f0a0:	00002306 	br	80f130 <strcmp+0xcc>
  80f0a4:	1000221e 	bne	r2,zero,80f130 <strcmp+0xcc>
  80f0a8:	21000104 	addi	r4,r4,4
  80f0ac:	20c00017 	ldw	r3,0(r4)
  80f0b0:	29400104 	addi	r5,r5,4
  80f0b4:	29800017 	ldw	r6,0(r5)
  80f0b8:	1a4f883a 	add	r7,r3,r9
  80f0bc:	00c4303a 	nor	r2,zero,r3
  80f0c0:	3884703a 	and	r2,r7,r2
  80f0c4:	1204703a 	and	r2,r2,r8
  80f0c8:	19bff626 	beq	r3,r6,80f0a4 <__alt_mem_onchip_mem+0xff8070a4>
  80f0cc:	20800003 	ldbu	r2,0(r4)
  80f0d0:	10c03fcc 	andi	r3,r2,255
  80f0d4:	18c0201c 	xori	r3,r3,128
  80f0d8:	18ffe004 	addi	r3,r3,-128
  80f0dc:	18000c26 	beq	r3,zero,80f110 <strcmp+0xac>
  80f0e0:	29800007 	ldb	r6,0(r5)
  80f0e4:	19800326 	beq	r3,r6,80f0f4 <strcmp+0x90>
  80f0e8:	00001306 	br	80f138 <strcmp+0xd4>
  80f0ec:	29800007 	ldb	r6,0(r5)
  80f0f0:	11800b1e 	bne	r2,r6,80f120 <strcmp+0xbc>
  80f0f4:	21000044 	addi	r4,r4,1
  80f0f8:	20c00003 	ldbu	r3,0(r4)
  80f0fc:	29400044 	addi	r5,r5,1
  80f100:	18803fcc 	andi	r2,r3,255
  80f104:	1080201c 	xori	r2,r2,128
  80f108:	10bfe004 	addi	r2,r2,-128
  80f10c:	103ff71e 	bne	r2,zero,80f0ec <__alt_mem_onchip_mem+0xff8070ec>
  80f110:	0007883a 	mov	r3,zero
  80f114:	28800003 	ldbu	r2,0(r5)
  80f118:	1885c83a 	sub	r2,r3,r2
  80f11c:	f800283a 	ret
  80f120:	28800003 	ldbu	r2,0(r5)
  80f124:	18c03fcc 	andi	r3,r3,255
  80f128:	1885c83a 	sub	r2,r3,r2
  80f12c:	f800283a 	ret
  80f130:	0005883a 	mov	r2,zero
  80f134:	f800283a 	ret
  80f138:	10c03fcc 	andi	r3,r2,255
  80f13c:	003ff506 	br	80f114 <__alt_mem_onchip_mem+0xff807114>

0080f140 <__sprint_r.part.0>:
  80f140:	28801917 	ldw	r2,100(r5)
  80f144:	defff604 	addi	sp,sp,-40
  80f148:	dd400515 	stw	r21,20(sp)
  80f14c:	dfc00915 	stw	ra,36(sp)
  80f150:	df000815 	stw	fp,32(sp)
  80f154:	ddc00715 	stw	r23,28(sp)
  80f158:	dd800615 	stw	r22,24(sp)
  80f15c:	dd000415 	stw	r20,16(sp)
  80f160:	dcc00315 	stw	r19,12(sp)
  80f164:	dc800215 	stw	r18,8(sp)
  80f168:	dc400115 	stw	r17,4(sp)
  80f16c:	dc000015 	stw	r16,0(sp)
  80f170:	1088000c 	andi	r2,r2,8192
  80f174:	302b883a 	mov	r21,r6
  80f178:	10002e26 	beq	r2,zero,80f234 <__sprint_r.part.0+0xf4>
  80f17c:	30800217 	ldw	r2,8(r6)
  80f180:	35800017 	ldw	r22,0(r6)
  80f184:	10002926 	beq	r2,zero,80f22c <__sprint_r.part.0+0xec>
  80f188:	2827883a 	mov	r19,r5
  80f18c:	2029883a 	mov	r20,r4
  80f190:	b5c00104 	addi	r23,r22,4
  80f194:	04bfffc4 	movi	r18,-1
  80f198:	bc400017 	ldw	r17,0(r23)
  80f19c:	b4000017 	ldw	r16,0(r22)
  80f1a0:	0039883a 	mov	fp,zero
  80f1a4:	8822d0ba 	srli	r17,r17,2
  80f1a8:	8800031e 	bne	r17,zero,80f1b8 <__sprint_r.part.0+0x78>
  80f1ac:	00001806 	br	80f210 <__sprint_r.part.0+0xd0>
  80f1b0:	84000104 	addi	r16,r16,4
  80f1b4:	8f001526 	beq	r17,fp,80f20c <__sprint_r.part.0+0xcc>
  80f1b8:	81400017 	ldw	r5,0(r16)
  80f1bc:	980d883a 	mov	r6,r19
  80f1c0:	a009883a 	mov	r4,r20
  80f1c4:	08109b00 	call	8109b0 <_fputwc_r>
  80f1c8:	e7000044 	addi	fp,fp,1
  80f1cc:	14bff81e 	bne	r2,r18,80f1b0 <__alt_mem_onchip_mem+0xff8071b0>
  80f1d0:	9005883a 	mov	r2,r18
  80f1d4:	a8000215 	stw	zero,8(r21)
  80f1d8:	a8000115 	stw	zero,4(r21)
  80f1dc:	dfc00917 	ldw	ra,36(sp)
  80f1e0:	df000817 	ldw	fp,32(sp)
  80f1e4:	ddc00717 	ldw	r23,28(sp)
  80f1e8:	dd800617 	ldw	r22,24(sp)
  80f1ec:	dd400517 	ldw	r21,20(sp)
  80f1f0:	dd000417 	ldw	r20,16(sp)
  80f1f4:	dcc00317 	ldw	r19,12(sp)
  80f1f8:	dc800217 	ldw	r18,8(sp)
  80f1fc:	dc400117 	ldw	r17,4(sp)
  80f200:	dc000017 	ldw	r16,0(sp)
  80f204:	dec00a04 	addi	sp,sp,40
  80f208:	f800283a 	ret
  80f20c:	a8800217 	ldw	r2,8(r21)
  80f210:	8c63883a 	add	r17,r17,r17
  80f214:	8c63883a 	add	r17,r17,r17
  80f218:	1445c83a 	sub	r2,r2,r17
  80f21c:	a8800215 	stw	r2,8(r21)
  80f220:	b5800204 	addi	r22,r22,8
  80f224:	bdc00204 	addi	r23,r23,8
  80f228:	103fdb1e 	bne	r2,zero,80f198 <__alt_mem_onchip_mem+0xff807198>
  80f22c:	0005883a 	mov	r2,zero
  80f230:	003fe806 	br	80f1d4 <__alt_mem_onchip_mem+0xff8071d4>
  80f234:	080d05c0 	call	80d05c <__sfvwrite_r>
  80f238:	003fe606 	br	80f1d4 <__alt_mem_onchip_mem+0xff8071d4>

0080f23c <__sprint_r>:
  80f23c:	30c00217 	ldw	r3,8(r6)
  80f240:	18000126 	beq	r3,zero,80f248 <__sprint_r+0xc>
  80f244:	080f1401 	jmpi	80f140 <__sprint_r.part.0>
  80f248:	30000115 	stw	zero,4(r6)
  80f24c:	0005883a 	mov	r2,zero
  80f250:	f800283a 	ret

0080f254 <___vfiprintf_internal_r>:
  80f254:	deffc904 	addi	sp,sp,-220
  80f258:	df003515 	stw	fp,212(sp)
  80f25c:	dd003115 	stw	r20,196(sp)
  80f260:	dfc03615 	stw	ra,216(sp)
  80f264:	ddc03415 	stw	r23,208(sp)
  80f268:	dd803315 	stw	r22,204(sp)
  80f26c:	dd403215 	stw	r21,200(sp)
  80f270:	dcc03015 	stw	r19,192(sp)
  80f274:	dc802f15 	stw	r18,188(sp)
  80f278:	dc402e15 	stw	r17,184(sp)
  80f27c:	dc002d15 	stw	r16,180(sp)
  80f280:	d9002015 	stw	r4,128(sp)
  80f284:	d9c02215 	stw	r7,136(sp)
  80f288:	2829883a 	mov	r20,r5
  80f28c:	3039883a 	mov	fp,r6
  80f290:	20000226 	beq	r4,zero,80f29c <___vfiprintf_internal_r+0x48>
  80f294:	20800e17 	ldw	r2,56(r4)
  80f298:	1000cf26 	beq	r2,zero,80f5d8 <___vfiprintf_internal_r+0x384>
  80f29c:	a080030b 	ldhu	r2,12(r20)
  80f2a0:	10c8000c 	andi	r3,r2,8192
  80f2a4:	1800061e 	bne	r3,zero,80f2c0 <___vfiprintf_internal_r+0x6c>
  80f2a8:	a1001917 	ldw	r4,100(r20)
  80f2ac:	00f7ffc4 	movi	r3,-8193
  80f2b0:	10880014 	ori	r2,r2,8192
  80f2b4:	20c6703a 	and	r3,r4,r3
  80f2b8:	a080030d 	sth	r2,12(r20)
  80f2bc:	a0c01915 	stw	r3,100(r20)
  80f2c0:	10c0020c 	andi	r3,r2,8
  80f2c4:	1800a926 	beq	r3,zero,80f56c <___vfiprintf_internal_r+0x318>
  80f2c8:	a0c00417 	ldw	r3,16(r20)
  80f2cc:	1800a726 	beq	r3,zero,80f56c <___vfiprintf_internal_r+0x318>
  80f2d0:	1080068c 	andi	r2,r2,26
  80f2d4:	00c00284 	movi	r3,10
  80f2d8:	10c0ac26 	beq	r2,r3,80f58c <___vfiprintf_internal_r+0x338>
  80f2dc:	da801a04 	addi	r10,sp,104
  80f2e0:	da801e15 	stw	r10,120(sp)
  80f2e4:	d8801e17 	ldw	r2,120(sp)
  80f2e8:	da8019c4 	addi	r10,sp,103
  80f2ec:	05802074 	movhi	r22,129
  80f2f0:	05c02074 	movhi	r23,129
  80f2f4:	da801f15 	stw	r10,124(sp)
  80f2f8:	1295c83a 	sub	r10,r2,r10
  80f2fc:	b59c1004 	addi	r22,r22,28736
  80f300:	bddc0c04 	addi	r23,r23,28720
  80f304:	dec01a15 	stw	sp,104(sp)
  80f308:	d8001c15 	stw	zero,112(sp)
  80f30c:	d8001b15 	stw	zero,108(sp)
  80f310:	d8002615 	stw	zero,152(sp)
  80f314:	d8002315 	stw	zero,140(sp)
  80f318:	da802715 	stw	r10,156(sp)
  80f31c:	d811883a 	mov	r8,sp
  80f320:	dd002115 	stw	r20,132(sp)
  80f324:	e021883a 	mov	r16,fp
  80f328:	80800007 	ldb	r2,0(r16)
  80f32c:	1003ea26 	beq	r2,zero,8102d8 <___vfiprintf_internal_r+0x1084>
  80f330:	00c00944 	movi	r3,37
  80f334:	8025883a 	mov	r18,r16
  80f338:	10c0021e 	bne	r2,r3,80f344 <___vfiprintf_internal_r+0xf0>
  80f33c:	00001606 	br	80f398 <___vfiprintf_internal_r+0x144>
  80f340:	10c00326 	beq	r2,r3,80f350 <___vfiprintf_internal_r+0xfc>
  80f344:	94800044 	addi	r18,r18,1
  80f348:	90800007 	ldb	r2,0(r18)
  80f34c:	103ffc1e 	bne	r2,zero,80f340 <__alt_mem_onchip_mem+0xff807340>
  80f350:	9423c83a 	sub	r17,r18,r16
  80f354:	88001026 	beq	r17,zero,80f398 <___vfiprintf_internal_r+0x144>
  80f358:	d8c01c17 	ldw	r3,112(sp)
  80f35c:	d8801b17 	ldw	r2,108(sp)
  80f360:	44000015 	stw	r16,0(r8)
  80f364:	88c7883a 	add	r3,r17,r3
  80f368:	10800044 	addi	r2,r2,1
  80f36c:	44400115 	stw	r17,4(r8)
  80f370:	d8c01c15 	stw	r3,112(sp)
  80f374:	d8801b15 	stw	r2,108(sp)
  80f378:	010001c4 	movi	r4,7
  80f37c:	2080760e 	bge	r4,r2,80f558 <___vfiprintf_internal_r+0x304>
  80f380:	1803821e 	bne	r3,zero,81018c <___vfiprintf_internal_r+0xf38>
  80f384:	da802317 	ldw	r10,140(sp)
  80f388:	d8001b15 	stw	zero,108(sp)
  80f38c:	d811883a 	mov	r8,sp
  80f390:	5455883a 	add	r10,r10,r17
  80f394:	da802315 	stw	r10,140(sp)
  80f398:	90800007 	ldb	r2,0(r18)
  80f39c:	10044626 	beq	r2,zero,8104b8 <___vfiprintf_internal_r+0x1264>
  80f3a0:	90c00047 	ldb	r3,1(r18)
  80f3a4:	94000044 	addi	r16,r18,1
  80f3a8:	d8001d85 	stb	zero,118(sp)
  80f3ac:	0009883a 	mov	r4,zero
  80f3b0:	000f883a 	mov	r7,zero
  80f3b4:	027fffc4 	movi	r9,-1
  80f3b8:	0023883a 	mov	r17,zero
  80f3bc:	0029883a 	mov	r20,zero
  80f3c0:	01401604 	movi	r5,88
  80f3c4:	01800244 	movi	r6,9
  80f3c8:	03400a84 	movi	r13,42
  80f3cc:	03001b04 	movi	r12,108
  80f3d0:	84000044 	addi	r16,r16,1
  80f3d4:	18bff804 	addi	r2,r3,-32
  80f3d8:	28827336 	bltu	r5,r2,80fda8 <___vfiprintf_internal_r+0xb54>
  80f3dc:	100490ba 	slli	r2,r2,2
  80f3e0:	02802074 	movhi	r10,129
  80f3e4:	52bcfd04 	addi	r10,r10,-3084
  80f3e8:	1285883a 	add	r2,r2,r10
  80f3ec:	10800017 	ldw	r2,0(r2)
  80f3f0:	1000683a 	jmp	r2
  80f3f4:	0080fadc 	xori	r2,zero,1003
  80f3f8:	0080fda8 	cmpgeui	r2,zero,1014
  80f3fc:	0080fda8 	cmpgeui	r2,zero,1014
  80f400:	0080fafc 	xorhi	r2,zero,1003
  80f404:	0080fda8 	cmpgeui	r2,zero,1014
  80f408:	0080fda8 	cmpgeui	r2,zero,1014
  80f40c:	0080fda8 	cmpgeui	r2,zero,1014
  80f410:	0080fda8 	cmpgeui	r2,zero,1014
  80f414:	0080fda8 	cmpgeui	r2,zero,1014
  80f418:	0080fda8 	cmpgeui	r2,zero,1014
  80f41c:	0080fce4 	muli	r2,zero,1011
  80f420:	0080fd00 	call	80fd0 <__alt_mem_sdram-0x77f030>
  80f424:	0080fda8 	cmpgeui	r2,zero,1014
  80f428:	0080f5e8 	cmpgeui	r2,zero,983
  80f42c:	0080fd10 	cmplti	r2,zero,1012
  80f430:	0080fda8 	cmpgeui	r2,zero,1014
  80f434:	0080fb08 	cmpgei	r2,zero,1004
  80f438:	0080fb14 	movui	r2,1004
  80f43c:	0080fb14 	movui	r2,1004
  80f440:	0080fb14 	movui	r2,1004
  80f444:	0080fb14 	movui	r2,1004
  80f448:	0080fb14 	movui	r2,1004
  80f44c:	0080fb14 	movui	r2,1004
  80f450:	0080fb14 	movui	r2,1004
  80f454:	0080fb14 	movui	r2,1004
  80f458:	0080fb14 	movui	r2,1004
  80f45c:	0080fda8 	cmpgeui	r2,zero,1014
  80f460:	0080fda8 	cmpgeui	r2,zero,1014
  80f464:	0080fda8 	cmpgeui	r2,zero,1014
  80f468:	0080fda8 	cmpgeui	r2,zero,1014
  80f46c:	0080fda8 	cmpgeui	r2,zero,1014
  80f470:	0080fda8 	cmpgeui	r2,zero,1014
  80f474:	0080fda8 	cmpgeui	r2,zero,1014
  80f478:	0080fda8 	cmpgeui	r2,zero,1014
  80f47c:	0080fda8 	cmpgeui	r2,zero,1014
  80f480:	0080fda8 	cmpgeui	r2,zero,1014
  80f484:	0080fb40 	call	80fb4 <__alt_mem_sdram-0x77f04c>
  80f488:	0080fda8 	cmpgeui	r2,zero,1014
  80f48c:	0080fda8 	cmpgeui	r2,zero,1014
  80f490:	0080fda8 	cmpgeui	r2,zero,1014
  80f494:	0080fda8 	cmpgeui	r2,zero,1014
  80f498:	0080fda8 	cmpgeui	r2,zero,1014
  80f49c:	0080fda8 	cmpgeui	r2,zero,1014
  80f4a0:	0080fda8 	cmpgeui	r2,zero,1014
  80f4a4:	0080fda8 	cmpgeui	r2,zero,1014
  80f4a8:	0080fda8 	cmpgeui	r2,zero,1014
  80f4ac:	0080fda8 	cmpgeui	r2,zero,1014
  80f4b0:	0080fb78 	rdprs	r2,zero,1005
  80f4b4:	0080fda8 	cmpgeui	r2,zero,1014
  80f4b8:	0080fda8 	cmpgeui	r2,zero,1014
  80f4bc:	0080fda8 	cmpgeui	r2,zero,1014
  80f4c0:	0080fda8 	cmpgeui	r2,zero,1014
  80f4c4:	0080fda8 	cmpgeui	r2,zero,1014
  80f4c8:	0080fbd0 	cmplti	r2,zero,1007
  80f4cc:	0080fda8 	cmpgeui	r2,zero,1014
  80f4d0:	0080fda8 	cmpgeui	r2,zero,1014
  80f4d4:	0080fc40 	call	80fc4 <__alt_mem_sdram-0x77f03c>
  80f4d8:	0080fda8 	cmpgeui	r2,zero,1014
  80f4dc:	0080fda8 	cmpgeui	r2,zero,1014
  80f4e0:	0080fda8 	cmpgeui	r2,zero,1014
  80f4e4:	0080fda8 	cmpgeui	r2,zero,1014
  80f4e8:	0080fda8 	cmpgeui	r2,zero,1014
  80f4ec:	0080fda8 	cmpgeui	r2,zero,1014
  80f4f0:	0080fda8 	cmpgeui	r2,zero,1014
  80f4f4:	0080fda8 	cmpgeui	r2,zero,1014
  80f4f8:	0080fda8 	cmpgeui	r2,zero,1014
  80f4fc:	0080fda8 	cmpgeui	r2,zero,1014
  80f500:	0080f9ec 	andhi	r2,zero,999
  80f504:	0080fa18 	cmpnei	r2,zero,1000
  80f508:	0080fda8 	cmpgeui	r2,zero,1014
  80f50c:	0080fda8 	cmpgeui	r2,zero,1014
  80f510:	0080fda8 	cmpgeui	r2,zero,1014
  80f514:	0080fd50 	cmplti	r2,zero,1013
  80f518:	0080fa18 	cmpnei	r2,zero,1000
  80f51c:	0080fda8 	cmpgeui	r2,zero,1014
  80f520:	0080fda8 	cmpgeui	r2,zero,1014
  80f524:	0080f8ac 	andhi	r2,zero,994
  80f528:	0080fda8 	cmpgeui	r2,zero,1014
  80f52c:	0080f8bc 	xorhi	r2,zero,994
  80f530:	0080f8f8 	rdprs	r2,zero,995
  80f534:	0080f5f4 	movhi	r2,983
  80f538:	0080f8a0 	cmpeqi	r2,zero,994
  80f53c:	0080fda8 	cmpgeui	r2,zero,1014
  80f540:	0080fc7c 	xorhi	r2,zero,1009
  80f544:	0080fda8 	cmpgeui	r2,zero,1014
  80f548:	0080fcd4 	movui	r2,1011
  80f54c:	0080fda8 	cmpgeui	r2,zero,1014
  80f550:	0080fda8 	cmpgeui	r2,zero,1014
  80f554:	0080f998 	cmpnei	r2,zero,998
  80f558:	42000204 	addi	r8,r8,8
  80f55c:	da802317 	ldw	r10,140(sp)
  80f560:	5455883a 	add	r10,r10,r17
  80f564:	da802315 	stw	r10,140(sp)
  80f568:	003f8b06 	br	80f398 <__alt_mem_onchip_mem+0xff807398>
  80f56c:	d9002017 	ldw	r4,128(sp)
  80f570:	a00b883a 	mov	r5,r20
  80f574:	080b5800 	call	80b580 <__swsetup_r>
  80f578:	1003b11e 	bne	r2,zero,810440 <___vfiprintf_internal_r+0x11ec>
  80f57c:	a080030b 	ldhu	r2,12(r20)
  80f580:	00c00284 	movi	r3,10
  80f584:	1080068c 	andi	r2,r2,26
  80f588:	10ff541e 	bne	r2,r3,80f2dc <__alt_mem_onchip_mem+0xff8072dc>
  80f58c:	a080038f 	ldh	r2,14(r20)
  80f590:	103f5216 	blt	r2,zero,80f2dc <__alt_mem_onchip_mem+0xff8072dc>
  80f594:	d9c02217 	ldw	r7,136(sp)
  80f598:	d9002017 	ldw	r4,128(sp)
  80f59c:	e00d883a 	mov	r6,fp
  80f5a0:	a00b883a 	mov	r5,r20
  80f5a4:	08106cc0 	call	8106cc <__sbprintf>
  80f5a8:	dfc03617 	ldw	ra,216(sp)
  80f5ac:	df003517 	ldw	fp,212(sp)
  80f5b0:	ddc03417 	ldw	r23,208(sp)
  80f5b4:	dd803317 	ldw	r22,204(sp)
  80f5b8:	dd403217 	ldw	r21,200(sp)
  80f5bc:	dd003117 	ldw	r20,196(sp)
  80f5c0:	dcc03017 	ldw	r19,192(sp)
  80f5c4:	dc802f17 	ldw	r18,188(sp)
  80f5c8:	dc402e17 	ldw	r17,184(sp)
  80f5cc:	dc002d17 	ldw	r16,180(sp)
  80f5d0:	dec03704 	addi	sp,sp,220
  80f5d4:	f800283a 	ret
  80f5d8:	08072040 	call	807204 <__sinit>
  80f5dc:	003f2f06 	br	80f29c <__alt_mem_onchip_mem+0xff80729c>
  80f5e0:	0463c83a 	sub	r17,zero,r17
  80f5e4:	d8802215 	stw	r2,136(sp)
  80f5e8:	a5000114 	ori	r20,r20,4
  80f5ec:	80c00007 	ldb	r3,0(r16)
  80f5f0:	003f7706 	br	80f3d0 <__alt_mem_onchip_mem+0xff8073d0>
  80f5f4:	00800c04 	movi	r2,48
  80f5f8:	da802217 	ldw	r10,136(sp)
  80f5fc:	d8801d05 	stb	r2,116(sp)
  80f600:	00801e04 	movi	r2,120
  80f604:	d8801d45 	stb	r2,117(sp)
  80f608:	d8001d85 	stb	zero,118(sp)
  80f60c:	50c00104 	addi	r3,r10,4
  80f610:	54800017 	ldw	r18,0(r10)
  80f614:	0027883a 	mov	r19,zero
  80f618:	a0800094 	ori	r2,r20,2
  80f61c:	48030b16 	blt	r9,zero,81024c <___vfiprintf_internal_r+0xff8>
  80f620:	00bfdfc4 	movi	r2,-129
  80f624:	a096703a 	and	r11,r20,r2
  80f628:	d8c02215 	stw	r3,136(sp)
  80f62c:	5d000094 	ori	r20,r11,2
  80f630:	90032b1e 	bne	r18,zero,8102e0 <___vfiprintf_internal_r+0x108c>
  80f634:	00802074 	movhi	r2,129
  80f638:	109bac04 	addi	r2,r2,28336
  80f63c:	d8802615 	stw	r2,152(sp)
  80f640:	0039883a 	mov	fp,zero
  80f644:	48017b1e 	bne	r9,zero,80fc34 <___vfiprintf_internal_r+0x9e0>
  80f648:	0013883a 	mov	r9,zero
  80f64c:	0027883a 	mov	r19,zero
  80f650:	dd401a04 	addi	r21,sp,104
  80f654:	4825883a 	mov	r18,r9
  80f658:	4cc0010e 	bge	r9,r19,80f660 <___vfiprintf_internal_r+0x40c>
  80f65c:	9825883a 	mov	r18,r19
  80f660:	e7003fcc 	andi	fp,fp,255
  80f664:	e700201c 	xori	fp,fp,128
  80f668:	e73fe004 	addi	fp,fp,-128
  80f66c:	e0000126 	beq	fp,zero,80f674 <___vfiprintf_internal_r+0x420>
  80f670:	94800044 	addi	r18,r18,1
  80f674:	a380008c 	andi	r14,r20,2
  80f678:	70000126 	beq	r14,zero,80f680 <___vfiprintf_internal_r+0x42c>
  80f67c:	94800084 	addi	r18,r18,2
  80f680:	a700210c 	andi	fp,r20,132
  80f684:	e001df1e 	bne	fp,zero,80fe04 <___vfiprintf_internal_r+0xbb0>
  80f688:	8c87c83a 	sub	r3,r17,r18
  80f68c:	00c1dd0e 	bge	zero,r3,80fe04 <___vfiprintf_internal_r+0xbb0>
  80f690:	01c00404 	movi	r7,16
  80f694:	d8801c17 	ldw	r2,112(sp)
  80f698:	38c3ad0e 	bge	r7,r3,810550 <___vfiprintf_internal_r+0x12fc>
  80f69c:	02802074 	movhi	r10,129
  80f6a0:	529c1004 	addi	r10,r10,28736
  80f6a4:	dc002915 	stw	r16,164(sp)
  80f6a8:	d9801b17 	ldw	r6,108(sp)
  80f6ac:	da802415 	stw	r10,144(sp)
  80f6b0:	03c001c4 	movi	r15,7
  80f6b4:	da402515 	stw	r9,148(sp)
  80f6b8:	db802815 	stw	r14,160(sp)
  80f6bc:	1821883a 	mov	r16,r3
  80f6c0:	00000506 	br	80f6d8 <___vfiprintf_internal_r+0x484>
  80f6c4:	31400084 	addi	r5,r6,2
  80f6c8:	42000204 	addi	r8,r8,8
  80f6cc:	200d883a 	mov	r6,r4
  80f6d0:	843ffc04 	addi	r16,r16,-16
  80f6d4:	3c000d0e 	bge	r7,r16,80f70c <___vfiprintf_internal_r+0x4b8>
  80f6d8:	10800404 	addi	r2,r2,16
  80f6dc:	31000044 	addi	r4,r6,1
  80f6e0:	45800015 	stw	r22,0(r8)
  80f6e4:	41c00115 	stw	r7,4(r8)
  80f6e8:	d8801c15 	stw	r2,112(sp)
  80f6ec:	d9001b15 	stw	r4,108(sp)
  80f6f0:	793ff40e 	bge	r15,r4,80f6c4 <__alt_mem_onchip_mem+0xff8076c4>
  80f6f4:	1001b51e 	bne	r2,zero,80fdcc <___vfiprintf_internal_r+0xb78>
  80f6f8:	843ffc04 	addi	r16,r16,-16
  80f6fc:	000d883a 	mov	r6,zero
  80f700:	01400044 	movi	r5,1
  80f704:	d811883a 	mov	r8,sp
  80f708:	3c3ff316 	blt	r7,r16,80f6d8 <__alt_mem_onchip_mem+0xff8076d8>
  80f70c:	8007883a 	mov	r3,r16
  80f710:	da402517 	ldw	r9,148(sp)
  80f714:	db802817 	ldw	r14,160(sp)
  80f718:	dc002917 	ldw	r16,164(sp)
  80f71c:	da802417 	ldw	r10,144(sp)
  80f720:	1885883a 	add	r2,r3,r2
  80f724:	40c00115 	stw	r3,4(r8)
  80f728:	42800015 	stw	r10,0(r8)
  80f72c:	d8801c15 	stw	r2,112(sp)
  80f730:	d9401b15 	stw	r5,108(sp)
  80f734:	00c001c4 	movi	r3,7
  80f738:	19426016 	blt	r3,r5,8100bc <___vfiprintf_internal_r+0xe68>
  80f73c:	d8c01d87 	ldb	r3,118(sp)
  80f740:	42000204 	addi	r8,r8,8
  80f744:	29000044 	addi	r4,r5,1
  80f748:	1801b31e 	bne	r3,zero,80fe18 <___vfiprintf_internal_r+0xbc4>
  80f74c:	7001c026 	beq	r14,zero,80fe50 <___vfiprintf_internal_r+0xbfc>
  80f750:	d8c01d04 	addi	r3,sp,116
  80f754:	10800084 	addi	r2,r2,2
  80f758:	40c00015 	stw	r3,0(r8)
  80f75c:	00c00084 	movi	r3,2
  80f760:	40c00115 	stw	r3,4(r8)
  80f764:	d8801c15 	stw	r2,112(sp)
  80f768:	d9001b15 	stw	r4,108(sp)
  80f76c:	00c001c4 	movi	r3,7
  80f770:	1902650e 	bge	r3,r4,810108 <___vfiprintf_internal_r+0xeb4>
  80f774:	10029a1e 	bne	r2,zero,8101e0 <___vfiprintf_internal_r+0xf8c>
  80f778:	00c02004 	movi	r3,128
  80f77c:	01000044 	movi	r4,1
  80f780:	000b883a 	mov	r5,zero
  80f784:	d811883a 	mov	r8,sp
  80f788:	e0c1b31e 	bne	fp,r3,80fe58 <___vfiprintf_internal_r+0xc04>
  80f78c:	8cb9c83a 	sub	fp,r17,r18
  80f790:	0701b10e 	bge	zero,fp,80fe58 <___vfiprintf_internal_r+0xc04>
  80f794:	01c00404 	movi	r7,16
  80f798:	3f03890e 	bge	r7,fp,8105c0 <___vfiprintf_internal_r+0x136c>
  80f79c:	00c02074 	movhi	r3,129
  80f7a0:	18dc0c04 	addi	r3,r3,28720
  80f7a4:	d8c02415 	stw	r3,144(sp)
  80f7a8:	8007883a 	mov	r3,r16
  80f7ac:	034001c4 	movi	r13,7
  80f7b0:	e021883a 	mov	r16,fp
  80f7b4:	da402515 	stw	r9,148(sp)
  80f7b8:	1839883a 	mov	fp,r3
  80f7bc:	00000506 	br	80f7d4 <___vfiprintf_internal_r+0x580>
  80f7c0:	29800084 	addi	r6,r5,2
  80f7c4:	42000204 	addi	r8,r8,8
  80f7c8:	180b883a 	mov	r5,r3
  80f7cc:	843ffc04 	addi	r16,r16,-16
  80f7d0:	3c000d0e 	bge	r7,r16,80f808 <___vfiprintf_internal_r+0x5b4>
  80f7d4:	10800404 	addi	r2,r2,16
  80f7d8:	28c00044 	addi	r3,r5,1
  80f7dc:	45c00015 	stw	r23,0(r8)
  80f7e0:	41c00115 	stw	r7,4(r8)
  80f7e4:	d8801c15 	stw	r2,112(sp)
  80f7e8:	d8c01b15 	stw	r3,108(sp)
  80f7ec:	68fff40e 	bge	r13,r3,80f7c0 <__alt_mem_onchip_mem+0xff8077c0>
  80f7f0:	1002241e 	bne	r2,zero,810084 <___vfiprintf_internal_r+0xe30>
  80f7f4:	843ffc04 	addi	r16,r16,-16
  80f7f8:	01800044 	movi	r6,1
  80f7fc:	000b883a 	mov	r5,zero
  80f800:	d811883a 	mov	r8,sp
  80f804:	3c3ff316 	blt	r7,r16,80f7d4 <__alt_mem_onchip_mem+0xff8077d4>
  80f808:	da402517 	ldw	r9,148(sp)
  80f80c:	e007883a 	mov	r3,fp
  80f810:	8039883a 	mov	fp,r16
  80f814:	1821883a 	mov	r16,r3
  80f818:	d8c02417 	ldw	r3,144(sp)
  80f81c:	1705883a 	add	r2,r2,fp
  80f820:	47000115 	stw	fp,4(r8)
  80f824:	40c00015 	stw	r3,0(r8)
  80f828:	d8801c15 	stw	r2,112(sp)
  80f82c:	d9801b15 	stw	r6,108(sp)
  80f830:	00c001c4 	movi	r3,7
  80f834:	19827616 	blt	r3,r6,810210 <___vfiprintf_internal_r+0xfbc>
  80f838:	4cf9c83a 	sub	fp,r9,r19
  80f83c:	42000204 	addi	r8,r8,8
  80f840:	31000044 	addi	r4,r6,1
  80f844:	300b883a 	mov	r5,r6
  80f848:	07018516 	blt	zero,fp,80fe60 <___vfiprintf_internal_r+0xc0c>
  80f84c:	9885883a 	add	r2,r19,r2
  80f850:	45400015 	stw	r21,0(r8)
  80f854:	44c00115 	stw	r19,4(r8)
  80f858:	d8801c15 	stw	r2,112(sp)
  80f85c:	d9001b15 	stw	r4,108(sp)
  80f860:	00c001c4 	movi	r3,7
  80f864:	1901dd0e 	bge	r3,r4,80ffdc <___vfiprintf_internal_r+0xd88>
  80f868:	1002401e 	bne	r2,zero,81016c <___vfiprintf_internal_r+0xf18>
  80f86c:	d8001b15 	stw	zero,108(sp)
  80f870:	a2c0010c 	andi	r11,r20,4
  80f874:	58000226 	beq	r11,zero,80f880 <___vfiprintf_internal_r+0x62c>
  80f878:	8ca7c83a 	sub	r19,r17,r18
  80f87c:	04c2f216 	blt	zero,r19,810448 <___vfiprintf_internal_r+0x11f4>
  80f880:	8c80010e 	bge	r17,r18,80f888 <___vfiprintf_internal_r+0x634>
  80f884:	9023883a 	mov	r17,r18
  80f888:	da802317 	ldw	r10,140(sp)
  80f88c:	5455883a 	add	r10,r10,r17
  80f890:	da802315 	stw	r10,140(sp)
  80f894:	d8001b15 	stw	zero,108(sp)
  80f898:	d811883a 	mov	r8,sp
  80f89c:	003ea206 	br	80f328 <__alt_mem_onchip_mem+0xff807328>
  80f8a0:	a5000814 	ori	r20,r20,32
  80f8a4:	80c00007 	ldb	r3,0(r16)
  80f8a8:	003ec906 	br	80f3d0 <__alt_mem_onchip_mem+0xff8073d0>
  80f8ac:	80c00007 	ldb	r3,0(r16)
  80f8b0:	1b030926 	beq	r3,r12,8104d8 <___vfiprintf_internal_r+0x1284>
  80f8b4:	a5000414 	ori	r20,r20,16
  80f8b8:	003ec506 	br	80f3d0 <__alt_mem_onchip_mem+0xff8073d0>
  80f8bc:	21003fcc 	andi	r4,r4,255
  80f8c0:	20035e1e 	bne	r4,zero,81063c <___vfiprintf_internal_r+0x13e8>
  80f8c4:	a080080c 	andi	r2,r20,32
  80f8c8:	1002a526 	beq	r2,zero,810360 <___vfiprintf_internal_r+0x110c>
  80f8cc:	da802217 	ldw	r10,136(sp)
  80f8d0:	50800017 	ldw	r2,0(r10)
  80f8d4:	da802317 	ldw	r10,140(sp)
  80f8d8:	5007d7fa 	srai	r3,r10,31
  80f8dc:	da802217 	ldw	r10,136(sp)
  80f8e0:	10c00115 	stw	r3,4(r2)
  80f8e4:	52800104 	addi	r10,r10,4
  80f8e8:	da802215 	stw	r10,136(sp)
  80f8ec:	da802317 	ldw	r10,140(sp)
  80f8f0:	12800015 	stw	r10,0(r2)
  80f8f4:	003e8c06 	br	80f328 <__alt_mem_onchip_mem+0xff807328>
  80f8f8:	21003fcc 	andi	r4,r4,255
  80f8fc:	2003511e 	bne	r4,zero,810644 <___vfiprintf_internal_r+0x13f0>
  80f900:	a080080c 	andi	r2,r20,32
  80f904:	1000a126 	beq	r2,zero,80fb8c <___vfiprintf_internal_r+0x938>
  80f908:	da802217 	ldw	r10,136(sp)
  80f90c:	d8001d85 	stb	zero,118(sp)
  80f910:	50800204 	addi	r2,r10,8
  80f914:	54800017 	ldw	r18,0(r10)
  80f918:	54c00117 	ldw	r19,4(r10)
  80f91c:	4802b416 	blt	r9,zero,8103f0 <___vfiprintf_internal_r+0x119c>
  80f920:	013fdfc4 	movi	r4,-129
  80f924:	94c6b03a 	or	r3,r18,r19
  80f928:	d8802215 	stw	r2,136(sp)
  80f92c:	a128703a 	and	r20,r20,r4
  80f930:	1800a226 	beq	r3,zero,80fbbc <___vfiprintf_internal_r+0x968>
  80f934:	0039883a 	mov	fp,zero
  80f938:	dd401a04 	addi	r21,sp,104
  80f93c:	9006d0fa 	srli	r3,r18,3
  80f940:	9808977a 	slli	r4,r19,29
  80f944:	9826d0fa 	srli	r19,r19,3
  80f948:	948001cc 	andi	r18,r18,7
  80f94c:	90800c04 	addi	r2,r18,48
  80f950:	ad7fffc4 	addi	r21,r21,-1
  80f954:	20e4b03a 	or	r18,r4,r3
  80f958:	a8800005 	stb	r2,0(r21)
  80f95c:	94c6b03a 	or	r3,r18,r19
  80f960:	183ff61e 	bne	r3,zero,80f93c <__alt_mem_onchip_mem+0xff80793c>
  80f964:	a0c0004c 	andi	r3,r20,1
  80f968:	18005926 	beq	r3,zero,80fad0 <___vfiprintf_internal_r+0x87c>
  80f96c:	10803fcc 	andi	r2,r2,255
  80f970:	1080201c 	xori	r2,r2,128
  80f974:	10bfe004 	addi	r2,r2,-128
  80f978:	00c00c04 	movi	r3,48
  80f97c:	10c05426 	beq	r2,r3,80fad0 <___vfiprintf_internal_r+0x87c>
  80f980:	da801e17 	ldw	r10,120(sp)
  80f984:	a8bfffc4 	addi	r2,r21,-1
  80f988:	a8ffffc5 	stb	r3,-1(r21)
  80f98c:	50a7c83a 	sub	r19,r10,r2
  80f990:	102b883a 	mov	r21,r2
  80f994:	003f2f06 	br	80f654 <__alt_mem_onchip_mem+0xff807654>
  80f998:	21003fcc 	andi	r4,r4,255
  80f99c:	2003421e 	bne	r4,zero,8106a8 <___vfiprintf_internal_r+0x1454>
  80f9a0:	00802074 	movhi	r2,129
  80f9a4:	109bac04 	addi	r2,r2,28336
  80f9a8:	d8802615 	stw	r2,152(sp)
  80f9ac:	a080080c 	andi	r2,r20,32
  80f9b0:	1000aa26 	beq	r2,zero,80fc5c <___vfiprintf_internal_r+0xa08>
  80f9b4:	da802217 	ldw	r10,136(sp)
  80f9b8:	54800017 	ldw	r18,0(r10)
  80f9bc:	54c00117 	ldw	r19,4(r10)
  80f9c0:	52800204 	addi	r10,r10,8
  80f9c4:	da802215 	stw	r10,136(sp)
  80f9c8:	a080004c 	andi	r2,r20,1
  80f9cc:	1001d226 	beq	r2,zero,810118 <___vfiprintf_internal_r+0xec4>
  80f9d0:	94c4b03a 	or	r2,r18,r19
  80f9d4:	1002351e 	bne	r2,zero,8102ac <___vfiprintf_internal_r+0x1058>
  80f9d8:	d8001d85 	stb	zero,118(sp)
  80f9dc:	48022216 	blt	r9,zero,810268 <___vfiprintf_internal_r+0x1014>
  80f9e0:	00bfdfc4 	movi	r2,-129
  80f9e4:	a0a8703a 	and	r20,r20,r2
  80f9e8:	003f1506 	br	80f640 <__alt_mem_onchip_mem+0xff807640>
  80f9ec:	da802217 	ldw	r10,136(sp)
  80f9f0:	04800044 	movi	r18,1
  80f9f4:	d8001d85 	stb	zero,118(sp)
  80f9f8:	50800017 	ldw	r2,0(r10)
  80f9fc:	52800104 	addi	r10,r10,4
  80fa00:	da802215 	stw	r10,136(sp)
  80fa04:	d8801005 	stb	r2,64(sp)
  80fa08:	9027883a 	mov	r19,r18
  80fa0c:	dd401004 	addi	r21,sp,64
  80fa10:	0013883a 	mov	r9,zero
  80fa14:	003f1706 	br	80f674 <__alt_mem_onchip_mem+0xff807674>
  80fa18:	21003fcc 	andi	r4,r4,255
  80fa1c:	2003201e 	bne	r4,zero,8106a0 <___vfiprintf_internal_r+0x144c>
  80fa20:	a080080c 	andi	r2,r20,32
  80fa24:	10004b26 	beq	r2,zero,80fb54 <___vfiprintf_internal_r+0x900>
  80fa28:	da802217 	ldw	r10,136(sp)
  80fa2c:	50800117 	ldw	r2,4(r10)
  80fa30:	54800017 	ldw	r18,0(r10)
  80fa34:	52800204 	addi	r10,r10,8
  80fa38:	da802215 	stw	r10,136(sp)
  80fa3c:	1027883a 	mov	r19,r2
  80fa40:	10022c16 	blt	r2,zero,8102f4 <___vfiprintf_internal_r+0x10a0>
  80fa44:	df001d83 	ldbu	fp,118(sp)
  80fa48:	48007216 	blt	r9,zero,80fc14 <___vfiprintf_internal_r+0x9c0>
  80fa4c:	00ffdfc4 	movi	r3,-129
  80fa50:	94c4b03a 	or	r2,r18,r19
  80fa54:	a0e8703a 	and	r20,r20,r3
  80fa58:	1000cc26 	beq	r2,zero,80fd8c <___vfiprintf_internal_r+0xb38>
  80fa5c:	98021026 	beq	r19,zero,8102a0 <___vfiprintf_internal_r+0x104c>
  80fa60:	dc402415 	stw	r17,144(sp)
  80fa64:	dc002515 	stw	r16,148(sp)
  80fa68:	9823883a 	mov	r17,r19
  80fa6c:	9021883a 	mov	r16,r18
  80fa70:	dd401a04 	addi	r21,sp,104
  80fa74:	4825883a 	mov	r18,r9
  80fa78:	4027883a 	mov	r19,r8
  80fa7c:	8009883a 	mov	r4,r16
  80fa80:	880b883a 	mov	r5,r17
  80fa84:	01800284 	movi	r6,10
  80fa88:	000f883a 	mov	r7,zero
  80fa8c:	08111b40 	call	8111b4 <__umoddi3>
  80fa90:	10800c04 	addi	r2,r2,48
  80fa94:	ad7fffc4 	addi	r21,r21,-1
  80fa98:	8009883a 	mov	r4,r16
  80fa9c:	880b883a 	mov	r5,r17
  80faa0:	a8800005 	stb	r2,0(r21)
  80faa4:	01800284 	movi	r6,10
  80faa8:	000f883a 	mov	r7,zero
  80faac:	0810c3c0 	call	810c3c <__udivdi3>
  80fab0:	1021883a 	mov	r16,r2
  80fab4:	10c4b03a 	or	r2,r2,r3
  80fab8:	1823883a 	mov	r17,r3
  80fabc:	103fef1e 	bne	r2,zero,80fa7c <__alt_mem_onchip_mem+0xff807a7c>
  80fac0:	dc402417 	ldw	r17,144(sp)
  80fac4:	dc002517 	ldw	r16,148(sp)
  80fac8:	9013883a 	mov	r9,r18
  80facc:	9811883a 	mov	r8,r19
  80fad0:	da801e17 	ldw	r10,120(sp)
  80fad4:	5567c83a 	sub	r19,r10,r21
  80fad8:	003ede06 	br	80f654 <__alt_mem_onchip_mem+0xff807654>
  80fadc:	38803fcc 	andi	r2,r7,255
  80fae0:	1080201c 	xori	r2,r2,128
  80fae4:	10bfe004 	addi	r2,r2,-128
  80fae8:	1002371e 	bne	r2,zero,8103c8 <___vfiprintf_internal_r+0x1174>
  80faec:	01000044 	movi	r4,1
  80faf0:	01c00804 	movi	r7,32
  80faf4:	80c00007 	ldb	r3,0(r16)
  80faf8:	003e3506 	br	80f3d0 <__alt_mem_onchip_mem+0xff8073d0>
  80fafc:	a5000054 	ori	r20,r20,1
  80fb00:	80c00007 	ldb	r3,0(r16)
  80fb04:	003e3206 	br	80f3d0 <__alt_mem_onchip_mem+0xff8073d0>
  80fb08:	a5002014 	ori	r20,r20,128
  80fb0c:	80c00007 	ldb	r3,0(r16)
  80fb10:	003e2f06 	br	80f3d0 <__alt_mem_onchip_mem+0xff8073d0>
  80fb14:	8015883a 	mov	r10,r16
  80fb18:	0023883a 	mov	r17,zero
  80fb1c:	18bff404 	addi	r2,r3,-48
  80fb20:	50c00007 	ldb	r3,0(r10)
  80fb24:	8c4002a4 	muli	r17,r17,10
  80fb28:	84000044 	addi	r16,r16,1
  80fb2c:	8015883a 	mov	r10,r16
  80fb30:	1463883a 	add	r17,r2,r17
  80fb34:	18bff404 	addi	r2,r3,-48
  80fb38:	30bff92e 	bgeu	r6,r2,80fb20 <__alt_mem_onchip_mem+0xff807b20>
  80fb3c:	003e2506 	br	80f3d4 <__alt_mem_onchip_mem+0xff8073d4>
  80fb40:	21003fcc 	andi	r4,r4,255
  80fb44:	2002d41e 	bne	r4,zero,810698 <___vfiprintf_internal_r+0x1444>
  80fb48:	a5000414 	ori	r20,r20,16
  80fb4c:	a080080c 	andi	r2,r20,32
  80fb50:	103fb51e 	bne	r2,zero,80fa28 <__alt_mem_onchip_mem+0xff807a28>
  80fb54:	a080040c 	andi	r2,r20,16
  80fb58:	1001f826 	beq	r2,zero,81033c <___vfiprintf_internal_r+0x10e8>
  80fb5c:	da802217 	ldw	r10,136(sp)
  80fb60:	54800017 	ldw	r18,0(r10)
  80fb64:	52800104 	addi	r10,r10,4
  80fb68:	da802215 	stw	r10,136(sp)
  80fb6c:	9027d7fa 	srai	r19,r18,31
  80fb70:	9805883a 	mov	r2,r19
  80fb74:	003fb206 	br	80fa40 <__alt_mem_onchip_mem+0xff807a40>
  80fb78:	21003fcc 	andi	r4,r4,255
  80fb7c:	2002c41e 	bne	r4,zero,810690 <___vfiprintf_internal_r+0x143c>
  80fb80:	a5000414 	ori	r20,r20,16
  80fb84:	a080080c 	andi	r2,r20,32
  80fb88:	103f5f1e 	bne	r2,zero,80f908 <__alt_mem_onchip_mem+0xff807908>
  80fb8c:	a080040c 	andi	r2,r20,16
  80fb90:	10020f26 	beq	r2,zero,8103d0 <___vfiprintf_internal_r+0x117c>
  80fb94:	da802217 	ldw	r10,136(sp)
  80fb98:	d8001d85 	stb	zero,118(sp)
  80fb9c:	0027883a 	mov	r19,zero
  80fba0:	50800104 	addi	r2,r10,4
  80fba4:	54800017 	ldw	r18,0(r10)
  80fba8:	48021116 	blt	r9,zero,8103f0 <___vfiprintf_internal_r+0x119c>
  80fbac:	00ffdfc4 	movi	r3,-129
  80fbb0:	d8802215 	stw	r2,136(sp)
  80fbb4:	a0e8703a 	and	r20,r20,r3
  80fbb8:	903f5e1e 	bne	r18,zero,80f934 <__alt_mem_onchip_mem+0xff807934>
  80fbbc:	0039883a 	mov	fp,zero
  80fbc0:	4802a626 	beq	r9,zero,81065c <___vfiprintf_internal_r+0x1408>
  80fbc4:	0025883a 	mov	r18,zero
  80fbc8:	0027883a 	mov	r19,zero
  80fbcc:	003f5a06 	br	80f938 <__alt_mem_onchip_mem+0xff807938>
  80fbd0:	21003fcc 	andi	r4,r4,255
  80fbd4:	20029f1e 	bne	r4,zero,810654 <___vfiprintf_internal_r+0x1400>
  80fbd8:	a5000414 	ori	r20,r20,16
  80fbdc:	a080080c 	andi	r2,r20,32
  80fbe0:	10005e1e 	bne	r2,zero,80fd5c <___vfiprintf_internal_r+0xb08>
  80fbe4:	a080040c 	andi	r2,r20,16
  80fbe8:	1001a21e 	bne	r2,zero,810274 <___vfiprintf_internal_r+0x1020>
  80fbec:	a080100c 	andi	r2,r20,64
  80fbf0:	d8001d85 	stb	zero,118(sp)
  80fbf4:	da802217 	ldw	r10,136(sp)
  80fbf8:	1002231e 	bne	r2,zero,810488 <___vfiprintf_internal_r+0x1234>
  80fbfc:	50800104 	addi	r2,r10,4
  80fc00:	54800017 	ldw	r18,0(r10)
  80fc04:	0027883a 	mov	r19,zero
  80fc08:	4801a00e 	bge	r9,zero,81028c <___vfiprintf_internal_r+0x1038>
  80fc0c:	d8802215 	stw	r2,136(sp)
  80fc10:	0039883a 	mov	fp,zero
  80fc14:	94c4b03a 	or	r2,r18,r19
  80fc18:	103f901e 	bne	r2,zero,80fa5c <__alt_mem_onchip_mem+0xff807a5c>
  80fc1c:	00800044 	movi	r2,1
  80fc20:	10803fcc 	andi	r2,r2,255
  80fc24:	00c00044 	movi	r3,1
  80fc28:	10c05926 	beq	r2,r3,80fd90 <___vfiprintf_internal_r+0xb3c>
  80fc2c:	00c00084 	movi	r3,2
  80fc30:	10ffe41e 	bne	r2,r3,80fbc4 <__alt_mem_onchip_mem+0xff807bc4>
  80fc34:	0025883a 	mov	r18,zero
  80fc38:	0027883a 	mov	r19,zero
  80fc3c:	00013d06 	br	810134 <___vfiprintf_internal_r+0xee0>
  80fc40:	21003fcc 	andi	r4,r4,255
  80fc44:	2002811e 	bne	r4,zero,81064c <___vfiprintf_internal_r+0x13f8>
  80fc48:	00802074 	movhi	r2,129
  80fc4c:	109ba704 	addi	r2,r2,28316
  80fc50:	d8802615 	stw	r2,152(sp)
  80fc54:	a080080c 	andi	r2,r20,32
  80fc58:	103f561e 	bne	r2,zero,80f9b4 <__alt_mem_onchip_mem+0xff8079b4>
  80fc5c:	a080040c 	andi	r2,r20,16
  80fc60:	1001d126 	beq	r2,zero,8103a8 <___vfiprintf_internal_r+0x1154>
  80fc64:	da802217 	ldw	r10,136(sp)
  80fc68:	0027883a 	mov	r19,zero
  80fc6c:	54800017 	ldw	r18,0(r10)
  80fc70:	52800104 	addi	r10,r10,4
  80fc74:	da802215 	stw	r10,136(sp)
  80fc78:	003f5306 	br	80f9c8 <__alt_mem_onchip_mem+0xff8079c8>
  80fc7c:	da802217 	ldw	r10,136(sp)
  80fc80:	d8001d85 	stb	zero,118(sp)
  80fc84:	55400017 	ldw	r21,0(r10)
  80fc88:	50c00104 	addi	r3,r10,4
  80fc8c:	a8024226 	beq	r21,zero,810598 <___vfiprintf_internal_r+0x1344>
  80fc90:	48021816 	blt	r9,zero,8104f4 <___vfiprintf_internal_r+0x12a0>
  80fc94:	480d883a 	mov	r6,r9
  80fc98:	000b883a 	mov	r5,zero
  80fc9c:	a809883a 	mov	r4,r21
  80fca0:	d8c02a15 	stw	r3,168(sp)
  80fca4:	da002b15 	stw	r8,172(sp)
  80fca8:	da402c15 	stw	r9,176(sp)
  80fcac:	080d6a80 	call	80d6a8 <memchr>
  80fcb0:	d8c02a17 	ldw	r3,168(sp)
  80fcb4:	da002b17 	ldw	r8,172(sp)
  80fcb8:	da402c17 	ldw	r9,176(sp)
  80fcbc:	10024826 	beq	r2,zero,8105e0 <___vfiprintf_internal_r+0x138c>
  80fcc0:	1567c83a 	sub	r19,r2,r21
  80fcc4:	df001d83 	ldbu	fp,118(sp)
  80fcc8:	d8c02215 	stw	r3,136(sp)
  80fccc:	0013883a 	mov	r9,zero
  80fcd0:	003e6006 	br	80f654 <__alt_mem_onchip_mem+0xff807654>
  80fcd4:	21003fcc 	andi	r4,r4,255
  80fcd8:	203fc026 	beq	r4,zero,80fbdc <__alt_mem_onchip_mem+0xff807bdc>
  80fcdc:	d9c01d85 	stb	r7,118(sp)
  80fce0:	003fbe06 	br	80fbdc <__alt_mem_onchip_mem+0xff807bdc>
  80fce4:	da802217 	ldw	r10,136(sp)
  80fce8:	54400017 	ldw	r17,0(r10)
  80fcec:	50800104 	addi	r2,r10,4
  80fcf0:	883e3b16 	blt	r17,zero,80f5e0 <__alt_mem_onchip_mem+0xff8075e0>
  80fcf4:	d8802215 	stw	r2,136(sp)
  80fcf8:	80c00007 	ldb	r3,0(r16)
  80fcfc:	003db406 	br	80f3d0 <__alt_mem_onchip_mem+0xff8073d0>
  80fd00:	01000044 	movi	r4,1
  80fd04:	01c00ac4 	movi	r7,43
  80fd08:	80c00007 	ldb	r3,0(r16)
  80fd0c:	003db006 	br	80f3d0 <__alt_mem_onchip_mem+0xff8073d0>
  80fd10:	80c00007 	ldb	r3,0(r16)
  80fd14:	82800044 	addi	r10,r16,1
  80fd18:	1b423c26 	beq	r3,r13,81060c <___vfiprintf_internal_r+0x13b8>
  80fd1c:	18bff404 	addi	r2,r3,-48
  80fd20:	0013883a 	mov	r9,zero
  80fd24:	30822b36 	bltu	r6,r2,8105d4 <___vfiprintf_internal_r+0x1380>
  80fd28:	50c00007 	ldb	r3,0(r10)
  80fd2c:	4a4002a4 	muli	r9,r9,10
  80fd30:	54000044 	addi	r16,r10,1
  80fd34:	8015883a 	mov	r10,r16
  80fd38:	4893883a 	add	r9,r9,r2
  80fd3c:	18bff404 	addi	r2,r3,-48
  80fd40:	30bff92e 	bgeu	r6,r2,80fd28 <__alt_mem_onchip_mem+0xff807d28>
  80fd44:	483da30e 	bge	r9,zero,80f3d4 <__alt_mem_onchip_mem+0xff8073d4>
  80fd48:	027fffc4 	movi	r9,-1
  80fd4c:	003da106 	br	80f3d4 <__alt_mem_onchip_mem+0xff8073d4>
  80fd50:	a5001014 	ori	r20,r20,64
  80fd54:	80c00007 	ldb	r3,0(r16)
  80fd58:	003d9d06 	br	80f3d0 <__alt_mem_onchip_mem+0xff8073d0>
  80fd5c:	da802217 	ldw	r10,136(sp)
  80fd60:	d8001d85 	stb	zero,118(sp)
  80fd64:	50c00204 	addi	r3,r10,8
  80fd68:	54800017 	ldw	r18,0(r10)
  80fd6c:	54c00117 	ldw	r19,4(r10)
  80fd70:	4801ca16 	blt	r9,zero,81049c <___vfiprintf_internal_r+0x1248>
  80fd74:	013fdfc4 	movi	r4,-129
  80fd78:	94c4b03a 	or	r2,r18,r19
  80fd7c:	d8c02215 	stw	r3,136(sp)
  80fd80:	a128703a 	and	r20,r20,r4
  80fd84:	0039883a 	mov	fp,zero
  80fd88:	103f341e 	bne	r2,zero,80fa5c <__alt_mem_onchip_mem+0xff807a5c>
  80fd8c:	483e2e26 	beq	r9,zero,80f648 <__alt_mem_onchip_mem+0xff807648>
  80fd90:	0025883a 	mov	r18,zero
  80fd94:	94800c04 	addi	r18,r18,48
  80fd98:	dc8019c5 	stb	r18,103(sp)
  80fd9c:	dcc02717 	ldw	r19,156(sp)
  80fda0:	dd4019c4 	addi	r21,sp,103
  80fda4:	003e2b06 	br	80f654 <__alt_mem_onchip_mem+0xff807654>
  80fda8:	21003fcc 	andi	r4,r4,255
  80fdac:	2002361e 	bne	r4,zero,810688 <___vfiprintf_internal_r+0x1434>
  80fdb0:	1801c126 	beq	r3,zero,8104b8 <___vfiprintf_internal_r+0x1264>
  80fdb4:	04800044 	movi	r18,1
  80fdb8:	d8c01005 	stb	r3,64(sp)
  80fdbc:	d8001d85 	stb	zero,118(sp)
  80fdc0:	9027883a 	mov	r19,r18
  80fdc4:	dd401004 	addi	r21,sp,64
  80fdc8:	003f1106 	br	80fa10 <__alt_mem_onchip_mem+0xff807a10>
  80fdcc:	d9402117 	ldw	r5,132(sp)
  80fdd0:	d9002017 	ldw	r4,128(sp)
  80fdd4:	d9801a04 	addi	r6,sp,104
  80fdd8:	d9c02b15 	stw	r7,172(sp)
  80fddc:	dbc02a15 	stw	r15,168(sp)
  80fde0:	080f1400 	call	80f140 <__sprint_r.part.0>
  80fde4:	d9c02b17 	ldw	r7,172(sp)
  80fde8:	dbc02a17 	ldw	r15,168(sp)
  80fdec:	10006d1e 	bne	r2,zero,80ffa4 <___vfiprintf_internal_r+0xd50>
  80fdf0:	d9801b17 	ldw	r6,108(sp)
  80fdf4:	d8801c17 	ldw	r2,112(sp)
  80fdf8:	d811883a 	mov	r8,sp
  80fdfc:	31400044 	addi	r5,r6,1
  80fe00:	003e3306 	br	80f6d0 <__alt_mem_onchip_mem+0xff8076d0>
  80fe04:	d9401b17 	ldw	r5,108(sp)
  80fe08:	d8801c17 	ldw	r2,112(sp)
  80fe0c:	29000044 	addi	r4,r5,1
  80fe10:	d8c01d87 	ldb	r3,118(sp)
  80fe14:	183e4d26 	beq	r3,zero,80f74c <__alt_mem_onchip_mem+0xff80774c>
  80fe18:	00c00044 	movi	r3,1
  80fe1c:	d9401d84 	addi	r5,sp,118
  80fe20:	10c5883a 	add	r2,r2,r3
  80fe24:	41400015 	stw	r5,0(r8)
  80fe28:	40c00115 	stw	r3,4(r8)
  80fe2c:	d8801c15 	stw	r2,112(sp)
  80fe30:	d9001b15 	stw	r4,108(sp)
  80fe34:	014001c4 	movi	r5,7
  80fe38:	2900a90e 	bge	r5,r4,8100e0 <___vfiprintf_internal_r+0xe8c>
  80fe3c:	1000da1e 	bne	r2,zero,8101a8 <___vfiprintf_internal_r+0xf54>
  80fe40:	7000ab1e 	bne	r14,zero,8100f0 <___vfiprintf_internal_r+0xe9c>
  80fe44:	000b883a 	mov	r5,zero
  80fe48:	1809883a 	mov	r4,r3
  80fe4c:	d811883a 	mov	r8,sp
  80fe50:	00c02004 	movi	r3,128
  80fe54:	e0fe4d26 	beq	fp,r3,80f78c <__alt_mem_onchip_mem+0xff80778c>
  80fe58:	4cf9c83a 	sub	fp,r9,r19
  80fe5c:	073e7b0e 	bge	zero,fp,80f84c <__alt_mem_onchip_mem+0xff80784c>
  80fe60:	01c00404 	movi	r7,16
  80fe64:	3f01900e 	bge	r7,fp,8104a8 <___vfiprintf_internal_r+0x1254>
  80fe68:	00c02074 	movhi	r3,129
  80fe6c:	18dc0c04 	addi	r3,r3,28720
  80fe70:	d8c02415 	stw	r3,144(sp)
  80fe74:	034001c4 	movi	r13,7
  80fe78:	00000506 	br	80fe90 <___vfiprintf_internal_r+0xc3c>
  80fe7c:	29000084 	addi	r4,r5,2
  80fe80:	42000204 	addi	r8,r8,8
  80fe84:	180b883a 	mov	r5,r3
  80fe88:	e73ffc04 	addi	fp,fp,-16
  80fe8c:	3f000d0e 	bge	r7,fp,80fec4 <___vfiprintf_internal_r+0xc70>
  80fe90:	10800404 	addi	r2,r2,16
  80fe94:	28c00044 	addi	r3,r5,1
  80fe98:	45c00015 	stw	r23,0(r8)
  80fe9c:	41c00115 	stw	r7,4(r8)
  80fea0:	d8801c15 	stw	r2,112(sp)
  80fea4:	d8c01b15 	stw	r3,108(sp)
  80fea8:	68fff40e 	bge	r13,r3,80fe7c <__alt_mem_onchip_mem+0xff807e7c>
  80feac:	1000101e 	bne	r2,zero,80fef0 <___vfiprintf_internal_r+0xc9c>
  80feb0:	e73ffc04 	addi	fp,fp,-16
  80feb4:	01000044 	movi	r4,1
  80feb8:	000b883a 	mov	r5,zero
  80febc:	d811883a 	mov	r8,sp
  80fec0:	3f3ff316 	blt	r7,fp,80fe90 <__alt_mem_onchip_mem+0xff807e90>
  80fec4:	da802417 	ldw	r10,144(sp)
  80fec8:	1705883a 	add	r2,r2,fp
  80fecc:	47000115 	stw	fp,4(r8)
  80fed0:	42800015 	stw	r10,0(r8)
  80fed4:	d8801c15 	stw	r2,112(sp)
  80fed8:	d9001b15 	stw	r4,108(sp)
  80fedc:	00c001c4 	movi	r3,7
  80fee0:	19003616 	blt	r3,r4,80ffbc <___vfiprintf_internal_r+0xd68>
  80fee4:	42000204 	addi	r8,r8,8
  80fee8:	21000044 	addi	r4,r4,1
  80feec:	003e5706 	br	80f84c <__alt_mem_onchip_mem+0xff80784c>
  80fef0:	d9402117 	ldw	r5,132(sp)
  80fef4:	d9002017 	ldw	r4,128(sp)
  80fef8:	d9801a04 	addi	r6,sp,104
  80fefc:	d9c02b15 	stw	r7,172(sp)
  80ff00:	db402a15 	stw	r13,168(sp)
  80ff04:	080f1400 	call	80f140 <__sprint_r.part.0>
  80ff08:	d9c02b17 	ldw	r7,172(sp)
  80ff0c:	db402a17 	ldw	r13,168(sp)
  80ff10:	1000241e 	bne	r2,zero,80ffa4 <___vfiprintf_internal_r+0xd50>
  80ff14:	d9401b17 	ldw	r5,108(sp)
  80ff18:	d8801c17 	ldw	r2,112(sp)
  80ff1c:	d811883a 	mov	r8,sp
  80ff20:	29000044 	addi	r4,r5,1
  80ff24:	003fd806 	br	80fe88 <__alt_mem_onchip_mem+0xff807e88>
  80ff28:	d9401b17 	ldw	r5,108(sp)
  80ff2c:	00c02074 	movhi	r3,129
  80ff30:	18dc1004 	addi	r3,r3,28736
  80ff34:	d8c02415 	stw	r3,144(sp)
  80ff38:	29400044 	addi	r5,r5,1
  80ff3c:	d8c02417 	ldw	r3,144(sp)
  80ff40:	14c5883a 	add	r2,r2,r19
  80ff44:	44c00115 	stw	r19,4(r8)
  80ff48:	40c00015 	stw	r3,0(r8)
  80ff4c:	d8801c15 	stw	r2,112(sp)
  80ff50:	d9401b15 	stw	r5,108(sp)
  80ff54:	00c001c4 	movi	r3,7
  80ff58:	1940070e 	bge	r3,r5,80ff78 <___vfiprintf_internal_r+0xd24>
  80ff5c:	103e4826 	beq	r2,zero,80f880 <__alt_mem_onchip_mem+0xff807880>
  80ff60:	d9402117 	ldw	r5,132(sp)
  80ff64:	d9002017 	ldw	r4,128(sp)
  80ff68:	d9801a04 	addi	r6,sp,104
  80ff6c:	080f1400 	call	80f140 <__sprint_r.part.0>
  80ff70:	10000c1e 	bne	r2,zero,80ffa4 <___vfiprintf_internal_r+0xd50>
  80ff74:	d8801c17 	ldw	r2,112(sp)
  80ff78:	8c80010e 	bge	r17,r18,80ff80 <___vfiprintf_internal_r+0xd2c>
  80ff7c:	9023883a 	mov	r17,r18
  80ff80:	da802317 	ldw	r10,140(sp)
  80ff84:	5455883a 	add	r10,r10,r17
  80ff88:	da802315 	stw	r10,140(sp)
  80ff8c:	103e4126 	beq	r2,zero,80f894 <__alt_mem_onchip_mem+0xff807894>
  80ff90:	d9402117 	ldw	r5,132(sp)
  80ff94:	d9002017 	ldw	r4,128(sp)
  80ff98:	d9801a04 	addi	r6,sp,104
  80ff9c:	080f1400 	call	80f140 <__sprint_r.part.0>
  80ffa0:	103e3c26 	beq	r2,zero,80f894 <__alt_mem_onchip_mem+0xff807894>
  80ffa4:	dd002117 	ldw	r20,132(sp)
  80ffa8:	a080030b 	ldhu	r2,12(r20)
  80ffac:	1080100c 	andi	r2,r2,64
  80ffb0:	1001231e 	bne	r2,zero,810440 <___vfiprintf_internal_r+0x11ec>
  80ffb4:	d8802317 	ldw	r2,140(sp)
  80ffb8:	003d7b06 	br	80f5a8 <__alt_mem_onchip_mem+0xff8075a8>
  80ffbc:	1000991e 	bne	r2,zero,810224 <___vfiprintf_internal_r+0xfd0>
  80ffc0:	00c00044 	movi	r3,1
  80ffc4:	9805883a 	mov	r2,r19
  80ffc8:	dd400015 	stw	r21,0(sp)
  80ffcc:	dcc00115 	stw	r19,4(sp)
  80ffd0:	dcc01c15 	stw	r19,112(sp)
  80ffd4:	d8c01b15 	stw	r3,108(sp)
  80ffd8:	d811883a 	mov	r8,sp
  80ffdc:	42000204 	addi	r8,r8,8
  80ffe0:	a2c0010c 	andi	r11,r20,4
  80ffe4:	583fe426 	beq	r11,zero,80ff78 <__alt_mem_onchip_mem+0xff807f78>
  80ffe8:	8ca7c83a 	sub	r19,r17,r18
  80ffec:	04ffe20e 	bge	zero,r19,80ff78 <__alt_mem_onchip_mem+0xff807f78>
  80fff0:	01c00404 	movi	r7,16
  80fff4:	3cffcc0e 	bge	r7,r19,80ff28 <__alt_mem_onchip_mem+0xff807f28>
  80fff8:	02802074 	movhi	r10,129
  80fffc:	529c1004 	addi	r10,r10,28736
  810000:	d9001b17 	ldw	r4,108(sp)
  810004:	da802415 	stw	r10,144(sp)
  810008:	382b883a 	mov	r21,r7
  81000c:	050001c4 	movi	r20,7
  810010:	df002017 	ldw	fp,128(sp)
  810014:	00000506 	br	81002c <___vfiprintf_internal_r+0xdd8>
  810018:	21400084 	addi	r5,r4,2
  81001c:	42000204 	addi	r8,r8,8
  810020:	1809883a 	mov	r4,r3
  810024:	9cfffc04 	addi	r19,r19,-16
  810028:	acffc40e 	bge	r21,r19,80ff3c <__alt_mem_onchip_mem+0xff807f3c>
  81002c:	10800404 	addi	r2,r2,16
  810030:	20c00044 	addi	r3,r4,1
  810034:	45800015 	stw	r22,0(r8)
  810038:	45400115 	stw	r21,4(r8)
  81003c:	d8801c15 	stw	r2,112(sp)
  810040:	d8c01b15 	stw	r3,108(sp)
  810044:	a0fff40e 	bge	r20,r3,810018 <__alt_mem_onchip_mem+0xff808018>
  810048:	1000041e 	bne	r2,zero,81005c <___vfiprintf_internal_r+0xe08>
  81004c:	01400044 	movi	r5,1
  810050:	0009883a 	mov	r4,zero
  810054:	d811883a 	mov	r8,sp
  810058:	003ff206 	br	810024 <__alt_mem_onchip_mem+0xff808024>
  81005c:	d9402117 	ldw	r5,132(sp)
  810060:	d9801a04 	addi	r6,sp,104
  810064:	e009883a 	mov	r4,fp
  810068:	080f1400 	call	80f140 <__sprint_r.part.0>
  81006c:	103fcd1e 	bne	r2,zero,80ffa4 <__alt_mem_onchip_mem+0xff807fa4>
  810070:	d9001b17 	ldw	r4,108(sp)
  810074:	d8801c17 	ldw	r2,112(sp)
  810078:	d811883a 	mov	r8,sp
  81007c:	21400044 	addi	r5,r4,1
  810080:	003fe806 	br	810024 <__alt_mem_onchip_mem+0xff808024>
  810084:	d9402117 	ldw	r5,132(sp)
  810088:	d9002017 	ldw	r4,128(sp)
  81008c:	d9801a04 	addi	r6,sp,104
  810090:	d9c02b15 	stw	r7,172(sp)
  810094:	db402a15 	stw	r13,168(sp)
  810098:	080f1400 	call	80f140 <__sprint_r.part.0>
  81009c:	d9c02b17 	ldw	r7,172(sp)
  8100a0:	db402a17 	ldw	r13,168(sp)
  8100a4:	103fbf1e 	bne	r2,zero,80ffa4 <__alt_mem_onchip_mem+0xff807fa4>
  8100a8:	d9401b17 	ldw	r5,108(sp)
  8100ac:	d8801c17 	ldw	r2,112(sp)
  8100b0:	d811883a 	mov	r8,sp
  8100b4:	29800044 	addi	r6,r5,1
  8100b8:	003dc406 	br	80f7cc <__alt_mem_onchip_mem+0xff8077cc>
  8100bc:	1000d21e 	bne	r2,zero,810408 <___vfiprintf_internal_r+0x11b4>
  8100c0:	d8c01d87 	ldb	r3,118(sp)
  8100c4:	18009526 	beq	r3,zero,81031c <___vfiprintf_internal_r+0x10c8>
  8100c8:	00800044 	movi	r2,1
  8100cc:	d8c01d84 	addi	r3,sp,118
  8100d0:	1009883a 	mov	r4,r2
  8100d4:	d8c00015 	stw	r3,0(sp)
  8100d8:	d8800115 	stw	r2,4(sp)
  8100dc:	d811883a 	mov	r8,sp
  8100e0:	200b883a 	mov	r5,r4
  8100e4:	42000204 	addi	r8,r8,8
  8100e8:	21000044 	addi	r4,r4,1
  8100ec:	003d9706 	br	80f74c <__alt_mem_onchip_mem+0xff80774c>
  8100f0:	d9001d04 	addi	r4,sp,116
  8100f4:	00800084 	movi	r2,2
  8100f8:	d9000015 	stw	r4,0(sp)
  8100fc:	d8800115 	stw	r2,4(sp)
  810100:	1809883a 	mov	r4,r3
  810104:	d811883a 	mov	r8,sp
  810108:	200b883a 	mov	r5,r4
  81010c:	42000204 	addi	r8,r8,8
  810110:	21000044 	addi	r4,r4,1
  810114:	003f4e06 	br	80fe50 <__alt_mem_onchip_mem+0xff807e50>
  810118:	d8001d85 	stb	zero,118(sp)
  81011c:	48005016 	blt	r9,zero,810260 <___vfiprintf_internal_r+0x100c>
  810120:	00ffdfc4 	movi	r3,-129
  810124:	94c4b03a 	or	r2,r18,r19
  810128:	a0e8703a 	and	r20,r20,r3
  81012c:	103d4426 	beq	r2,zero,80f640 <__alt_mem_onchip_mem+0xff807640>
  810130:	0039883a 	mov	fp,zero
  810134:	d9002617 	ldw	r4,152(sp)
  810138:	dd401a04 	addi	r21,sp,104
  81013c:	908003cc 	andi	r2,r18,15
  810140:	9806973a 	slli	r3,r19,28
  810144:	2085883a 	add	r2,r4,r2
  810148:	9024d13a 	srli	r18,r18,4
  81014c:	10800003 	ldbu	r2,0(r2)
  810150:	9826d13a 	srli	r19,r19,4
  810154:	ad7fffc4 	addi	r21,r21,-1
  810158:	1ca4b03a 	or	r18,r3,r18
  81015c:	a8800005 	stb	r2,0(r21)
  810160:	94c4b03a 	or	r2,r18,r19
  810164:	103ff51e 	bne	r2,zero,81013c <__alt_mem_onchip_mem+0xff80813c>
  810168:	003e5906 	br	80fad0 <__alt_mem_onchip_mem+0xff807ad0>
  81016c:	d9402117 	ldw	r5,132(sp)
  810170:	d9002017 	ldw	r4,128(sp)
  810174:	d9801a04 	addi	r6,sp,104
  810178:	080f1400 	call	80f140 <__sprint_r.part.0>
  81017c:	103f891e 	bne	r2,zero,80ffa4 <__alt_mem_onchip_mem+0xff807fa4>
  810180:	d8801c17 	ldw	r2,112(sp)
  810184:	d811883a 	mov	r8,sp
  810188:	003f9506 	br	80ffe0 <__alt_mem_onchip_mem+0xff807fe0>
  81018c:	d9402117 	ldw	r5,132(sp)
  810190:	d9002017 	ldw	r4,128(sp)
  810194:	d9801a04 	addi	r6,sp,104
  810198:	080f1400 	call	80f140 <__sprint_r.part.0>
  81019c:	103f811e 	bne	r2,zero,80ffa4 <__alt_mem_onchip_mem+0xff807fa4>
  8101a0:	d811883a 	mov	r8,sp
  8101a4:	003ced06 	br	80f55c <__alt_mem_onchip_mem+0xff80755c>
  8101a8:	d9402117 	ldw	r5,132(sp)
  8101ac:	d9002017 	ldw	r4,128(sp)
  8101b0:	d9801a04 	addi	r6,sp,104
  8101b4:	da402c15 	stw	r9,176(sp)
  8101b8:	db802a15 	stw	r14,168(sp)
  8101bc:	080f1400 	call	80f140 <__sprint_r.part.0>
  8101c0:	da402c17 	ldw	r9,176(sp)
  8101c4:	db802a17 	ldw	r14,168(sp)
  8101c8:	103f761e 	bne	r2,zero,80ffa4 <__alt_mem_onchip_mem+0xff807fa4>
  8101cc:	d9401b17 	ldw	r5,108(sp)
  8101d0:	d8801c17 	ldw	r2,112(sp)
  8101d4:	d811883a 	mov	r8,sp
  8101d8:	29000044 	addi	r4,r5,1
  8101dc:	003d5b06 	br	80f74c <__alt_mem_onchip_mem+0xff80774c>
  8101e0:	d9402117 	ldw	r5,132(sp)
  8101e4:	d9002017 	ldw	r4,128(sp)
  8101e8:	d9801a04 	addi	r6,sp,104
  8101ec:	da402c15 	stw	r9,176(sp)
  8101f0:	080f1400 	call	80f140 <__sprint_r.part.0>
  8101f4:	da402c17 	ldw	r9,176(sp)
  8101f8:	103f6a1e 	bne	r2,zero,80ffa4 <__alt_mem_onchip_mem+0xff807fa4>
  8101fc:	d9401b17 	ldw	r5,108(sp)
  810200:	d8801c17 	ldw	r2,112(sp)
  810204:	d811883a 	mov	r8,sp
  810208:	29000044 	addi	r4,r5,1
  81020c:	003f1006 	br	80fe50 <__alt_mem_onchip_mem+0xff807e50>
  810210:	1000c31e 	bne	r2,zero,810520 <___vfiprintf_internal_r+0x12cc>
  810214:	01000044 	movi	r4,1
  810218:	000b883a 	mov	r5,zero
  81021c:	d811883a 	mov	r8,sp
  810220:	003f0d06 	br	80fe58 <__alt_mem_onchip_mem+0xff807e58>
  810224:	d9402117 	ldw	r5,132(sp)
  810228:	d9002017 	ldw	r4,128(sp)
  81022c:	d9801a04 	addi	r6,sp,104
  810230:	080f1400 	call	80f140 <__sprint_r.part.0>
  810234:	103f5b1e 	bne	r2,zero,80ffa4 <__alt_mem_onchip_mem+0xff807fa4>
  810238:	d9001b17 	ldw	r4,108(sp)
  81023c:	d8801c17 	ldw	r2,112(sp)
  810240:	d811883a 	mov	r8,sp
  810244:	21000044 	addi	r4,r4,1
  810248:	003d8006 	br	80f84c <__alt_mem_onchip_mem+0xff80784c>
  81024c:	01002074 	movhi	r4,129
  810250:	211bac04 	addi	r4,r4,28336
  810254:	d9002615 	stw	r4,152(sp)
  810258:	d8c02215 	stw	r3,136(sp)
  81025c:	1029883a 	mov	r20,r2
  810260:	94c4b03a 	or	r2,r18,r19
  810264:	103fb21e 	bne	r2,zero,810130 <__alt_mem_onchip_mem+0xff808130>
  810268:	0039883a 	mov	fp,zero
  81026c:	00800084 	movi	r2,2
  810270:	003e6b06 	br	80fc20 <__alt_mem_onchip_mem+0xff807c20>
  810274:	da802217 	ldw	r10,136(sp)
  810278:	d8001d85 	stb	zero,118(sp)
  81027c:	0027883a 	mov	r19,zero
  810280:	50800104 	addi	r2,r10,4
  810284:	54800017 	ldw	r18,0(r10)
  810288:	483e6016 	blt	r9,zero,80fc0c <__alt_mem_onchip_mem+0xff807c0c>
  81028c:	00ffdfc4 	movi	r3,-129
  810290:	d8802215 	stw	r2,136(sp)
  810294:	a0e8703a 	and	r20,r20,r3
  810298:	0039883a 	mov	fp,zero
  81029c:	903ebb26 	beq	r18,zero,80fd8c <__alt_mem_onchip_mem+0xff807d8c>
  8102a0:	00800244 	movi	r2,9
  8102a4:	14bdee36 	bltu	r2,r18,80fa60 <__alt_mem_onchip_mem+0xff807a60>
  8102a8:	003eba06 	br	80fd94 <__alt_mem_onchip_mem+0xff807d94>
  8102ac:	00800c04 	movi	r2,48
  8102b0:	d8c01d45 	stb	r3,117(sp)
  8102b4:	d8801d05 	stb	r2,116(sp)
  8102b8:	d8001d85 	stb	zero,118(sp)
  8102bc:	a0c00094 	ori	r3,r20,2
  8102c0:	4800a916 	blt	r9,zero,810568 <___vfiprintf_internal_r+0x1314>
  8102c4:	00bfdfc4 	movi	r2,-129
  8102c8:	a096703a 	and	r11,r20,r2
  8102cc:	5d000094 	ori	r20,r11,2
  8102d0:	0039883a 	mov	fp,zero
  8102d4:	003f9706 	br	810134 <__alt_mem_onchip_mem+0xff808134>
  8102d8:	8025883a 	mov	r18,r16
  8102dc:	003c2e06 	br	80f398 <__alt_mem_onchip_mem+0xff807398>
  8102e0:	00802074 	movhi	r2,129
  8102e4:	109bac04 	addi	r2,r2,28336
  8102e8:	0039883a 	mov	fp,zero
  8102ec:	d8802615 	stw	r2,152(sp)
  8102f0:	003f9006 	br	810134 <__alt_mem_onchip_mem+0xff808134>
  8102f4:	04a5c83a 	sub	r18,zero,r18
  8102f8:	07000b44 	movi	fp,45
  8102fc:	9004c03a 	cmpne	r2,r18,zero
  810300:	04e7c83a 	sub	r19,zero,r19
  810304:	df001d85 	stb	fp,118(sp)
  810308:	98a7c83a 	sub	r19,r19,r2
  81030c:	48009f16 	blt	r9,zero,81058c <___vfiprintf_internal_r+0x1338>
  810310:	00bfdfc4 	movi	r2,-129
  810314:	a0a8703a 	and	r20,r20,r2
  810318:	003dd006 	br	80fa5c <__alt_mem_onchip_mem+0xff807a5c>
  81031c:	70004c26 	beq	r14,zero,810450 <___vfiprintf_internal_r+0x11fc>
  810320:	00800084 	movi	r2,2
  810324:	d8c01d04 	addi	r3,sp,116
  810328:	d8c00015 	stw	r3,0(sp)
  81032c:	d8800115 	stw	r2,4(sp)
  810330:	01000044 	movi	r4,1
  810334:	d811883a 	mov	r8,sp
  810338:	003f7306 	br	810108 <__alt_mem_onchip_mem+0xff808108>
  81033c:	a080100c 	andi	r2,r20,64
  810340:	da802217 	ldw	r10,136(sp)
  810344:	103e0626 	beq	r2,zero,80fb60 <__alt_mem_onchip_mem+0xff807b60>
  810348:	5480000f 	ldh	r18,0(r10)
  81034c:	52800104 	addi	r10,r10,4
  810350:	da802215 	stw	r10,136(sp)
  810354:	9027d7fa 	srai	r19,r18,31
  810358:	9805883a 	mov	r2,r19
  81035c:	003db806 	br	80fa40 <__alt_mem_onchip_mem+0xff807a40>
  810360:	a080040c 	andi	r2,r20,16
  810364:	1000091e 	bne	r2,zero,81038c <___vfiprintf_internal_r+0x1138>
  810368:	a2c0100c 	andi	r11,r20,64
  81036c:	58000726 	beq	r11,zero,81038c <___vfiprintf_internal_r+0x1138>
  810370:	da802217 	ldw	r10,136(sp)
  810374:	50800017 	ldw	r2,0(r10)
  810378:	52800104 	addi	r10,r10,4
  81037c:	da802215 	stw	r10,136(sp)
  810380:	da802317 	ldw	r10,140(sp)
  810384:	1280000d 	sth	r10,0(r2)
  810388:	003be706 	br	80f328 <__alt_mem_onchip_mem+0xff807328>
  81038c:	da802217 	ldw	r10,136(sp)
  810390:	50800017 	ldw	r2,0(r10)
  810394:	52800104 	addi	r10,r10,4
  810398:	da802215 	stw	r10,136(sp)
  81039c:	da802317 	ldw	r10,140(sp)
  8103a0:	12800015 	stw	r10,0(r2)
  8103a4:	003be006 	br	80f328 <__alt_mem_onchip_mem+0xff807328>
  8103a8:	a080100c 	andi	r2,r20,64
  8103ac:	da802217 	ldw	r10,136(sp)
  8103b0:	10003026 	beq	r2,zero,810474 <___vfiprintf_internal_r+0x1220>
  8103b4:	5480000b 	ldhu	r18,0(r10)
  8103b8:	52800104 	addi	r10,r10,4
  8103bc:	0027883a 	mov	r19,zero
  8103c0:	da802215 	stw	r10,136(sp)
  8103c4:	003d8006 	br	80f9c8 <__alt_mem_onchip_mem+0xff8079c8>
  8103c8:	80c00007 	ldb	r3,0(r16)
  8103cc:	003c0006 	br	80f3d0 <__alt_mem_onchip_mem+0xff8073d0>
  8103d0:	a080100c 	andi	r2,r20,64
  8103d4:	d8001d85 	stb	zero,118(sp)
  8103d8:	da802217 	ldw	r10,136(sp)
  8103dc:	1000201e 	bne	r2,zero,810460 <___vfiprintf_internal_r+0x120c>
  8103e0:	50800104 	addi	r2,r10,4
  8103e4:	54800017 	ldw	r18,0(r10)
  8103e8:	0027883a 	mov	r19,zero
  8103ec:	483def0e 	bge	r9,zero,80fbac <__alt_mem_onchip_mem+0xff807bac>
  8103f0:	94c6b03a 	or	r3,r18,r19
  8103f4:	d8802215 	stw	r2,136(sp)
  8103f8:	183d4e1e 	bne	r3,zero,80f934 <__alt_mem_onchip_mem+0xff807934>
  8103fc:	0039883a 	mov	fp,zero
  810400:	0005883a 	mov	r2,zero
  810404:	003e0606 	br	80fc20 <__alt_mem_onchip_mem+0xff807c20>
  810408:	d9402117 	ldw	r5,132(sp)
  81040c:	d9002017 	ldw	r4,128(sp)
  810410:	d9801a04 	addi	r6,sp,104
  810414:	da402c15 	stw	r9,176(sp)
  810418:	db802a15 	stw	r14,168(sp)
  81041c:	080f1400 	call	80f140 <__sprint_r.part.0>
  810420:	da402c17 	ldw	r9,176(sp)
  810424:	db802a17 	ldw	r14,168(sp)
  810428:	103ede1e 	bne	r2,zero,80ffa4 <__alt_mem_onchip_mem+0xff807fa4>
  81042c:	d9401b17 	ldw	r5,108(sp)
  810430:	d8801c17 	ldw	r2,112(sp)
  810434:	d811883a 	mov	r8,sp
  810438:	29000044 	addi	r4,r5,1
  81043c:	003e7406 	br	80fe10 <__alt_mem_onchip_mem+0xff807e10>
  810440:	00bfffc4 	movi	r2,-1
  810444:	003c5806 	br	80f5a8 <__alt_mem_onchip_mem+0xff8075a8>
  810448:	d811883a 	mov	r8,sp
  81044c:	003ee806 	br	80fff0 <__alt_mem_onchip_mem+0xff807ff0>
  810450:	000b883a 	mov	r5,zero
  810454:	01000044 	movi	r4,1
  810458:	d811883a 	mov	r8,sp
  81045c:	003e7c06 	br	80fe50 <__alt_mem_onchip_mem+0xff807e50>
  810460:	50800104 	addi	r2,r10,4
  810464:	5480000b 	ldhu	r18,0(r10)
  810468:	0027883a 	mov	r19,zero
  81046c:	483dcf0e 	bge	r9,zero,80fbac <__alt_mem_onchip_mem+0xff807bac>
  810470:	003fdf06 	br	8103f0 <__alt_mem_onchip_mem+0xff8083f0>
  810474:	54800017 	ldw	r18,0(r10)
  810478:	52800104 	addi	r10,r10,4
  81047c:	0027883a 	mov	r19,zero
  810480:	da802215 	stw	r10,136(sp)
  810484:	003d5006 	br	80f9c8 <__alt_mem_onchip_mem+0xff8079c8>
  810488:	50800104 	addi	r2,r10,4
  81048c:	5480000b 	ldhu	r18,0(r10)
  810490:	0027883a 	mov	r19,zero
  810494:	483f7d0e 	bge	r9,zero,81028c <__alt_mem_onchip_mem+0xff80828c>
  810498:	003ddc06 	br	80fc0c <__alt_mem_onchip_mem+0xff807c0c>
  81049c:	d8c02215 	stw	r3,136(sp)
  8104a0:	0039883a 	mov	fp,zero
  8104a4:	003ddb06 	br	80fc14 <__alt_mem_onchip_mem+0xff807c14>
  8104a8:	02802074 	movhi	r10,129
  8104ac:	529c0c04 	addi	r10,r10,28720
  8104b0:	da802415 	stw	r10,144(sp)
  8104b4:	003e8306 	br	80fec4 <__alt_mem_onchip_mem+0xff807ec4>
  8104b8:	d8801c17 	ldw	r2,112(sp)
  8104bc:	dd002117 	ldw	r20,132(sp)
  8104c0:	103eb926 	beq	r2,zero,80ffa8 <__alt_mem_onchip_mem+0xff807fa8>
  8104c4:	d9002017 	ldw	r4,128(sp)
  8104c8:	d9801a04 	addi	r6,sp,104
  8104cc:	a00b883a 	mov	r5,r20
  8104d0:	080f1400 	call	80f140 <__sprint_r.part.0>
  8104d4:	003eb406 	br	80ffa8 <__alt_mem_onchip_mem+0xff807fa8>
  8104d8:	80c00043 	ldbu	r3,1(r16)
  8104dc:	a5000814 	ori	r20,r20,32
  8104e0:	84000044 	addi	r16,r16,1
  8104e4:	18c03fcc 	andi	r3,r3,255
  8104e8:	18c0201c 	xori	r3,r3,128
  8104ec:	18ffe004 	addi	r3,r3,-128
  8104f0:	003bb706 	br	80f3d0 <__alt_mem_onchip_mem+0xff8073d0>
  8104f4:	a809883a 	mov	r4,r21
  8104f8:	d8c02a15 	stw	r3,168(sp)
  8104fc:	da002b15 	stw	r8,172(sp)
  810500:	080905c0 	call	80905c <strlen>
  810504:	d8c02a17 	ldw	r3,168(sp)
  810508:	1027883a 	mov	r19,r2
  81050c:	df001d83 	ldbu	fp,118(sp)
  810510:	d8c02215 	stw	r3,136(sp)
  810514:	0013883a 	mov	r9,zero
  810518:	da002b17 	ldw	r8,172(sp)
  81051c:	003c4d06 	br	80f654 <__alt_mem_onchip_mem+0xff807654>
  810520:	d9402117 	ldw	r5,132(sp)
  810524:	d9002017 	ldw	r4,128(sp)
  810528:	d9801a04 	addi	r6,sp,104
  81052c:	da402c15 	stw	r9,176(sp)
  810530:	080f1400 	call	80f140 <__sprint_r.part.0>
  810534:	da402c17 	ldw	r9,176(sp)
  810538:	103e9a1e 	bne	r2,zero,80ffa4 <__alt_mem_onchip_mem+0xff807fa4>
  81053c:	d9401b17 	ldw	r5,108(sp)
  810540:	d8801c17 	ldw	r2,112(sp)
  810544:	d811883a 	mov	r8,sp
  810548:	29000044 	addi	r4,r5,1
  81054c:	003e4206 	br	80fe58 <__alt_mem_onchip_mem+0xff807e58>
  810550:	d9401b17 	ldw	r5,108(sp)
  810554:	01002074 	movhi	r4,129
  810558:	211c1004 	addi	r4,r4,28736
  81055c:	d9002415 	stw	r4,144(sp)
  810560:	29400044 	addi	r5,r5,1
  810564:	003c6d06 	br	80f71c <__alt_mem_onchip_mem+0xff80771c>
  810568:	0039883a 	mov	fp,zero
  81056c:	00800084 	movi	r2,2
  810570:	10803fcc 	andi	r2,r2,255
  810574:	01000044 	movi	r4,1
  810578:	11001e26 	beq	r2,r4,8105f4 <___vfiprintf_internal_r+0x13a0>
  81057c:	01000084 	movi	r4,2
  810580:	11001e1e 	bne	r2,r4,8105fc <___vfiprintf_internal_r+0x13a8>
  810584:	1829883a 	mov	r20,r3
  810588:	003eea06 	br	810134 <__alt_mem_onchip_mem+0xff808134>
  81058c:	a007883a 	mov	r3,r20
  810590:	00800044 	movi	r2,1
  810594:	003ff606 	br	810570 <__alt_mem_onchip_mem+0xff808570>
  810598:	00800184 	movi	r2,6
  81059c:	1240012e 	bgeu	r2,r9,8105a4 <___vfiprintf_internal_r+0x1350>
  8105a0:	1013883a 	mov	r9,r2
  8105a4:	4827883a 	mov	r19,r9
  8105a8:	4825883a 	mov	r18,r9
  8105ac:	48001516 	blt	r9,zero,810604 <___vfiprintf_internal_r+0x13b0>
  8105b0:	05402074 	movhi	r21,129
  8105b4:	d8c02215 	stw	r3,136(sp)
  8105b8:	ad5bb104 	addi	r21,r21,28356
  8105bc:	003d1406 	br	80fa10 <__alt_mem_onchip_mem+0xff807a10>
  8105c0:	02802074 	movhi	r10,129
  8105c4:	529c0c04 	addi	r10,r10,28720
  8105c8:	da802415 	stw	r10,144(sp)
  8105cc:	200d883a 	mov	r6,r4
  8105d0:	003c9106 	br	80f818 <__alt_mem_onchip_mem+0xff807818>
  8105d4:	5021883a 	mov	r16,r10
  8105d8:	0013883a 	mov	r9,zero
  8105dc:	003b7d06 	br	80f3d4 <__alt_mem_onchip_mem+0xff8073d4>
  8105e0:	4827883a 	mov	r19,r9
  8105e4:	df001d83 	ldbu	fp,118(sp)
  8105e8:	d8c02215 	stw	r3,136(sp)
  8105ec:	0013883a 	mov	r9,zero
  8105f0:	003c1806 	br	80f654 <__alt_mem_onchip_mem+0xff807654>
  8105f4:	1829883a 	mov	r20,r3
  8105f8:	003d1806 	br	80fa5c <__alt_mem_onchip_mem+0xff807a5c>
  8105fc:	1829883a 	mov	r20,r3
  810600:	003ccd06 	br	80f938 <__alt_mem_onchip_mem+0xff807938>
  810604:	0025883a 	mov	r18,zero
  810608:	003fe906 	br	8105b0 <__alt_mem_onchip_mem+0xff8085b0>
  81060c:	d8802217 	ldw	r2,136(sp)
  810610:	80c00043 	ldbu	r3,1(r16)
  810614:	5021883a 	mov	r16,r10
  810618:	12400017 	ldw	r9,0(r2)
  81061c:	10800104 	addi	r2,r2,4
  810620:	d8802215 	stw	r2,136(sp)
  810624:	483faf0e 	bge	r9,zero,8104e4 <__alt_mem_onchip_mem+0xff8084e4>
  810628:	18c03fcc 	andi	r3,r3,255
  81062c:	18c0201c 	xori	r3,r3,128
  810630:	027fffc4 	movi	r9,-1
  810634:	18ffe004 	addi	r3,r3,-128
  810638:	003b6506 	br	80f3d0 <__alt_mem_onchip_mem+0xff8073d0>
  81063c:	d9c01d85 	stb	r7,118(sp)
  810640:	003ca006 	br	80f8c4 <__alt_mem_onchip_mem+0xff8078c4>
  810644:	d9c01d85 	stb	r7,118(sp)
  810648:	003cad06 	br	80f900 <__alt_mem_onchip_mem+0xff807900>
  81064c:	d9c01d85 	stb	r7,118(sp)
  810650:	003d7d06 	br	80fc48 <__alt_mem_onchip_mem+0xff807c48>
  810654:	d9c01d85 	stb	r7,118(sp)
  810658:	003d5f06 	br	80fbd8 <__alt_mem_onchip_mem+0xff807bd8>
  81065c:	a080004c 	andi	r2,r20,1
  810660:	0039883a 	mov	fp,zero
  810664:	10000526 	beq	r2,zero,81067c <___vfiprintf_internal_r+0x1428>
  810668:	00800c04 	movi	r2,48
  81066c:	d88019c5 	stb	r2,103(sp)
  810670:	dcc02717 	ldw	r19,156(sp)
  810674:	dd4019c4 	addi	r21,sp,103
  810678:	003bf606 	br	80f654 <__alt_mem_onchip_mem+0xff807654>
  81067c:	0027883a 	mov	r19,zero
  810680:	dd401a04 	addi	r21,sp,104
  810684:	003bf306 	br	80f654 <__alt_mem_onchip_mem+0xff807654>
  810688:	d9c01d85 	stb	r7,118(sp)
  81068c:	003dc806 	br	80fdb0 <__alt_mem_onchip_mem+0xff807db0>
  810690:	d9c01d85 	stb	r7,118(sp)
  810694:	003d3a06 	br	80fb80 <__alt_mem_onchip_mem+0xff807b80>
  810698:	d9c01d85 	stb	r7,118(sp)
  81069c:	003d2a06 	br	80fb48 <__alt_mem_onchip_mem+0xff807b48>
  8106a0:	d9c01d85 	stb	r7,118(sp)
  8106a4:	003cde06 	br	80fa20 <__alt_mem_onchip_mem+0xff807a20>
  8106a8:	d9c01d85 	stb	r7,118(sp)
  8106ac:	003cbc06 	br	80f9a0 <__alt_mem_onchip_mem+0xff8079a0>

008106b0 <__vfiprintf_internal>:
  8106b0:	008020b4 	movhi	r2,130
  8106b4:	10a3ea04 	addi	r2,r2,-28760
  8106b8:	300f883a 	mov	r7,r6
  8106bc:	280d883a 	mov	r6,r5
  8106c0:	200b883a 	mov	r5,r4
  8106c4:	11000017 	ldw	r4,0(r2)
  8106c8:	080f2541 	jmpi	80f254 <___vfiprintf_internal_r>

008106cc <__sbprintf>:
  8106cc:	2880030b 	ldhu	r2,12(r5)
  8106d0:	2ac01917 	ldw	r11,100(r5)
  8106d4:	2a80038b 	ldhu	r10,14(r5)
  8106d8:	2a400717 	ldw	r9,28(r5)
  8106dc:	2a000917 	ldw	r8,36(r5)
  8106e0:	defee204 	addi	sp,sp,-1144
  8106e4:	00c10004 	movi	r3,1024
  8106e8:	dc011a15 	stw	r16,1128(sp)
  8106ec:	10bfff4c 	andi	r2,r2,65533
  8106f0:	2821883a 	mov	r16,r5
  8106f4:	d8cb883a 	add	r5,sp,r3
  8106f8:	dc811c15 	stw	r18,1136(sp)
  8106fc:	dc411b15 	stw	r17,1132(sp)
  810700:	dfc11d15 	stw	ra,1140(sp)
  810704:	2025883a 	mov	r18,r4
  810708:	d881030d 	sth	r2,1036(sp)
  81070c:	dac11915 	stw	r11,1124(sp)
  810710:	da81038d 	sth	r10,1038(sp)
  810714:	da410715 	stw	r9,1052(sp)
  810718:	da010915 	stw	r8,1060(sp)
  81071c:	dec10015 	stw	sp,1024(sp)
  810720:	dec10415 	stw	sp,1040(sp)
  810724:	d8c10215 	stw	r3,1032(sp)
  810728:	d8c10515 	stw	r3,1044(sp)
  81072c:	d8010615 	stw	zero,1048(sp)
  810730:	080f2540 	call	80f254 <___vfiprintf_internal_r>
  810734:	1023883a 	mov	r17,r2
  810738:	10000416 	blt	r2,zero,81074c <__sbprintf+0x80>
  81073c:	d9410004 	addi	r5,sp,1024
  810740:	9009883a 	mov	r4,r18
  810744:	0806e280 	call	806e28 <_fflush_r>
  810748:	10000d1e 	bne	r2,zero,810780 <__sbprintf+0xb4>
  81074c:	d881030b 	ldhu	r2,1036(sp)
  810750:	1080100c 	andi	r2,r2,64
  810754:	10000326 	beq	r2,zero,810764 <__sbprintf+0x98>
  810758:	8080030b 	ldhu	r2,12(r16)
  81075c:	10801014 	ori	r2,r2,64
  810760:	8080030d 	sth	r2,12(r16)
  810764:	8805883a 	mov	r2,r17
  810768:	dfc11d17 	ldw	ra,1140(sp)
  81076c:	dc811c17 	ldw	r18,1136(sp)
  810770:	dc411b17 	ldw	r17,1132(sp)
  810774:	dc011a17 	ldw	r16,1128(sp)
  810778:	dec11e04 	addi	sp,sp,1144
  81077c:	f800283a 	ret
  810780:	047fffc4 	movi	r17,-1
  810784:	003ff106 	br	81074c <__alt_mem_onchip_mem+0xff80874c>

00810788 <_calloc_r>:
  810788:	298b383a 	mul	r5,r5,r6
  81078c:	defffe04 	addi	sp,sp,-8
  810790:	dfc00115 	stw	ra,4(sp)
  810794:	dc000015 	stw	r16,0(sp)
  810798:	08080a00 	call	8080a0 <_malloc_r>
  81079c:	10002926 	beq	r2,zero,810844 <_calloc_r+0xbc>
  8107a0:	11bfff17 	ldw	r6,-4(r2)
  8107a4:	1021883a 	mov	r16,r2
  8107a8:	00bfff04 	movi	r2,-4
  8107ac:	308c703a 	and	r6,r6,r2
  8107b0:	00c00904 	movi	r3,36
  8107b4:	308d883a 	add	r6,r6,r2
  8107b8:	19801636 	bltu	r3,r6,810814 <_calloc_r+0x8c>
  8107bc:	008004c4 	movi	r2,19
  8107c0:	11800b2e 	bgeu	r2,r6,8107f0 <_calloc_r+0x68>
  8107c4:	80000015 	stw	zero,0(r16)
  8107c8:	80000115 	stw	zero,4(r16)
  8107cc:	008006c4 	movi	r2,27
  8107d0:	11801a2e 	bgeu	r2,r6,81083c <_calloc_r+0xb4>
  8107d4:	80000215 	stw	zero,8(r16)
  8107d8:	80000315 	stw	zero,12(r16)
  8107dc:	30c0151e 	bne	r6,r3,810834 <_calloc_r+0xac>
  8107e0:	80000415 	stw	zero,16(r16)
  8107e4:	80800604 	addi	r2,r16,24
  8107e8:	80000515 	stw	zero,20(r16)
  8107ec:	00000106 	br	8107f4 <_calloc_r+0x6c>
  8107f0:	8005883a 	mov	r2,r16
  8107f4:	10000015 	stw	zero,0(r2)
  8107f8:	10000115 	stw	zero,4(r2)
  8107fc:	10000215 	stw	zero,8(r2)
  810800:	8005883a 	mov	r2,r16
  810804:	dfc00117 	ldw	ra,4(sp)
  810808:	dc000017 	ldw	r16,0(sp)
  81080c:	dec00204 	addi	sp,sp,8
  810810:	f800283a 	ret
  810814:	000b883a 	mov	r5,zero
  810818:	8009883a 	mov	r4,r16
  81081c:	08088ac0 	call	8088ac <memset>
  810820:	8005883a 	mov	r2,r16
  810824:	dfc00117 	ldw	ra,4(sp)
  810828:	dc000017 	ldw	r16,0(sp)
  81082c:	dec00204 	addi	sp,sp,8
  810830:	f800283a 	ret
  810834:	80800404 	addi	r2,r16,16
  810838:	003fee06 	br	8107f4 <__alt_mem_onchip_mem+0xff8087f4>
  81083c:	80800204 	addi	r2,r16,8
  810840:	003fec06 	br	8107f4 <__alt_mem_onchip_mem+0xff8087f4>
  810844:	0005883a 	mov	r2,zero
  810848:	003fee06 	br	810804 <__alt_mem_onchip_mem+0xff808804>

0081084c <__fputwc>:
  81084c:	defff804 	addi	sp,sp,-32
  810850:	dcc00415 	stw	r19,16(sp)
  810854:	dc800315 	stw	r18,12(sp)
  810858:	dc000115 	stw	r16,4(sp)
  81085c:	dfc00715 	stw	ra,28(sp)
  810860:	dd400615 	stw	r21,24(sp)
  810864:	dd000515 	stw	r20,20(sp)
  810868:	dc400215 	stw	r17,8(sp)
  81086c:	2027883a 	mov	r19,r4
  810870:	2825883a 	mov	r18,r5
  810874:	3021883a 	mov	r16,r6
  810878:	080d5f40 	call	80d5f4 <__locale_mb_cur_max>
  81087c:	00c00044 	movi	r3,1
  810880:	10c03e26 	beq	r2,r3,81097c <__fputwc+0x130>
  810884:	81c01704 	addi	r7,r16,92
  810888:	900d883a 	mov	r6,r18
  81088c:	d80b883a 	mov	r5,sp
  810890:	9809883a 	mov	r4,r19
  810894:	0810a540 	call	810a54 <_wcrtomb_r>
  810898:	1029883a 	mov	r20,r2
  81089c:	00bfffc4 	movi	r2,-1
  8108a0:	a0802026 	beq	r20,r2,810924 <__fputwc+0xd8>
  8108a4:	d9400003 	ldbu	r5,0(sp)
  8108a8:	a0001c26 	beq	r20,zero,81091c <__fputwc+0xd0>
  8108ac:	0023883a 	mov	r17,zero
  8108b0:	05400284 	movi	r21,10
  8108b4:	00000906 	br	8108dc <__fputwc+0x90>
  8108b8:	80800017 	ldw	r2,0(r16)
  8108bc:	11400005 	stb	r5,0(r2)
  8108c0:	80c00017 	ldw	r3,0(r16)
  8108c4:	18c00044 	addi	r3,r3,1
  8108c8:	80c00015 	stw	r3,0(r16)
  8108cc:	8c400044 	addi	r17,r17,1
  8108d0:	dc45883a 	add	r2,sp,r17
  8108d4:	8d00112e 	bgeu	r17,r20,81091c <__fputwc+0xd0>
  8108d8:	11400003 	ldbu	r5,0(r2)
  8108dc:	80c00217 	ldw	r3,8(r16)
  8108e0:	18ffffc4 	addi	r3,r3,-1
  8108e4:	80c00215 	stw	r3,8(r16)
  8108e8:	183ff30e 	bge	r3,zero,8108b8 <__alt_mem_onchip_mem+0xff8088b8>
  8108ec:	80800617 	ldw	r2,24(r16)
  8108f0:	18801916 	blt	r3,r2,810958 <__fputwc+0x10c>
  8108f4:	80800017 	ldw	r2,0(r16)
  8108f8:	11400005 	stb	r5,0(r2)
  8108fc:	80800017 	ldw	r2,0(r16)
  810900:	10c00003 	ldbu	r3,0(r2)
  810904:	10800044 	addi	r2,r2,1
  810908:	1d402326 	beq	r3,r21,810998 <__fputwc+0x14c>
  81090c:	80800015 	stw	r2,0(r16)
  810910:	8c400044 	addi	r17,r17,1
  810914:	dc45883a 	add	r2,sp,r17
  810918:	8d3fef36 	bltu	r17,r20,8108d8 <__alt_mem_onchip_mem+0xff8088d8>
  81091c:	9005883a 	mov	r2,r18
  810920:	00000406 	br	810934 <__fputwc+0xe8>
  810924:	80c0030b 	ldhu	r3,12(r16)
  810928:	a005883a 	mov	r2,r20
  81092c:	18c01014 	ori	r3,r3,64
  810930:	80c0030d 	sth	r3,12(r16)
  810934:	dfc00717 	ldw	ra,28(sp)
  810938:	dd400617 	ldw	r21,24(sp)
  81093c:	dd000517 	ldw	r20,20(sp)
  810940:	dcc00417 	ldw	r19,16(sp)
  810944:	dc800317 	ldw	r18,12(sp)
  810948:	dc400217 	ldw	r17,8(sp)
  81094c:	dc000117 	ldw	r16,4(sp)
  810950:	dec00804 	addi	sp,sp,32
  810954:	f800283a 	ret
  810958:	800d883a 	mov	r6,r16
  81095c:	29403fcc 	andi	r5,r5,255
  810960:	9809883a 	mov	r4,r19
  810964:	080b3c80 	call	80b3c8 <__swbuf_r>
  810968:	10bfffe0 	cmpeqi	r2,r2,-1
  81096c:	10803fcc 	andi	r2,r2,255
  810970:	103fd626 	beq	r2,zero,8108cc <__alt_mem_onchip_mem+0xff8088cc>
  810974:	00bfffc4 	movi	r2,-1
  810978:	003fee06 	br	810934 <__alt_mem_onchip_mem+0xff808934>
  81097c:	90ffffc4 	addi	r3,r18,-1
  810980:	01003f84 	movi	r4,254
  810984:	20ffbf36 	bltu	r4,r3,810884 <__alt_mem_onchip_mem+0xff808884>
  810988:	900b883a 	mov	r5,r18
  81098c:	dc800005 	stb	r18,0(sp)
  810990:	1029883a 	mov	r20,r2
  810994:	003fc506 	br	8108ac <__alt_mem_onchip_mem+0xff8088ac>
  810998:	800d883a 	mov	r6,r16
  81099c:	a80b883a 	mov	r5,r21
  8109a0:	9809883a 	mov	r4,r19
  8109a4:	080b3c80 	call	80b3c8 <__swbuf_r>
  8109a8:	10bfffe0 	cmpeqi	r2,r2,-1
  8109ac:	003fef06 	br	81096c <__alt_mem_onchip_mem+0xff80896c>

008109b0 <_fputwc_r>:
  8109b0:	3080030b 	ldhu	r2,12(r6)
  8109b4:	10c8000c 	andi	r3,r2,8192
  8109b8:	1800051e 	bne	r3,zero,8109d0 <_fputwc_r+0x20>
  8109bc:	30c01917 	ldw	r3,100(r6)
  8109c0:	10880014 	ori	r2,r2,8192
  8109c4:	3080030d 	sth	r2,12(r6)
  8109c8:	18880014 	ori	r2,r3,8192
  8109cc:	30801915 	stw	r2,100(r6)
  8109d0:	081084c1 	jmpi	81084c <__fputwc>

008109d4 <fputwc>:
  8109d4:	008020b4 	movhi	r2,130
  8109d8:	defffc04 	addi	sp,sp,-16
  8109dc:	10a3ea04 	addi	r2,r2,-28760
  8109e0:	dc000115 	stw	r16,4(sp)
  8109e4:	14000017 	ldw	r16,0(r2)
  8109e8:	dc400215 	stw	r17,8(sp)
  8109ec:	dfc00315 	stw	ra,12(sp)
  8109f0:	2023883a 	mov	r17,r4
  8109f4:	80000226 	beq	r16,zero,810a00 <fputwc+0x2c>
  8109f8:	80800e17 	ldw	r2,56(r16)
  8109fc:	10001026 	beq	r2,zero,810a40 <fputwc+0x6c>
  810a00:	2880030b 	ldhu	r2,12(r5)
  810a04:	10c8000c 	andi	r3,r2,8192
  810a08:	1800051e 	bne	r3,zero,810a20 <fputwc+0x4c>
  810a0c:	28c01917 	ldw	r3,100(r5)
  810a10:	10880014 	ori	r2,r2,8192
  810a14:	2880030d 	sth	r2,12(r5)
  810a18:	18880014 	ori	r2,r3,8192
  810a1c:	28801915 	stw	r2,100(r5)
  810a20:	280d883a 	mov	r6,r5
  810a24:	8009883a 	mov	r4,r16
  810a28:	880b883a 	mov	r5,r17
  810a2c:	dfc00317 	ldw	ra,12(sp)
  810a30:	dc400217 	ldw	r17,8(sp)
  810a34:	dc000117 	ldw	r16,4(sp)
  810a38:	dec00404 	addi	sp,sp,16
  810a3c:	081084c1 	jmpi	81084c <__fputwc>
  810a40:	8009883a 	mov	r4,r16
  810a44:	d9400015 	stw	r5,0(sp)
  810a48:	08072040 	call	807204 <__sinit>
  810a4c:	d9400017 	ldw	r5,0(sp)
  810a50:	003feb06 	br	810a00 <__alt_mem_onchip_mem+0xff808a00>

00810a54 <_wcrtomb_r>:
  810a54:	defff604 	addi	sp,sp,-40
  810a58:	008020b4 	movhi	r2,130
  810a5c:	dc800815 	stw	r18,32(sp)
  810a60:	dc400715 	stw	r17,28(sp)
  810a64:	dc000615 	stw	r16,24(sp)
  810a68:	10a3ee04 	addi	r2,r2,-28744
  810a6c:	dfc00915 	stw	ra,36(sp)
  810a70:	2021883a 	mov	r16,r4
  810a74:	3823883a 	mov	r17,r7
  810a78:	14800017 	ldw	r18,0(r2)
  810a7c:	28001426 	beq	r5,zero,810ad0 <_wcrtomb_r+0x7c>
  810a80:	d9400415 	stw	r5,16(sp)
  810a84:	d9800515 	stw	r6,20(sp)
  810a88:	080d5e80 	call	80d5e8 <__locale_charset>
  810a8c:	d9800517 	ldw	r6,20(sp)
  810a90:	d9400417 	ldw	r5,16(sp)
  810a94:	100f883a 	mov	r7,r2
  810a98:	dc400015 	stw	r17,0(sp)
  810a9c:	8009883a 	mov	r4,r16
  810aa0:	903ee83a 	callr	r18
  810aa4:	00ffffc4 	movi	r3,-1
  810aa8:	10c0031e 	bne	r2,r3,810ab8 <_wcrtomb_r+0x64>
  810aac:	88000015 	stw	zero,0(r17)
  810ab0:	00c02284 	movi	r3,138
  810ab4:	80c00015 	stw	r3,0(r16)
  810ab8:	dfc00917 	ldw	ra,36(sp)
  810abc:	dc800817 	ldw	r18,32(sp)
  810ac0:	dc400717 	ldw	r17,28(sp)
  810ac4:	dc000617 	ldw	r16,24(sp)
  810ac8:	dec00a04 	addi	sp,sp,40
  810acc:	f800283a 	ret
  810ad0:	080d5e80 	call	80d5e8 <__locale_charset>
  810ad4:	100f883a 	mov	r7,r2
  810ad8:	dc400015 	stw	r17,0(sp)
  810adc:	000d883a 	mov	r6,zero
  810ae0:	d9400104 	addi	r5,sp,4
  810ae4:	8009883a 	mov	r4,r16
  810ae8:	903ee83a 	callr	r18
  810aec:	003fed06 	br	810aa4 <__alt_mem_onchip_mem+0xff808aa4>

00810af0 <wcrtomb>:
  810af0:	defff604 	addi	sp,sp,-40
  810af4:	008020b4 	movhi	r2,130
  810af8:	dc800615 	stw	r18,24(sp)
  810afc:	dc400515 	stw	r17,20(sp)
  810b00:	10a3ea04 	addi	r2,r2,-28760
  810b04:	dfc00915 	stw	ra,36(sp)
  810b08:	dd000815 	stw	r20,32(sp)
  810b0c:	dcc00715 	stw	r19,28(sp)
  810b10:	dc000415 	stw	r16,16(sp)
  810b14:	3025883a 	mov	r18,r6
  810b18:	14400017 	ldw	r17,0(r2)
  810b1c:	20001926 	beq	r4,zero,810b84 <wcrtomb+0x94>
  810b20:	008020b4 	movhi	r2,130
  810b24:	10a3ee04 	addi	r2,r2,-28744
  810b28:	15000017 	ldw	r20,0(r2)
  810b2c:	2021883a 	mov	r16,r4
  810b30:	2827883a 	mov	r19,r5
  810b34:	080d5e80 	call	80d5e8 <__locale_charset>
  810b38:	100f883a 	mov	r7,r2
  810b3c:	dc800015 	stw	r18,0(sp)
  810b40:	980d883a 	mov	r6,r19
  810b44:	800b883a 	mov	r5,r16
  810b48:	8809883a 	mov	r4,r17
  810b4c:	a03ee83a 	callr	r20
  810b50:	00ffffc4 	movi	r3,-1
  810b54:	10c0031e 	bne	r2,r3,810b64 <wcrtomb+0x74>
  810b58:	90000015 	stw	zero,0(r18)
  810b5c:	00c02284 	movi	r3,138
  810b60:	88c00015 	stw	r3,0(r17)
  810b64:	dfc00917 	ldw	ra,36(sp)
  810b68:	dd000817 	ldw	r20,32(sp)
  810b6c:	dcc00717 	ldw	r19,28(sp)
  810b70:	dc800617 	ldw	r18,24(sp)
  810b74:	dc400517 	ldw	r17,20(sp)
  810b78:	dc000417 	ldw	r16,16(sp)
  810b7c:	dec00a04 	addi	sp,sp,40
  810b80:	f800283a 	ret
  810b84:	008020b4 	movhi	r2,130
  810b88:	10a3ee04 	addi	r2,r2,-28744
  810b8c:	14000017 	ldw	r16,0(r2)
  810b90:	080d5e80 	call	80d5e8 <__locale_charset>
  810b94:	100f883a 	mov	r7,r2
  810b98:	dc800015 	stw	r18,0(sp)
  810b9c:	000d883a 	mov	r6,zero
  810ba0:	d9400104 	addi	r5,sp,4
  810ba4:	8809883a 	mov	r4,r17
  810ba8:	803ee83a 	callr	r16
  810bac:	003fe806 	br	810b50 <__alt_mem_onchip_mem+0xff808b50>

00810bb0 <__ascii_wctomb>:
  810bb0:	28000526 	beq	r5,zero,810bc8 <__ascii_wctomb+0x18>
  810bb4:	00803fc4 	movi	r2,255
  810bb8:	11800536 	bltu	r2,r6,810bd0 <__ascii_wctomb+0x20>
  810bbc:	29800005 	stb	r6,0(r5)
  810bc0:	00800044 	movi	r2,1
  810bc4:	f800283a 	ret
  810bc8:	0005883a 	mov	r2,zero
  810bcc:	f800283a 	ret
  810bd0:	00802284 	movi	r2,138
  810bd4:	20800015 	stw	r2,0(r4)
  810bd8:	00bfffc4 	movi	r2,-1
  810bdc:	f800283a 	ret

00810be0 <_wctomb_r>:
  810be0:	008020b4 	movhi	r2,130
  810be4:	defff904 	addi	sp,sp,-28
  810be8:	10a3ee04 	addi	r2,r2,-28744
  810bec:	dfc00615 	stw	ra,24(sp)
  810bf0:	dc400515 	stw	r17,20(sp)
  810bf4:	dc000415 	stw	r16,16(sp)
  810bf8:	3823883a 	mov	r17,r7
  810bfc:	14000017 	ldw	r16,0(r2)
  810c00:	d9000115 	stw	r4,4(sp)
  810c04:	d9400215 	stw	r5,8(sp)
  810c08:	d9800315 	stw	r6,12(sp)
  810c0c:	080d5e80 	call	80d5e8 <__locale_charset>
  810c10:	d9800317 	ldw	r6,12(sp)
  810c14:	d9400217 	ldw	r5,8(sp)
  810c18:	d9000117 	ldw	r4,4(sp)
  810c1c:	100f883a 	mov	r7,r2
  810c20:	dc400015 	stw	r17,0(sp)
  810c24:	803ee83a 	callr	r16
  810c28:	dfc00617 	ldw	ra,24(sp)
  810c2c:	dc400517 	ldw	r17,20(sp)
  810c30:	dc000417 	ldw	r16,16(sp)
  810c34:	dec00704 	addi	sp,sp,28
  810c38:	f800283a 	ret

00810c3c <__udivdi3>:
  810c3c:	defff504 	addi	sp,sp,-44
  810c40:	dcc00415 	stw	r19,16(sp)
  810c44:	dc000115 	stw	r16,4(sp)
  810c48:	dfc00a15 	stw	ra,40(sp)
  810c4c:	df000915 	stw	fp,36(sp)
  810c50:	ddc00815 	stw	r23,32(sp)
  810c54:	dd800715 	stw	r22,28(sp)
  810c58:	dd400615 	stw	r21,24(sp)
  810c5c:	dd000515 	stw	r20,20(sp)
  810c60:	dc800315 	stw	r18,12(sp)
  810c64:	dc400215 	stw	r17,8(sp)
  810c68:	2027883a 	mov	r19,r4
  810c6c:	2821883a 	mov	r16,r5
  810c70:	3800411e 	bne	r7,zero,810d78 <__udivdi3+0x13c>
  810c74:	3023883a 	mov	r17,r6
  810c78:	2025883a 	mov	r18,r4
  810c7c:	2980522e 	bgeu	r5,r6,810dc8 <__udivdi3+0x18c>
  810c80:	00bfffd4 	movui	r2,65535
  810c84:	282d883a 	mov	r22,r5
  810c88:	1180a836 	bltu	r2,r6,810f2c <__udivdi3+0x2f0>
  810c8c:	00803fc4 	movi	r2,255
  810c90:	1185803a 	cmpltu	r2,r2,r6
  810c94:	100490fa 	slli	r2,r2,3
  810c98:	3086d83a 	srl	r3,r6,r2
  810c9c:	01002074 	movhi	r4,129
  810ca0:	211b6084 	addi	r4,r4,28034
  810ca4:	20c7883a 	add	r3,r4,r3
  810ca8:	18c00003 	ldbu	r3,0(r3)
  810cac:	1885883a 	add	r2,r3,r2
  810cb0:	00c00804 	movi	r3,32
  810cb4:	1887c83a 	sub	r3,r3,r2
  810cb8:	18000526 	beq	r3,zero,810cd0 <__udivdi3+0x94>
  810cbc:	80e0983a 	sll	r16,r16,r3
  810cc0:	9884d83a 	srl	r2,r19,r2
  810cc4:	30e2983a 	sll	r17,r6,r3
  810cc8:	98e4983a 	sll	r18,r19,r3
  810ccc:	142cb03a 	or	r22,r2,r16
  810cd0:	882ad43a 	srli	r21,r17,16
  810cd4:	b009883a 	mov	r4,r22
  810cd8:	8d3fffcc 	andi	r20,r17,65535
  810cdc:	a80b883a 	mov	r5,r21
  810ce0:	08118480 	call	811848 <__umodsi3>
  810ce4:	b009883a 	mov	r4,r22
  810ce8:	a80b883a 	mov	r5,r21
  810cec:	1027883a 	mov	r19,r2
  810cf0:	08117e40 	call	8117e4 <__udivsi3>
  810cf4:	102d883a 	mov	r22,r2
  810cf8:	9826943a 	slli	r19,r19,16
  810cfc:	9004d43a 	srli	r2,r18,16
  810d00:	a5a1383a 	mul	r16,r20,r22
  810d04:	14c4b03a 	or	r2,r2,r19
  810d08:	1400052e 	bgeu	r2,r16,810d20 <__udivdi3+0xe4>
  810d0c:	1445883a 	add	r2,r2,r17
  810d10:	b0ffffc4 	addi	r3,r22,-1
  810d14:	14400136 	bltu	r2,r17,810d1c <__udivdi3+0xe0>
  810d18:	14012336 	bltu	r2,r16,8111a8 <__udivdi3+0x56c>
  810d1c:	182d883a 	mov	r22,r3
  810d20:	1421c83a 	sub	r16,r2,r16
  810d24:	a80b883a 	mov	r5,r21
  810d28:	8009883a 	mov	r4,r16
  810d2c:	08118480 	call	811848 <__umodsi3>
  810d30:	1027883a 	mov	r19,r2
  810d34:	a80b883a 	mov	r5,r21
  810d38:	8009883a 	mov	r4,r16
  810d3c:	08117e40 	call	8117e4 <__udivsi3>
  810d40:	9826943a 	slli	r19,r19,16
  810d44:	a0a9383a 	mul	r20,r20,r2
  810d48:	94bfffcc 	andi	r18,r18,65535
  810d4c:	94e4b03a 	or	r18,r18,r19
  810d50:	9500052e 	bgeu	r18,r20,810d68 <__udivdi3+0x12c>
  810d54:	8ca5883a 	add	r18,r17,r18
  810d58:	10ffffc4 	addi	r3,r2,-1
  810d5c:	9440f136 	bltu	r18,r17,811124 <__udivdi3+0x4e8>
  810d60:	9500f02e 	bgeu	r18,r20,811124 <__udivdi3+0x4e8>
  810d64:	10bfff84 	addi	r2,r2,-2
  810d68:	b00c943a 	slli	r6,r22,16
  810d6c:	0007883a 	mov	r3,zero
  810d70:	3084b03a 	or	r2,r6,r2
  810d74:	00005906 	br	810edc <__udivdi3+0x2a0>
  810d78:	29c05636 	bltu	r5,r7,810ed4 <__udivdi3+0x298>
  810d7c:	00bfffd4 	movui	r2,65535
  810d80:	11c0622e 	bgeu	r2,r7,810f0c <__udivdi3+0x2d0>
  810d84:	00804034 	movhi	r2,256
  810d88:	10bfffc4 	addi	r2,r2,-1
  810d8c:	11c0ee36 	bltu	r2,r7,811148 <__udivdi3+0x50c>
  810d90:	00800404 	movi	r2,16
  810d94:	3886d83a 	srl	r3,r7,r2
  810d98:	01002074 	movhi	r4,129
  810d9c:	211b6084 	addi	r4,r4,28034
  810da0:	20c7883a 	add	r3,r4,r3
  810da4:	18c00003 	ldbu	r3,0(r3)
  810da8:	05400804 	movi	r21,32
  810dac:	1885883a 	add	r2,r3,r2
  810db0:	a8abc83a 	sub	r21,r21,r2
  810db4:	a800621e 	bne	r21,zero,810f40 <__udivdi3+0x304>
  810db8:	3c00e936 	bltu	r7,r16,811160 <__udivdi3+0x524>
  810dbc:	9985403a 	cmpgeu	r2,r19,r6
  810dc0:	0007883a 	mov	r3,zero
  810dc4:	00004506 	br	810edc <__udivdi3+0x2a0>
  810dc8:	3000041e 	bne	r6,zero,810ddc <__udivdi3+0x1a0>
  810dcc:	000b883a 	mov	r5,zero
  810dd0:	01000044 	movi	r4,1
  810dd4:	08117e40 	call	8117e4 <__udivsi3>
  810dd8:	1023883a 	mov	r17,r2
  810ddc:	00bfffd4 	movui	r2,65535
  810de0:	14404e2e 	bgeu	r2,r17,810f1c <__udivdi3+0x2e0>
  810de4:	00804034 	movhi	r2,256
  810de8:	10bfffc4 	addi	r2,r2,-1
  810dec:	1440d836 	bltu	r2,r17,811150 <__udivdi3+0x514>
  810df0:	00800404 	movi	r2,16
  810df4:	8886d83a 	srl	r3,r17,r2
  810df8:	01002074 	movhi	r4,129
  810dfc:	211b6084 	addi	r4,r4,28034
  810e00:	20c7883a 	add	r3,r4,r3
  810e04:	18c00003 	ldbu	r3,0(r3)
  810e08:	1885883a 	add	r2,r3,r2
  810e0c:	00c00804 	movi	r3,32
  810e10:	1887c83a 	sub	r3,r3,r2
  810e14:	18008f1e 	bne	r3,zero,811054 <__udivdi3+0x418>
  810e18:	882ad43a 	srli	r21,r17,16
  810e1c:	8461c83a 	sub	r16,r16,r17
  810e20:	8d3fffcc 	andi	r20,r17,65535
  810e24:	00c00044 	movi	r3,1
  810e28:	8009883a 	mov	r4,r16
  810e2c:	a80b883a 	mov	r5,r21
  810e30:	d8c00015 	stw	r3,0(sp)
  810e34:	08118480 	call	811848 <__umodsi3>
  810e38:	8009883a 	mov	r4,r16
  810e3c:	a80b883a 	mov	r5,r21
  810e40:	1027883a 	mov	r19,r2
  810e44:	08117e40 	call	8117e4 <__udivsi3>
  810e48:	9826943a 	slli	r19,r19,16
  810e4c:	9008d43a 	srli	r4,r18,16
  810e50:	1521383a 	mul	r16,r2,r20
  810e54:	102d883a 	mov	r22,r2
  810e58:	24c8b03a 	or	r4,r4,r19
  810e5c:	d8c00017 	ldw	r3,0(sp)
  810e60:	2400052e 	bgeu	r4,r16,810e78 <__udivdi3+0x23c>
  810e64:	2449883a 	add	r4,r4,r17
  810e68:	b0bfffc4 	addi	r2,r22,-1
  810e6c:	24400136 	bltu	r4,r17,810e74 <__udivdi3+0x238>
  810e70:	2400ca36 	bltu	r4,r16,81119c <__udivdi3+0x560>
  810e74:	102d883a 	mov	r22,r2
  810e78:	2421c83a 	sub	r16,r4,r16
  810e7c:	a80b883a 	mov	r5,r21
  810e80:	8009883a 	mov	r4,r16
  810e84:	d8c00015 	stw	r3,0(sp)
  810e88:	08118480 	call	811848 <__umodsi3>
  810e8c:	1027883a 	mov	r19,r2
  810e90:	a80b883a 	mov	r5,r21
  810e94:	8009883a 	mov	r4,r16
  810e98:	08117e40 	call	8117e4 <__udivsi3>
  810e9c:	9826943a 	slli	r19,r19,16
  810ea0:	1529383a 	mul	r20,r2,r20
  810ea4:	94bfffcc 	andi	r18,r18,65535
  810ea8:	94e4b03a 	or	r18,r18,r19
  810eac:	d8c00017 	ldw	r3,0(sp)
  810eb0:	9500052e 	bgeu	r18,r20,810ec8 <__udivdi3+0x28c>
  810eb4:	8ca5883a 	add	r18,r17,r18
  810eb8:	113fffc4 	addi	r4,r2,-1
  810ebc:	94409736 	bltu	r18,r17,81111c <__udivdi3+0x4e0>
  810ec0:	9500962e 	bgeu	r18,r20,81111c <__udivdi3+0x4e0>
  810ec4:	10bfff84 	addi	r2,r2,-2
  810ec8:	b00c943a 	slli	r6,r22,16
  810ecc:	3084b03a 	or	r2,r6,r2
  810ed0:	00000206 	br	810edc <__udivdi3+0x2a0>
  810ed4:	0007883a 	mov	r3,zero
  810ed8:	0005883a 	mov	r2,zero
  810edc:	dfc00a17 	ldw	ra,40(sp)
  810ee0:	df000917 	ldw	fp,36(sp)
  810ee4:	ddc00817 	ldw	r23,32(sp)
  810ee8:	dd800717 	ldw	r22,28(sp)
  810eec:	dd400617 	ldw	r21,24(sp)
  810ef0:	dd000517 	ldw	r20,20(sp)
  810ef4:	dcc00417 	ldw	r19,16(sp)
  810ef8:	dc800317 	ldw	r18,12(sp)
  810efc:	dc400217 	ldw	r17,8(sp)
  810f00:	dc000117 	ldw	r16,4(sp)
  810f04:	dec00b04 	addi	sp,sp,44
  810f08:	f800283a 	ret
  810f0c:	00803fc4 	movi	r2,255
  810f10:	11c5803a 	cmpltu	r2,r2,r7
  810f14:	100490fa 	slli	r2,r2,3
  810f18:	003f9e06 	br	810d94 <__alt_mem_onchip_mem+0xff808d94>
  810f1c:	00803fc4 	movi	r2,255
  810f20:	1445803a 	cmpltu	r2,r2,r17
  810f24:	100490fa 	slli	r2,r2,3
  810f28:	003fb206 	br	810df4 <__alt_mem_onchip_mem+0xff808df4>
  810f2c:	00804034 	movhi	r2,256
  810f30:	10bfffc4 	addi	r2,r2,-1
  810f34:	11808836 	bltu	r2,r6,811158 <__udivdi3+0x51c>
  810f38:	00800404 	movi	r2,16
  810f3c:	003f5606 	br	810c98 <__alt_mem_onchip_mem+0xff808c98>
  810f40:	30aed83a 	srl	r23,r6,r2
  810f44:	3d4e983a 	sll	r7,r7,r21
  810f48:	80acd83a 	srl	r22,r16,r2
  810f4c:	9884d83a 	srl	r2,r19,r2
  810f50:	3deeb03a 	or	r23,r7,r23
  810f54:	b824d43a 	srli	r18,r23,16
  810f58:	8560983a 	sll	r16,r16,r21
  810f5c:	b009883a 	mov	r4,r22
  810f60:	900b883a 	mov	r5,r18
  810f64:	3568983a 	sll	r20,r6,r21
  810f68:	1420b03a 	or	r16,r2,r16
  810f6c:	08118480 	call	811848 <__umodsi3>
  810f70:	b009883a 	mov	r4,r22
  810f74:	900b883a 	mov	r5,r18
  810f78:	1023883a 	mov	r17,r2
  810f7c:	08117e40 	call	8117e4 <__udivsi3>
  810f80:	8808943a 	slli	r4,r17,16
  810f84:	bf3fffcc 	andi	fp,r23,65535
  810f88:	8006d43a 	srli	r3,r16,16
  810f8c:	e0a3383a 	mul	r17,fp,r2
  810f90:	100d883a 	mov	r6,r2
  810f94:	1906b03a 	or	r3,r3,r4
  810f98:	1c40042e 	bgeu	r3,r17,810fac <__udivdi3+0x370>
  810f9c:	1dc7883a 	add	r3,r3,r23
  810fa0:	10bfffc4 	addi	r2,r2,-1
  810fa4:	1dc0752e 	bgeu	r3,r23,81117c <__udivdi3+0x540>
  810fa8:	100d883a 	mov	r6,r2
  810fac:	1c63c83a 	sub	r17,r3,r17
  810fb0:	900b883a 	mov	r5,r18
  810fb4:	8809883a 	mov	r4,r17
  810fb8:	d9800015 	stw	r6,0(sp)
  810fbc:	08118480 	call	811848 <__umodsi3>
  810fc0:	102d883a 	mov	r22,r2
  810fc4:	8809883a 	mov	r4,r17
  810fc8:	900b883a 	mov	r5,r18
  810fcc:	08117e40 	call	8117e4 <__udivsi3>
  810fd0:	b02c943a 	slli	r22,r22,16
  810fd4:	e089383a 	mul	r4,fp,r2
  810fd8:	843fffcc 	andi	r16,r16,65535
  810fdc:	85a0b03a 	or	r16,r16,r22
  810fe0:	d9800017 	ldw	r6,0(sp)
  810fe4:	8100042e 	bgeu	r16,r4,810ff8 <__udivdi3+0x3bc>
  810fe8:	85e1883a 	add	r16,r16,r23
  810fec:	10ffffc4 	addi	r3,r2,-1
  810ff0:	85c05e2e 	bgeu	r16,r23,81116c <__udivdi3+0x530>
  810ff4:	1805883a 	mov	r2,r3
  810ff8:	300c943a 	slli	r6,r6,16
  810ffc:	a17fffcc 	andi	r5,r20,65535
  811000:	a028d43a 	srli	r20,r20,16
  811004:	3084b03a 	or	r2,r6,r2
  811008:	10ffffcc 	andi	r3,r2,65535
  81100c:	100cd43a 	srli	r6,r2,16
  811010:	194f383a 	mul	r7,r3,r5
  811014:	1d07383a 	mul	r3,r3,r20
  811018:	314b383a 	mul	r5,r6,r5
  81101c:	3810d43a 	srli	r8,r7,16
  811020:	8121c83a 	sub	r16,r16,r4
  811024:	1947883a 	add	r3,r3,r5
  811028:	40c7883a 	add	r3,r8,r3
  81102c:	350d383a 	mul	r6,r6,r20
  811030:	1940022e 	bgeu	r3,r5,81103c <__udivdi3+0x400>
  811034:	01000074 	movhi	r4,1
  811038:	310d883a 	add	r6,r6,r4
  81103c:	1828d43a 	srli	r20,r3,16
  811040:	a18d883a 	add	r6,r20,r6
  811044:	81803e36 	bltu	r16,r6,811140 <__udivdi3+0x504>
  811048:	81803826 	beq	r16,r6,81112c <__udivdi3+0x4f0>
  81104c:	0007883a 	mov	r3,zero
  811050:	003fa206 	br	810edc <__alt_mem_onchip_mem+0xff808edc>
  811054:	88e2983a 	sll	r17,r17,r3
  811058:	80a8d83a 	srl	r20,r16,r2
  81105c:	80e0983a 	sll	r16,r16,r3
  811060:	882ad43a 	srli	r21,r17,16
  811064:	9884d83a 	srl	r2,r19,r2
  811068:	a009883a 	mov	r4,r20
  81106c:	a80b883a 	mov	r5,r21
  811070:	142eb03a 	or	r23,r2,r16
  811074:	98e4983a 	sll	r18,r19,r3
  811078:	08118480 	call	811848 <__umodsi3>
  81107c:	a009883a 	mov	r4,r20
  811080:	a80b883a 	mov	r5,r21
  811084:	1021883a 	mov	r16,r2
  811088:	08117e40 	call	8117e4 <__udivsi3>
  81108c:	1039883a 	mov	fp,r2
  811090:	8d3fffcc 	andi	r20,r17,65535
  811094:	8020943a 	slli	r16,r16,16
  811098:	b804d43a 	srli	r2,r23,16
  81109c:	a72d383a 	mul	r22,r20,fp
  8110a0:	1404b03a 	or	r2,r2,r16
  8110a4:	1580062e 	bgeu	r2,r22,8110c0 <__udivdi3+0x484>
  8110a8:	1445883a 	add	r2,r2,r17
  8110ac:	e0ffffc4 	addi	r3,fp,-1
  8110b0:	14403836 	bltu	r2,r17,811194 <__udivdi3+0x558>
  8110b4:	1580372e 	bgeu	r2,r22,811194 <__udivdi3+0x558>
  8110b8:	e73fff84 	addi	fp,fp,-2
  8110bc:	1445883a 	add	r2,r2,r17
  8110c0:	15adc83a 	sub	r22,r2,r22
  8110c4:	a80b883a 	mov	r5,r21
  8110c8:	b009883a 	mov	r4,r22
  8110cc:	08118480 	call	811848 <__umodsi3>
  8110d0:	1027883a 	mov	r19,r2
  8110d4:	b009883a 	mov	r4,r22
  8110d8:	a80b883a 	mov	r5,r21
  8110dc:	08117e40 	call	8117e4 <__udivsi3>
  8110e0:	9826943a 	slli	r19,r19,16
  8110e4:	a0a1383a 	mul	r16,r20,r2
  8110e8:	b93fffcc 	andi	r4,r23,65535
  8110ec:	24c8b03a 	or	r4,r4,r19
  8110f0:	2400062e 	bgeu	r4,r16,81110c <__udivdi3+0x4d0>
  8110f4:	2449883a 	add	r4,r4,r17
  8110f8:	10ffffc4 	addi	r3,r2,-1
  8110fc:	24402336 	bltu	r4,r17,81118c <__udivdi3+0x550>
  811100:	2400222e 	bgeu	r4,r16,81118c <__udivdi3+0x550>
  811104:	10bfff84 	addi	r2,r2,-2
  811108:	2449883a 	add	r4,r4,r17
  81110c:	e038943a 	slli	fp,fp,16
  811110:	2421c83a 	sub	r16,r4,r16
  811114:	e086b03a 	or	r3,fp,r2
  811118:	003f4306 	br	810e28 <__alt_mem_onchip_mem+0xff808e28>
  81111c:	2005883a 	mov	r2,r4
  811120:	003f6906 	br	810ec8 <__alt_mem_onchip_mem+0xff808ec8>
  811124:	1805883a 	mov	r2,r3
  811128:	003f0f06 	br	810d68 <__alt_mem_onchip_mem+0xff808d68>
  81112c:	1806943a 	slli	r3,r3,16
  811130:	9d66983a 	sll	r19,r19,r21
  811134:	39ffffcc 	andi	r7,r7,65535
  811138:	19c7883a 	add	r3,r3,r7
  81113c:	98ffc32e 	bgeu	r19,r3,81104c <__alt_mem_onchip_mem+0xff80904c>
  811140:	10bfffc4 	addi	r2,r2,-1
  811144:	003fc106 	br	81104c <__alt_mem_onchip_mem+0xff80904c>
  811148:	00800604 	movi	r2,24
  81114c:	003f1106 	br	810d94 <__alt_mem_onchip_mem+0xff808d94>
  811150:	00800604 	movi	r2,24
  811154:	003f2706 	br	810df4 <__alt_mem_onchip_mem+0xff808df4>
  811158:	00800604 	movi	r2,24
  81115c:	003ece06 	br	810c98 <__alt_mem_onchip_mem+0xff808c98>
  811160:	0007883a 	mov	r3,zero
  811164:	00800044 	movi	r2,1
  811168:	003f5c06 	br	810edc <__alt_mem_onchip_mem+0xff808edc>
  81116c:	813fa12e 	bgeu	r16,r4,810ff4 <__alt_mem_onchip_mem+0xff808ff4>
  811170:	10bfff84 	addi	r2,r2,-2
  811174:	85e1883a 	add	r16,r16,r23
  811178:	003f9f06 	br	810ff8 <__alt_mem_onchip_mem+0xff808ff8>
  81117c:	1c7f8a2e 	bgeu	r3,r17,810fa8 <__alt_mem_onchip_mem+0xff808fa8>
  811180:	31bfff84 	addi	r6,r6,-2
  811184:	1dc7883a 	add	r3,r3,r23
  811188:	003f8806 	br	810fac <__alt_mem_onchip_mem+0xff808fac>
  81118c:	1805883a 	mov	r2,r3
  811190:	003fde06 	br	81110c <__alt_mem_onchip_mem+0xff80910c>
  811194:	1839883a 	mov	fp,r3
  811198:	003fc906 	br	8110c0 <__alt_mem_onchip_mem+0xff8090c0>
  81119c:	b5bfff84 	addi	r22,r22,-2
  8111a0:	2449883a 	add	r4,r4,r17
  8111a4:	003f3406 	br	810e78 <__alt_mem_onchip_mem+0xff808e78>
  8111a8:	b5bfff84 	addi	r22,r22,-2
  8111ac:	1445883a 	add	r2,r2,r17
  8111b0:	003edb06 	br	810d20 <__alt_mem_onchip_mem+0xff808d20>

008111b4 <__umoddi3>:
  8111b4:	defff404 	addi	sp,sp,-48
  8111b8:	df000a15 	stw	fp,40(sp)
  8111bc:	dc400315 	stw	r17,12(sp)
  8111c0:	dc000215 	stw	r16,8(sp)
  8111c4:	dfc00b15 	stw	ra,44(sp)
  8111c8:	ddc00915 	stw	r23,36(sp)
  8111cc:	dd800815 	stw	r22,32(sp)
  8111d0:	dd400715 	stw	r21,28(sp)
  8111d4:	dd000615 	stw	r20,24(sp)
  8111d8:	dcc00515 	stw	r19,20(sp)
  8111dc:	dc800415 	stw	r18,16(sp)
  8111e0:	2021883a 	mov	r16,r4
  8111e4:	2823883a 	mov	r17,r5
  8111e8:	2839883a 	mov	fp,r5
  8111ec:	38003c1e 	bne	r7,zero,8112e0 <__umoddi3+0x12c>
  8111f0:	3027883a 	mov	r19,r6
  8111f4:	2029883a 	mov	r20,r4
  8111f8:	2980512e 	bgeu	r5,r6,811340 <__umoddi3+0x18c>
  8111fc:	00bfffd4 	movui	r2,65535
  811200:	11809a36 	bltu	r2,r6,81146c <__umoddi3+0x2b8>
  811204:	01003fc4 	movi	r4,255
  811208:	2189803a 	cmpltu	r4,r4,r6
  81120c:	200890fa 	slli	r4,r4,3
  811210:	3104d83a 	srl	r2,r6,r4
  811214:	00c02074 	movhi	r3,129
  811218:	18db6084 	addi	r3,r3,28034
  81121c:	1885883a 	add	r2,r3,r2
  811220:	10c00003 	ldbu	r3,0(r2)
  811224:	00800804 	movi	r2,32
  811228:	1909883a 	add	r4,r3,r4
  81122c:	1125c83a 	sub	r18,r2,r4
  811230:	90000526 	beq	r18,zero,811248 <__umoddi3+0x94>
  811234:	8ca2983a 	sll	r17,r17,r18
  811238:	8108d83a 	srl	r4,r16,r4
  81123c:	34a6983a 	sll	r19,r6,r18
  811240:	84a8983a 	sll	r20,r16,r18
  811244:	2478b03a 	or	fp,r4,r17
  811248:	982ed43a 	srli	r23,r19,16
  81124c:	e009883a 	mov	r4,fp
  811250:	9dbfffcc 	andi	r22,r19,65535
  811254:	b80b883a 	mov	r5,r23
  811258:	08118480 	call	811848 <__umodsi3>
  81125c:	e009883a 	mov	r4,fp
  811260:	b80b883a 	mov	r5,r23
  811264:	102b883a 	mov	r21,r2
  811268:	08117e40 	call	8117e4 <__udivsi3>
  81126c:	a806943a 	slli	r3,r21,16
  811270:	a008d43a 	srli	r4,r20,16
  811274:	b085383a 	mul	r2,r22,r2
  811278:	20c8b03a 	or	r4,r4,r3
  81127c:	2080032e 	bgeu	r4,r2,81128c <__umoddi3+0xd8>
  811280:	24c9883a 	add	r4,r4,r19
  811284:	24c00136 	bltu	r4,r19,81128c <__umoddi3+0xd8>
  811288:	20811036 	bltu	r4,r2,8116cc <__umoddi3+0x518>
  81128c:	20abc83a 	sub	r21,r4,r2
  811290:	b80b883a 	mov	r5,r23
  811294:	a809883a 	mov	r4,r21
  811298:	08118480 	call	811848 <__umodsi3>
  81129c:	1023883a 	mov	r17,r2
  8112a0:	b80b883a 	mov	r5,r23
  8112a4:	a809883a 	mov	r4,r21
  8112a8:	08117e40 	call	8117e4 <__udivsi3>
  8112ac:	8822943a 	slli	r17,r17,16
  8112b0:	b085383a 	mul	r2,r22,r2
  8112b4:	a0ffffcc 	andi	r3,r20,65535
  8112b8:	1c46b03a 	or	r3,r3,r17
  8112bc:	1880042e 	bgeu	r3,r2,8112d0 <__umoddi3+0x11c>
  8112c0:	1cc7883a 	add	r3,r3,r19
  8112c4:	1cc00236 	bltu	r3,r19,8112d0 <__umoddi3+0x11c>
  8112c8:	1880012e 	bgeu	r3,r2,8112d0 <__umoddi3+0x11c>
  8112cc:	1cc7883a 	add	r3,r3,r19
  8112d0:	1885c83a 	sub	r2,r3,r2
  8112d4:	1484d83a 	srl	r2,r2,r18
  8112d8:	0007883a 	mov	r3,zero
  8112dc:	00004f06 	br	81141c <__umoddi3+0x268>
  8112e0:	29c04c36 	bltu	r5,r7,811414 <__umoddi3+0x260>
  8112e4:	00bfffd4 	movui	r2,65535
  8112e8:	11c0582e 	bgeu	r2,r7,81144c <__umoddi3+0x298>
  8112ec:	00804034 	movhi	r2,256
  8112f0:	10bfffc4 	addi	r2,r2,-1
  8112f4:	11c0e736 	bltu	r2,r7,811694 <__umoddi3+0x4e0>
  8112f8:	01000404 	movi	r4,16
  8112fc:	3904d83a 	srl	r2,r7,r4
  811300:	00c02074 	movhi	r3,129
  811304:	18db6084 	addi	r3,r3,28034
  811308:	1885883a 	add	r2,r3,r2
  81130c:	14c00003 	ldbu	r19,0(r2)
  811310:	00c00804 	movi	r3,32
  811314:	9927883a 	add	r19,r19,r4
  811318:	1ce9c83a 	sub	r20,r3,r19
  81131c:	a000581e 	bne	r20,zero,811480 <__umoddi3+0x2cc>
  811320:	3c400136 	bltu	r7,r17,811328 <__umoddi3+0x174>
  811324:	8180eb36 	bltu	r16,r6,8116d4 <__umoddi3+0x520>
  811328:	8185c83a 	sub	r2,r16,r6
  81132c:	89e3c83a 	sub	r17,r17,r7
  811330:	8089803a 	cmpltu	r4,r16,r2
  811334:	8939c83a 	sub	fp,r17,r4
  811338:	e007883a 	mov	r3,fp
  81133c:	00003706 	br	81141c <__umoddi3+0x268>
  811340:	3000041e 	bne	r6,zero,811354 <__umoddi3+0x1a0>
  811344:	000b883a 	mov	r5,zero
  811348:	01000044 	movi	r4,1
  81134c:	08117e40 	call	8117e4 <__udivsi3>
  811350:	1027883a 	mov	r19,r2
  811354:	00bfffd4 	movui	r2,65535
  811358:	14c0402e 	bgeu	r2,r19,81145c <__umoddi3+0x2a8>
  81135c:	00804034 	movhi	r2,256
  811360:	10bfffc4 	addi	r2,r2,-1
  811364:	14c0cd36 	bltu	r2,r19,81169c <__umoddi3+0x4e8>
  811368:	00800404 	movi	r2,16
  81136c:	9886d83a 	srl	r3,r19,r2
  811370:	01002074 	movhi	r4,129
  811374:	211b6084 	addi	r4,r4,28034
  811378:	20c7883a 	add	r3,r4,r3
  81137c:	18c00003 	ldbu	r3,0(r3)
  811380:	1887883a 	add	r3,r3,r2
  811384:	00800804 	movi	r2,32
  811388:	10e5c83a 	sub	r18,r2,r3
  81138c:	9000901e 	bne	r18,zero,8115d0 <__umoddi3+0x41c>
  811390:	982cd43a 	srli	r22,r19,16
  811394:	8ce3c83a 	sub	r17,r17,r19
  811398:	9d7fffcc 	andi	r21,r19,65535
  81139c:	b00b883a 	mov	r5,r22
  8113a0:	8809883a 	mov	r4,r17
  8113a4:	08118480 	call	811848 <__umodsi3>
  8113a8:	8809883a 	mov	r4,r17
  8113ac:	b00b883a 	mov	r5,r22
  8113b0:	1021883a 	mov	r16,r2
  8113b4:	08117e40 	call	8117e4 <__udivsi3>
  8113b8:	8006943a 	slli	r3,r16,16
  8113bc:	a008d43a 	srli	r4,r20,16
  8113c0:	1545383a 	mul	r2,r2,r21
  8113c4:	20c8b03a 	or	r4,r4,r3
  8113c8:	2080042e 	bgeu	r4,r2,8113dc <__umoddi3+0x228>
  8113cc:	24c9883a 	add	r4,r4,r19
  8113d0:	24c00236 	bltu	r4,r19,8113dc <__umoddi3+0x228>
  8113d4:	2080012e 	bgeu	r4,r2,8113dc <__umoddi3+0x228>
  8113d8:	24c9883a 	add	r4,r4,r19
  8113dc:	20a1c83a 	sub	r16,r4,r2
  8113e0:	b00b883a 	mov	r5,r22
  8113e4:	8009883a 	mov	r4,r16
  8113e8:	08118480 	call	811848 <__umodsi3>
  8113ec:	1023883a 	mov	r17,r2
  8113f0:	b00b883a 	mov	r5,r22
  8113f4:	8009883a 	mov	r4,r16
  8113f8:	08117e40 	call	8117e4 <__udivsi3>
  8113fc:	8822943a 	slli	r17,r17,16
  811400:	1545383a 	mul	r2,r2,r21
  811404:	a53fffcc 	andi	r20,r20,65535
  811408:	a446b03a 	or	r3,r20,r17
  81140c:	18bfb02e 	bgeu	r3,r2,8112d0 <__alt_mem_onchip_mem+0xff8092d0>
  811410:	003fab06 	br	8112c0 <__alt_mem_onchip_mem+0xff8092c0>
  811414:	2005883a 	mov	r2,r4
  811418:	2807883a 	mov	r3,r5
  81141c:	dfc00b17 	ldw	ra,44(sp)
  811420:	df000a17 	ldw	fp,40(sp)
  811424:	ddc00917 	ldw	r23,36(sp)
  811428:	dd800817 	ldw	r22,32(sp)
  81142c:	dd400717 	ldw	r21,28(sp)
  811430:	dd000617 	ldw	r20,24(sp)
  811434:	dcc00517 	ldw	r19,20(sp)
  811438:	dc800417 	ldw	r18,16(sp)
  81143c:	dc400317 	ldw	r17,12(sp)
  811440:	dc000217 	ldw	r16,8(sp)
  811444:	dec00c04 	addi	sp,sp,48
  811448:	f800283a 	ret
  81144c:	04c03fc4 	movi	r19,255
  811450:	99c9803a 	cmpltu	r4,r19,r7
  811454:	200890fa 	slli	r4,r4,3
  811458:	003fa806 	br	8112fc <__alt_mem_onchip_mem+0xff8092fc>
  81145c:	00803fc4 	movi	r2,255
  811460:	14c5803a 	cmpltu	r2,r2,r19
  811464:	100490fa 	slli	r2,r2,3
  811468:	003fc006 	br	81136c <__alt_mem_onchip_mem+0xff80936c>
  81146c:	00804034 	movhi	r2,256
  811470:	10bfffc4 	addi	r2,r2,-1
  811474:	11808b36 	bltu	r2,r6,8116a4 <__umoddi3+0x4f0>
  811478:	01000404 	movi	r4,16
  81147c:	003f6406 	br	811210 <__alt_mem_onchip_mem+0xff809210>
  811480:	34c4d83a 	srl	r2,r6,r19
  811484:	3d0e983a 	sll	r7,r7,r20
  811488:	8cf8d83a 	srl	fp,r17,r19
  81148c:	8d10983a 	sll	r8,r17,r20
  811490:	38aab03a 	or	r21,r7,r2
  811494:	a82cd43a 	srli	r22,r21,16
  811498:	84e2d83a 	srl	r17,r16,r19
  81149c:	e009883a 	mov	r4,fp
  8114a0:	b00b883a 	mov	r5,r22
  8114a4:	8a22b03a 	or	r17,r17,r8
  8114a8:	3524983a 	sll	r18,r6,r20
  8114ac:	08118480 	call	811848 <__umodsi3>
  8114b0:	e009883a 	mov	r4,fp
  8114b4:	b00b883a 	mov	r5,r22
  8114b8:	102f883a 	mov	r23,r2
  8114bc:	08117e40 	call	8117e4 <__udivsi3>
  8114c0:	100d883a 	mov	r6,r2
  8114c4:	b808943a 	slli	r4,r23,16
  8114c8:	aa3fffcc 	andi	r8,r21,65535
  8114cc:	8804d43a 	srli	r2,r17,16
  8114d0:	41af383a 	mul	r23,r8,r6
  8114d4:	8520983a 	sll	r16,r16,r20
  8114d8:	1104b03a 	or	r2,r2,r4
  8114dc:	15c0042e 	bgeu	r2,r23,8114f0 <__umoddi3+0x33c>
  8114e0:	1545883a 	add	r2,r2,r21
  8114e4:	30ffffc4 	addi	r3,r6,-1
  8114e8:	1540742e 	bgeu	r2,r21,8116bc <__umoddi3+0x508>
  8114ec:	180d883a 	mov	r6,r3
  8114f0:	15efc83a 	sub	r23,r2,r23
  8114f4:	b00b883a 	mov	r5,r22
  8114f8:	b809883a 	mov	r4,r23
  8114fc:	d9800115 	stw	r6,4(sp)
  811500:	da000015 	stw	r8,0(sp)
  811504:	08118480 	call	811848 <__umodsi3>
  811508:	b00b883a 	mov	r5,r22
  81150c:	b809883a 	mov	r4,r23
  811510:	1039883a 	mov	fp,r2
  811514:	08117e40 	call	8117e4 <__udivsi3>
  811518:	da000017 	ldw	r8,0(sp)
  81151c:	e038943a 	slli	fp,fp,16
  811520:	100b883a 	mov	r5,r2
  811524:	4089383a 	mul	r4,r8,r2
  811528:	8a3fffcc 	andi	r8,r17,65535
  81152c:	4710b03a 	or	r8,r8,fp
  811530:	d9800117 	ldw	r6,4(sp)
  811534:	4100042e 	bgeu	r8,r4,811548 <__umoddi3+0x394>
  811538:	4551883a 	add	r8,r8,r21
  81153c:	10bfffc4 	addi	r2,r2,-1
  811540:	45405a2e 	bgeu	r8,r21,8116ac <__umoddi3+0x4f8>
  811544:	100b883a 	mov	r5,r2
  811548:	300c943a 	slli	r6,r6,16
  81154c:	91ffffcc 	andi	r7,r18,65535
  811550:	9004d43a 	srli	r2,r18,16
  811554:	314cb03a 	or	r6,r6,r5
  811558:	317fffcc 	andi	r5,r6,65535
  81155c:	300cd43a 	srli	r6,r6,16
  811560:	29d3383a 	mul	r9,r5,r7
  811564:	288b383a 	mul	r5,r5,r2
  811568:	31cf383a 	mul	r7,r6,r7
  81156c:	4806d43a 	srli	r3,r9,16
  811570:	4111c83a 	sub	r8,r8,r4
  811574:	29cb883a 	add	r5,r5,r7
  811578:	194b883a 	add	r5,r3,r5
  81157c:	3085383a 	mul	r2,r6,r2
  811580:	29c0022e 	bgeu	r5,r7,81158c <__umoddi3+0x3d8>
  811584:	00c00074 	movhi	r3,1
  811588:	10c5883a 	add	r2,r2,r3
  81158c:	2808d43a 	srli	r4,r5,16
  811590:	280a943a 	slli	r5,r5,16
  811594:	4a7fffcc 	andi	r9,r9,65535
  811598:	2085883a 	add	r2,r4,r2
  81159c:	2a4b883a 	add	r5,r5,r9
  8115a0:	40803636 	bltu	r8,r2,81167c <__umoddi3+0x4c8>
  8115a4:	40804d26 	beq	r8,r2,8116dc <__umoddi3+0x528>
  8115a8:	4089c83a 	sub	r4,r8,r2
  8115ac:	280f883a 	mov	r7,r5
  8115b0:	81cfc83a 	sub	r7,r16,r7
  8115b4:	81c7803a 	cmpltu	r3,r16,r7
  8115b8:	20c7c83a 	sub	r3,r4,r3
  8115bc:	1cc4983a 	sll	r2,r3,r19
  8115c0:	3d0ed83a 	srl	r7,r7,r20
  8115c4:	1d06d83a 	srl	r3,r3,r20
  8115c8:	11c4b03a 	or	r2,r2,r7
  8115cc:	003f9306 	br	81141c <__alt_mem_onchip_mem+0xff80941c>
  8115d0:	9ca6983a 	sll	r19,r19,r18
  8115d4:	88e8d83a 	srl	r20,r17,r3
  8115d8:	80c4d83a 	srl	r2,r16,r3
  8115dc:	982cd43a 	srli	r22,r19,16
  8115e0:	8ca2983a 	sll	r17,r17,r18
  8115e4:	a009883a 	mov	r4,r20
  8115e8:	b00b883a 	mov	r5,r22
  8115ec:	1478b03a 	or	fp,r2,r17
  8115f0:	08118480 	call	811848 <__umodsi3>
  8115f4:	a009883a 	mov	r4,r20
  8115f8:	b00b883a 	mov	r5,r22
  8115fc:	1023883a 	mov	r17,r2
  811600:	08117e40 	call	8117e4 <__udivsi3>
  811604:	9d7fffcc 	andi	r21,r19,65535
  811608:	880a943a 	slli	r5,r17,16
  81160c:	e008d43a 	srli	r4,fp,16
  811610:	a885383a 	mul	r2,r21,r2
  811614:	84a8983a 	sll	r20,r16,r18
  811618:	2148b03a 	or	r4,r4,r5
  81161c:	2080042e 	bgeu	r4,r2,811630 <__umoddi3+0x47c>
  811620:	24c9883a 	add	r4,r4,r19
  811624:	24c00236 	bltu	r4,r19,811630 <__umoddi3+0x47c>
  811628:	2080012e 	bgeu	r4,r2,811630 <__umoddi3+0x47c>
  81162c:	24c9883a 	add	r4,r4,r19
  811630:	20a3c83a 	sub	r17,r4,r2
  811634:	b00b883a 	mov	r5,r22
  811638:	8809883a 	mov	r4,r17
  81163c:	08118480 	call	811848 <__umodsi3>
  811640:	102f883a 	mov	r23,r2
  811644:	8809883a 	mov	r4,r17
  811648:	b00b883a 	mov	r5,r22
  81164c:	08117e40 	call	8117e4 <__udivsi3>
  811650:	b82e943a 	slli	r23,r23,16
  811654:	a885383a 	mul	r2,r21,r2
  811658:	e13fffcc 	andi	r4,fp,65535
  81165c:	25c8b03a 	or	r4,r4,r23
  811660:	2080042e 	bgeu	r4,r2,811674 <__umoddi3+0x4c0>
  811664:	24c9883a 	add	r4,r4,r19
  811668:	24c00236 	bltu	r4,r19,811674 <__umoddi3+0x4c0>
  81166c:	2080012e 	bgeu	r4,r2,811674 <__umoddi3+0x4c0>
  811670:	24c9883a 	add	r4,r4,r19
  811674:	20a3c83a 	sub	r17,r4,r2
  811678:	003f4806 	br	81139c <__alt_mem_onchip_mem+0xff80939c>
  81167c:	2c8fc83a 	sub	r7,r5,r18
  811680:	1545c83a 	sub	r2,r2,r21
  811684:	29cb803a 	cmpltu	r5,r5,r7
  811688:	1145c83a 	sub	r2,r2,r5
  81168c:	4089c83a 	sub	r4,r8,r2
  811690:	003fc706 	br	8115b0 <__alt_mem_onchip_mem+0xff8095b0>
  811694:	01000604 	movi	r4,24
  811698:	003f1806 	br	8112fc <__alt_mem_onchip_mem+0xff8092fc>
  81169c:	00800604 	movi	r2,24
  8116a0:	003f3206 	br	81136c <__alt_mem_onchip_mem+0xff80936c>
  8116a4:	01000604 	movi	r4,24
  8116a8:	003ed906 	br	811210 <__alt_mem_onchip_mem+0xff809210>
  8116ac:	413fa52e 	bgeu	r8,r4,811544 <__alt_mem_onchip_mem+0xff809544>
  8116b0:	297fff84 	addi	r5,r5,-2
  8116b4:	4551883a 	add	r8,r8,r21
  8116b8:	003fa306 	br	811548 <__alt_mem_onchip_mem+0xff809548>
  8116bc:	15ff8b2e 	bgeu	r2,r23,8114ec <__alt_mem_onchip_mem+0xff8094ec>
  8116c0:	31bfff84 	addi	r6,r6,-2
  8116c4:	1545883a 	add	r2,r2,r21
  8116c8:	003f8906 	br	8114f0 <__alt_mem_onchip_mem+0xff8094f0>
  8116cc:	24c9883a 	add	r4,r4,r19
  8116d0:	003eee06 	br	81128c <__alt_mem_onchip_mem+0xff80928c>
  8116d4:	8005883a 	mov	r2,r16
  8116d8:	003f1706 	br	811338 <__alt_mem_onchip_mem+0xff809338>
  8116dc:	817fe736 	bltu	r16,r5,81167c <__alt_mem_onchip_mem+0xff80967c>
  8116e0:	280f883a 	mov	r7,r5
  8116e4:	0009883a 	mov	r4,zero
  8116e8:	003fb106 	br	8115b0 <__alt_mem_onchip_mem+0xff8095b0>

008116ec <__divsi3>:
  8116ec:	20001b16 	blt	r4,zero,81175c <__divsi3+0x70>
  8116f0:	000f883a 	mov	r7,zero
  8116f4:	28001616 	blt	r5,zero,811750 <__divsi3+0x64>
  8116f8:	200d883a 	mov	r6,r4
  8116fc:	29001a2e 	bgeu	r5,r4,811768 <__divsi3+0x7c>
  811700:	00800804 	movi	r2,32
  811704:	00c00044 	movi	r3,1
  811708:	00000106 	br	811710 <__divsi3+0x24>
  81170c:	10000d26 	beq	r2,zero,811744 <__divsi3+0x58>
  811710:	294b883a 	add	r5,r5,r5
  811714:	10bfffc4 	addi	r2,r2,-1
  811718:	18c7883a 	add	r3,r3,r3
  81171c:	293ffb36 	bltu	r5,r4,81170c <__alt_mem_onchip_mem+0xff80970c>
  811720:	0005883a 	mov	r2,zero
  811724:	18000726 	beq	r3,zero,811744 <__divsi3+0x58>
  811728:	0005883a 	mov	r2,zero
  81172c:	31400236 	bltu	r6,r5,811738 <__divsi3+0x4c>
  811730:	314dc83a 	sub	r6,r6,r5
  811734:	10c4b03a 	or	r2,r2,r3
  811738:	1806d07a 	srli	r3,r3,1
  81173c:	280ad07a 	srli	r5,r5,1
  811740:	183ffa1e 	bne	r3,zero,81172c <__alt_mem_onchip_mem+0xff80972c>
  811744:	38000126 	beq	r7,zero,81174c <__divsi3+0x60>
  811748:	0085c83a 	sub	r2,zero,r2
  81174c:	f800283a 	ret
  811750:	014bc83a 	sub	r5,zero,r5
  811754:	39c0005c 	xori	r7,r7,1
  811758:	003fe706 	br	8116f8 <__alt_mem_onchip_mem+0xff8096f8>
  81175c:	0109c83a 	sub	r4,zero,r4
  811760:	01c00044 	movi	r7,1
  811764:	003fe306 	br	8116f4 <__alt_mem_onchip_mem+0xff8096f4>
  811768:	00c00044 	movi	r3,1
  81176c:	003fee06 	br	811728 <__alt_mem_onchip_mem+0xff809728>

00811770 <__modsi3>:
  811770:	20001716 	blt	r4,zero,8117d0 <__modsi3+0x60>
  811774:	000f883a 	mov	r7,zero
  811778:	2005883a 	mov	r2,r4
  81177c:	28001216 	blt	r5,zero,8117c8 <__modsi3+0x58>
  811780:	2900162e 	bgeu	r5,r4,8117dc <__modsi3+0x6c>
  811784:	01800804 	movi	r6,32
  811788:	00c00044 	movi	r3,1
  81178c:	00000106 	br	811794 <__modsi3+0x24>
  811790:	30000a26 	beq	r6,zero,8117bc <__modsi3+0x4c>
  811794:	294b883a 	add	r5,r5,r5
  811798:	31bfffc4 	addi	r6,r6,-1
  81179c:	18c7883a 	add	r3,r3,r3
  8117a0:	293ffb36 	bltu	r5,r4,811790 <__alt_mem_onchip_mem+0xff809790>
  8117a4:	18000526 	beq	r3,zero,8117bc <__modsi3+0x4c>
  8117a8:	1806d07a 	srli	r3,r3,1
  8117ac:	11400136 	bltu	r2,r5,8117b4 <__modsi3+0x44>
  8117b0:	1145c83a 	sub	r2,r2,r5
  8117b4:	280ad07a 	srli	r5,r5,1
  8117b8:	183ffb1e 	bne	r3,zero,8117a8 <__alt_mem_onchip_mem+0xff8097a8>
  8117bc:	38000126 	beq	r7,zero,8117c4 <__modsi3+0x54>
  8117c0:	0085c83a 	sub	r2,zero,r2
  8117c4:	f800283a 	ret
  8117c8:	014bc83a 	sub	r5,zero,r5
  8117cc:	003fec06 	br	811780 <__alt_mem_onchip_mem+0xff809780>
  8117d0:	0109c83a 	sub	r4,zero,r4
  8117d4:	01c00044 	movi	r7,1
  8117d8:	003fe706 	br	811778 <__alt_mem_onchip_mem+0xff809778>
  8117dc:	00c00044 	movi	r3,1
  8117e0:	003ff106 	br	8117a8 <__alt_mem_onchip_mem+0xff8097a8>

008117e4 <__udivsi3>:
  8117e4:	200d883a 	mov	r6,r4
  8117e8:	2900152e 	bgeu	r5,r4,811840 <__udivsi3+0x5c>
  8117ec:	28001416 	blt	r5,zero,811840 <__udivsi3+0x5c>
  8117f0:	00800804 	movi	r2,32
  8117f4:	00c00044 	movi	r3,1
  8117f8:	00000206 	br	811804 <__udivsi3+0x20>
  8117fc:	10000e26 	beq	r2,zero,811838 <__udivsi3+0x54>
  811800:	28000516 	blt	r5,zero,811818 <__udivsi3+0x34>
  811804:	294b883a 	add	r5,r5,r5
  811808:	10bfffc4 	addi	r2,r2,-1
  81180c:	18c7883a 	add	r3,r3,r3
  811810:	293ffa36 	bltu	r5,r4,8117fc <__alt_mem_onchip_mem+0xff8097fc>
  811814:	18000826 	beq	r3,zero,811838 <__udivsi3+0x54>
  811818:	0005883a 	mov	r2,zero
  81181c:	31400236 	bltu	r6,r5,811828 <__udivsi3+0x44>
  811820:	314dc83a 	sub	r6,r6,r5
  811824:	10c4b03a 	or	r2,r2,r3
  811828:	1806d07a 	srli	r3,r3,1
  81182c:	280ad07a 	srli	r5,r5,1
  811830:	183ffa1e 	bne	r3,zero,81181c <__alt_mem_onchip_mem+0xff80981c>
  811834:	f800283a 	ret
  811838:	0005883a 	mov	r2,zero
  81183c:	f800283a 	ret
  811840:	00c00044 	movi	r3,1
  811844:	003ff406 	br	811818 <__alt_mem_onchip_mem+0xff809818>

00811848 <__umodsi3>:
  811848:	2005883a 	mov	r2,r4
  81184c:	2900122e 	bgeu	r5,r4,811898 <__umodsi3+0x50>
  811850:	28001116 	blt	r5,zero,811898 <__umodsi3+0x50>
  811854:	01800804 	movi	r6,32
  811858:	00c00044 	movi	r3,1
  81185c:	00000206 	br	811868 <__umodsi3+0x20>
  811860:	30000c26 	beq	r6,zero,811894 <__umodsi3+0x4c>
  811864:	28000516 	blt	r5,zero,81187c <__umodsi3+0x34>
  811868:	294b883a 	add	r5,r5,r5
  81186c:	31bfffc4 	addi	r6,r6,-1
  811870:	18c7883a 	add	r3,r3,r3
  811874:	293ffa36 	bltu	r5,r4,811860 <__alt_mem_onchip_mem+0xff809860>
  811878:	18000626 	beq	r3,zero,811894 <__umodsi3+0x4c>
  81187c:	1806d07a 	srli	r3,r3,1
  811880:	11400136 	bltu	r2,r5,811888 <__umodsi3+0x40>
  811884:	1145c83a 	sub	r2,r2,r5
  811888:	280ad07a 	srli	r5,r5,1
  81188c:	183ffb1e 	bne	r3,zero,81187c <__alt_mem_onchip_mem+0xff80987c>
  811890:	f800283a 	ret
  811894:	f800283a 	ret
  811898:	00c00044 	movi	r3,1
  81189c:	003ff706 	br	81187c <__alt_mem_onchip_mem+0xff80987c>

008118a0 <__divdf3>:
  8118a0:	defff204 	addi	sp,sp,-56
  8118a4:	dd400915 	stw	r21,36(sp)
  8118a8:	282ad53a 	srli	r21,r5,20
  8118ac:	dd000815 	stw	r20,32(sp)
  8118b0:	2828d7fa 	srli	r20,r5,31
  8118b4:	dc000415 	stw	r16,16(sp)
  8118b8:	04000434 	movhi	r16,16
  8118bc:	df000c15 	stw	fp,48(sp)
  8118c0:	843fffc4 	addi	r16,r16,-1
  8118c4:	dfc00d15 	stw	ra,52(sp)
  8118c8:	ddc00b15 	stw	r23,44(sp)
  8118cc:	dd800a15 	stw	r22,40(sp)
  8118d0:	dcc00715 	stw	r19,28(sp)
  8118d4:	dc800615 	stw	r18,24(sp)
  8118d8:	dc400515 	stw	r17,20(sp)
  8118dc:	ad41ffcc 	andi	r21,r21,2047
  8118e0:	2c20703a 	and	r16,r5,r16
  8118e4:	a7003fcc 	andi	fp,r20,255
  8118e8:	a8006126 	beq	r21,zero,811a70 <__divdf3+0x1d0>
  8118ec:	0081ffc4 	movi	r2,2047
  8118f0:	2025883a 	mov	r18,r4
  8118f4:	a8803726 	beq	r21,r2,8119d4 <__divdf3+0x134>
  8118f8:	80800434 	orhi	r2,r16,16
  8118fc:	100490fa 	slli	r2,r2,3
  811900:	2020d77a 	srli	r16,r4,29
  811904:	202490fa 	slli	r18,r4,3
  811908:	ad7f0044 	addi	r21,r21,-1023
  81190c:	80a0b03a 	or	r16,r16,r2
  811910:	0027883a 	mov	r19,zero
  811914:	0013883a 	mov	r9,zero
  811918:	3804d53a 	srli	r2,r7,20
  81191c:	382cd7fa 	srli	r22,r7,31
  811920:	04400434 	movhi	r17,16
  811924:	8c7fffc4 	addi	r17,r17,-1
  811928:	1081ffcc 	andi	r2,r2,2047
  81192c:	3011883a 	mov	r8,r6
  811930:	3c62703a 	and	r17,r7,r17
  811934:	b5c03fcc 	andi	r23,r22,255
  811938:	10006c26 	beq	r2,zero,811aec <__divdf3+0x24c>
  81193c:	00c1ffc4 	movi	r3,2047
  811940:	10c06426 	beq	r2,r3,811ad4 <__divdf3+0x234>
  811944:	88c00434 	orhi	r3,r17,16
  811948:	180690fa 	slli	r3,r3,3
  81194c:	3022d77a 	srli	r17,r6,29
  811950:	301090fa 	slli	r8,r6,3
  811954:	10bf0044 	addi	r2,r2,-1023
  811958:	88e2b03a 	or	r17,r17,r3
  81195c:	000f883a 	mov	r7,zero
  811960:	a58cf03a 	xor	r6,r20,r22
  811964:	3cc8b03a 	or	r4,r7,r19
  811968:	a8abc83a 	sub	r21,r21,r2
  81196c:	008003c4 	movi	r2,15
  811970:	3007883a 	mov	r3,r6
  811974:	34c03fcc 	andi	r19,r6,255
  811978:	11009036 	bltu	r2,r4,811bbc <__divdf3+0x31c>
  81197c:	200890ba 	slli	r4,r4,2
  811980:	00802074 	movhi	r2,129
  811984:	10866504 	addi	r2,r2,6548
  811988:	2089883a 	add	r4,r4,r2
  81198c:	20800017 	ldw	r2,0(r4)
  811990:	1000683a 	jmp	r2
  811994:	00811bbc 	xorhi	r2,zero,1134
  811998:	00811a0c 	andi	r2,zero,1128
  81199c:	00811bac 	andhi	r2,zero,1134
  8119a0:	00811a00 	call	811a0 <__alt_mem_sdram-0x77ee60>
  8119a4:	00811bac 	andhi	r2,zero,1134
  8119a8:	00811b80 	call	811b8 <__alt_mem_sdram-0x77ee48>
  8119ac:	00811bac 	andhi	r2,zero,1134
  8119b0:	00811a00 	call	811a0 <__alt_mem_sdram-0x77ee60>
  8119b4:	00811a0c 	andi	r2,zero,1128
  8119b8:	00811a0c 	andi	r2,zero,1128
  8119bc:	00811b80 	call	811b8 <__alt_mem_sdram-0x77ee48>
  8119c0:	00811a00 	call	811a0 <__alt_mem_sdram-0x77ee60>
  8119c4:	008119f0 	cmpltui	r2,zero,1127
  8119c8:	008119f0 	cmpltui	r2,zero,1127
  8119cc:	008119f0 	cmpltui	r2,zero,1127
  8119d0:	00811ea0 	cmpeqi	r2,zero,1146
  8119d4:	2404b03a 	or	r2,r4,r16
  8119d8:	1000661e 	bne	r2,zero,811b74 <__divdf3+0x2d4>
  8119dc:	04c00204 	movi	r19,8
  8119e0:	0021883a 	mov	r16,zero
  8119e4:	0025883a 	mov	r18,zero
  8119e8:	02400084 	movi	r9,2
  8119ec:	003fca06 	br	811918 <__alt_mem_onchip_mem+0xff809918>
  8119f0:	8023883a 	mov	r17,r16
  8119f4:	9011883a 	mov	r8,r18
  8119f8:	e02f883a 	mov	r23,fp
  8119fc:	480f883a 	mov	r7,r9
  811a00:	00800084 	movi	r2,2
  811a04:	3881311e 	bne	r7,r2,811ecc <__divdf3+0x62c>
  811a08:	b827883a 	mov	r19,r23
  811a0c:	98c0004c 	andi	r3,r19,1
  811a10:	0081ffc4 	movi	r2,2047
  811a14:	000b883a 	mov	r5,zero
  811a18:	0025883a 	mov	r18,zero
  811a1c:	1004953a 	slli	r2,r2,20
  811a20:	18c03fcc 	andi	r3,r3,255
  811a24:	04400434 	movhi	r17,16
  811a28:	8c7fffc4 	addi	r17,r17,-1
  811a2c:	180697fa 	slli	r3,r3,31
  811a30:	2c4a703a 	and	r5,r5,r17
  811a34:	288ab03a 	or	r5,r5,r2
  811a38:	28c6b03a 	or	r3,r5,r3
  811a3c:	9005883a 	mov	r2,r18
  811a40:	dfc00d17 	ldw	ra,52(sp)
  811a44:	df000c17 	ldw	fp,48(sp)
  811a48:	ddc00b17 	ldw	r23,44(sp)
  811a4c:	dd800a17 	ldw	r22,40(sp)
  811a50:	dd400917 	ldw	r21,36(sp)
  811a54:	dd000817 	ldw	r20,32(sp)
  811a58:	dcc00717 	ldw	r19,28(sp)
  811a5c:	dc800617 	ldw	r18,24(sp)
  811a60:	dc400517 	ldw	r17,20(sp)
  811a64:	dc000417 	ldw	r16,16(sp)
  811a68:	dec00e04 	addi	sp,sp,56
  811a6c:	f800283a 	ret
  811a70:	2404b03a 	or	r2,r4,r16
  811a74:	2027883a 	mov	r19,r4
  811a78:	10003926 	beq	r2,zero,811b60 <__divdf3+0x2c0>
  811a7c:	80012e26 	beq	r16,zero,811f38 <__divdf3+0x698>
  811a80:	8009883a 	mov	r4,r16
  811a84:	d9800315 	stw	r6,12(sp)
  811a88:	d9c00215 	stw	r7,8(sp)
  811a8c:	0806aa40 	call	806aa4 <__clzsi2>
  811a90:	d9800317 	ldw	r6,12(sp)
  811a94:	d9c00217 	ldw	r7,8(sp)
  811a98:	113ffd44 	addi	r4,r2,-11
  811a9c:	00c00704 	movi	r3,28
  811aa0:	19012116 	blt	r3,r4,811f28 <__divdf3+0x688>
  811aa4:	00c00744 	movi	r3,29
  811aa8:	147ffe04 	addi	r17,r2,-8
  811aac:	1907c83a 	sub	r3,r3,r4
  811ab0:	8460983a 	sll	r16,r16,r17
  811ab4:	98c6d83a 	srl	r3,r19,r3
  811ab8:	9c64983a 	sll	r18,r19,r17
  811abc:	1c20b03a 	or	r16,r3,r16
  811ac0:	1080fcc4 	addi	r2,r2,1011
  811ac4:	00abc83a 	sub	r21,zero,r2
  811ac8:	0027883a 	mov	r19,zero
  811acc:	0013883a 	mov	r9,zero
  811ad0:	003f9106 	br	811918 <__alt_mem_onchip_mem+0xff809918>
  811ad4:	3446b03a 	or	r3,r6,r17
  811ad8:	18001f1e 	bne	r3,zero,811b58 <__divdf3+0x2b8>
  811adc:	0023883a 	mov	r17,zero
  811ae0:	0011883a 	mov	r8,zero
  811ae4:	01c00084 	movi	r7,2
  811ae8:	003f9d06 	br	811960 <__alt_mem_onchip_mem+0xff809960>
  811aec:	3446b03a 	or	r3,r6,r17
  811af0:	18001526 	beq	r3,zero,811b48 <__divdf3+0x2a8>
  811af4:	88011b26 	beq	r17,zero,811f64 <__divdf3+0x6c4>
  811af8:	8809883a 	mov	r4,r17
  811afc:	d9800315 	stw	r6,12(sp)
  811b00:	da400115 	stw	r9,4(sp)
  811b04:	0806aa40 	call	806aa4 <__clzsi2>
  811b08:	d9800317 	ldw	r6,12(sp)
  811b0c:	da400117 	ldw	r9,4(sp)
  811b10:	113ffd44 	addi	r4,r2,-11
  811b14:	00c00704 	movi	r3,28
  811b18:	19010e16 	blt	r3,r4,811f54 <__divdf3+0x6b4>
  811b1c:	00c00744 	movi	r3,29
  811b20:	123ffe04 	addi	r8,r2,-8
  811b24:	1907c83a 	sub	r3,r3,r4
  811b28:	8a22983a 	sll	r17,r17,r8
  811b2c:	30c6d83a 	srl	r3,r6,r3
  811b30:	3210983a 	sll	r8,r6,r8
  811b34:	1c62b03a 	or	r17,r3,r17
  811b38:	1080fcc4 	addi	r2,r2,1011
  811b3c:	0085c83a 	sub	r2,zero,r2
  811b40:	000f883a 	mov	r7,zero
  811b44:	003f8606 	br	811960 <__alt_mem_onchip_mem+0xff809960>
  811b48:	0023883a 	mov	r17,zero
  811b4c:	0011883a 	mov	r8,zero
  811b50:	01c00044 	movi	r7,1
  811b54:	003f8206 	br	811960 <__alt_mem_onchip_mem+0xff809960>
  811b58:	01c000c4 	movi	r7,3
  811b5c:	003f8006 	br	811960 <__alt_mem_onchip_mem+0xff809960>
  811b60:	04c00104 	movi	r19,4
  811b64:	0021883a 	mov	r16,zero
  811b68:	0025883a 	mov	r18,zero
  811b6c:	02400044 	movi	r9,1
  811b70:	003f6906 	br	811918 <__alt_mem_onchip_mem+0xff809918>
  811b74:	04c00304 	movi	r19,12
  811b78:	024000c4 	movi	r9,3
  811b7c:	003f6606 	br	811918 <__alt_mem_onchip_mem+0xff809918>
  811b80:	01400434 	movhi	r5,16
  811b84:	0007883a 	mov	r3,zero
  811b88:	297fffc4 	addi	r5,r5,-1
  811b8c:	04bfffc4 	movi	r18,-1
  811b90:	0081ffc4 	movi	r2,2047
  811b94:	003fa106 	br	811a1c <__alt_mem_onchip_mem+0xff809a1c>
  811b98:	00c00044 	movi	r3,1
  811b9c:	1887c83a 	sub	r3,r3,r2
  811ba0:	01000e04 	movi	r4,56
  811ba4:	20c1210e 	bge	r4,r3,81202c <__divdf3+0x78c>
  811ba8:	98c0004c 	andi	r3,r19,1
  811bac:	0005883a 	mov	r2,zero
  811bb0:	000b883a 	mov	r5,zero
  811bb4:	0025883a 	mov	r18,zero
  811bb8:	003f9806 	br	811a1c <__alt_mem_onchip_mem+0xff809a1c>
  811bbc:	8c00fd36 	bltu	r17,r16,811fb4 <__divdf3+0x714>
  811bc0:	8440fb26 	beq	r16,r17,811fb0 <__divdf3+0x710>
  811bc4:	8007883a 	mov	r3,r16
  811bc8:	ad7fffc4 	addi	r21,r21,-1
  811bcc:	0021883a 	mov	r16,zero
  811bd0:	4004d63a 	srli	r2,r8,24
  811bd4:	8822923a 	slli	r17,r17,8
  811bd8:	1809883a 	mov	r4,r3
  811bdc:	402c923a 	slli	r22,r8,8
  811be0:	88b8b03a 	or	fp,r17,r2
  811be4:	e028d43a 	srli	r20,fp,16
  811be8:	d8c00015 	stw	r3,0(sp)
  811bec:	e5ffffcc 	andi	r23,fp,65535
  811bf0:	a00b883a 	mov	r5,r20
  811bf4:	08117e40 	call	8117e4 <__udivsi3>
  811bf8:	d8c00017 	ldw	r3,0(sp)
  811bfc:	a00b883a 	mov	r5,r20
  811c00:	d8800315 	stw	r2,12(sp)
  811c04:	1809883a 	mov	r4,r3
  811c08:	08118480 	call	811848 <__umodsi3>
  811c0c:	d9800317 	ldw	r6,12(sp)
  811c10:	1006943a 	slli	r3,r2,16
  811c14:	9004d43a 	srli	r2,r18,16
  811c18:	b9a3383a 	mul	r17,r23,r6
  811c1c:	10c4b03a 	or	r2,r2,r3
  811c20:	1440062e 	bgeu	r2,r17,811c3c <__divdf3+0x39c>
  811c24:	1705883a 	add	r2,r2,fp
  811c28:	30ffffc4 	addi	r3,r6,-1
  811c2c:	1700ee36 	bltu	r2,fp,811fe8 <__divdf3+0x748>
  811c30:	1440ed2e 	bgeu	r2,r17,811fe8 <__divdf3+0x748>
  811c34:	31bfff84 	addi	r6,r6,-2
  811c38:	1705883a 	add	r2,r2,fp
  811c3c:	1463c83a 	sub	r17,r2,r17
  811c40:	a00b883a 	mov	r5,r20
  811c44:	8809883a 	mov	r4,r17
  811c48:	d9800315 	stw	r6,12(sp)
  811c4c:	08117e40 	call	8117e4 <__udivsi3>
  811c50:	a00b883a 	mov	r5,r20
  811c54:	8809883a 	mov	r4,r17
  811c58:	d8800215 	stw	r2,8(sp)
  811c5c:	08118480 	call	811848 <__umodsi3>
  811c60:	d9c00217 	ldw	r7,8(sp)
  811c64:	1004943a 	slli	r2,r2,16
  811c68:	94bfffcc 	andi	r18,r18,65535
  811c6c:	b9d1383a 	mul	r8,r23,r7
  811c70:	90a4b03a 	or	r18,r18,r2
  811c74:	d9800317 	ldw	r6,12(sp)
  811c78:	9200062e 	bgeu	r18,r8,811c94 <__divdf3+0x3f4>
  811c7c:	9725883a 	add	r18,r18,fp
  811c80:	38bfffc4 	addi	r2,r7,-1
  811c84:	9700d636 	bltu	r18,fp,811fe0 <__divdf3+0x740>
  811c88:	9200d52e 	bgeu	r18,r8,811fe0 <__divdf3+0x740>
  811c8c:	39ffff84 	addi	r7,r7,-2
  811c90:	9725883a 	add	r18,r18,fp
  811c94:	3004943a 	slli	r2,r6,16
  811c98:	b012d43a 	srli	r9,r22,16
  811c9c:	b1bfffcc 	andi	r6,r22,65535
  811ca0:	11e2b03a 	or	r17,r2,r7
  811ca4:	8806d43a 	srli	r3,r17,16
  811ca8:	893fffcc 	andi	r4,r17,65535
  811cac:	218b383a 	mul	r5,r4,r6
  811cb0:	30c5383a 	mul	r2,r6,r3
  811cb4:	2249383a 	mul	r4,r4,r9
  811cb8:	280ed43a 	srli	r7,r5,16
  811cbc:	9225c83a 	sub	r18,r18,r8
  811cc0:	2089883a 	add	r4,r4,r2
  811cc4:	3909883a 	add	r4,r7,r4
  811cc8:	1a47383a 	mul	r3,r3,r9
  811ccc:	2080022e 	bgeu	r4,r2,811cd8 <__divdf3+0x438>
  811cd0:	00800074 	movhi	r2,1
  811cd4:	1887883a 	add	r3,r3,r2
  811cd8:	2004d43a 	srli	r2,r4,16
  811cdc:	2008943a 	slli	r4,r4,16
  811ce0:	297fffcc 	andi	r5,r5,65535
  811ce4:	10c7883a 	add	r3,r2,r3
  811ce8:	2149883a 	add	r4,r4,r5
  811cec:	90c0a536 	bltu	r18,r3,811f84 <__divdf3+0x6e4>
  811cf0:	90c0bf26 	beq	r18,r3,811ff0 <__divdf3+0x750>
  811cf4:	90c7c83a 	sub	r3,r18,r3
  811cf8:	810fc83a 	sub	r7,r16,r4
  811cfc:	81e5803a 	cmpltu	r18,r16,r7
  811d00:	1ca5c83a 	sub	r18,r3,r18
  811d04:	e480c126 	beq	fp,r18,81200c <__divdf3+0x76c>
  811d08:	a00b883a 	mov	r5,r20
  811d0c:	9009883a 	mov	r4,r18
  811d10:	d9800315 	stw	r6,12(sp)
  811d14:	d9c00215 	stw	r7,8(sp)
  811d18:	da400115 	stw	r9,4(sp)
  811d1c:	08117e40 	call	8117e4 <__udivsi3>
  811d20:	a00b883a 	mov	r5,r20
  811d24:	9009883a 	mov	r4,r18
  811d28:	d8800015 	stw	r2,0(sp)
  811d2c:	08118480 	call	811848 <__umodsi3>
  811d30:	d9c00217 	ldw	r7,8(sp)
  811d34:	da000017 	ldw	r8,0(sp)
  811d38:	1006943a 	slli	r3,r2,16
  811d3c:	3804d43a 	srli	r2,r7,16
  811d40:	ba21383a 	mul	r16,r23,r8
  811d44:	d9800317 	ldw	r6,12(sp)
  811d48:	10c4b03a 	or	r2,r2,r3
  811d4c:	da400117 	ldw	r9,4(sp)
  811d50:	1400062e 	bgeu	r2,r16,811d6c <__divdf3+0x4cc>
  811d54:	1705883a 	add	r2,r2,fp
  811d58:	40ffffc4 	addi	r3,r8,-1
  811d5c:	1700ad36 	bltu	r2,fp,812014 <__divdf3+0x774>
  811d60:	1400ac2e 	bgeu	r2,r16,812014 <__divdf3+0x774>
  811d64:	423fff84 	addi	r8,r8,-2
  811d68:	1705883a 	add	r2,r2,fp
  811d6c:	1421c83a 	sub	r16,r2,r16
  811d70:	a00b883a 	mov	r5,r20
  811d74:	8009883a 	mov	r4,r16
  811d78:	d9800315 	stw	r6,12(sp)
  811d7c:	d9c00215 	stw	r7,8(sp)
  811d80:	da000015 	stw	r8,0(sp)
  811d84:	da400115 	stw	r9,4(sp)
  811d88:	08117e40 	call	8117e4 <__udivsi3>
  811d8c:	8009883a 	mov	r4,r16
  811d90:	a00b883a 	mov	r5,r20
  811d94:	1025883a 	mov	r18,r2
  811d98:	08118480 	call	811848 <__umodsi3>
  811d9c:	d9c00217 	ldw	r7,8(sp)
  811da0:	1004943a 	slli	r2,r2,16
  811da4:	bcaf383a 	mul	r23,r23,r18
  811da8:	393fffcc 	andi	r4,r7,65535
  811dac:	2088b03a 	or	r4,r4,r2
  811db0:	d9800317 	ldw	r6,12(sp)
  811db4:	da000017 	ldw	r8,0(sp)
  811db8:	da400117 	ldw	r9,4(sp)
  811dbc:	25c0062e 	bgeu	r4,r23,811dd8 <__divdf3+0x538>
  811dc0:	2709883a 	add	r4,r4,fp
  811dc4:	90bfffc4 	addi	r2,r18,-1
  811dc8:	27009436 	bltu	r4,fp,81201c <__divdf3+0x77c>
  811dcc:	25c0932e 	bgeu	r4,r23,81201c <__divdf3+0x77c>
  811dd0:	94bfff84 	addi	r18,r18,-2
  811dd4:	2709883a 	add	r4,r4,fp
  811dd8:	4004943a 	slli	r2,r8,16
  811ddc:	25efc83a 	sub	r23,r4,r23
  811de0:	1490b03a 	or	r8,r2,r18
  811de4:	4008d43a 	srli	r4,r8,16
  811de8:	40ffffcc 	andi	r3,r8,65535
  811dec:	30c5383a 	mul	r2,r6,r3
  811df0:	1a47383a 	mul	r3,r3,r9
  811df4:	310d383a 	mul	r6,r6,r4
  811df8:	100ad43a 	srli	r5,r2,16
  811dfc:	4913383a 	mul	r9,r9,r4
  811e00:	1987883a 	add	r3,r3,r6
  811e04:	28c7883a 	add	r3,r5,r3
  811e08:	1980022e 	bgeu	r3,r6,811e14 <__divdf3+0x574>
  811e0c:	01000074 	movhi	r4,1
  811e10:	4913883a 	add	r9,r9,r4
  811e14:	1808d43a 	srli	r4,r3,16
  811e18:	1806943a 	slli	r3,r3,16
  811e1c:	10bfffcc 	andi	r2,r2,65535
  811e20:	2253883a 	add	r9,r4,r9
  811e24:	1887883a 	add	r3,r3,r2
  811e28:	ba403836 	bltu	r23,r9,811f0c <__divdf3+0x66c>
  811e2c:	ba403626 	beq	r23,r9,811f08 <__divdf3+0x668>
  811e30:	42000054 	ori	r8,r8,1
  811e34:	a880ffc4 	addi	r2,r21,1023
  811e38:	00bf570e 	bge	zero,r2,811b98 <__alt_mem_onchip_mem+0xff809b98>
  811e3c:	40c001cc 	andi	r3,r8,7
  811e40:	18000726 	beq	r3,zero,811e60 <__divdf3+0x5c0>
  811e44:	40c003cc 	andi	r3,r8,15
  811e48:	01000104 	movi	r4,4
  811e4c:	19000426 	beq	r3,r4,811e60 <__divdf3+0x5c0>
  811e50:	4107883a 	add	r3,r8,r4
  811e54:	1a11803a 	cmpltu	r8,r3,r8
  811e58:	8a23883a 	add	r17,r17,r8
  811e5c:	1811883a 	mov	r8,r3
  811e60:	88c0402c 	andhi	r3,r17,256
  811e64:	18000426 	beq	r3,zero,811e78 <__divdf3+0x5d8>
  811e68:	00ffc034 	movhi	r3,65280
  811e6c:	18ffffc4 	addi	r3,r3,-1
  811e70:	a8810004 	addi	r2,r21,1024
  811e74:	88e2703a 	and	r17,r17,r3
  811e78:	00c1ff84 	movi	r3,2046
  811e7c:	18bee316 	blt	r3,r2,811a0c <__alt_mem_onchip_mem+0xff809a0c>
  811e80:	8824977a 	slli	r18,r17,29
  811e84:	4010d0fa 	srli	r8,r8,3
  811e88:	8822927a 	slli	r17,r17,9
  811e8c:	1081ffcc 	andi	r2,r2,2047
  811e90:	9224b03a 	or	r18,r18,r8
  811e94:	880ad33a 	srli	r5,r17,12
  811e98:	98c0004c 	andi	r3,r19,1
  811e9c:	003edf06 	br	811a1c <__alt_mem_onchip_mem+0xff809a1c>
  811ea0:	8080022c 	andhi	r2,r16,8
  811ea4:	10001226 	beq	r2,zero,811ef0 <__divdf3+0x650>
  811ea8:	8880022c 	andhi	r2,r17,8
  811eac:	1000101e 	bne	r2,zero,811ef0 <__divdf3+0x650>
  811eb0:	00800434 	movhi	r2,16
  811eb4:	89400234 	orhi	r5,r17,8
  811eb8:	10bfffc4 	addi	r2,r2,-1
  811ebc:	b007883a 	mov	r3,r22
  811ec0:	288a703a 	and	r5,r5,r2
  811ec4:	4025883a 	mov	r18,r8
  811ec8:	003f3106 	br	811b90 <__alt_mem_onchip_mem+0xff809b90>
  811ecc:	008000c4 	movi	r2,3
  811ed0:	3880a626 	beq	r7,r2,81216c <__divdf3+0x8cc>
  811ed4:	00800044 	movi	r2,1
  811ed8:	3880521e 	bne	r7,r2,812024 <__divdf3+0x784>
  811edc:	b807883a 	mov	r3,r23
  811ee0:	0005883a 	mov	r2,zero
  811ee4:	000b883a 	mov	r5,zero
  811ee8:	0025883a 	mov	r18,zero
  811eec:	003ecb06 	br	811a1c <__alt_mem_onchip_mem+0xff809a1c>
  811ef0:	00800434 	movhi	r2,16
  811ef4:	81400234 	orhi	r5,r16,8
  811ef8:	10bfffc4 	addi	r2,r2,-1
  811efc:	a007883a 	mov	r3,r20
  811f00:	288a703a 	and	r5,r5,r2
  811f04:	003f2206 	br	811b90 <__alt_mem_onchip_mem+0xff809b90>
  811f08:	183fca26 	beq	r3,zero,811e34 <__alt_mem_onchip_mem+0xff809e34>
  811f0c:	e5ef883a 	add	r23,fp,r23
  811f10:	40bfffc4 	addi	r2,r8,-1
  811f14:	bf00392e 	bgeu	r23,fp,811ffc <__divdf3+0x75c>
  811f18:	1011883a 	mov	r8,r2
  811f1c:	ba7fc41e 	bne	r23,r9,811e30 <__alt_mem_onchip_mem+0xff809e30>
  811f20:	b0ffc31e 	bne	r22,r3,811e30 <__alt_mem_onchip_mem+0xff809e30>
  811f24:	003fc306 	br	811e34 <__alt_mem_onchip_mem+0xff809e34>
  811f28:	143ff604 	addi	r16,r2,-40
  811f2c:	9c20983a 	sll	r16,r19,r16
  811f30:	0025883a 	mov	r18,zero
  811f34:	003ee206 	br	811ac0 <__alt_mem_onchip_mem+0xff809ac0>
  811f38:	d9800315 	stw	r6,12(sp)
  811f3c:	d9c00215 	stw	r7,8(sp)
  811f40:	0806aa40 	call	806aa4 <__clzsi2>
  811f44:	10800804 	addi	r2,r2,32
  811f48:	d9c00217 	ldw	r7,8(sp)
  811f4c:	d9800317 	ldw	r6,12(sp)
  811f50:	003ed106 	br	811a98 <__alt_mem_onchip_mem+0xff809a98>
  811f54:	147ff604 	addi	r17,r2,-40
  811f58:	3462983a 	sll	r17,r6,r17
  811f5c:	0011883a 	mov	r8,zero
  811f60:	003ef506 	br	811b38 <__alt_mem_onchip_mem+0xff809b38>
  811f64:	3009883a 	mov	r4,r6
  811f68:	d9800315 	stw	r6,12(sp)
  811f6c:	da400115 	stw	r9,4(sp)
  811f70:	0806aa40 	call	806aa4 <__clzsi2>
  811f74:	10800804 	addi	r2,r2,32
  811f78:	da400117 	ldw	r9,4(sp)
  811f7c:	d9800317 	ldw	r6,12(sp)
  811f80:	003ee306 	br	811b10 <__alt_mem_onchip_mem+0xff809b10>
  811f84:	85a1883a 	add	r16,r16,r22
  811f88:	8585803a 	cmpltu	r2,r16,r22
  811f8c:	1705883a 	add	r2,r2,fp
  811f90:	14a5883a 	add	r18,r2,r18
  811f94:	88bfffc4 	addi	r2,r17,-1
  811f98:	e4800c2e 	bgeu	fp,r18,811fcc <__divdf3+0x72c>
  811f9c:	90c03e36 	bltu	r18,r3,812098 <__divdf3+0x7f8>
  811fa0:	1c806926 	beq	r3,r18,812148 <__divdf3+0x8a8>
  811fa4:	90c7c83a 	sub	r3,r18,r3
  811fa8:	1023883a 	mov	r17,r2
  811fac:	003f5206 	br	811cf8 <__alt_mem_onchip_mem+0xff809cf8>
  811fb0:	923f0436 	bltu	r18,r8,811bc4 <__alt_mem_onchip_mem+0xff809bc4>
  811fb4:	800897fa 	slli	r4,r16,31
  811fb8:	9004d07a 	srli	r2,r18,1
  811fbc:	8006d07a 	srli	r3,r16,1
  811fc0:	902097fa 	slli	r16,r18,31
  811fc4:	20a4b03a 	or	r18,r4,r2
  811fc8:	003f0106 	br	811bd0 <__alt_mem_onchip_mem+0xff809bd0>
  811fcc:	e4bff51e 	bne	fp,r18,811fa4 <__alt_mem_onchip_mem+0xff809fa4>
  811fd0:	85bff22e 	bgeu	r16,r22,811f9c <__alt_mem_onchip_mem+0xff809f9c>
  811fd4:	e0c7c83a 	sub	r3,fp,r3
  811fd8:	1023883a 	mov	r17,r2
  811fdc:	003f4606 	br	811cf8 <__alt_mem_onchip_mem+0xff809cf8>
  811fe0:	100f883a 	mov	r7,r2
  811fe4:	003f2b06 	br	811c94 <__alt_mem_onchip_mem+0xff809c94>
  811fe8:	180d883a 	mov	r6,r3
  811fec:	003f1306 	br	811c3c <__alt_mem_onchip_mem+0xff809c3c>
  811ff0:	813fe436 	bltu	r16,r4,811f84 <__alt_mem_onchip_mem+0xff809f84>
  811ff4:	0007883a 	mov	r3,zero
  811ff8:	003f3f06 	br	811cf8 <__alt_mem_onchip_mem+0xff809cf8>
  811ffc:	ba402c36 	bltu	r23,r9,8120b0 <__divdf3+0x810>
  812000:	4dc05426 	beq	r9,r23,812154 <__divdf3+0x8b4>
  812004:	1011883a 	mov	r8,r2
  812008:	003f8906 	br	811e30 <__alt_mem_onchip_mem+0xff809e30>
  81200c:	023fffc4 	movi	r8,-1
  812010:	003f8806 	br	811e34 <__alt_mem_onchip_mem+0xff809e34>
  812014:	1811883a 	mov	r8,r3
  812018:	003f5406 	br	811d6c <__alt_mem_onchip_mem+0xff809d6c>
  81201c:	1025883a 	mov	r18,r2
  812020:	003f6d06 	br	811dd8 <__alt_mem_onchip_mem+0xff809dd8>
  812024:	b827883a 	mov	r19,r23
  812028:	003f8206 	br	811e34 <__alt_mem_onchip_mem+0xff809e34>
  81202c:	010007c4 	movi	r4,31
  812030:	20c02616 	blt	r4,r3,8120cc <__divdf3+0x82c>
  812034:	00800804 	movi	r2,32
  812038:	10c5c83a 	sub	r2,r2,r3
  81203c:	888a983a 	sll	r5,r17,r2
  812040:	40c8d83a 	srl	r4,r8,r3
  812044:	4084983a 	sll	r2,r8,r2
  812048:	88e2d83a 	srl	r17,r17,r3
  81204c:	2906b03a 	or	r3,r5,r4
  812050:	1004c03a 	cmpne	r2,r2,zero
  812054:	1886b03a 	or	r3,r3,r2
  812058:	188001cc 	andi	r2,r3,7
  81205c:	10000726 	beq	r2,zero,81207c <__divdf3+0x7dc>
  812060:	188003cc 	andi	r2,r3,15
  812064:	01000104 	movi	r4,4
  812068:	11000426 	beq	r2,r4,81207c <__divdf3+0x7dc>
  81206c:	1805883a 	mov	r2,r3
  812070:	10c00104 	addi	r3,r2,4
  812074:	1885803a 	cmpltu	r2,r3,r2
  812078:	88a3883a 	add	r17,r17,r2
  81207c:	8880202c 	andhi	r2,r17,128
  812080:	10002726 	beq	r2,zero,812120 <__divdf3+0x880>
  812084:	98c0004c 	andi	r3,r19,1
  812088:	00800044 	movi	r2,1
  81208c:	000b883a 	mov	r5,zero
  812090:	0025883a 	mov	r18,zero
  812094:	003e6106 	br	811a1c <__alt_mem_onchip_mem+0xff809a1c>
  812098:	85a1883a 	add	r16,r16,r22
  81209c:	8585803a 	cmpltu	r2,r16,r22
  8120a0:	1705883a 	add	r2,r2,fp
  8120a4:	14a5883a 	add	r18,r2,r18
  8120a8:	8c7fff84 	addi	r17,r17,-2
  8120ac:	003f1106 	br	811cf4 <__alt_mem_onchip_mem+0xff809cf4>
  8120b0:	b589883a 	add	r4,r22,r22
  8120b4:	25ad803a 	cmpltu	r22,r4,r22
  8120b8:	b739883a 	add	fp,r22,fp
  8120bc:	40bfff84 	addi	r2,r8,-2
  8120c0:	bf2f883a 	add	r23,r23,fp
  8120c4:	202d883a 	mov	r22,r4
  8120c8:	003f9306 	br	811f18 <__alt_mem_onchip_mem+0xff809f18>
  8120cc:	013ff844 	movi	r4,-31
  8120d0:	2085c83a 	sub	r2,r4,r2
  8120d4:	8888d83a 	srl	r4,r17,r2
  8120d8:	00800804 	movi	r2,32
  8120dc:	18802126 	beq	r3,r2,812164 <__divdf3+0x8c4>
  8120e0:	00801004 	movi	r2,64
  8120e4:	10c5c83a 	sub	r2,r2,r3
  8120e8:	8884983a 	sll	r2,r17,r2
  8120ec:	1204b03a 	or	r2,r2,r8
  8120f0:	1004c03a 	cmpne	r2,r2,zero
  8120f4:	2084b03a 	or	r2,r4,r2
  8120f8:	144001cc 	andi	r17,r2,7
  8120fc:	88000d1e 	bne	r17,zero,812134 <__divdf3+0x894>
  812100:	000b883a 	mov	r5,zero
  812104:	1024d0fa 	srli	r18,r2,3
  812108:	98c0004c 	andi	r3,r19,1
  81210c:	0005883a 	mov	r2,zero
  812110:	9464b03a 	or	r18,r18,r17
  812114:	003e4106 	br	811a1c <__alt_mem_onchip_mem+0xff809a1c>
  812118:	1007883a 	mov	r3,r2
  81211c:	0023883a 	mov	r17,zero
  812120:	880a927a 	slli	r5,r17,9
  812124:	1805883a 	mov	r2,r3
  812128:	8822977a 	slli	r17,r17,29
  81212c:	280ad33a 	srli	r5,r5,12
  812130:	003ff406 	br	812104 <__alt_mem_onchip_mem+0xff80a104>
  812134:	10c003cc 	andi	r3,r2,15
  812138:	01000104 	movi	r4,4
  81213c:	193ff626 	beq	r3,r4,812118 <__alt_mem_onchip_mem+0xff80a118>
  812140:	0023883a 	mov	r17,zero
  812144:	003fca06 	br	812070 <__alt_mem_onchip_mem+0xff80a070>
  812148:	813fd336 	bltu	r16,r4,812098 <__alt_mem_onchip_mem+0xff80a098>
  81214c:	1023883a 	mov	r17,r2
  812150:	003fa806 	br	811ff4 <__alt_mem_onchip_mem+0xff809ff4>
  812154:	b0ffd636 	bltu	r22,r3,8120b0 <__alt_mem_onchip_mem+0xff80a0b0>
  812158:	1011883a 	mov	r8,r2
  81215c:	b0ff341e 	bne	r22,r3,811e30 <__alt_mem_onchip_mem+0xff809e30>
  812160:	003f3406 	br	811e34 <__alt_mem_onchip_mem+0xff809e34>
  812164:	0005883a 	mov	r2,zero
  812168:	003fe006 	br	8120ec <__alt_mem_onchip_mem+0xff80a0ec>
  81216c:	00800434 	movhi	r2,16
  812170:	89400234 	orhi	r5,r17,8
  812174:	10bfffc4 	addi	r2,r2,-1
  812178:	b807883a 	mov	r3,r23
  81217c:	288a703a 	and	r5,r5,r2
  812180:	4025883a 	mov	r18,r8
  812184:	003e8206 	br	811b90 <__alt_mem_onchip_mem+0xff809b90>

00812188 <__eqdf2>:
  812188:	2804d53a 	srli	r2,r5,20
  81218c:	3806d53a 	srli	r3,r7,20
  812190:	02000434 	movhi	r8,16
  812194:	423fffc4 	addi	r8,r8,-1
  812198:	1081ffcc 	andi	r2,r2,2047
  81219c:	0281ffc4 	movi	r10,2047
  8121a0:	2a12703a 	and	r9,r5,r8
  8121a4:	18c1ffcc 	andi	r3,r3,2047
  8121a8:	3a10703a 	and	r8,r7,r8
  8121ac:	280ad7fa 	srli	r5,r5,31
  8121b0:	380ed7fa 	srli	r7,r7,31
  8121b4:	12801026 	beq	r2,r10,8121f8 <__eqdf2+0x70>
  8121b8:	0281ffc4 	movi	r10,2047
  8121bc:	1a800a26 	beq	r3,r10,8121e8 <__eqdf2+0x60>
  8121c0:	10c00226 	beq	r2,r3,8121cc <__eqdf2+0x44>
  8121c4:	00800044 	movi	r2,1
  8121c8:	f800283a 	ret
  8121cc:	4a3ffd1e 	bne	r9,r8,8121c4 <__alt_mem_onchip_mem+0xff80a1c4>
  8121d0:	21bffc1e 	bne	r4,r6,8121c4 <__alt_mem_onchip_mem+0xff80a1c4>
  8121d4:	29c00c26 	beq	r5,r7,812208 <__eqdf2+0x80>
  8121d8:	103ffa1e 	bne	r2,zero,8121c4 <__alt_mem_onchip_mem+0xff80a1c4>
  8121dc:	2244b03a 	or	r2,r4,r9
  8121e0:	1004c03a 	cmpne	r2,r2,zero
  8121e4:	f800283a 	ret
  8121e8:	3214b03a 	or	r10,r6,r8
  8121ec:	503ff426 	beq	r10,zero,8121c0 <__alt_mem_onchip_mem+0xff80a1c0>
  8121f0:	00800044 	movi	r2,1
  8121f4:	f800283a 	ret
  8121f8:	2254b03a 	or	r10,r4,r9
  8121fc:	503fee26 	beq	r10,zero,8121b8 <__alt_mem_onchip_mem+0xff80a1b8>
  812200:	00800044 	movi	r2,1
  812204:	f800283a 	ret
  812208:	0005883a 	mov	r2,zero
  81220c:	f800283a 	ret

00812210 <__muldf3>:
  812210:	defff304 	addi	sp,sp,-52
  812214:	2804d53a 	srli	r2,r5,20
  812218:	dd800915 	stw	r22,36(sp)
  81221c:	282cd7fa 	srli	r22,r5,31
  812220:	dc000315 	stw	r16,12(sp)
  812224:	04000434 	movhi	r16,16
  812228:	dd400815 	stw	r21,32(sp)
  81222c:	dc800515 	stw	r18,20(sp)
  812230:	843fffc4 	addi	r16,r16,-1
  812234:	dfc00c15 	stw	ra,48(sp)
  812238:	df000b15 	stw	fp,44(sp)
  81223c:	ddc00a15 	stw	r23,40(sp)
  812240:	dd000715 	stw	r20,28(sp)
  812244:	dcc00615 	stw	r19,24(sp)
  812248:	dc400415 	stw	r17,16(sp)
  81224c:	1481ffcc 	andi	r18,r2,2047
  812250:	2c20703a 	and	r16,r5,r16
  812254:	b02b883a 	mov	r21,r22
  812258:	b2403fcc 	andi	r9,r22,255
  81225c:	90006026 	beq	r18,zero,8123e0 <__muldf3+0x1d0>
  812260:	0081ffc4 	movi	r2,2047
  812264:	2029883a 	mov	r20,r4
  812268:	90803626 	beq	r18,r2,812344 <__muldf3+0x134>
  81226c:	80800434 	orhi	r2,r16,16
  812270:	100490fa 	slli	r2,r2,3
  812274:	2020d77a 	srli	r16,r4,29
  812278:	202890fa 	slli	r20,r4,3
  81227c:	94bf0044 	addi	r18,r18,-1023
  812280:	80a0b03a 	or	r16,r16,r2
  812284:	0027883a 	mov	r19,zero
  812288:	0039883a 	mov	fp,zero
  81228c:	3804d53a 	srli	r2,r7,20
  812290:	382ed7fa 	srli	r23,r7,31
  812294:	04400434 	movhi	r17,16
  812298:	8c7fffc4 	addi	r17,r17,-1
  81229c:	1081ffcc 	andi	r2,r2,2047
  8122a0:	3011883a 	mov	r8,r6
  8122a4:	3c62703a 	and	r17,r7,r17
  8122a8:	ba803fcc 	andi	r10,r23,255
  8122ac:	10006d26 	beq	r2,zero,812464 <__muldf3+0x254>
  8122b0:	00c1ffc4 	movi	r3,2047
  8122b4:	10c06526 	beq	r2,r3,81244c <__muldf3+0x23c>
  8122b8:	88c00434 	orhi	r3,r17,16
  8122bc:	180690fa 	slli	r3,r3,3
  8122c0:	3022d77a 	srli	r17,r6,29
  8122c4:	301090fa 	slli	r8,r6,3
  8122c8:	10bf0044 	addi	r2,r2,-1023
  8122cc:	88e2b03a 	or	r17,r17,r3
  8122d0:	000b883a 	mov	r5,zero
  8122d4:	9085883a 	add	r2,r18,r2
  8122d8:	2cc8b03a 	or	r4,r5,r19
  8122dc:	00c003c4 	movi	r3,15
  8122e0:	bdacf03a 	xor	r22,r23,r22
  8122e4:	12c00044 	addi	r11,r2,1
  8122e8:	19009936 	bltu	r3,r4,812550 <__muldf3+0x340>
  8122ec:	200890ba 	slli	r4,r4,2
  8122f0:	00c02074 	movhi	r3,129
  8122f4:	18c8c104 	addi	r3,r3,8964
  8122f8:	20c9883a 	add	r4,r4,r3
  8122fc:	20c00017 	ldw	r3,0(r4)
  812300:	1800683a 	jmp	r3
  812304:	00812550 	cmplti	r2,zero,1173
  812308:	00812364 	muli	r2,zero,1165
  81230c:	00812364 	muli	r2,zero,1165
  812310:	00812360 	cmpeqi	r2,zero,1165
  812314:	0081252c 	andhi	r2,zero,1172
  812318:	0081252c 	andhi	r2,zero,1172
  81231c:	00812514 	movui	r2,1172
  812320:	00812360 	cmpeqi	r2,zero,1165
  812324:	0081252c 	andhi	r2,zero,1172
  812328:	00812514 	movui	r2,1172
  81232c:	0081252c 	andhi	r2,zero,1172
  812330:	00812360 	cmpeqi	r2,zero,1165
  812334:	0081253c 	xorhi	r2,zero,1172
  812338:	0081253c 	xorhi	r2,zero,1172
  81233c:	0081253c 	xorhi	r2,zero,1172
  812340:	00812758 	cmpnei	r2,zero,1181
  812344:	2404b03a 	or	r2,r4,r16
  812348:	10006f1e 	bne	r2,zero,812508 <__muldf3+0x2f8>
  81234c:	04c00204 	movi	r19,8
  812350:	0021883a 	mov	r16,zero
  812354:	0029883a 	mov	r20,zero
  812358:	07000084 	movi	fp,2
  81235c:	003fcb06 	br	81228c <__alt_mem_onchip_mem+0xff80a28c>
  812360:	502d883a 	mov	r22,r10
  812364:	00800084 	movi	r2,2
  812368:	28805726 	beq	r5,r2,8124c8 <__muldf3+0x2b8>
  81236c:	008000c4 	movi	r2,3
  812370:	28816626 	beq	r5,r2,81290c <__muldf3+0x6fc>
  812374:	00800044 	movi	r2,1
  812378:	2881411e 	bne	r5,r2,812880 <__muldf3+0x670>
  81237c:	b02b883a 	mov	r21,r22
  812380:	0005883a 	mov	r2,zero
  812384:	000b883a 	mov	r5,zero
  812388:	0029883a 	mov	r20,zero
  81238c:	1004953a 	slli	r2,r2,20
  812390:	a8c03fcc 	andi	r3,r21,255
  812394:	04400434 	movhi	r17,16
  812398:	8c7fffc4 	addi	r17,r17,-1
  81239c:	180697fa 	slli	r3,r3,31
  8123a0:	2c4a703a 	and	r5,r5,r17
  8123a4:	288ab03a 	or	r5,r5,r2
  8123a8:	28c6b03a 	or	r3,r5,r3
  8123ac:	a005883a 	mov	r2,r20
  8123b0:	dfc00c17 	ldw	ra,48(sp)
  8123b4:	df000b17 	ldw	fp,44(sp)
  8123b8:	ddc00a17 	ldw	r23,40(sp)
  8123bc:	dd800917 	ldw	r22,36(sp)
  8123c0:	dd400817 	ldw	r21,32(sp)
  8123c4:	dd000717 	ldw	r20,28(sp)
  8123c8:	dcc00617 	ldw	r19,24(sp)
  8123cc:	dc800517 	ldw	r18,20(sp)
  8123d0:	dc400417 	ldw	r17,16(sp)
  8123d4:	dc000317 	ldw	r16,12(sp)
  8123d8:	dec00d04 	addi	sp,sp,52
  8123dc:	f800283a 	ret
  8123e0:	2404b03a 	or	r2,r4,r16
  8123e4:	2027883a 	mov	r19,r4
  8123e8:	10004226 	beq	r2,zero,8124f4 <__muldf3+0x2e4>
  8123ec:	8000fc26 	beq	r16,zero,8127e0 <__muldf3+0x5d0>
  8123f0:	8009883a 	mov	r4,r16
  8123f4:	d9800215 	stw	r6,8(sp)
  8123f8:	d9c00015 	stw	r7,0(sp)
  8123fc:	da400115 	stw	r9,4(sp)
  812400:	0806aa40 	call	806aa4 <__clzsi2>
  812404:	d9800217 	ldw	r6,8(sp)
  812408:	d9c00017 	ldw	r7,0(sp)
  81240c:	da400117 	ldw	r9,4(sp)
  812410:	113ffd44 	addi	r4,r2,-11
  812414:	00c00704 	movi	r3,28
  812418:	1900ed16 	blt	r3,r4,8127d0 <__muldf3+0x5c0>
  81241c:	00c00744 	movi	r3,29
  812420:	147ffe04 	addi	r17,r2,-8
  812424:	1907c83a 	sub	r3,r3,r4
  812428:	8460983a 	sll	r16,r16,r17
  81242c:	98c6d83a 	srl	r3,r19,r3
  812430:	9c68983a 	sll	r20,r19,r17
  812434:	1c20b03a 	or	r16,r3,r16
  812438:	1080fcc4 	addi	r2,r2,1011
  81243c:	00a5c83a 	sub	r18,zero,r2
  812440:	0027883a 	mov	r19,zero
  812444:	0039883a 	mov	fp,zero
  812448:	003f9006 	br	81228c <__alt_mem_onchip_mem+0xff80a28c>
  81244c:	3446b03a 	or	r3,r6,r17
  812450:	1800261e 	bne	r3,zero,8124ec <__muldf3+0x2dc>
  812454:	0023883a 	mov	r17,zero
  812458:	0011883a 	mov	r8,zero
  81245c:	01400084 	movi	r5,2
  812460:	003f9c06 	br	8122d4 <__alt_mem_onchip_mem+0xff80a2d4>
  812464:	3446b03a 	or	r3,r6,r17
  812468:	18001c26 	beq	r3,zero,8124dc <__muldf3+0x2cc>
  81246c:	8800ce26 	beq	r17,zero,8127a8 <__muldf3+0x598>
  812470:	8809883a 	mov	r4,r17
  812474:	d9800215 	stw	r6,8(sp)
  812478:	da400115 	stw	r9,4(sp)
  81247c:	da800015 	stw	r10,0(sp)
  812480:	0806aa40 	call	806aa4 <__clzsi2>
  812484:	d9800217 	ldw	r6,8(sp)
  812488:	da400117 	ldw	r9,4(sp)
  81248c:	da800017 	ldw	r10,0(sp)
  812490:	113ffd44 	addi	r4,r2,-11
  812494:	00c00704 	movi	r3,28
  812498:	1900bf16 	blt	r3,r4,812798 <__muldf3+0x588>
  81249c:	00c00744 	movi	r3,29
  8124a0:	123ffe04 	addi	r8,r2,-8
  8124a4:	1907c83a 	sub	r3,r3,r4
  8124a8:	8a22983a 	sll	r17,r17,r8
  8124ac:	30c6d83a 	srl	r3,r6,r3
  8124b0:	3210983a 	sll	r8,r6,r8
  8124b4:	1c62b03a 	or	r17,r3,r17
  8124b8:	1080fcc4 	addi	r2,r2,1011
  8124bc:	0085c83a 	sub	r2,zero,r2
  8124c0:	000b883a 	mov	r5,zero
  8124c4:	003f8306 	br	8122d4 <__alt_mem_onchip_mem+0xff80a2d4>
  8124c8:	b02b883a 	mov	r21,r22
  8124cc:	0081ffc4 	movi	r2,2047
  8124d0:	000b883a 	mov	r5,zero
  8124d4:	0029883a 	mov	r20,zero
  8124d8:	003fac06 	br	81238c <__alt_mem_onchip_mem+0xff80a38c>
  8124dc:	0023883a 	mov	r17,zero
  8124e0:	0011883a 	mov	r8,zero
  8124e4:	01400044 	movi	r5,1
  8124e8:	003f7a06 	br	8122d4 <__alt_mem_onchip_mem+0xff80a2d4>
  8124ec:	014000c4 	movi	r5,3
  8124f0:	003f7806 	br	8122d4 <__alt_mem_onchip_mem+0xff80a2d4>
  8124f4:	04c00104 	movi	r19,4
  8124f8:	0021883a 	mov	r16,zero
  8124fc:	0029883a 	mov	r20,zero
  812500:	07000044 	movi	fp,1
  812504:	003f6106 	br	81228c <__alt_mem_onchip_mem+0xff80a28c>
  812508:	04c00304 	movi	r19,12
  81250c:	070000c4 	movi	fp,3
  812510:	003f5e06 	br	81228c <__alt_mem_onchip_mem+0xff80a28c>
  812514:	01400434 	movhi	r5,16
  812518:	002b883a 	mov	r21,zero
  81251c:	297fffc4 	addi	r5,r5,-1
  812520:	053fffc4 	movi	r20,-1
  812524:	0081ffc4 	movi	r2,2047
  812528:	003f9806 	br	81238c <__alt_mem_onchip_mem+0xff80a38c>
  81252c:	8023883a 	mov	r17,r16
  812530:	a011883a 	mov	r8,r20
  812534:	e00b883a 	mov	r5,fp
  812538:	003f8a06 	br	812364 <__alt_mem_onchip_mem+0xff80a364>
  81253c:	8023883a 	mov	r17,r16
  812540:	a011883a 	mov	r8,r20
  812544:	482d883a 	mov	r22,r9
  812548:	e00b883a 	mov	r5,fp
  81254c:	003f8506 	br	812364 <__alt_mem_onchip_mem+0xff80a364>
  812550:	a00ad43a 	srli	r5,r20,16
  812554:	401ad43a 	srli	r13,r8,16
  812558:	a53fffcc 	andi	r20,r20,65535
  81255c:	423fffcc 	andi	r8,r8,65535
  812560:	4519383a 	mul	r12,r8,r20
  812564:	4147383a 	mul	r3,r8,r5
  812568:	6d09383a 	mul	r4,r13,r20
  81256c:	600cd43a 	srli	r6,r12,16
  812570:	2b5d383a 	mul	r14,r5,r13
  812574:	20c9883a 	add	r4,r4,r3
  812578:	310d883a 	add	r6,r6,r4
  81257c:	30c0022e 	bgeu	r6,r3,812588 <__muldf3+0x378>
  812580:	00c00074 	movhi	r3,1
  812584:	70dd883a 	add	r14,r14,r3
  812588:	8826d43a 	srli	r19,r17,16
  81258c:	8bffffcc 	andi	r15,r17,65535
  812590:	7d23383a 	mul	r17,r15,r20
  812594:	7949383a 	mul	r4,r15,r5
  812598:	9d29383a 	mul	r20,r19,r20
  81259c:	8814d43a 	srli	r10,r17,16
  8125a0:	3012943a 	slli	r9,r6,16
  8125a4:	a129883a 	add	r20,r20,r4
  8125a8:	633fffcc 	andi	r12,r12,65535
  8125ac:	5515883a 	add	r10,r10,r20
  8125b0:	3006d43a 	srli	r3,r6,16
  8125b4:	4b13883a 	add	r9,r9,r12
  8125b8:	2ccb383a 	mul	r5,r5,r19
  8125bc:	5100022e 	bgeu	r10,r4,8125c8 <__muldf3+0x3b8>
  8125c0:	01000074 	movhi	r4,1
  8125c4:	290b883a 	add	r5,r5,r4
  8125c8:	802ad43a 	srli	r21,r16,16
  8125cc:	843fffcc 	andi	r16,r16,65535
  8125d0:	440d383a 	mul	r6,r8,r16
  8125d4:	4565383a 	mul	r18,r8,r21
  8125d8:	8349383a 	mul	r4,r16,r13
  8125dc:	500e943a 	slli	r7,r10,16
  8125e0:	3010d43a 	srli	r8,r6,16
  8125e4:	5028d43a 	srli	r20,r10,16
  8125e8:	2489883a 	add	r4,r4,r18
  8125ec:	8abfffcc 	andi	r10,r17,65535
  8125f0:	3a95883a 	add	r10,r7,r10
  8125f4:	4119883a 	add	r12,r8,r4
  8125f8:	a169883a 	add	r20,r20,r5
  8125fc:	1a87883a 	add	r3,r3,r10
  812600:	6d5b383a 	mul	r13,r13,r21
  812604:	6480022e 	bgeu	r12,r18,812610 <__muldf3+0x400>
  812608:	01000074 	movhi	r4,1
  81260c:	691b883a 	add	r13,r13,r4
  812610:	7c25383a 	mul	r18,r15,r16
  812614:	7d4b383a 	mul	r5,r15,r21
  812618:	84cf383a 	mul	r7,r16,r19
  81261c:	901ed43a 	srli	r15,r18,16
  812620:	6008d43a 	srli	r4,r12,16
  812624:	6010943a 	slli	r8,r12,16
  812628:	394f883a 	add	r7,r7,r5
  81262c:	333fffcc 	andi	r12,r6,65535
  812630:	79df883a 	add	r15,r15,r7
  812634:	235b883a 	add	r13,r4,r13
  812638:	9d63383a 	mul	r17,r19,r21
  81263c:	4309883a 	add	r4,r8,r12
  812640:	7940022e 	bgeu	r15,r5,81264c <__muldf3+0x43c>
  812644:	01400074 	movhi	r5,1
  812648:	8963883a 	add	r17,r17,r5
  81264c:	780a943a 	slli	r5,r15,16
  812650:	91bfffcc 	andi	r6,r18,65535
  812654:	70c7883a 	add	r3,r14,r3
  812658:	298d883a 	add	r6,r5,r6
  81265c:	1a8f803a 	cmpltu	r7,r3,r10
  812660:	350b883a 	add	r5,r6,r20
  812664:	20c7883a 	add	r3,r4,r3
  812668:	3955883a 	add	r10,r7,r5
  81266c:	1909803a 	cmpltu	r4,r3,r4
  812670:	6a91883a 	add	r8,r13,r10
  812674:	780cd43a 	srli	r6,r15,16
  812678:	2219883a 	add	r12,r4,r8
  81267c:	2d0b803a 	cmpltu	r5,r5,r20
  812680:	51cf803a 	cmpltu	r7,r10,r7
  812684:	29ceb03a 	or	r7,r5,r7
  812688:	4351803a 	cmpltu	r8,r8,r13
  81268c:	610b803a 	cmpltu	r5,r12,r4
  812690:	4148b03a 	or	r4,r8,r5
  812694:	398f883a 	add	r7,r7,r6
  812698:	3909883a 	add	r4,r7,r4
  81269c:	1810927a 	slli	r8,r3,9
  8126a0:	2449883a 	add	r4,r4,r17
  8126a4:	2008927a 	slli	r4,r4,9
  8126a8:	6022d5fa 	srli	r17,r12,23
  8126ac:	1806d5fa 	srli	r3,r3,23
  8126b0:	4252b03a 	or	r9,r8,r9
  8126b4:	600a927a 	slli	r5,r12,9
  8126b8:	4810c03a 	cmpne	r8,r9,zero
  8126bc:	2462b03a 	or	r17,r4,r17
  8126c0:	40c6b03a 	or	r3,r8,r3
  8126c4:	8900402c 	andhi	r4,r17,256
  8126c8:	1950b03a 	or	r8,r3,r5
  8126cc:	20000726 	beq	r4,zero,8126ec <__muldf3+0x4dc>
  8126d0:	4006d07a 	srli	r3,r8,1
  8126d4:	880497fa 	slli	r2,r17,31
  8126d8:	4200004c 	andi	r8,r8,1
  8126dc:	8822d07a 	srli	r17,r17,1
  8126e0:	1a10b03a 	or	r8,r3,r8
  8126e4:	1210b03a 	or	r8,r2,r8
  8126e8:	5805883a 	mov	r2,r11
  8126ec:	1140ffc4 	addi	r5,r2,1023
  8126f0:	0140440e 	bge	zero,r5,812804 <__muldf3+0x5f4>
  8126f4:	40c001cc 	andi	r3,r8,7
  8126f8:	18000726 	beq	r3,zero,812718 <__muldf3+0x508>
  8126fc:	40c003cc 	andi	r3,r8,15
  812700:	01000104 	movi	r4,4
  812704:	19000426 	beq	r3,r4,812718 <__muldf3+0x508>
  812708:	4107883a 	add	r3,r8,r4
  81270c:	1a11803a 	cmpltu	r8,r3,r8
  812710:	8a23883a 	add	r17,r17,r8
  812714:	1811883a 	mov	r8,r3
  812718:	88c0402c 	andhi	r3,r17,256
  81271c:	18000426 	beq	r3,zero,812730 <__muldf3+0x520>
  812720:	11410004 	addi	r5,r2,1024
  812724:	00bfc034 	movhi	r2,65280
  812728:	10bfffc4 	addi	r2,r2,-1
  81272c:	88a2703a 	and	r17,r17,r2
  812730:	0081ff84 	movi	r2,2046
  812734:	117f6416 	blt	r2,r5,8124c8 <__alt_mem_onchip_mem+0xff80a4c8>
  812738:	8828977a 	slli	r20,r17,29
  81273c:	4010d0fa 	srli	r8,r8,3
  812740:	8822927a 	slli	r17,r17,9
  812744:	2881ffcc 	andi	r2,r5,2047
  812748:	a228b03a 	or	r20,r20,r8
  81274c:	880ad33a 	srli	r5,r17,12
  812750:	b02b883a 	mov	r21,r22
  812754:	003f0d06 	br	81238c <__alt_mem_onchip_mem+0xff80a38c>
  812758:	8080022c 	andhi	r2,r16,8
  81275c:	10000926 	beq	r2,zero,812784 <__muldf3+0x574>
  812760:	8880022c 	andhi	r2,r17,8
  812764:	1000071e 	bne	r2,zero,812784 <__muldf3+0x574>
  812768:	00800434 	movhi	r2,16
  81276c:	89400234 	orhi	r5,r17,8
  812770:	10bfffc4 	addi	r2,r2,-1
  812774:	b82b883a 	mov	r21,r23
  812778:	288a703a 	and	r5,r5,r2
  81277c:	4029883a 	mov	r20,r8
  812780:	003f6806 	br	812524 <__alt_mem_onchip_mem+0xff80a524>
  812784:	00800434 	movhi	r2,16
  812788:	81400234 	orhi	r5,r16,8
  81278c:	10bfffc4 	addi	r2,r2,-1
  812790:	288a703a 	and	r5,r5,r2
  812794:	003f6306 	br	812524 <__alt_mem_onchip_mem+0xff80a524>
  812798:	147ff604 	addi	r17,r2,-40
  81279c:	3462983a 	sll	r17,r6,r17
  8127a0:	0011883a 	mov	r8,zero
  8127a4:	003f4406 	br	8124b8 <__alt_mem_onchip_mem+0xff80a4b8>
  8127a8:	3009883a 	mov	r4,r6
  8127ac:	d9800215 	stw	r6,8(sp)
  8127b0:	da400115 	stw	r9,4(sp)
  8127b4:	da800015 	stw	r10,0(sp)
  8127b8:	0806aa40 	call	806aa4 <__clzsi2>
  8127bc:	10800804 	addi	r2,r2,32
  8127c0:	da800017 	ldw	r10,0(sp)
  8127c4:	da400117 	ldw	r9,4(sp)
  8127c8:	d9800217 	ldw	r6,8(sp)
  8127cc:	003f3006 	br	812490 <__alt_mem_onchip_mem+0xff80a490>
  8127d0:	143ff604 	addi	r16,r2,-40
  8127d4:	9c20983a 	sll	r16,r19,r16
  8127d8:	0029883a 	mov	r20,zero
  8127dc:	003f1606 	br	812438 <__alt_mem_onchip_mem+0xff80a438>
  8127e0:	d9800215 	stw	r6,8(sp)
  8127e4:	d9c00015 	stw	r7,0(sp)
  8127e8:	da400115 	stw	r9,4(sp)
  8127ec:	0806aa40 	call	806aa4 <__clzsi2>
  8127f0:	10800804 	addi	r2,r2,32
  8127f4:	da400117 	ldw	r9,4(sp)
  8127f8:	d9c00017 	ldw	r7,0(sp)
  8127fc:	d9800217 	ldw	r6,8(sp)
  812800:	003f0306 	br	812410 <__alt_mem_onchip_mem+0xff80a410>
  812804:	00c00044 	movi	r3,1
  812808:	1947c83a 	sub	r3,r3,r5
  81280c:	00800e04 	movi	r2,56
  812810:	10feda16 	blt	r2,r3,81237c <__alt_mem_onchip_mem+0xff80a37c>
  812814:	008007c4 	movi	r2,31
  812818:	10c01b16 	blt	r2,r3,812888 <__muldf3+0x678>
  81281c:	00800804 	movi	r2,32
  812820:	10c5c83a 	sub	r2,r2,r3
  812824:	888a983a 	sll	r5,r17,r2
  812828:	40c8d83a 	srl	r4,r8,r3
  81282c:	4084983a 	sll	r2,r8,r2
  812830:	88e2d83a 	srl	r17,r17,r3
  812834:	2906b03a 	or	r3,r5,r4
  812838:	1004c03a 	cmpne	r2,r2,zero
  81283c:	1886b03a 	or	r3,r3,r2
  812840:	188001cc 	andi	r2,r3,7
  812844:	10000726 	beq	r2,zero,812864 <__muldf3+0x654>
  812848:	188003cc 	andi	r2,r3,15
  81284c:	01000104 	movi	r4,4
  812850:	11000426 	beq	r2,r4,812864 <__muldf3+0x654>
  812854:	1805883a 	mov	r2,r3
  812858:	10c00104 	addi	r3,r2,4
  81285c:	1885803a 	cmpltu	r2,r3,r2
  812860:	88a3883a 	add	r17,r17,r2
  812864:	8880202c 	andhi	r2,r17,128
  812868:	10001c26 	beq	r2,zero,8128dc <__muldf3+0x6cc>
  81286c:	b02b883a 	mov	r21,r22
  812870:	00800044 	movi	r2,1
  812874:	000b883a 	mov	r5,zero
  812878:	0029883a 	mov	r20,zero
  81287c:	003ec306 	br	81238c <__alt_mem_onchip_mem+0xff80a38c>
  812880:	5805883a 	mov	r2,r11
  812884:	003f9906 	br	8126ec <__alt_mem_onchip_mem+0xff80a6ec>
  812888:	00bff844 	movi	r2,-31
  81288c:	1145c83a 	sub	r2,r2,r5
  812890:	8888d83a 	srl	r4,r17,r2
  812894:	00800804 	movi	r2,32
  812898:	18801a26 	beq	r3,r2,812904 <__muldf3+0x6f4>
  81289c:	00801004 	movi	r2,64
  8128a0:	10c5c83a 	sub	r2,r2,r3
  8128a4:	8884983a 	sll	r2,r17,r2
  8128a8:	1204b03a 	or	r2,r2,r8
  8128ac:	1004c03a 	cmpne	r2,r2,zero
  8128b0:	2084b03a 	or	r2,r4,r2
  8128b4:	144001cc 	andi	r17,r2,7
  8128b8:	88000d1e 	bne	r17,zero,8128f0 <__muldf3+0x6e0>
  8128bc:	000b883a 	mov	r5,zero
  8128c0:	1028d0fa 	srli	r20,r2,3
  8128c4:	b02b883a 	mov	r21,r22
  8128c8:	0005883a 	mov	r2,zero
  8128cc:	a468b03a 	or	r20,r20,r17
  8128d0:	003eae06 	br	81238c <__alt_mem_onchip_mem+0xff80a38c>
  8128d4:	1007883a 	mov	r3,r2
  8128d8:	0023883a 	mov	r17,zero
  8128dc:	880a927a 	slli	r5,r17,9
  8128e0:	1805883a 	mov	r2,r3
  8128e4:	8822977a 	slli	r17,r17,29
  8128e8:	280ad33a 	srli	r5,r5,12
  8128ec:	003ff406 	br	8128c0 <__alt_mem_onchip_mem+0xff80a8c0>
  8128f0:	10c003cc 	andi	r3,r2,15
  8128f4:	01000104 	movi	r4,4
  8128f8:	193ff626 	beq	r3,r4,8128d4 <__alt_mem_onchip_mem+0xff80a8d4>
  8128fc:	0023883a 	mov	r17,zero
  812900:	003fd506 	br	812858 <__alt_mem_onchip_mem+0xff80a858>
  812904:	0005883a 	mov	r2,zero
  812908:	003fe706 	br	8128a8 <__alt_mem_onchip_mem+0xff80a8a8>
  81290c:	00800434 	movhi	r2,16
  812910:	89400234 	orhi	r5,r17,8
  812914:	10bfffc4 	addi	r2,r2,-1
  812918:	b02b883a 	mov	r21,r22
  81291c:	288a703a 	and	r5,r5,r2
  812920:	4029883a 	mov	r20,r8
  812924:	003eff06 	br	812524 <__alt_mem_onchip_mem+0xff80a524>

00812928 <__fixdfsi>:
  812928:	280cd53a 	srli	r6,r5,20
  81292c:	00c00434 	movhi	r3,16
  812930:	18ffffc4 	addi	r3,r3,-1
  812934:	3181ffcc 	andi	r6,r6,2047
  812938:	01c0ff84 	movi	r7,1022
  81293c:	28c6703a 	and	r3,r5,r3
  812940:	280ad7fa 	srli	r5,r5,31
  812944:	3980120e 	bge	r7,r6,812990 <__fixdfsi+0x68>
  812948:	00810744 	movi	r2,1053
  81294c:	11800c16 	blt	r2,r6,812980 <__fixdfsi+0x58>
  812950:	00810cc4 	movi	r2,1075
  812954:	1185c83a 	sub	r2,r2,r6
  812958:	01c007c4 	movi	r7,31
  81295c:	18c00434 	orhi	r3,r3,16
  812960:	38800d16 	blt	r7,r2,812998 <__fixdfsi+0x70>
  812964:	31befb44 	addi	r6,r6,-1043
  812968:	2084d83a 	srl	r2,r4,r2
  81296c:	1986983a 	sll	r3,r3,r6
  812970:	1884b03a 	or	r2,r3,r2
  812974:	28000726 	beq	r5,zero,812994 <__fixdfsi+0x6c>
  812978:	0085c83a 	sub	r2,zero,r2
  81297c:	f800283a 	ret
  812980:	00a00034 	movhi	r2,32768
  812984:	10bfffc4 	addi	r2,r2,-1
  812988:	2885883a 	add	r2,r5,r2
  81298c:	f800283a 	ret
  812990:	0005883a 	mov	r2,zero
  812994:	f800283a 	ret
  812998:	008104c4 	movi	r2,1043
  81299c:	1185c83a 	sub	r2,r2,r6
  8129a0:	1884d83a 	srl	r2,r3,r2
  8129a4:	003ff306 	br	812974 <__alt_mem_onchip_mem+0xff80a974>

008129a8 <__floatunsidf>:
  8129a8:	defffe04 	addi	sp,sp,-8
  8129ac:	dc000015 	stw	r16,0(sp)
  8129b0:	dfc00115 	stw	ra,4(sp)
  8129b4:	2021883a 	mov	r16,r4
  8129b8:	20002226 	beq	r4,zero,812a44 <__floatunsidf+0x9c>
  8129bc:	0806aa40 	call	806aa4 <__clzsi2>
  8129c0:	01010784 	movi	r4,1054
  8129c4:	2089c83a 	sub	r4,r4,r2
  8129c8:	01810cc4 	movi	r6,1075
  8129cc:	310dc83a 	sub	r6,r6,r4
  8129d0:	00c007c4 	movi	r3,31
  8129d4:	1980120e 	bge	r3,r6,812a20 <__floatunsidf+0x78>
  8129d8:	00c104c4 	movi	r3,1043
  8129dc:	1907c83a 	sub	r3,r3,r4
  8129e0:	80ca983a 	sll	r5,r16,r3
  8129e4:	00800434 	movhi	r2,16
  8129e8:	10bfffc4 	addi	r2,r2,-1
  8129ec:	2101ffcc 	andi	r4,r4,2047
  8129f0:	0021883a 	mov	r16,zero
  8129f4:	288a703a 	and	r5,r5,r2
  8129f8:	2008953a 	slli	r4,r4,20
  8129fc:	00c00434 	movhi	r3,16
  812a00:	18ffffc4 	addi	r3,r3,-1
  812a04:	28c6703a 	and	r3,r5,r3
  812a08:	8005883a 	mov	r2,r16
  812a0c:	1906b03a 	or	r3,r3,r4
  812a10:	dfc00117 	ldw	ra,4(sp)
  812a14:	dc000017 	ldw	r16,0(sp)
  812a18:	dec00204 	addi	sp,sp,8
  812a1c:	f800283a 	ret
  812a20:	00c002c4 	movi	r3,11
  812a24:	188bc83a 	sub	r5,r3,r2
  812a28:	814ad83a 	srl	r5,r16,r5
  812a2c:	00c00434 	movhi	r3,16
  812a30:	18ffffc4 	addi	r3,r3,-1
  812a34:	81a0983a 	sll	r16,r16,r6
  812a38:	2101ffcc 	andi	r4,r4,2047
  812a3c:	28ca703a 	and	r5,r5,r3
  812a40:	003fed06 	br	8129f8 <__alt_mem_onchip_mem+0xff80a9f8>
  812a44:	0009883a 	mov	r4,zero
  812a48:	000b883a 	mov	r5,zero
  812a4c:	003fea06 	br	8129f8 <__alt_mem_onchip_mem+0xff80a9f8>

00812a50 <alt_alarm_start>:
  812a50:	defff504 	addi	sp,sp,-44
  812a54:	df000a15 	stw	fp,40(sp)
  812a58:	df000a04 	addi	fp,sp,40
  812a5c:	e13ffc15 	stw	r4,-16(fp)
  812a60:	e17ffd15 	stw	r5,-12(fp)
  812a64:	e1bffe15 	stw	r6,-8(fp)
  812a68:	e1ffff15 	stw	r7,-4(fp)
  812a6c:	e03ff615 	stw	zero,-40(fp)
  812a70:	d0a75817 	ldw	r2,-25248(gp)
  812a74:	10003c26 	beq	r2,zero,812b68 <alt_alarm_start+0x118>
  812a78:	e0bffc17 	ldw	r2,-16(fp)
  812a7c:	10003826 	beq	r2,zero,812b60 <alt_alarm_start+0x110>
  812a80:	e0bffc17 	ldw	r2,-16(fp)
  812a84:	e0fffe17 	ldw	r3,-8(fp)
  812a88:	10c00315 	stw	r3,12(r2)
  812a8c:	e0bffc17 	ldw	r2,-16(fp)
  812a90:	e0ffff17 	ldw	r3,-4(fp)
  812a94:	10c00515 	stw	r3,20(r2)
  812a98:	0005303a 	rdctl	r2,status
  812a9c:	e0bff915 	stw	r2,-28(fp)
  812aa0:	e0fff917 	ldw	r3,-28(fp)
  812aa4:	00bfff84 	movi	r2,-2
  812aa8:	1884703a 	and	r2,r3,r2
  812aac:	1001703a 	wrctl	status,r2
  812ab0:	e0bff917 	ldw	r2,-28(fp)
  812ab4:	e0bff815 	stw	r2,-32(fp)
  812ab8:	d0a75917 	ldw	r2,-25244(gp)
  812abc:	e0bff615 	stw	r2,-40(fp)
  812ac0:	e0fffd17 	ldw	r3,-12(fp)
  812ac4:	e0bff617 	ldw	r2,-40(fp)
  812ac8:	1885883a 	add	r2,r3,r2
  812acc:	10c00044 	addi	r3,r2,1
  812ad0:	e0bffc17 	ldw	r2,-16(fp)
  812ad4:	10c00215 	stw	r3,8(r2)
  812ad8:	e0bffc17 	ldw	r2,-16(fp)
  812adc:	10c00217 	ldw	r3,8(r2)
  812ae0:	e0bff617 	ldw	r2,-40(fp)
  812ae4:	1880042e 	bgeu	r3,r2,812af8 <alt_alarm_start+0xa8>
  812ae8:	e0bffc17 	ldw	r2,-16(fp)
  812aec:	00c00044 	movi	r3,1
  812af0:	10c00405 	stb	r3,16(r2)
  812af4:	00000206 	br	812b00 <alt_alarm_start+0xb0>
  812af8:	e0bffc17 	ldw	r2,-16(fp)
  812afc:	10000405 	stb	zero,16(r2)
  812b00:	e0bffc17 	ldw	r2,-16(fp)
  812b04:	d0e00e04 	addi	r3,gp,-32712
  812b08:	e0fffa15 	stw	r3,-24(fp)
  812b0c:	e0bffb15 	stw	r2,-20(fp)
  812b10:	e0bffb17 	ldw	r2,-20(fp)
  812b14:	e0fffa17 	ldw	r3,-24(fp)
  812b18:	10c00115 	stw	r3,4(r2)
  812b1c:	e0bffa17 	ldw	r2,-24(fp)
  812b20:	10c00017 	ldw	r3,0(r2)
  812b24:	e0bffb17 	ldw	r2,-20(fp)
  812b28:	10c00015 	stw	r3,0(r2)
  812b2c:	e0bffa17 	ldw	r2,-24(fp)
  812b30:	10800017 	ldw	r2,0(r2)
  812b34:	e0fffb17 	ldw	r3,-20(fp)
  812b38:	10c00115 	stw	r3,4(r2)
  812b3c:	e0bffa17 	ldw	r2,-24(fp)
  812b40:	e0fffb17 	ldw	r3,-20(fp)
  812b44:	10c00015 	stw	r3,0(r2)
  812b48:	e0bff817 	ldw	r2,-32(fp)
  812b4c:	e0bff715 	stw	r2,-36(fp)
  812b50:	e0bff717 	ldw	r2,-36(fp)
  812b54:	1001703a 	wrctl	status,r2
  812b58:	0005883a 	mov	r2,zero
  812b5c:	00000306 	br	812b6c <alt_alarm_start+0x11c>
  812b60:	00bffa84 	movi	r2,-22
  812b64:	00000106 	br	812b6c <alt_alarm_start+0x11c>
  812b68:	00bfde84 	movi	r2,-134
  812b6c:	e037883a 	mov	sp,fp
  812b70:	df000017 	ldw	fp,0(sp)
  812b74:	dec00104 	addi	sp,sp,4
  812b78:	f800283a 	ret

00812b7c <alt_get_errno>:
  812b7c:	defffe04 	addi	sp,sp,-8
  812b80:	dfc00115 	stw	ra,4(sp)
  812b84:	df000015 	stw	fp,0(sp)
  812b88:	d839883a 	mov	fp,sp
  812b8c:	d0a00b17 	ldw	r2,-32724(gp)
  812b90:	10000326 	beq	r2,zero,812ba0 <alt_get_errno+0x24>
  812b94:	d0a00b17 	ldw	r2,-32724(gp)
  812b98:	103ee83a 	callr	r2
  812b9c:	00000106 	br	812ba4 <alt_get_errno+0x28>
  812ba0:	d0a74d04 	addi	r2,gp,-25292
  812ba4:	e037883a 	mov	sp,fp
  812ba8:	dfc00117 	ldw	ra,4(sp)
  812bac:	df000017 	ldw	fp,0(sp)
  812bb0:	dec00204 	addi	sp,sp,8
  812bb4:	f800283a 	ret

00812bb8 <close>:
  812bb8:	defffb04 	addi	sp,sp,-20
  812bbc:	dfc00415 	stw	ra,16(sp)
  812bc0:	df000315 	stw	fp,12(sp)
  812bc4:	df000304 	addi	fp,sp,12
  812bc8:	e13fff15 	stw	r4,-4(fp)
  812bcc:	e0bfff17 	ldw	r2,-4(fp)
  812bd0:	10000616 	blt	r2,zero,812bec <close+0x34>
  812bd4:	e0bfff17 	ldw	r2,-4(fp)
  812bd8:	10c00324 	muli	r3,r2,12
  812bdc:	00802074 	movhi	r2,129
  812be0:	109ef804 	addi	r2,r2,31712
  812be4:	1885883a 	add	r2,r3,r2
  812be8:	00000106 	br	812bf0 <close+0x38>
  812bec:	0005883a 	mov	r2,zero
  812bf0:	e0bffd15 	stw	r2,-12(fp)
  812bf4:	e0bffd17 	ldw	r2,-12(fp)
  812bf8:	10001926 	beq	r2,zero,812c60 <close+0xa8>
  812bfc:	e0bffd17 	ldw	r2,-12(fp)
  812c00:	10800017 	ldw	r2,0(r2)
  812c04:	10800417 	ldw	r2,16(r2)
  812c08:	10000626 	beq	r2,zero,812c24 <close+0x6c>
  812c0c:	e0bffd17 	ldw	r2,-12(fp)
  812c10:	10800017 	ldw	r2,0(r2)
  812c14:	10800417 	ldw	r2,16(r2)
  812c18:	e13ffd17 	ldw	r4,-12(fp)
  812c1c:	103ee83a 	callr	r2
  812c20:	00000106 	br	812c28 <close+0x70>
  812c24:	0005883a 	mov	r2,zero
  812c28:	e0bffe15 	stw	r2,-8(fp)
  812c2c:	e13fff17 	ldw	r4,-4(fp)
  812c30:	081364c0 	call	81364c <alt_release_fd>
  812c34:	e0bffe17 	ldw	r2,-8(fp)
  812c38:	1000070e 	bge	r2,zero,812c58 <close+0xa0>
  812c3c:	0812b7c0 	call	812b7c <alt_get_errno>
  812c40:	1007883a 	mov	r3,r2
  812c44:	e0bffe17 	ldw	r2,-8(fp)
  812c48:	0085c83a 	sub	r2,zero,r2
  812c4c:	18800015 	stw	r2,0(r3)
  812c50:	00bfffc4 	movi	r2,-1
  812c54:	00000706 	br	812c74 <close+0xbc>
  812c58:	0005883a 	mov	r2,zero
  812c5c:	00000506 	br	812c74 <close+0xbc>
  812c60:	0812b7c0 	call	812b7c <alt_get_errno>
  812c64:	1007883a 	mov	r3,r2
  812c68:	00801444 	movi	r2,81
  812c6c:	18800015 	stw	r2,0(r3)
  812c70:	00bfffc4 	movi	r2,-1
  812c74:	e037883a 	mov	sp,fp
  812c78:	dfc00117 	ldw	ra,4(sp)
  812c7c:	df000017 	ldw	fp,0(sp)
  812c80:	dec00204 	addi	sp,sp,8
  812c84:	f800283a 	ret

00812c88 <alt_dev_null_write>:
  812c88:	defffc04 	addi	sp,sp,-16
  812c8c:	df000315 	stw	fp,12(sp)
  812c90:	df000304 	addi	fp,sp,12
  812c94:	e13ffd15 	stw	r4,-12(fp)
  812c98:	e17ffe15 	stw	r5,-8(fp)
  812c9c:	e1bfff15 	stw	r6,-4(fp)
  812ca0:	e0bfff17 	ldw	r2,-4(fp)
  812ca4:	e037883a 	mov	sp,fp
  812ca8:	df000017 	ldw	fp,0(sp)
  812cac:	dec00104 	addi	sp,sp,4
  812cb0:	f800283a 	ret

00812cb4 <alt_get_errno>:
  812cb4:	defffe04 	addi	sp,sp,-8
  812cb8:	dfc00115 	stw	ra,4(sp)
  812cbc:	df000015 	stw	fp,0(sp)
  812cc0:	d839883a 	mov	fp,sp
  812cc4:	d0a00b17 	ldw	r2,-32724(gp)
  812cc8:	10000326 	beq	r2,zero,812cd8 <alt_get_errno+0x24>
  812ccc:	d0a00b17 	ldw	r2,-32724(gp)
  812cd0:	103ee83a 	callr	r2
  812cd4:	00000106 	br	812cdc <alt_get_errno+0x28>
  812cd8:	d0a74d04 	addi	r2,gp,-25292
  812cdc:	e037883a 	mov	sp,fp
  812ce0:	dfc00117 	ldw	ra,4(sp)
  812ce4:	df000017 	ldw	fp,0(sp)
  812ce8:	dec00204 	addi	sp,sp,8
  812cec:	f800283a 	ret

00812cf0 <fstat>:
  812cf0:	defffb04 	addi	sp,sp,-20
  812cf4:	dfc00415 	stw	ra,16(sp)
  812cf8:	df000315 	stw	fp,12(sp)
  812cfc:	df000304 	addi	fp,sp,12
  812d00:	e13ffe15 	stw	r4,-8(fp)
  812d04:	e17fff15 	stw	r5,-4(fp)
  812d08:	e0bffe17 	ldw	r2,-8(fp)
  812d0c:	10000616 	blt	r2,zero,812d28 <fstat+0x38>
  812d10:	e0bffe17 	ldw	r2,-8(fp)
  812d14:	10c00324 	muli	r3,r2,12
  812d18:	00802074 	movhi	r2,129
  812d1c:	109ef804 	addi	r2,r2,31712
  812d20:	1885883a 	add	r2,r3,r2
  812d24:	00000106 	br	812d2c <fstat+0x3c>
  812d28:	0005883a 	mov	r2,zero
  812d2c:	e0bffd15 	stw	r2,-12(fp)
  812d30:	e0bffd17 	ldw	r2,-12(fp)
  812d34:	10001026 	beq	r2,zero,812d78 <fstat+0x88>
  812d38:	e0bffd17 	ldw	r2,-12(fp)
  812d3c:	10800017 	ldw	r2,0(r2)
  812d40:	10800817 	ldw	r2,32(r2)
  812d44:	10000726 	beq	r2,zero,812d64 <fstat+0x74>
  812d48:	e0bffd17 	ldw	r2,-12(fp)
  812d4c:	10800017 	ldw	r2,0(r2)
  812d50:	10800817 	ldw	r2,32(r2)
  812d54:	e17fff17 	ldw	r5,-4(fp)
  812d58:	e13ffd17 	ldw	r4,-12(fp)
  812d5c:	103ee83a 	callr	r2
  812d60:	00000a06 	br	812d8c <fstat+0x9c>
  812d64:	e0bfff17 	ldw	r2,-4(fp)
  812d68:	00c80004 	movi	r3,8192
  812d6c:	10c00115 	stw	r3,4(r2)
  812d70:	0005883a 	mov	r2,zero
  812d74:	00000506 	br	812d8c <fstat+0x9c>
  812d78:	0812cb40 	call	812cb4 <alt_get_errno>
  812d7c:	1007883a 	mov	r3,r2
  812d80:	00801444 	movi	r2,81
  812d84:	18800015 	stw	r2,0(r3)
  812d88:	00bfffc4 	movi	r2,-1
  812d8c:	e037883a 	mov	sp,fp
  812d90:	dfc00117 	ldw	ra,4(sp)
  812d94:	df000017 	ldw	fp,0(sp)
  812d98:	dec00204 	addi	sp,sp,8
  812d9c:	f800283a 	ret

00812da0 <alt_irq_register>:
  812da0:	defff004 	addi	sp,sp,-64
  812da4:	df000f15 	stw	fp,60(sp)
  812da8:	df000f04 	addi	fp,sp,60
  812dac:	e13ffd15 	stw	r4,-12(fp)
  812db0:	e17ffe15 	stw	r5,-8(fp)
  812db4:	e1bfff15 	stw	r6,-4(fp)
  812db8:	00bffa84 	movi	r2,-22
  812dbc:	e0bff115 	stw	r2,-60(fp)
  812dc0:	e0bffd17 	ldw	r2,-12(fp)
  812dc4:	10800828 	cmpgeui	r2,r2,32
  812dc8:	1000501e 	bne	r2,zero,812f0c <alt_irq_register+0x16c>
  812dcc:	0005303a 	rdctl	r2,status
  812dd0:	e0bff615 	stw	r2,-40(fp)
  812dd4:	e0fff617 	ldw	r3,-40(fp)
  812dd8:	00bfff84 	movi	r2,-2
  812ddc:	1884703a 	and	r2,r3,r2
  812de0:	1001703a 	wrctl	status,r2
  812de4:	e0bff617 	ldw	r2,-40(fp)
  812de8:	e0bff315 	stw	r2,-52(fp)
  812dec:	008020b4 	movhi	r2,130
  812df0:	10abac04 	addi	r2,r2,-20816
  812df4:	e0fffd17 	ldw	r3,-12(fp)
  812df8:	180690fa 	slli	r3,r3,3
  812dfc:	10c5883a 	add	r2,r2,r3
  812e00:	e0ffff17 	ldw	r3,-4(fp)
  812e04:	10c00015 	stw	r3,0(r2)
  812e08:	008020b4 	movhi	r2,130
  812e0c:	10abac04 	addi	r2,r2,-20816
  812e10:	e0fffd17 	ldw	r3,-12(fp)
  812e14:	180690fa 	slli	r3,r3,3
  812e18:	10c5883a 	add	r2,r2,r3
  812e1c:	10800104 	addi	r2,r2,4
  812e20:	e0fffe17 	ldw	r3,-8(fp)
  812e24:	10c00015 	stw	r3,0(r2)
  812e28:	e0bfff17 	ldw	r2,-4(fp)
  812e2c:	10001926 	beq	r2,zero,812e94 <alt_irq_register+0xf4>
  812e30:	e0bffd17 	ldw	r2,-12(fp)
  812e34:	e0bff215 	stw	r2,-56(fp)
  812e38:	0005303a 	rdctl	r2,status
  812e3c:	e0bff715 	stw	r2,-36(fp)
  812e40:	e0fff717 	ldw	r3,-36(fp)
  812e44:	00bfff84 	movi	r2,-2
  812e48:	1884703a 	and	r2,r3,r2
  812e4c:	1001703a 	wrctl	status,r2
  812e50:	e0bff717 	ldw	r2,-36(fp)
  812e54:	e0bff815 	stw	r2,-32(fp)
  812e58:	00c00044 	movi	r3,1
  812e5c:	e0bff217 	ldw	r2,-56(fp)
  812e60:	1884983a 	sll	r2,r3,r2
  812e64:	1007883a 	mov	r3,r2
  812e68:	d0a75417 	ldw	r2,-25264(gp)
  812e6c:	1884b03a 	or	r2,r3,r2
  812e70:	d0a75415 	stw	r2,-25264(gp)
  812e74:	d0a75417 	ldw	r2,-25264(gp)
  812e78:	100170fa 	wrctl	ienable,r2
  812e7c:	e0bff817 	ldw	r2,-32(fp)
  812e80:	e0bff915 	stw	r2,-28(fp)
  812e84:	e0bff917 	ldw	r2,-28(fp)
  812e88:	1001703a 	wrctl	status,r2
  812e8c:	0005883a 	mov	r2,zero
  812e90:	00001906 	br	812ef8 <alt_irq_register+0x158>
  812e94:	e0bffd17 	ldw	r2,-12(fp)
  812e98:	e0bff415 	stw	r2,-48(fp)
  812e9c:	0005303a 	rdctl	r2,status
  812ea0:	e0bffa15 	stw	r2,-24(fp)
  812ea4:	e0fffa17 	ldw	r3,-24(fp)
  812ea8:	00bfff84 	movi	r2,-2
  812eac:	1884703a 	and	r2,r3,r2
  812eb0:	1001703a 	wrctl	status,r2
  812eb4:	e0bffa17 	ldw	r2,-24(fp)
  812eb8:	e0bffb15 	stw	r2,-20(fp)
  812ebc:	00c00044 	movi	r3,1
  812ec0:	e0bff417 	ldw	r2,-48(fp)
  812ec4:	1884983a 	sll	r2,r3,r2
  812ec8:	0084303a 	nor	r2,zero,r2
  812ecc:	1007883a 	mov	r3,r2
  812ed0:	d0a75417 	ldw	r2,-25264(gp)
  812ed4:	1884703a 	and	r2,r3,r2
  812ed8:	d0a75415 	stw	r2,-25264(gp)
  812edc:	d0a75417 	ldw	r2,-25264(gp)
  812ee0:	100170fa 	wrctl	ienable,r2
  812ee4:	e0bffb17 	ldw	r2,-20(fp)
  812ee8:	e0bffc15 	stw	r2,-16(fp)
  812eec:	e0bffc17 	ldw	r2,-16(fp)
  812ef0:	1001703a 	wrctl	status,r2
  812ef4:	0005883a 	mov	r2,zero
  812ef8:	e0bff115 	stw	r2,-60(fp)
  812efc:	e0bff317 	ldw	r2,-52(fp)
  812f00:	e0bff515 	stw	r2,-44(fp)
  812f04:	e0bff517 	ldw	r2,-44(fp)
  812f08:	1001703a 	wrctl	status,r2
  812f0c:	e0bff117 	ldw	r2,-60(fp)
  812f10:	e037883a 	mov	sp,fp
  812f14:	df000017 	ldw	fp,0(sp)
  812f18:	dec00104 	addi	sp,sp,4
  812f1c:	f800283a 	ret

00812f20 <alt_get_errno>:
  812f20:	defffe04 	addi	sp,sp,-8
  812f24:	dfc00115 	stw	ra,4(sp)
  812f28:	df000015 	stw	fp,0(sp)
  812f2c:	d839883a 	mov	fp,sp
  812f30:	d0a00b17 	ldw	r2,-32724(gp)
  812f34:	10000326 	beq	r2,zero,812f44 <alt_get_errno+0x24>
  812f38:	d0a00b17 	ldw	r2,-32724(gp)
  812f3c:	103ee83a 	callr	r2
  812f40:	00000106 	br	812f48 <alt_get_errno+0x28>
  812f44:	d0a74d04 	addi	r2,gp,-25292
  812f48:	e037883a 	mov	sp,fp
  812f4c:	dfc00117 	ldw	ra,4(sp)
  812f50:	df000017 	ldw	fp,0(sp)
  812f54:	dec00204 	addi	sp,sp,8
  812f58:	f800283a 	ret

00812f5c <isatty>:
  812f5c:	deffed04 	addi	sp,sp,-76
  812f60:	dfc01215 	stw	ra,72(sp)
  812f64:	df001115 	stw	fp,68(sp)
  812f68:	df001104 	addi	fp,sp,68
  812f6c:	e13fff15 	stw	r4,-4(fp)
  812f70:	e0bfff17 	ldw	r2,-4(fp)
  812f74:	10000616 	blt	r2,zero,812f90 <isatty+0x34>
  812f78:	e0bfff17 	ldw	r2,-4(fp)
  812f7c:	10c00324 	muli	r3,r2,12
  812f80:	00802074 	movhi	r2,129
  812f84:	109ef804 	addi	r2,r2,31712
  812f88:	1885883a 	add	r2,r3,r2
  812f8c:	00000106 	br	812f94 <isatty+0x38>
  812f90:	0005883a 	mov	r2,zero
  812f94:	e0bfef15 	stw	r2,-68(fp)
  812f98:	e0bfef17 	ldw	r2,-68(fp)
  812f9c:	10000e26 	beq	r2,zero,812fd8 <isatty+0x7c>
  812fa0:	e0bfef17 	ldw	r2,-68(fp)
  812fa4:	10800017 	ldw	r2,0(r2)
  812fa8:	10800817 	ldw	r2,32(r2)
  812fac:	1000021e 	bne	r2,zero,812fb8 <isatty+0x5c>
  812fb0:	00800044 	movi	r2,1
  812fb4:	00000d06 	br	812fec <isatty+0x90>
  812fb8:	e0bff004 	addi	r2,fp,-64
  812fbc:	100b883a 	mov	r5,r2
  812fc0:	e13fff17 	ldw	r4,-4(fp)
  812fc4:	0812cf00 	call	812cf0 <fstat>
  812fc8:	e0bff117 	ldw	r2,-60(fp)
  812fcc:	10880020 	cmpeqi	r2,r2,8192
  812fd0:	10803fcc 	andi	r2,r2,255
  812fd4:	00000506 	br	812fec <isatty+0x90>
  812fd8:	0812f200 	call	812f20 <alt_get_errno>
  812fdc:	1007883a 	mov	r3,r2
  812fe0:	00801444 	movi	r2,81
  812fe4:	18800015 	stw	r2,0(r3)
  812fe8:	0005883a 	mov	r2,zero
  812fec:	e037883a 	mov	sp,fp
  812ff0:	dfc00117 	ldw	ra,4(sp)
  812ff4:	df000017 	ldw	fp,0(sp)
  812ff8:	dec00204 	addi	sp,sp,8
  812ffc:	f800283a 	ret

00813000 <alt_load_section>:
  813000:	defffc04 	addi	sp,sp,-16
  813004:	df000315 	stw	fp,12(sp)
  813008:	df000304 	addi	fp,sp,12
  81300c:	e13ffd15 	stw	r4,-12(fp)
  813010:	e17ffe15 	stw	r5,-8(fp)
  813014:	e1bfff15 	stw	r6,-4(fp)
  813018:	e0fffe17 	ldw	r3,-8(fp)
  81301c:	e0bffd17 	ldw	r2,-12(fp)
  813020:	18800c26 	beq	r3,r2,813054 <alt_load_section+0x54>
  813024:	00000806 	br	813048 <alt_load_section+0x48>
  813028:	e0bffe17 	ldw	r2,-8(fp)
  81302c:	10c00104 	addi	r3,r2,4
  813030:	e0fffe15 	stw	r3,-8(fp)
  813034:	e0fffd17 	ldw	r3,-12(fp)
  813038:	19000104 	addi	r4,r3,4
  81303c:	e13ffd15 	stw	r4,-12(fp)
  813040:	18c00017 	ldw	r3,0(r3)
  813044:	10c00015 	stw	r3,0(r2)
  813048:	e0fffe17 	ldw	r3,-8(fp)
  81304c:	e0bfff17 	ldw	r2,-4(fp)
  813050:	18bff51e 	bne	r3,r2,813028 <__alt_mem_onchip_mem+0xff80b028>
  813054:	0001883a 	nop
  813058:	e037883a 	mov	sp,fp
  81305c:	df000017 	ldw	fp,0(sp)
  813060:	dec00104 	addi	sp,sp,4
  813064:	f800283a 	ret

00813068 <alt_load>:
  813068:	defffe04 	addi	sp,sp,-8
  81306c:	dfc00115 	stw	ra,4(sp)
  813070:	df000015 	stw	fp,0(sp)
  813074:	d839883a 	mov	fp,sp
  813078:	018020b4 	movhi	r6,130
  81307c:	31a3fb04 	addi	r6,r6,-28692
  813080:	01402074 	movhi	r5,129
  813084:	295cc504 	addi	r5,r5,29460
  813088:	010020b4 	movhi	r4,130
  81308c:	2123fb04 	addi	r4,r4,-28692
  813090:	08130000 	call	813000 <alt_load_section>
  813094:	01802034 	movhi	r6,128
  813098:	31809104 	addi	r6,r6,580
  81309c:	01402034 	movhi	r5,128
  8130a0:	29400804 	addi	r5,r5,32
  8130a4:	01002034 	movhi	r4,128
  8130a8:	21000804 	addi	r4,r4,32
  8130ac:	08130000 	call	813000 <alt_load_section>
  8130b0:	01802074 	movhi	r6,129
  8130b4:	319cc504 	addi	r6,r6,29460
  8130b8:	01402074 	movhi	r5,129
  8130bc:	295b3c04 	addi	r5,r5,27888
  8130c0:	01002074 	movhi	r4,129
  8130c4:	211b3c04 	addi	r4,r4,27888
  8130c8:	08130000 	call	813000 <alt_load_section>
  8130cc:	0815e4c0 	call	815e4c <alt_dcache_flush_all>
  8130d0:	08162700 	call	816270 <alt_icache_flush_all>
  8130d4:	0001883a 	nop
  8130d8:	e037883a 	mov	sp,fp
  8130dc:	dfc00117 	ldw	ra,4(sp)
  8130e0:	df000017 	ldw	fp,0(sp)
  8130e4:	dec00204 	addi	sp,sp,8
  8130e8:	f800283a 	ret

008130ec <alt_get_errno>:
  8130ec:	defffe04 	addi	sp,sp,-8
  8130f0:	dfc00115 	stw	ra,4(sp)
  8130f4:	df000015 	stw	fp,0(sp)
  8130f8:	d839883a 	mov	fp,sp
  8130fc:	d0a00b17 	ldw	r2,-32724(gp)
  813100:	10000326 	beq	r2,zero,813110 <alt_get_errno+0x24>
  813104:	d0a00b17 	ldw	r2,-32724(gp)
  813108:	103ee83a 	callr	r2
  81310c:	00000106 	br	813114 <alt_get_errno+0x28>
  813110:	d0a74d04 	addi	r2,gp,-25292
  813114:	e037883a 	mov	sp,fp
  813118:	dfc00117 	ldw	ra,4(sp)
  81311c:	df000017 	ldw	fp,0(sp)
  813120:	dec00204 	addi	sp,sp,8
  813124:	f800283a 	ret

00813128 <lseek>:
  813128:	defff904 	addi	sp,sp,-28
  81312c:	dfc00615 	stw	ra,24(sp)
  813130:	df000515 	stw	fp,20(sp)
  813134:	df000504 	addi	fp,sp,20
  813138:	e13ffd15 	stw	r4,-12(fp)
  81313c:	e17ffe15 	stw	r5,-8(fp)
  813140:	e1bfff15 	stw	r6,-4(fp)
  813144:	e03ffb15 	stw	zero,-20(fp)
  813148:	e0bffd17 	ldw	r2,-12(fp)
  81314c:	10000616 	blt	r2,zero,813168 <lseek+0x40>
  813150:	e0bffd17 	ldw	r2,-12(fp)
  813154:	10c00324 	muli	r3,r2,12
  813158:	00802074 	movhi	r2,129
  81315c:	109ef804 	addi	r2,r2,31712
  813160:	1885883a 	add	r2,r3,r2
  813164:	00000106 	br	81316c <lseek+0x44>
  813168:	0005883a 	mov	r2,zero
  81316c:	e0bffc15 	stw	r2,-16(fp)
  813170:	e0bffc17 	ldw	r2,-16(fp)
  813174:	10001026 	beq	r2,zero,8131b8 <lseek+0x90>
  813178:	e0bffc17 	ldw	r2,-16(fp)
  81317c:	10800017 	ldw	r2,0(r2)
  813180:	10800717 	ldw	r2,28(r2)
  813184:	10000926 	beq	r2,zero,8131ac <lseek+0x84>
  813188:	e0bffc17 	ldw	r2,-16(fp)
  81318c:	10800017 	ldw	r2,0(r2)
  813190:	10800717 	ldw	r2,28(r2)
  813194:	e1bfff17 	ldw	r6,-4(fp)
  813198:	e17ffe17 	ldw	r5,-8(fp)
  81319c:	e13ffc17 	ldw	r4,-16(fp)
  8131a0:	103ee83a 	callr	r2
  8131a4:	e0bffb15 	stw	r2,-20(fp)
  8131a8:	00000506 	br	8131c0 <lseek+0x98>
  8131ac:	00bfde84 	movi	r2,-134
  8131b0:	e0bffb15 	stw	r2,-20(fp)
  8131b4:	00000206 	br	8131c0 <lseek+0x98>
  8131b8:	00bfebc4 	movi	r2,-81
  8131bc:	e0bffb15 	stw	r2,-20(fp)
  8131c0:	e0bffb17 	ldw	r2,-20(fp)
  8131c4:	1000070e 	bge	r2,zero,8131e4 <lseek+0xbc>
  8131c8:	08130ec0 	call	8130ec <alt_get_errno>
  8131cc:	1007883a 	mov	r3,r2
  8131d0:	e0bffb17 	ldw	r2,-20(fp)
  8131d4:	0085c83a 	sub	r2,zero,r2
  8131d8:	18800015 	stw	r2,0(r3)
  8131dc:	00bfffc4 	movi	r2,-1
  8131e0:	e0bffb15 	stw	r2,-20(fp)
  8131e4:	e0bffb17 	ldw	r2,-20(fp)
  8131e8:	e037883a 	mov	sp,fp
  8131ec:	dfc00117 	ldw	ra,4(sp)
  8131f0:	df000017 	ldw	fp,0(sp)
  8131f4:	dec00204 	addi	sp,sp,8
  8131f8:	f800283a 	ret

008131fc <alt_main>:
  8131fc:	defffd04 	addi	sp,sp,-12
  813200:	dfc00215 	stw	ra,8(sp)
  813204:	df000115 	stw	fp,4(sp)
  813208:	df000104 	addi	fp,sp,4
  81320c:	0009883a 	mov	r4,zero
  813210:	0813a6c0 	call	813a6c <alt_irq_init>
  813214:	0001883a 	nop
  813218:	0813aa40 	call	813aa4 <alt_sys_init>
  81321c:	01802074 	movhi	r6,129
  813220:	319c1704 	addi	r6,r6,28764
  813224:	01402074 	movhi	r5,129
  813228:	295c1704 	addi	r5,r5,28764
  81322c:	01002074 	movhi	r4,129
  813230:	211c1704 	addi	r4,r4,28764
  813234:	08166080 	call	816608 <alt_io_redirect>
  813238:	0815f740 	call	815f74 <_do_ctors>
  81323c:	01002074 	movhi	r4,129
  813240:	2117f504 	addi	r4,r4,24532
  813244:	081695c0 	call	81695c <atexit>
  813248:	d0a75517 	ldw	r2,-25260(gp)
  81324c:	d0e75617 	ldw	r3,-25256(gp)
  813250:	d1275717 	ldw	r4,-25252(gp)
  813254:	200d883a 	mov	r6,r4
  813258:	180b883a 	mov	r5,r3
  81325c:	1009883a 	mov	r4,r2
  813260:	080038c0 	call	80038c <main>
  813264:	e0bfff15 	stw	r2,-4(fp)
  813268:	01000044 	movi	r4,1
  81326c:	0812bb80 	call	812bb8 <close>
  813270:	e13fff17 	ldw	r4,-4(fp)
  813274:	08169700 	call	816970 <exit>

00813278 <__malloc_lock>:
  813278:	defffe04 	addi	sp,sp,-8
  81327c:	df000115 	stw	fp,4(sp)
  813280:	df000104 	addi	fp,sp,4
  813284:	e13fff15 	stw	r4,-4(fp)
  813288:	0001883a 	nop
  81328c:	e037883a 	mov	sp,fp
  813290:	df000017 	ldw	fp,0(sp)
  813294:	dec00104 	addi	sp,sp,4
  813298:	f800283a 	ret

0081329c <__malloc_unlock>:
  81329c:	defffe04 	addi	sp,sp,-8
  8132a0:	df000115 	stw	fp,4(sp)
  8132a4:	df000104 	addi	fp,sp,4
  8132a8:	e13fff15 	stw	r4,-4(fp)
  8132ac:	0001883a 	nop
  8132b0:	e037883a 	mov	sp,fp
  8132b4:	df000017 	ldw	fp,0(sp)
  8132b8:	dec00104 	addi	sp,sp,4
  8132bc:	f800283a 	ret

008132c0 <alt_get_errno>:
  8132c0:	defffe04 	addi	sp,sp,-8
  8132c4:	dfc00115 	stw	ra,4(sp)
  8132c8:	df000015 	stw	fp,0(sp)
  8132cc:	d839883a 	mov	fp,sp
  8132d0:	d0a00b17 	ldw	r2,-32724(gp)
  8132d4:	10000326 	beq	r2,zero,8132e4 <alt_get_errno+0x24>
  8132d8:	d0a00b17 	ldw	r2,-32724(gp)
  8132dc:	103ee83a 	callr	r2
  8132e0:	00000106 	br	8132e8 <alt_get_errno+0x28>
  8132e4:	d0a74d04 	addi	r2,gp,-25292
  8132e8:	e037883a 	mov	sp,fp
  8132ec:	dfc00117 	ldw	ra,4(sp)
  8132f0:	df000017 	ldw	fp,0(sp)
  8132f4:	dec00204 	addi	sp,sp,8
  8132f8:	f800283a 	ret

008132fc <alt_file_locked>:
  8132fc:	defffd04 	addi	sp,sp,-12
  813300:	df000215 	stw	fp,8(sp)
  813304:	df000204 	addi	fp,sp,8
  813308:	e13fff15 	stw	r4,-4(fp)
  81330c:	e0bfff17 	ldw	r2,-4(fp)
  813310:	10800217 	ldw	r2,8(r2)
  813314:	10d00034 	orhi	r3,r2,16384
  813318:	e0bfff17 	ldw	r2,-4(fp)
  81331c:	10c00215 	stw	r3,8(r2)
  813320:	e03ffe15 	stw	zero,-8(fp)
  813324:	00001d06 	br	81339c <alt_file_locked+0xa0>
  813328:	00802074 	movhi	r2,129
  81332c:	109ef804 	addi	r2,r2,31712
  813330:	e0fffe17 	ldw	r3,-8(fp)
  813334:	18c00324 	muli	r3,r3,12
  813338:	10c5883a 	add	r2,r2,r3
  81333c:	10c00017 	ldw	r3,0(r2)
  813340:	e0bfff17 	ldw	r2,-4(fp)
  813344:	10800017 	ldw	r2,0(r2)
  813348:	1880111e 	bne	r3,r2,813390 <alt_file_locked+0x94>
  81334c:	00802074 	movhi	r2,129
  813350:	109ef804 	addi	r2,r2,31712
  813354:	e0fffe17 	ldw	r3,-8(fp)
  813358:	18c00324 	muli	r3,r3,12
  81335c:	10c5883a 	add	r2,r2,r3
  813360:	10800204 	addi	r2,r2,8
  813364:	10800017 	ldw	r2,0(r2)
  813368:	1000090e 	bge	r2,zero,813390 <alt_file_locked+0x94>
  81336c:	e0bffe17 	ldw	r2,-8(fp)
  813370:	10c00324 	muli	r3,r2,12
  813374:	00802074 	movhi	r2,129
  813378:	109ef804 	addi	r2,r2,31712
  81337c:	1887883a 	add	r3,r3,r2
  813380:	e0bfff17 	ldw	r2,-4(fp)
  813384:	18800226 	beq	r3,r2,813390 <alt_file_locked+0x94>
  813388:	00bffcc4 	movi	r2,-13
  81338c:	00000806 	br	8133b0 <alt_file_locked+0xb4>
  813390:	e0bffe17 	ldw	r2,-8(fp)
  813394:	10800044 	addi	r2,r2,1
  813398:	e0bffe15 	stw	r2,-8(fp)
  81339c:	d0a00a17 	ldw	r2,-32728(gp)
  8133a0:	1007883a 	mov	r3,r2
  8133a4:	e0bffe17 	ldw	r2,-8(fp)
  8133a8:	18bfdf2e 	bgeu	r3,r2,813328 <__alt_mem_onchip_mem+0xff80b328>
  8133ac:	0005883a 	mov	r2,zero
  8133b0:	e037883a 	mov	sp,fp
  8133b4:	df000017 	ldw	fp,0(sp)
  8133b8:	dec00104 	addi	sp,sp,4
  8133bc:	f800283a 	ret

008133c0 <open>:
  8133c0:	defff604 	addi	sp,sp,-40
  8133c4:	dfc00915 	stw	ra,36(sp)
  8133c8:	df000815 	stw	fp,32(sp)
  8133cc:	df000804 	addi	fp,sp,32
  8133d0:	e13ffd15 	stw	r4,-12(fp)
  8133d4:	e17ffe15 	stw	r5,-8(fp)
  8133d8:	e1bfff15 	stw	r6,-4(fp)
  8133dc:	00bfffc4 	movi	r2,-1
  8133e0:	e0bff915 	stw	r2,-28(fp)
  8133e4:	00bffb44 	movi	r2,-19
  8133e8:	e0bffa15 	stw	r2,-24(fp)
  8133ec:	e03ffb15 	stw	zero,-20(fp)
  8133f0:	d1600804 	addi	r5,gp,-32736
  8133f4:	e13ffd17 	ldw	r4,-12(fp)
  8133f8:	08160340 	call	816034 <alt_find_dev>
  8133fc:	e0bff815 	stw	r2,-32(fp)
  813400:	e0bff817 	ldw	r2,-32(fp)
  813404:	1000051e 	bne	r2,zero,81341c <open+0x5c>
  813408:	e13ffd17 	ldw	r4,-12(fp)
  81340c:	08160c40 	call	8160c4 <alt_find_file>
  813410:	e0bff815 	stw	r2,-32(fp)
  813414:	00800044 	movi	r2,1
  813418:	e0bffb15 	stw	r2,-20(fp)
  81341c:	e0bff817 	ldw	r2,-32(fp)
  813420:	10002926 	beq	r2,zero,8134c8 <open+0x108>
  813424:	e13ff817 	ldw	r4,-32(fp)
  813428:	08161cc0 	call	8161cc <alt_get_fd>
  81342c:	e0bff915 	stw	r2,-28(fp)
  813430:	e0bff917 	ldw	r2,-28(fp)
  813434:	1000030e 	bge	r2,zero,813444 <open+0x84>
  813438:	e0bff917 	ldw	r2,-28(fp)
  81343c:	e0bffa15 	stw	r2,-24(fp)
  813440:	00002306 	br	8134d0 <open+0x110>
  813444:	e0bff917 	ldw	r2,-28(fp)
  813448:	10c00324 	muli	r3,r2,12
  81344c:	00802074 	movhi	r2,129
  813450:	109ef804 	addi	r2,r2,31712
  813454:	1885883a 	add	r2,r3,r2
  813458:	e0bffc15 	stw	r2,-16(fp)
  81345c:	e0fffe17 	ldw	r3,-8(fp)
  813460:	00900034 	movhi	r2,16384
  813464:	10bfffc4 	addi	r2,r2,-1
  813468:	1886703a 	and	r3,r3,r2
  81346c:	e0bffc17 	ldw	r2,-16(fp)
  813470:	10c00215 	stw	r3,8(r2)
  813474:	e0bffb17 	ldw	r2,-20(fp)
  813478:	1000051e 	bne	r2,zero,813490 <open+0xd0>
  81347c:	e13ffc17 	ldw	r4,-16(fp)
  813480:	08132fc0 	call	8132fc <alt_file_locked>
  813484:	e0bffa15 	stw	r2,-24(fp)
  813488:	e0bffa17 	ldw	r2,-24(fp)
  81348c:	10001016 	blt	r2,zero,8134d0 <open+0x110>
  813490:	e0bff817 	ldw	r2,-32(fp)
  813494:	10800317 	ldw	r2,12(r2)
  813498:	10000826 	beq	r2,zero,8134bc <open+0xfc>
  81349c:	e0bff817 	ldw	r2,-32(fp)
  8134a0:	10800317 	ldw	r2,12(r2)
  8134a4:	e1ffff17 	ldw	r7,-4(fp)
  8134a8:	e1bffe17 	ldw	r6,-8(fp)
  8134ac:	e17ffd17 	ldw	r5,-12(fp)
  8134b0:	e13ffc17 	ldw	r4,-16(fp)
  8134b4:	103ee83a 	callr	r2
  8134b8:	00000106 	br	8134c0 <open+0x100>
  8134bc:	0005883a 	mov	r2,zero
  8134c0:	e0bffa15 	stw	r2,-24(fp)
  8134c4:	00000206 	br	8134d0 <open+0x110>
  8134c8:	00bffb44 	movi	r2,-19
  8134cc:	e0bffa15 	stw	r2,-24(fp)
  8134d0:	e0bffa17 	ldw	r2,-24(fp)
  8134d4:	1000090e 	bge	r2,zero,8134fc <open+0x13c>
  8134d8:	e13ff917 	ldw	r4,-28(fp)
  8134dc:	081364c0 	call	81364c <alt_release_fd>
  8134e0:	08132c00 	call	8132c0 <alt_get_errno>
  8134e4:	1007883a 	mov	r3,r2
  8134e8:	e0bffa17 	ldw	r2,-24(fp)
  8134ec:	0085c83a 	sub	r2,zero,r2
  8134f0:	18800015 	stw	r2,0(r3)
  8134f4:	00bfffc4 	movi	r2,-1
  8134f8:	00000106 	br	813500 <open+0x140>
  8134fc:	e0bff917 	ldw	r2,-28(fp)
  813500:	e037883a 	mov	sp,fp
  813504:	dfc00117 	ldw	ra,4(sp)
  813508:	df000017 	ldw	fp,0(sp)
  81350c:	dec00204 	addi	sp,sp,8
  813510:	f800283a 	ret

00813514 <alt_get_errno>:
  813514:	defffe04 	addi	sp,sp,-8
  813518:	dfc00115 	stw	ra,4(sp)
  81351c:	df000015 	stw	fp,0(sp)
  813520:	d839883a 	mov	fp,sp
  813524:	d0a00b17 	ldw	r2,-32724(gp)
  813528:	10000326 	beq	r2,zero,813538 <alt_get_errno+0x24>
  81352c:	d0a00b17 	ldw	r2,-32724(gp)
  813530:	103ee83a 	callr	r2
  813534:	00000106 	br	81353c <alt_get_errno+0x28>
  813538:	d0a74d04 	addi	r2,gp,-25292
  81353c:	e037883a 	mov	sp,fp
  813540:	dfc00117 	ldw	ra,4(sp)
  813544:	df000017 	ldw	fp,0(sp)
  813548:	dec00204 	addi	sp,sp,8
  81354c:	f800283a 	ret

00813550 <read>:
  813550:	defff904 	addi	sp,sp,-28
  813554:	dfc00615 	stw	ra,24(sp)
  813558:	df000515 	stw	fp,20(sp)
  81355c:	df000504 	addi	fp,sp,20
  813560:	e13ffd15 	stw	r4,-12(fp)
  813564:	e17ffe15 	stw	r5,-8(fp)
  813568:	e1bfff15 	stw	r6,-4(fp)
  81356c:	e0bffd17 	ldw	r2,-12(fp)
  813570:	10000616 	blt	r2,zero,81358c <read+0x3c>
  813574:	e0bffd17 	ldw	r2,-12(fp)
  813578:	10c00324 	muli	r3,r2,12
  81357c:	00802074 	movhi	r2,129
  813580:	109ef804 	addi	r2,r2,31712
  813584:	1885883a 	add	r2,r3,r2
  813588:	00000106 	br	813590 <read+0x40>
  81358c:	0005883a 	mov	r2,zero
  813590:	e0bffb15 	stw	r2,-20(fp)
  813594:	e0bffb17 	ldw	r2,-20(fp)
  813598:	10002226 	beq	r2,zero,813624 <read+0xd4>
  81359c:	e0bffb17 	ldw	r2,-20(fp)
  8135a0:	10800217 	ldw	r2,8(r2)
  8135a4:	108000cc 	andi	r2,r2,3
  8135a8:	10800060 	cmpeqi	r2,r2,1
  8135ac:	1000181e 	bne	r2,zero,813610 <read+0xc0>
  8135b0:	e0bffb17 	ldw	r2,-20(fp)
  8135b4:	10800017 	ldw	r2,0(r2)
  8135b8:	10800517 	ldw	r2,20(r2)
  8135bc:	10001426 	beq	r2,zero,813610 <read+0xc0>
  8135c0:	e0bffb17 	ldw	r2,-20(fp)
  8135c4:	10800017 	ldw	r2,0(r2)
  8135c8:	10800517 	ldw	r2,20(r2)
  8135cc:	e0ffff17 	ldw	r3,-4(fp)
  8135d0:	180d883a 	mov	r6,r3
  8135d4:	e17ffe17 	ldw	r5,-8(fp)
  8135d8:	e13ffb17 	ldw	r4,-20(fp)
  8135dc:	103ee83a 	callr	r2
  8135e0:	e0bffc15 	stw	r2,-16(fp)
  8135e4:	e0bffc17 	ldw	r2,-16(fp)
  8135e8:	1000070e 	bge	r2,zero,813608 <read+0xb8>
  8135ec:	08135140 	call	813514 <alt_get_errno>
  8135f0:	1007883a 	mov	r3,r2
  8135f4:	e0bffc17 	ldw	r2,-16(fp)
  8135f8:	0085c83a 	sub	r2,zero,r2
  8135fc:	18800015 	stw	r2,0(r3)
  813600:	00bfffc4 	movi	r2,-1
  813604:	00000c06 	br	813638 <read+0xe8>
  813608:	e0bffc17 	ldw	r2,-16(fp)
  81360c:	00000a06 	br	813638 <read+0xe8>
  813610:	08135140 	call	813514 <alt_get_errno>
  813614:	1007883a 	mov	r3,r2
  813618:	00800344 	movi	r2,13
  81361c:	18800015 	stw	r2,0(r3)
  813620:	00000406 	br	813634 <read+0xe4>
  813624:	08135140 	call	813514 <alt_get_errno>
  813628:	1007883a 	mov	r3,r2
  81362c:	00801444 	movi	r2,81
  813630:	18800015 	stw	r2,0(r3)
  813634:	00bfffc4 	movi	r2,-1
  813638:	e037883a 	mov	sp,fp
  81363c:	dfc00117 	ldw	ra,4(sp)
  813640:	df000017 	ldw	fp,0(sp)
  813644:	dec00204 	addi	sp,sp,8
  813648:	f800283a 	ret

0081364c <alt_release_fd>:
  81364c:	defffe04 	addi	sp,sp,-8
  813650:	df000115 	stw	fp,4(sp)
  813654:	df000104 	addi	fp,sp,4
  813658:	e13fff15 	stw	r4,-4(fp)
  81365c:	e0bfff17 	ldw	r2,-4(fp)
  813660:	108000d0 	cmplti	r2,r2,3
  813664:	10000d1e 	bne	r2,zero,81369c <alt_release_fd+0x50>
  813668:	00802074 	movhi	r2,129
  81366c:	109ef804 	addi	r2,r2,31712
  813670:	e0ffff17 	ldw	r3,-4(fp)
  813674:	18c00324 	muli	r3,r3,12
  813678:	10c5883a 	add	r2,r2,r3
  81367c:	10800204 	addi	r2,r2,8
  813680:	10000015 	stw	zero,0(r2)
  813684:	00802074 	movhi	r2,129
  813688:	109ef804 	addi	r2,r2,31712
  81368c:	e0ffff17 	ldw	r3,-4(fp)
  813690:	18c00324 	muli	r3,r3,12
  813694:	10c5883a 	add	r2,r2,r3
  813698:	10000015 	stw	zero,0(r2)
  81369c:	0001883a 	nop
  8136a0:	e037883a 	mov	sp,fp
  8136a4:	df000017 	ldw	fp,0(sp)
  8136a8:	dec00104 	addi	sp,sp,4
  8136ac:	f800283a 	ret

008136b0 <sbrk>:
  8136b0:	defff904 	addi	sp,sp,-28
  8136b4:	df000615 	stw	fp,24(sp)
  8136b8:	df000604 	addi	fp,sp,24
  8136bc:	e13fff15 	stw	r4,-4(fp)
  8136c0:	0005303a 	rdctl	r2,status
  8136c4:	e0bffe15 	stw	r2,-8(fp)
  8136c8:	e0fffe17 	ldw	r3,-8(fp)
  8136cc:	00bfff84 	movi	r2,-2
  8136d0:	1884703a 	and	r2,r3,r2
  8136d4:	1001703a 	wrctl	status,r2
  8136d8:	e0bffe17 	ldw	r2,-8(fp)
  8136dc:	e0bffb15 	stw	r2,-20(fp)
  8136e0:	d0a00d17 	ldw	r2,-32716(gp)
  8136e4:	10c000c4 	addi	r3,r2,3
  8136e8:	00bfff04 	movi	r2,-4
  8136ec:	1884703a 	and	r2,r3,r2
  8136f0:	d0a00d15 	stw	r2,-32716(gp)
  8136f4:	d0e00d17 	ldw	r3,-32716(gp)
  8136f8:	e0bfff17 	ldw	r2,-4(fp)
  8136fc:	1887883a 	add	r3,r3,r2
  813700:	00804034 	movhi	r2,256
  813704:	10800004 	addi	r2,r2,0
  813708:	10c0062e 	bgeu	r2,r3,813724 <sbrk+0x74>
  81370c:	e0bffb17 	ldw	r2,-20(fp)
  813710:	e0bffa15 	stw	r2,-24(fp)
  813714:	e0bffa17 	ldw	r2,-24(fp)
  813718:	1001703a 	wrctl	status,r2
  81371c:	00bfffc4 	movi	r2,-1
  813720:	00000b06 	br	813750 <sbrk+0xa0>
  813724:	d0a00d17 	ldw	r2,-32716(gp)
  813728:	e0bffd15 	stw	r2,-12(fp)
  81372c:	d0e00d17 	ldw	r3,-32716(gp)
  813730:	e0bfff17 	ldw	r2,-4(fp)
  813734:	1885883a 	add	r2,r3,r2
  813738:	d0a00d15 	stw	r2,-32716(gp)
  81373c:	e0bffb17 	ldw	r2,-20(fp)
  813740:	e0bffc15 	stw	r2,-16(fp)
  813744:	e0bffc17 	ldw	r2,-16(fp)
  813748:	1001703a 	wrctl	status,r2
  81374c:	e0bffd17 	ldw	r2,-12(fp)
  813750:	e037883a 	mov	sp,fp
  813754:	df000017 	ldw	fp,0(sp)
  813758:	dec00104 	addi	sp,sp,4
  81375c:	f800283a 	ret

00813760 <alt_alarm_stop>:
  813760:	defffa04 	addi	sp,sp,-24
  813764:	df000515 	stw	fp,20(sp)
  813768:	df000504 	addi	fp,sp,20
  81376c:	e13fff15 	stw	r4,-4(fp)
  813770:	0005303a 	rdctl	r2,status
  813774:	e0bffc15 	stw	r2,-16(fp)
  813778:	e0fffc17 	ldw	r3,-16(fp)
  81377c:	00bfff84 	movi	r2,-2
  813780:	1884703a 	and	r2,r3,r2
  813784:	1001703a 	wrctl	status,r2
  813788:	e0bffc17 	ldw	r2,-16(fp)
  81378c:	e0bffb15 	stw	r2,-20(fp)
  813790:	e0bfff17 	ldw	r2,-4(fp)
  813794:	e0bffd15 	stw	r2,-12(fp)
  813798:	e0bffd17 	ldw	r2,-12(fp)
  81379c:	10800017 	ldw	r2,0(r2)
  8137a0:	e0fffd17 	ldw	r3,-12(fp)
  8137a4:	18c00117 	ldw	r3,4(r3)
  8137a8:	10c00115 	stw	r3,4(r2)
  8137ac:	e0bffd17 	ldw	r2,-12(fp)
  8137b0:	10800117 	ldw	r2,4(r2)
  8137b4:	e0fffd17 	ldw	r3,-12(fp)
  8137b8:	18c00017 	ldw	r3,0(r3)
  8137bc:	10c00015 	stw	r3,0(r2)
  8137c0:	e0bffd17 	ldw	r2,-12(fp)
  8137c4:	e0fffd17 	ldw	r3,-12(fp)
  8137c8:	10c00115 	stw	r3,4(r2)
  8137cc:	e0bffd17 	ldw	r2,-12(fp)
  8137d0:	e0fffd17 	ldw	r3,-12(fp)
  8137d4:	10c00015 	stw	r3,0(r2)
  8137d8:	e0bffb17 	ldw	r2,-20(fp)
  8137dc:	e0bffe15 	stw	r2,-8(fp)
  8137e0:	e0bffe17 	ldw	r2,-8(fp)
  8137e4:	1001703a 	wrctl	status,r2
  8137e8:	0001883a 	nop
  8137ec:	e037883a 	mov	sp,fp
  8137f0:	df000017 	ldw	fp,0(sp)
  8137f4:	dec00104 	addi	sp,sp,4
  8137f8:	f800283a 	ret

008137fc <alt_tick>:
  8137fc:	defffb04 	addi	sp,sp,-20
  813800:	dfc00415 	stw	ra,16(sp)
  813804:	df000315 	stw	fp,12(sp)
  813808:	df000304 	addi	fp,sp,12
  81380c:	d0a00e17 	ldw	r2,-32712(gp)
  813810:	e0bffd15 	stw	r2,-12(fp)
  813814:	d0a75917 	ldw	r2,-25244(gp)
  813818:	10800044 	addi	r2,r2,1
  81381c:	d0a75915 	stw	r2,-25244(gp)
  813820:	00002e06 	br	8138dc <alt_tick+0xe0>
  813824:	e0bffd17 	ldw	r2,-12(fp)
  813828:	10800017 	ldw	r2,0(r2)
  81382c:	e0bffe15 	stw	r2,-8(fp)
  813830:	e0bffd17 	ldw	r2,-12(fp)
  813834:	10800403 	ldbu	r2,16(r2)
  813838:	10803fcc 	andi	r2,r2,255
  81383c:	10000426 	beq	r2,zero,813850 <alt_tick+0x54>
  813840:	d0a75917 	ldw	r2,-25244(gp)
  813844:	1000021e 	bne	r2,zero,813850 <alt_tick+0x54>
  813848:	e0bffd17 	ldw	r2,-12(fp)
  81384c:	10000405 	stb	zero,16(r2)
  813850:	e0bffd17 	ldw	r2,-12(fp)
  813854:	10800217 	ldw	r2,8(r2)
  813858:	d0e75917 	ldw	r3,-25244(gp)
  81385c:	18801d36 	bltu	r3,r2,8138d4 <alt_tick+0xd8>
  813860:	e0bffd17 	ldw	r2,-12(fp)
  813864:	10800403 	ldbu	r2,16(r2)
  813868:	10803fcc 	andi	r2,r2,255
  81386c:	1000191e 	bne	r2,zero,8138d4 <alt_tick+0xd8>
  813870:	e0bffd17 	ldw	r2,-12(fp)
  813874:	10800317 	ldw	r2,12(r2)
  813878:	e0fffd17 	ldw	r3,-12(fp)
  81387c:	18c00517 	ldw	r3,20(r3)
  813880:	1809883a 	mov	r4,r3
  813884:	103ee83a 	callr	r2
  813888:	e0bfff15 	stw	r2,-4(fp)
  81388c:	e0bfff17 	ldw	r2,-4(fp)
  813890:	1000031e 	bne	r2,zero,8138a0 <alt_tick+0xa4>
  813894:	e13ffd17 	ldw	r4,-12(fp)
  813898:	08137600 	call	813760 <alt_alarm_stop>
  81389c:	00000d06 	br	8138d4 <alt_tick+0xd8>
  8138a0:	e0bffd17 	ldw	r2,-12(fp)
  8138a4:	10c00217 	ldw	r3,8(r2)
  8138a8:	e0bfff17 	ldw	r2,-4(fp)
  8138ac:	1887883a 	add	r3,r3,r2
  8138b0:	e0bffd17 	ldw	r2,-12(fp)
  8138b4:	10c00215 	stw	r3,8(r2)
  8138b8:	e0bffd17 	ldw	r2,-12(fp)
  8138bc:	10c00217 	ldw	r3,8(r2)
  8138c0:	d0a75917 	ldw	r2,-25244(gp)
  8138c4:	1880032e 	bgeu	r3,r2,8138d4 <alt_tick+0xd8>
  8138c8:	e0bffd17 	ldw	r2,-12(fp)
  8138cc:	00c00044 	movi	r3,1
  8138d0:	10c00405 	stb	r3,16(r2)
  8138d4:	e0bffe17 	ldw	r2,-8(fp)
  8138d8:	e0bffd15 	stw	r2,-12(fp)
  8138dc:	e0fffd17 	ldw	r3,-12(fp)
  8138e0:	d0a00e04 	addi	r2,gp,-32712
  8138e4:	18bfcf1e 	bne	r3,r2,813824 <__alt_mem_onchip_mem+0xff80b824>
  8138e8:	0001883a 	nop
  8138ec:	0001883a 	nop
  8138f0:	e037883a 	mov	sp,fp
  8138f4:	dfc00117 	ldw	ra,4(sp)
  8138f8:	df000017 	ldw	fp,0(sp)
  8138fc:	dec00204 	addi	sp,sp,8
  813900:	f800283a 	ret

00813904 <alt_get_errno>:
  813904:	defffe04 	addi	sp,sp,-8
  813908:	dfc00115 	stw	ra,4(sp)
  81390c:	df000015 	stw	fp,0(sp)
  813910:	d839883a 	mov	fp,sp
  813914:	d0a00b17 	ldw	r2,-32724(gp)
  813918:	10000326 	beq	r2,zero,813928 <alt_get_errno+0x24>
  81391c:	d0a00b17 	ldw	r2,-32724(gp)
  813920:	103ee83a 	callr	r2
  813924:	00000106 	br	81392c <alt_get_errno+0x28>
  813928:	d0a74d04 	addi	r2,gp,-25292
  81392c:	e037883a 	mov	sp,fp
  813930:	dfc00117 	ldw	ra,4(sp)
  813934:	df000017 	ldw	fp,0(sp)
  813938:	dec00204 	addi	sp,sp,8
  81393c:	f800283a 	ret

00813940 <write>:
  813940:	defff904 	addi	sp,sp,-28
  813944:	dfc00615 	stw	ra,24(sp)
  813948:	df000515 	stw	fp,20(sp)
  81394c:	df000504 	addi	fp,sp,20
  813950:	e13ffd15 	stw	r4,-12(fp)
  813954:	e17ffe15 	stw	r5,-8(fp)
  813958:	e1bfff15 	stw	r6,-4(fp)
  81395c:	e0bffd17 	ldw	r2,-12(fp)
  813960:	10000616 	blt	r2,zero,81397c <write+0x3c>
  813964:	e0bffd17 	ldw	r2,-12(fp)
  813968:	10c00324 	muli	r3,r2,12
  81396c:	00802074 	movhi	r2,129
  813970:	109ef804 	addi	r2,r2,31712
  813974:	1885883a 	add	r2,r3,r2
  813978:	00000106 	br	813980 <write+0x40>
  81397c:	0005883a 	mov	r2,zero
  813980:	e0bffb15 	stw	r2,-20(fp)
  813984:	e0bffb17 	ldw	r2,-20(fp)
  813988:	10002126 	beq	r2,zero,813a10 <write+0xd0>
  81398c:	e0bffb17 	ldw	r2,-20(fp)
  813990:	10800217 	ldw	r2,8(r2)
  813994:	108000cc 	andi	r2,r2,3
  813998:	10001826 	beq	r2,zero,8139fc <write+0xbc>
  81399c:	e0bffb17 	ldw	r2,-20(fp)
  8139a0:	10800017 	ldw	r2,0(r2)
  8139a4:	10800617 	ldw	r2,24(r2)
  8139a8:	10001426 	beq	r2,zero,8139fc <write+0xbc>
  8139ac:	e0bffb17 	ldw	r2,-20(fp)
  8139b0:	10800017 	ldw	r2,0(r2)
  8139b4:	10800617 	ldw	r2,24(r2)
  8139b8:	e0ffff17 	ldw	r3,-4(fp)
  8139bc:	180d883a 	mov	r6,r3
  8139c0:	e17ffe17 	ldw	r5,-8(fp)
  8139c4:	e13ffb17 	ldw	r4,-20(fp)
  8139c8:	103ee83a 	callr	r2
  8139cc:	e0bffc15 	stw	r2,-16(fp)
  8139d0:	e0bffc17 	ldw	r2,-16(fp)
  8139d4:	1000070e 	bge	r2,zero,8139f4 <write+0xb4>
  8139d8:	08139040 	call	813904 <alt_get_errno>
  8139dc:	1007883a 	mov	r3,r2
  8139e0:	e0bffc17 	ldw	r2,-16(fp)
  8139e4:	0085c83a 	sub	r2,zero,r2
  8139e8:	18800015 	stw	r2,0(r3)
  8139ec:	00bfffc4 	movi	r2,-1
  8139f0:	00000c06 	br	813a24 <write+0xe4>
  8139f4:	e0bffc17 	ldw	r2,-16(fp)
  8139f8:	00000a06 	br	813a24 <write+0xe4>
  8139fc:	08139040 	call	813904 <alt_get_errno>
  813a00:	1007883a 	mov	r3,r2
  813a04:	00800344 	movi	r2,13
  813a08:	18800015 	stw	r2,0(r3)
  813a0c:	00000406 	br	813a20 <write+0xe0>
  813a10:	08139040 	call	813904 <alt_get_errno>
  813a14:	1007883a 	mov	r3,r2
  813a18:	00801444 	movi	r2,81
  813a1c:	18800015 	stw	r2,0(r3)
  813a20:	00bfffc4 	movi	r2,-1
  813a24:	e037883a 	mov	sp,fp
  813a28:	dfc00117 	ldw	ra,4(sp)
  813a2c:	df000017 	ldw	fp,0(sp)
  813a30:	dec00204 	addi	sp,sp,8
  813a34:	f800283a 	ret

00813a38 <alt_dev_reg>:
  813a38:	defffd04 	addi	sp,sp,-12
  813a3c:	dfc00215 	stw	ra,8(sp)
  813a40:	df000115 	stw	fp,4(sp)
  813a44:	df000104 	addi	fp,sp,4
  813a48:	e13fff15 	stw	r4,-4(fp)
  813a4c:	d1600804 	addi	r5,gp,-32736
  813a50:	e13fff17 	ldw	r4,-4(fp)
  813a54:	0815ed00 	call	815ed0 <alt_dev_llist_insert>
  813a58:	e037883a 	mov	sp,fp
  813a5c:	dfc00117 	ldw	ra,4(sp)
  813a60:	df000017 	ldw	fp,0(sp)
  813a64:	dec00204 	addi	sp,sp,8
  813a68:	f800283a 	ret

00813a6c <alt_irq_init>:
  813a6c:	defffd04 	addi	sp,sp,-12
  813a70:	dfc00215 	stw	ra,8(sp)
  813a74:	df000115 	stw	fp,4(sp)
  813a78:	df000104 	addi	fp,sp,4
  813a7c:	e13fff15 	stw	r4,-4(fp)
  813a80:	08166b40 	call	8166b4 <altera_nios2_gen2_irq_init>
  813a84:	00800044 	movi	r2,1
  813a88:	1001703a 	wrctl	status,r2
  813a8c:	0001883a 	nop
  813a90:	e037883a 	mov	sp,fp
  813a94:	dfc00117 	ldw	ra,4(sp)
  813a98:	df000017 	ldw	fp,0(sp)
  813a9c:	dec00204 	addi	sp,sp,8
  813aa0:	f800283a 	ret

00813aa4 <alt_sys_init>:
  813aa4:	defffe04 	addi	sp,sp,-8
  813aa8:	dfc00115 	stw	ra,4(sp)
  813aac:	df000015 	stw	fp,0(sp)
  813ab0:	d839883a 	mov	fp,sp
  813ab4:	01c0fa04 	movi	r7,1000
  813ab8:	01800084 	movi	r6,2
  813abc:	000b883a 	mov	r5,zero
  813ac0:	01004074 	movhi	r4,257
  813ac4:	21040804 	addi	r4,r4,4128
  813ac8:	08154f80 	call	8154f8 <alt_avalon_timer_sc_init>
  813acc:	01800044 	movi	r6,1
  813ad0:	000b883a 	mov	r5,zero
  813ad4:	01002074 	movhi	r4,129
  813ad8:	211f6204 	addi	r4,r4,32136
  813adc:	0813ca00 	call	813ca0 <altera_avalon_jtag_uart_init>
  813ae0:	01002074 	movhi	r4,129
  813ae4:	211f5804 	addi	r4,r4,32096
  813ae8:	0813a380 	call	813a38 <alt_dev_reg>
  813aec:	010020b4 	movhi	r4,130
  813af0:	21237a04 	addi	r4,r4,-29208
  813af4:	08152ec0 	call	8152ec <altera_avalon_lcd_16207_init>
  813af8:	010020b4 	movhi	r4,130
  813afc:	21237004 	addi	r4,r4,-29248
  813b00:	0813a380 	call	813a38 <alt_dev_reg>
  813b04:	000d883a 	mov	r6,zero
  813b08:	000b883a 	mov	r5,zero
  813b0c:	010020b4 	movhi	r4,130
  813b10:	2123c204 	addi	r4,r4,-28920
  813b14:	08156840 	call	815684 <altera_avalon_uart_init>
  813b18:	010020b4 	movhi	r4,130
  813b1c:	2123b804 	addi	r4,r4,-28960
  813b20:	0813a380 	call	813a38 <alt_dev_reg>
  813b24:	0001883a 	nop
  813b28:	e037883a 	mov	sp,fp
  813b2c:	dfc00117 	ldw	ra,4(sp)
  813b30:	df000017 	ldw	fp,0(sp)
  813b34:	dec00204 	addi	sp,sp,8
  813b38:	f800283a 	ret

00813b3c <altera_avalon_jtag_uart_read_fd>:
  813b3c:	defffa04 	addi	sp,sp,-24
  813b40:	dfc00515 	stw	ra,20(sp)
  813b44:	df000415 	stw	fp,16(sp)
  813b48:	df000404 	addi	fp,sp,16
  813b4c:	e13ffd15 	stw	r4,-12(fp)
  813b50:	e17ffe15 	stw	r5,-8(fp)
  813b54:	e1bfff15 	stw	r6,-4(fp)
  813b58:	e0bffd17 	ldw	r2,-12(fp)
  813b5c:	10800017 	ldw	r2,0(r2)
  813b60:	e0bffc15 	stw	r2,-16(fp)
  813b64:	e0bffc17 	ldw	r2,-16(fp)
  813b68:	10c00a04 	addi	r3,r2,40
  813b6c:	e0bffd17 	ldw	r2,-12(fp)
  813b70:	10800217 	ldw	r2,8(r2)
  813b74:	100f883a 	mov	r7,r2
  813b78:	e1bfff17 	ldw	r6,-4(fp)
  813b7c:	e17ffe17 	ldw	r5,-8(fp)
  813b80:	1809883a 	mov	r4,r3
  813b84:	08141640 	call	814164 <altera_avalon_jtag_uart_read>
  813b88:	e037883a 	mov	sp,fp
  813b8c:	dfc00117 	ldw	ra,4(sp)
  813b90:	df000017 	ldw	fp,0(sp)
  813b94:	dec00204 	addi	sp,sp,8
  813b98:	f800283a 	ret

00813b9c <altera_avalon_jtag_uart_write_fd>:
  813b9c:	defffa04 	addi	sp,sp,-24
  813ba0:	dfc00515 	stw	ra,20(sp)
  813ba4:	df000415 	stw	fp,16(sp)
  813ba8:	df000404 	addi	fp,sp,16
  813bac:	e13ffd15 	stw	r4,-12(fp)
  813bb0:	e17ffe15 	stw	r5,-8(fp)
  813bb4:	e1bfff15 	stw	r6,-4(fp)
  813bb8:	e0bffd17 	ldw	r2,-12(fp)
  813bbc:	10800017 	ldw	r2,0(r2)
  813bc0:	e0bffc15 	stw	r2,-16(fp)
  813bc4:	e0bffc17 	ldw	r2,-16(fp)
  813bc8:	10c00a04 	addi	r3,r2,40
  813bcc:	e0bffd17 	ldw	r2,-12(fp)
  813bd0:	10800217 	ldw	r2,8(r2)
  813bd4:	100f883a 	mov	r7,r2
  813bd8:	e1bfff17 	ldw	r6,-4(fp)
  813bdc:	e17ffe17 	ldw	r5,-8(fp)
  813be0:	1809883a 	mov	r4,r3
  813be4:	08143800 	call	814380 <altera_avalon_jtag_uart_write>
  813be8:	e037883a 	mov	sp,fp
  813bec:	dfc00117 	ldw	ra,4(sp)
  813bf0:	df000017 	ldw	fp,0(sp)
  813bf4:	dec00204 	addi	sp,sp,8
  813bf8:	f800283a 	ret

00813bfc <altera_avalon_jtag_uart_close_fd>:
  813bfc:	defffc04 	addi	sp,sp,-16
  813c00:	dfc00315 	stw	ra,12(sp)
  813c04:	df000215 	stw	fp,8(sp)
  813c08:	df000204 	addi	fp,sp,8
  813c0c:	e13fff15 	stw	r4,-4(fp)
  813c10:	e0bfff17 	ldw	r2,-4(fp)
  813c14:	10800017 	ldw	r2,0(r2)
  813c18:	e0bffe15 	stw	r2,-8(fp)
  813c1c:	e0bffe17 	ldw	r2,-8(fp)
  813c20:	10c00a04 	addi	r3,r2,40
  813c24:	e0bfff17 	ldw	r2,-4(fp)
  813c28:	10800217 	ldw	r2,8(r2)
  813c2c:	100b883a 	mov	r5,r2
  813c30:	1809883a 	mov	r4,r3
  813c34:	081400c0 	call	81400c <altera_avalon_jtag_uart_close>
  813c38:	e037883a 	mov	sp,fp
  813c3c:	dfc00117 	ldw	ra,4(sp)
  813c40:	df000017 	ldw	fp,0(sp)
  813c44:	dec00204 	addi	sp,sp,8
  813c48:	f800283a 	ret

00813c4c <altera_avalon_jtag_uart_ioctl_fd>:
  813c4c:	defffa04 	addi	sp,sp,-24
  813c50:	dfc00515 	stw	ra,20(sp)
  813c54:	df000415 	stw	fp,16(sp)
  813c58:	df000404 	addi	fp,sp,16
  813c5c:	e13ffd15 	stw	r4,-12(fp)
  813c60:	e17ffe15 	stw	r5,-8(fp)
  813c64:	e1bfff15 	stw	r6,-4(fp)
  813c68:	e0bffd17 	ldw	r2,-12(fp)
  813c6c:	10800017 	ldw	r2,0(r2)
  813c70:	e0bffc15 	stw	r2,-16(fp)
  813c74:	e0bffc17 	ldw	r2,-16(fp)
  813c78:	10800a04 	addi	r2,r2,40
  813c7c:	e1bfff17 	ldw	r6,-4(fp)
  813c80:	e17ffe17 	ldw	r5,-8(fp)
  813c84:	1009883a 	mov	r4,r2
  813c88:	08140740 	call	814074 <altera_avalon_jtag_uart_ioctl>
  813c8c:	e037883a 	mov	sp,fp
  813c90:	dfc00117 	ldw	ra,4(sp)
  813c94:	df000017 	ldw	fp,0(sp)
  813c98:	dec00204 	addi	sp,sp,8
  813c9c:	f800283a 	ret

00813ca0 <altera_avalon_jtag_uart_init>:
  813ca0:	defffa04 	addi	sp,sp,-24
  813ca4:	dfc00515 	stw	ra,20(sp)
  813ca8:	df000415 	stw	fp,16(sp)
  813cac:	df000404 	addi	fp,sp,16
  813cb0:	e13ffd15 	stw	r4,-12(fp)
  813cb4:	e17ffe15 	stw	r5,-8(fp)
  813cb8:	e1bfff15 	stw	r6,-4(fp)
  813cbc:	e0bffd17 	ldw	r2,-12(fp)
  813cc0:	00c00044 	movi	r3,1
  813cc4:	10c00815 	stw	r3,32(r2)
  813cc8:	e0bffd17 	ldw	r2,-12(fp)
  813ccc:	10800017 	ldw	r2,0(r2)
  813cd0:	10800104 	addi	r2,r2,4
  813cd4:	1007883a 	mov	r3,r2
  813cd8:	e0bffd17 	ldw	r2,-12(fp)
  813cdc:	10800817 	ldw	r2,32(r2)
  813ce0:	18800035 	stwio	r2,0(r3)
  813ce4:	e0bffe17 	ldw	r2,-8(fp)
  813ce8:	e0ffff17 	ldw	r3,-4(fp)
  813cec:	d8000015 	stw	zero,0(sp)
  813cf0:	e1fffd17 	ldw	r7,-12(fp)
  813cf4:	01802074 	movhi	r6,129
  813cf8:	318f5804 	addi	r6,r6,15712
  813cfc:	180b883a 	mov	r5,r3
  813d00:	1009883a 	mov	r4,r2
  813d04:	08162a40 	call	8162a4 <alt_ic_isr_register>
  813d08:	e0bffd17 	ldw	r2,-12(fp)
  813d0c:	10000915 	stw	zero,36(r2)
  813d10:	e0bffd17 	ldw	r2,-12(fp)
  813d14:	10800204 	addi	r2,r2,8
  813d18:	d0e75817 	ldw	r3,-25248(gp)
  813d1c:	e1fffd17 	ldw	r7,-12(fp)
  813d20:	01802074 	movhi	r6,129
  813d24:	318fdb04 	addi	r6,r6,16236
  813d28:	180b883a 	mov	r5,r3
  813d2c:	1009883a 	mov	r4,r2
  813d30:	0812a500 	call	812a50 <alt_alarm_start>
  813d34:	1000040e 	bge	r2,zero,813d48 <altera_avalon_jtag_uart_init+0xa8>
  813d38:	e0fffd17 	ldw	r3,-12(fp)
  813d3c:	00a00034 	movhi	r2,32768
  813d40:	10bfffc4 	addi	r2,r2,-1
  813d44:	18800115 	stw	r2,4(r3)
  813d48:	0001883a 	nop
  813d4c:	e037883a 	mov	sp,fp
  813d50:	dfc00117 	ldw	ra,4(sp)
  813d54:	df000017 	ldw	fp,0(sp)
  813d58:	dec00204 	addi	sp,sp,8
  813d5c:	f800283a 	ret

00813d60 <altera_avalon_jtag_uart_irq>:
  813d60:	defff804 	addi	sp,sp,-32
  813d64:	df000715 	stw	fp,28(sp)
  813d68:	df000704 	addi	fp,sp,28
  813d6c:	e13fff15 	stw	r4,-4(fp)
  813d70:	e0bfff17 	ldw	r2,-4(fp)
  813d74:	e0bffb15 	stw	r2,-20(fp)
  813d78:	e0bffb17 	ldw	r2,-20(fp)
  813d7c:	10800017 	ldw	r2,0(r2)
  813d80:	e0bffc15 	stw	r2,-16(fp)
  813d84:	e0bffc17 	ldw	r2,-16(fp)
  813d88:	10800104 	addi	r2,r2,4
  813d8c:	10800037 	ldwio	r2,0(r2)
  813d90:	e0bffd15 	stw	r2,-12(fp)
  813d94:	e0bffd17 	ldw	r2,-12(fp)
  813d98:	1080c00c 	andi	r2,r2,768
  813d9c:	10006d26 	beq	r2,zero,813f54 <altera_avalon_jtag_uart_irq+0x1f4>
  813da0:	e0bffd17 	ldw	r2,-12(fp)
  813da4:	1080400c 	andi	r2,r2,256
  813da8:	10003526 	beq	r2,zero,813e80 <altera_avalon_jtag_uart_irq+0x120>
  813dac:	00800074 	movhi	r2,1
  813db0:	e0bff915 	stw	r2,-28(fp)
  813db4:	e0bffb17 	ldw	r2,-20(fp)
  813db8:	10800a17 	ldw	r2,40(r2)
  813dbc:	10800044 	addi	r2,r2,1
  813dc0:	1081ffcc 	andi	r2,r2,2047
  813dc4:	e0bffe15 	stw	r2,-8(fp)
  813dc8:	e0bffb17 	ldw	r2,-20(fp)
  813dcc:	10c00b17 	ldw	r3,44(r2)
  813dd0:	e0bffe17 	ldw	r2,-8(fp)
  813dd4:	18801526 	beq	r3,r2,813e2c <altera_avalon_jtag_uart_irq+0xcc>
  813dd8:	e0bffc17 	ldw	r2,-16(fp)
  813ddc:	10800037 	ldwio	r2,0(r2)
  813de0:	e0bff915 	stw	r2,-28(fp)
  813de4:	e0bff917 	ldw	r2,-28(fp)
  813de8:	10a0000c 	andi	r2,r2,32768
  813dec:	10001126 	beq	r2,zero,813e34 <altera_avalon_jtag_uart_irq+0xd4>
  813df0:	e0bffb17 	ldw	r2,-20(fp)
  813df4:	10800a17 	ldw	r2,40(r2)
  813df8:	e0fff917 	ldw	r3,-28(fp)
  813dfc:	1809883a 	mov	r4,r3
  813e00:	e0fffb17 	ldw	r3,-20(fp)
  813e04:	1885883a 	add	r2,r3,r2
  813e08:	10800e04 	addi	r2,r2,56
  813e0c:	11000005 	stb	r4,0(r2)
  813e10:	e0bffb17 	ldw	r2,-20(fp)
  813e14:	10800a17 	ldw	r2,40(r2)
  813e18:	10800044 	addi	r2,r2,1
  813e1c:	10c1ffcc 	andi	r3,r2,2047
  813e20:	e0bffb17 	ldw	r2,-20(fp)
  813e24:	10c00a15 	stw	r3,40(r2)
  813e28:	003fe206 	br	813db4 <__alt_mem_onchip_mem+0xff80bdb4>
  813e2c:	0001883a 	nop
  813e30:	00000106 	br	813e38 <altera_avalon_jtag_uart_irq+0xd8>
  813e34:	0001883a 	nop
  813e38:	e0bff917 	ldw	r2,-28(fp)
  813e3c:	10bfffec 	andhi	r2,r2,65535
  813e40:	10000f26 	beq	r2,zero,813e80 <altera_avalon_jtag_uart_irq+0x120>
  813e44:	e0bffb17 	ldw	r2,-20(fp)
  813e48:	10c00817 	ldw	r3,32(r2)
  813e4c:	00bfff84 	movi	r2,-2
  813e50:	1886703a 	and	r3,r3,r2
  813e54:	e0bffb17 	ldw	r2,-20(fp)
  813e58:	10c00815 	stw	r3,32(r2)
  813e5c:	e0bffc17 	ldw	r2,-16(fp)
  813e60:	10800104 	addi	r2,r2,4
  813e64:	1007883a 	mov	r3,r2
  813e68:	e0bffb17 	ldw	r2,-20(fp)
  813e6c:	10800817 	ldw	r2,32(r2)
  813e70:	18800035 	stwio	r2,0(r3)
  813e74:	e0bffc17 	ldw	r2,-16(fp)
  813e78:	10800104 	addi	r2,r2,4
  813e7c:	10800037 	ldwio	r2,0(r2)
  813e80:	e0bffd17 	ldw	r2,-12(fp)
  813e84:	1080800c 	andi	r2,r2,512
  813e88:	103fbe26 	beq	r2,zero,813d84 <__alt_mem_onchip_mem+0xff80bd84>
  813e8c:	e0bffd17 	ldw	r2,-12(fp)
  813e90:	1004d43a 	srli	r2,r2,16
  813e94:	e0bffa15 	stw	r2,-24(fp)
  813e98:	00001406 	br	813eec <altera_avalon_jtag_uart_irq+0x18c>
  813e9c:	e0bffc17 	ldw	r2,-16(fp)
  813ea0:	e0fffb17 	ldw	r3,-20(fp)
  813ea4:	18c00d17 	ldw	r3,52(r3)
  813ea8:	e13ffb17 	ldw	r4,-20(fp)
  813eac:	20c7883a 	add	r3,r4,r3
  813eb0:	18c20e04 	addi	r3,r3,2104
  813eb4:	18c00003 	ldbu	r3,0(r3)
  813eb8:	18c03fcc 	andi	r3,r3,255
  813ebc:	18c0201c 	xori	r3,r3,128
  813ec0:	18ffe004 	addi	r3,r3,-128
  813ec4:	10c00035 	stwio	r3,0(r2)
  813ec8:	e0bffb17 	ldw	r2,-20(fp)
  813ecc:	10800d17 	ldw	r2,52(r2)
  813ed0:	10800044 	addi	r2,r2,1
  813ed4:	10c1ffcc 	andi	r3,r2,2047
  813ed8:	e0bffb17 	ldw	r2,-20(fp)
  813edc:	10c00d15 	stw	r3,52(r2)
  813ee0:	e0bffa17 	ldw	r2,-24(fp)
  813ee4:	10bfffc4 	addi	r2,r2,-1
  813ee8:	e0bffa15 	stw	r2,-24(fp)
  813eec:	e0bffa17 	ldw	r2,-24(fp)
  813ef0:	10000526 	beq	r2,zero,813f08 <altera_avalon_jtag_uart_irq+0x1a8>
  813ef4:	e0bffb17 	ldw	r2,-20(fp)
  813ef8:	10c00d17 	ldw	r3,52(r2)
  813efc:	e0bffb17 	ldw	r2,-20(fp)
  813f00:	10800c17 	ldw	r2,48(r2)
  813f04:	18bfe51e 	bne	r3,r2,813e9c <__alt_mem_onchip_mem+0xff80be9c>
  813f08:	e0bffa17 	ldw	r2,-24(fp)
  813f0c:	103f9d26 	beq	r2,zero,813d84 <__alt_mem_onchip_mem+0xff80bd84>
  813f10:	e0bffb17 	ldw	r2,-20(fp)
  813f14:	10c00817 	ldw	r3,32(r2)
  813f18:	00bfff44 	movi	r2,-3
  813f1c:	1886703a 	and	r3,r3,r2
  813f20:	e0bffb17 	ldw	r2,-20(fp)
  813f24:	10c00815 	stw	r3,32(r2)
  813f28:	e0bffb17 	ldw	r2,-20(fp)
  813f2c:	10800017 	ldw	r2,0(r2)
  813f30:	10800104 	addi	r2,r2,4
  813f34:	1007883a 	mov	r3,r2
  813f38:	e0bffb17 	ldw	r2,-20(fp)
  813f3c:	10800817 	ldw	r2,32(r2)
  813f40:	18800035 	stwio	r2,0(r3)
  813f44:	e0bffc17 	ldw	r2,-16(fp)
  813f48:	10800104 	addi	r2,r2,4
  813f4c:	10800037 	ldwio	r2,0(r2)
  813f50:	003f8c06 	br	813d84 <__alt_mem_onchip_mem+0xff80bd84>
  813f54:	0001883a 	nop
  813f58:	0001883a 	nop
  813f5c:	e037883a 	mov	sp,fp
  813f60:	df000017 	ldw	fp,0(sp)
  813f64:	dec00104 	addi	sp,sp,4
  813f68:	f800283a 	ret

00813f6c <altera_avalon_jtag_uart_timeout>:
  813f6c:	defff804 	addi	sp,sp,-32
  813f70:	df000715 	stw	fp,28(sp)
  813f74:	df000704 	addi	fp,sp,28
  813f78:	e13ffb15 	stw	r4,-20(fp)
  813f7c:	e0bffb17 	ldw	r2,-20(fp)
  813f80:	e0bff915 	stw	r2,-28(fp)
  813f84:	e0bff917 	ldw	r2,-28(fp)
  813f88:	10800017 	ldw	r2,0(r2)
  813f8c:	10800104 	addi	r2,r2,4
  813f90:	10800037 	ldwio	r2,0(r2)
  813f94:	e0bffa15 	stw	r2,-24(fp)
  813f98:	e0bffa17 	ldw	r2,-24(fp)
  813f9c:	1081000c 	andi	r2,r2,1024
  813fa0:	10000b26 	beq	r2,zero,813fd0 <altera_avalon_jtag_uart_timeout+0x64>
  813fa4:	e0bff917 	ldw	r2,-28(fp)
  813fa8:	10800017 	ldw	r2,0(r2)
  813fac:	10800104 	addi	r2,r2,4
  813fb0:	1007883a 	mov	r3,r2
  813fb4:	e0bff917 	ldw	r2,-28(fp)
  813fb8:	10800817 	ldw	r2,32(r2)
  813fbc:	10810014 	ori	r2,r2,1024
  813fc0:	18800035 	stwio	r2,0(r3)
  813fc4:	e0bff917 	ldw	r2,-28(fp)
  813fc8:	10000915 	stw	zero,36(r2)
  813fcc:	00000a06 	br	813ff8 <altera_avalon_jtag_uart_timeout+0x8c>
  813fd0:	e0bff917 	ldw	r2,-28(fp)
  813fd4:	10c00917 	ldw	r3,36(r2)
  813fd8:	00a00034 	movhi	r2,32768
  813fdc:	10bfff04 	addi	r2,r2,-4
  813fe0:	10c00536 	bltu	r2,r3,813ff8 <altera_avalon_jtag_uart_timeout+0x8c>
  813fe4:	e0bff917 	ldw	r2,-28(fp)
  813fe8:	10800917 	ldw	r2,36(r2)
  813fec:	10c00044 	addi	r3,r2,1
  813ff0:	e0bff917 	ldw	r2,-28(fp)
  813ff4:	10c00915 	stw	r3,36(r2)
  813ff8:	d0a75817 	ldw	r2,-25248(gp)
  813ffc:	e037883a 	mov	sp,fp
  814000:	df000017 	ldw	fp,0(sp)
  814004:	dec00104 	addi	sp,sp,4
  814008:	f800283a 	ret

0081400c <altera_avalon_jtag_uart_close>:
  81400c:	defffd04 	addi	sp,sp,-12
  814010:	df000215 	stw	fp,8(sp)
  814014:	df000204 	addi	fp,sp,8
  814018:	e13ffe15 	stw	r4,-8(fp)
  81401c:	e17fff15 	stw	r5,-4(fp)
  814020:	00000506 	br	814038 <altera_avalon_jtag_uart_close+0x2c>
  814024:	e0bfff17 	ldw	r2,-4(fp)
  814028:	1090000c 	andi	r2,r2,16384
  81402c:	10000226 	beq	r2,zero,814038 <altera_avalon_jtag_uart_close+0x2c>
  814030:	00bffd44 	movi	r2,-11
  814034:	00000b06 	br	814064 <altera_avalon_jtag_uart_close+0x58>
  814038:	e0bffe17 	ldw	r2,-8(fp)
  81403c:	10c00d17 	ldw	r3,52(r2)
  814040:	e0bffe17 	ldw	r2,-8(fp)
  814044:	10800c17 	ldw	r2,48(r2)
  814048:	18800526 	beq	r3,r2,814060 <altera_avalon_jtag_uart_close+0x54>
  81404c:	e0bffe17 	ldw	r2,-8(fp)
  814050:	10c00917 	ldw	r3,36(r2)
  814054:	e0bffe17 	ldw	r2,-8(fp)
  814058:	10800117 	ldw	r2,4(r2)
  81405c:	18bff136 	bltu	r3,r2,814024 <__alt_mem_onchip_mem+0xff80c024>
  814060:	0005883a 	mov	r2,zero
  814064:	e037883a 	mov	sp,fp
  814068:	df000017 	ldw	fp,0(sp)
  81406c:	dec00104 	addi	sp,sp,4
  814070:	f800283a 	ret

00814074 <altera_avalon_jtag_uart_ioctl>:
  814074:	defffa04 	addi	sp,sp,-24
  814078:	df000515 	stw	fp,20(sp)
  81407c:	df000504 	addi	fp,sp,20
  814080:	e13ffd15 	stw	r4,-12(fp)
  814084:	e17ffe15 	stw	r5,-8(fp)
  814088:	e1bfff15 	stw	r6,-4(fp)
  81408c:	00bff9c4 	movi	r2,-25
  814090:	e0bffb15 	stw	r2,-20(fp)
  814094:	e0bffe17 	ldw	r2,-8(fp)
  814098:	10da8060 	cmpeqi	r3,r2,27137
  81409c:	1800031e 	bne	r3,zero,8140ac <altera_avalon_jtag_uart_ioctl+0x38>
  8140a0:	109a80a0 	cmpeqi	r2,r2,27138
  8140a4:	1000181e 	bne	r2,zero,814108 <altera_avalon_jtag_uart_ioctl+0x94>
  8140a8:	00002906 	br	814150 <altera_avalon_jtag_uart_ioctl+0xdc>
  8140ac:	e0bffd17 	ldw	r2,-12(fp)
  8140b0:	10c00117 	ldw	r3,4(r2)
  8140b4:	00a00034 	movhi	r2,32768
  8140b8:	10bfffc4 	addi	r2,r2,-1
  8140bc:	18802126 	beq	r3,r2,814144 <altera_avalon_jtag_uart_ioctl+0xd0>
  8140c0:	e0bfff17 	ldw	r2,-4(fp)
  8140c4:	10800017 	ldw	r2,0(r2)
  8140c8:	e0bffc15 	stw	r2,-16(fp)
  8140cc:	e0bffc17 	ldw	r2,-16(fp)
  8140d0:	10800090 	cmplti	r2,r2,2
  8140d4:	1000061e 	bne	r2,zero,8140f0 <altera_avalon_jtag_uart_ioctl+0x7c>
  8140d8:	e0fffc17 	ldw	r3,-16(fp)
  8140dc:	00a00034 	movhi	r2,32768
  8140e0:	10bfffc4 	addi	r2,r2,-1
  8140e4:	18800226 	beq	r3,r2,8140f0 <altera_avalon_jtag_uart_ioctl+0x7c>
  8140e8:	e0bffc17 	ldw	r2,-16(fp)
  8140ec:	00000206 	br	8140f8 <altera_avalon_jtag_uart_ioctl+0x84>
  8140f0:	00a00034 	movhi	r2,32768
  8140f4:	10bfff84 	addi	r2,r2,-2
  8140f8:	e0fffd17 	ldw	r3,-12(fp)
  8140fc:	18800115 	stw	r2,4(r3)
  814100:	e03ffb15 	stw	zero,-20(fp)
  814104:	00000f06 	br	814144 <altera_avalon_jtag_uart_ioctl+0xd0>
  814108:	e0bffd17 	ldw	r2,-12(fp)
  81410c:	10c00117 	ldw	r3,4(r2)
  814110:	00a00034 	movhi	r2,32768
  814114:	10bfffc4 	addi	r2,r2,-1
  814118:	18800c26 	beq	r3,r2,81414c <altera_avalon_jtag_uart_ioctl+0xd8>
  81411c:	e0bffd17 	ldw	r2,-12(fp)
  814120:	10c00917 	ldw	r3,36(r2)
  814124:	e0bffd17 	ldw	r2,-12(fp)
  814128:	10800117 	ldw	r2,4(r2)
  81412c:	1885803a 	cmpltu	r2,r3,r2
  814130:	10c03fcc 	andi	r3,r2,255
  814134:	e0bfff17 	ldw	r2,-4(fp)
  814138:	10c00015 	stw	r3,0(r2)
  81413c:	e03ffb15 	stw	zero,-20(fp)
  814140:	00000206 	br	81414c <altera_avalon_jtag_uart_ioctl+0xd8>
  814144:	0001883a 	nop
  814148:	00000106 	br	814150 <altera_avalon_jtag_uart_ioctl+0xdc>
  81414c:	0001883a 	nop
  814150:	e0bffb17 	ldw	r2,-20(fp)
  814154:	e037883a 	mov	sp,fp
  814158:	df000017 	ldw	fp,0(sp)
  81415c:	dec00104 	addi	sp,sp,4
  814160:	f800283a 	ret

00814164 <altera_avalon_jtag_uart_read>:
  814164:	defff304 	addi	sp,sp,-52
  814168:	dfc00c15 	stw	ra,48(sp)
  81416c:	df000b15 	stw	fp,44(sp)
  814170:	df000b04 	addi	fp,sp,44
  814174:	e13ffc15 	stw	r4,-16(fp)
  814178:	e17ffd15 	stw	r5,-12(fp)
  81417c:	e1bffe15 	stw	r6,-8(fp)
  814180:	e1ffff15 	stw	r7,-4(fp)
  814184:	e0bffd17 	ldw	r2,-12(fp)
  814188:	e0bff515 	stw	r2,-44(fp)
  81418c:	00004706 	br	8142ac <altera_avalon_jtag_uart_read+0x148>
  814190:	e0bffc17 	ldw	r2,-16(fp)
  814194:	10800a17 	ldw	r2,40(r2)
  814198:	e0bff715 	stw	r2,-36(fp)
  81419c:	e0bffc17 	ldw	r2,-16(fp)
  8141a0:	10800b17 	ldw	r2,44(r2)
  8141a4:	e0bff815 	stw	r2,-32(fp)
  8141a8:	e0fff717 	ldw	r3,-36(fp)
  8141ac:	e0bff817 	ldw	r2,-32(fp)
  8141b0:	18800536 	bltu	r3,r2,8141c8 <altera_avalon_jtag_uart_read+0x64>
  8141b4:	e0fff717 	ldw	r3,-36(fp)
  8141b8:	e0bff817 	ldw	r2,-32(fp)
  8141bc:	1885c83a 	sub	r2,r3,r2
  8141c0:	e0bff615 	stw	r2,-40(fp)
  8141c4:	00000406 	br	8141d8 <altera_avalon_jtag_uart_read+0x74>
  8141c8:	00c20004 	movi	r3,2048
  8141cc:	e0bff817 	ldw	r2,-32(fp)
  8141d0:	1885c83a 	sub	r2,r3,r2
  8141d4:	e0bff615 	stw	r2,-40(fp)
  8141d8:	e0bff617 	ldw	r2,-40(fp)
  8141dc:	10001e26 	beq	r2,zero,814258 <altera_avalon_jtag_uart_read+0xf4>
  8141e0:	e0fffe17 	ldw	r3,-8(fp)
  8141e4:	e0bff617 	ldw	r2,-40(fp)
  8141e8:	1880022e 	bgeu	r3,r2,8141f4 <altera_avalon_jtag_uart_read+0x90>
  8141ec:	e0bffe17 	ldw	r2,-8(fp)
  8141f0:	e0bff615 	stw	r2,-40(fp)
  8141f4:	e0bffc17 	ldw	r2,-16(fp)
  8141f8:	10c00e04 	addi	r3,r2,56
  8141fc:	e0bff817 	ldw	r2,-32(fp)
  814200:	1885883a 	add	r2,r3,r2
  814204:	e1bff617 	ldw	r6,-40(fp)
  814208:	100b883a 	mov	r5,r2
  81420c:	e13ff517 	ldw	r4,-44(fp)
  814210:	080d78c0 	call	80d78c <memcpy>
  814214:	e0fff517 	ldw	r3,-44(fp)
  814218:	e0bff617 	ldw	r2,-40(fp)
  81421c:	1885883a 	add	r2,r3,r2
  814220:	e0bff515 	stw	r2,-44(fp)
  814224:	e0fffe17 	ldw	r3,-8(fp)
  814228:	e0bff617 	ldw	r2,-40(fp)
  81422c:	1885c83a 	sub	r2,r3,r2
  814230:	e0bffe15 	stw	r2,-8(fp)
  814234:	e0fff817 	ldw	r3,-32(fp)
  814238:	e0bff617 	ldw	r2,-40(fp)
  81423c:	1885883a 	add	r2,r3,r2
  814240:	10c1ffcc 	andi	r3,r2,2047
  814244:	e0bffc17 	ldw	r2,-16(fp)
  814248:	10c00b15 	stw	r3,44(r2)
  81424c:	e0bffe17 	ldw	r2,-8(fp)
  814250:	00bfcf16 	blt	zero,r2,814190 <__alt_mem_onchip_mem+0xff80c190>
  814254:	00000106 	br	81425c <altera_avalon_jtag_uart_read+0xf8>
  814258:	0001883a 	nop
  81425c:	e0fff517 	ldw	r3,-44(fp)
  814260:	e0bffd17 	ldw	r2,-12(fp)
  814264:	1880141e 	bne	r3,r2,8142b8 <altera_avalon_jtag_uart_read+0x154>
  814268:	e0bfff17 	ldw	r2,-4(fp)
  81426c:	1090000c 	andi	r2,r2,16384
  814270:	1000131e 	bne	r2,zero,8142c0 <altera_avalon_jtag_uart_read+0x15c>
  814274:	0001883a 	nop
  814278:	e0bffc17 	ldw	r2,-16(fp)
  81427c:	10c00a17 	ldw	r3,40(r2)
  814280:	e0bff717 	ldw	r2,-36(fp)
  814284:	1880051e 	bne	r3,r2,81429c <altera_avalon_jtag_uart_read+0x138>
  814288:	e0bffc17 	ldw	r2,-16(fp)
  81428c:	10c00917 	ldw	r3,36(r2)
  814290:	e0bffc17 	ldw	r2,-16(fp)
  814294:	10800117 	ldw	r2,4(r2)
  814298:	18bff736 	bltu	r3,r2,814278 <__alt_mem_onchip_mem+0xff80c278>
  81429c:	e0bffc17 	ldw	r2,-16(fp)
  8142a0:	10c00a17 	ldw	r3,40(r2)
  8142a4:	e0bff717 	ldw	r2,-36(fp)
  8142a8:	18800726 	beq	r3,r2,8142c8 <altera_avalon_jtag_uart_read+0x164>
  8142ac:	e0bffe17 	ldw	r2,-8(fp)
  8142b0:	00bfb716 	blt	zero,r2,814190 <__alt_mem_onchip_mem+0xff80c190>
  8142b4:	00000506 	br	8142cc <altera_avalon_jtag_uart_read+0x168>
  8142b8:	0001883a 	nop
  8142bc:	00000306 	br	8142cc <altera_avalon_jtag_uart_read+0x168>
  8142c0:	0001883a 	nop
  8142c4:	00000106 	br	8142cc <altera_avalon_jtag_uart_read+0x168>
  8142c8:	0001883a 	nop
  8142cc:	e0fff517 	ldw	r3,-44(fp)
  8142d0:	e0bffd17 	ldw	r2,-12(fp)
  8142d4:	18801826 	beq	r3,r2,814338 <altera_avalon_jtag_uart_read+0x1d4>
  8142d8:	0005303a 	rdctl	r2,status
  8142dc:	e0bffb15 	stw	r2,-20(fp)
  8142e0:	e0fffb17 	ldw	r3,-20(fp)
  8142e4:	00bfff84 	movi	r2,-2
  8142e8:	1884703a 	and	r2,r3,r2
  8142ec:	1001703a 	wrctl	status,r2
  8142f0:	e0bffb17 	ldw	r2,-20(fp)
  8142f4:	e0bffa15 	stw	r2,-24(fp)
  8142f8:	e0bffc17 	ldw	r2,-16(fp)
  8142fc:	10800817 	ldw	r2,32(r2)
  814300:	10c00054 	ori	r3,r2,1
  814304:	e0bffc17 	ldw	r2,-16(fp)
  814308:	10c00815 	stw	r3,32(r2)
  81430c:	e0bffc17 	ldw	r2,-16(fp)
  814310:	10800017 	ldw	r2,0(r2)
  814314:	10800104 	addi	r2,r2,4
  814318:	1007883a 	mov	r3,r2
  81431c:	e0bffc17 	ldw	r2,-16(fp)
  814320:	10800817 	ldw	r2,32(r2)
  814324:	18800035 	stwio	r2,0(r3)
  814328:	e0bffa17 	ldw	r2,-24(fp)
  81432c:	e0bff915 	stw	r2,-28(fp)
  814330:	e0bff917 	ldw	r2,-28(fp)
  814334:	1001703a 	wrctl	status,r2
  814338:	e0fff517 	ldw	r3,-44(fp)
  81433c:	e0bffd17 	ldw	r2,-12(fp)
  814340:	18800426 	beq	r3,r2,814354 <altera_avalon_jtag_uart_read+0x1f0>
  814344:	e0fff517 	ldw	r3,-44(fp)
  814348:	e0bffd17 	ldw	r2,-12(fp)
  81434c:	1885c83a 	sub	r2,r3,r2
  814350:	00000606 	br	81436c <altera_avalon_jtag_uart_read+0x208>
  814354:	e0bfff17 	ldw	r2,-4(fp)
  814358:	1090000c 	andi	r2,r2,16384
  81435c:	10000226 	beq	r2,zero,814368 <altera_avalon_jtag_uart_read+0x204>
  814360:	00bffd44 	movi	r2,-11
  814364:	00000106 	br	81436c <altera_avalon_jtag_uart_read+0x208>
  814368:	00bffec4 	movi	r2,-5
  81436c:	e037883a 	mov	sp,fp
  814370:	dfc00117 	ldw	ra,4(sp)
  814374:	df000017 	ldw	fp,0(sp)
  814378:	dec00204 	addi	sp,sp,8
  81437c:	f800283a 	ret

00814380 <altera_avalon_jtag_uart_write>:
  814380:	defff304 	addi	sp,sp,-52
  814384:	dfc00c15 	stw	ra,48(sp)
  814388:	df000b15 	stw	fp,44(sp)
  81438c:	df000b04 	addi	fp,sp,44
  814390:	e13ffc15 	stw	r4,-16(fp)
  814394:	e17ffd15 	stw	r5,-12(fp)
  814398:	e1bffe15 	stw	r6,-8(fp)
  81439c:	e1ffff15 	stw	r7,-4(fp)
  8143a0:	e03ff515 	stw	zero,-44(fp)
  8143a4:	e0bffd17 	ldw	r2,-12(fp)
  8143a8:	e0bff715 	stw	r2,-36(fp)
  8143ac:	00003706 	br	81448c <altera_avalon_jtag_uart_write+0x10c>
  8143b0:	e0bffc17 	ldw	r2,-16(fp)
  8143b4:	10800c17 	ldw	r2,48(r2)
  8143b8:	e0bff915 	stw	r2,-28(fp)
  8143bc:	e0bffc17 	ldw	r2,-16(fp)
  8143c0:	10800d17 	ldw	r2,52(r2)
  8143c4:	e0bff515 	stw	r2,-44(fp)
  8143c8:	e0fff917 	ldw	r3,-28(fp)
  8143cc:	e0bff517 	ldw	r2,-44(fp)
  8143d0:	1880062e 	bgeu	r3,r2,8143ec <altera_avalon_jtag_uart_write+0x6c>
  8143d4:	e0fff517 	ldw	r3,-44(fp)
  8143d8:	e0bff917 	ldw	r2,-28(fp)
  8143dc:	1885c83a 	sub	r2,r3,r2
  8143e0:	10bfffc4 	addi	r2,r2,-1
  8143e4:	e0bff615 	stw	r2,-40(fp)
  8143e8:	00000b06 	br	814418 <altera_avalon_jtag_uart_write+0x98>
  8143ec:	e0bff517 	ldw	r2,-44(fp)
  8143f0:	10000526 	beq	r2,zero,814408 <altera_avalon_jtag_uart_write+0x88>
  8143f4:	00c20004 	movi	r3,2048
  8143f8:	e0bff917 	ldw	r2,-28(fp)
  8143fc:	1885c83a 	sub	r2,r3,r2
  814400:	e0bff615 	stw	r2,-40(fp)
  814404:	00000406 	br	814418 <altera_avalon_jtag_uart_write+0x98>
  814408:	00c1ffc4 	movi	r3,2047
  81440c:	e0bff917 	ldw	r2,-28(fp)
  814410:	1885c83a 	sub	r2,r3,r2
  814414:	e0bff615 	stw	r2,-40(fp)
  814418:	e0bff617 	ldw	r2,-40(fp)
  81441c:	10001e26 	beq	r2,zero,814498 <altera_avalon_jtag_uart_write+0x118>
  814420:	e0fffe17 	ldw	r3,-8(fp)
  814424:	e0bff617 	ldw	r2,-40(fp)
  814428:	1880022e 	bgeu	r3,r2,814434 <altera_avalon_jtag_uart_write+0xb4>
  81442c:	e0bffe17 	ldw	r2,-8(fp)
  814430:	e0bff615 	stw	r2,-40(fp)
  814434:	e0bffc17 	ldw	r2,-16(fp)
  814438:	10c20e04 	addi	r3,r2,2104
  81443c:	e0bff917 	ldw	r2,-28(fp)
  814440:	1885883a 	add	r2,r3,r2
  814444:	e1bff617 	ldw	r6,-40(fp)
  814448:	e17ffd17 	ldw	r5,-12(fp)
  81444c:	1009883a 	mov	r4,r2
  814450:	080d78c0 	call	80d78c <memcpy>
  814454:	e0fffd17 	ldw	r3,-12(fp)
  814458:	e0bff617 	ldw	r2,-40(fp)
  81445c:	1885883a 	add	r2,r3,r2
  814460:	e0bffd15 	stw	r2,-12(fp)
  814464:	e0fffe17 	ldw	r3,-8(fp)
  814468:	e0bff617 	ldw	r2,-40(fp)
  81446c:	1885c83a 	sub	r2,r3,r2
  814470:	e0bffe15 	stw	r2,-8(fp)
  814474:	e0fff917 	ldw	r3,-28(fp)
  814478:	e0bff617 	ldw	r2,-40(fp)
  81447c:	1885883a 	add	r2,r3,r2
  814480:	10c1ffcc 	andi	r3,r2,2047
  814484:	e0bffc17 	ldw	r2,-16(fp)
  814488:	10c00c15 	stw	r3,48(r2)
  81448c:	e0bffe17 	ldw	r2,-8(fp)
  814490:	00bfc716 	blt	zero,r2,8143b0 <__alt_mem_onchip_mem+0xff80c3b0>
  814494:	00000106 	br	81449c <altera_avalon_jtag_uart_write+0x11c>
  814498:	0001883a 	nop
  81449c:	0005303a 	rdctl	r2,status
  8144a0:	e0bffb15 	stw	r2,-20(fp)
  8144a4:	e0fffb17 	ldw	r3,-20(fp)
  8144a8:	00bfff84 	movi	r2,-2
  8144ac:	1884703a 	and	r2,r3,r2
  8144b0:	1001703a 	wrctl	status,r2
  8144b4:	e0bffb17 	ldw	r2,-20(fp)
  8144b8:	e0bffa15 	stw	r2,-24(fp)
  8144bc:	e0bffc17 	ldw	r2,-16(fp)
  8144c0:	10800817 	ldw	r2,32(r2)
  8144c4:	10c00094 	ori	r3,r2,2
  8144c8:	e0bffc17 	ldw	r2,-16(fp)
  8144cc:	10c00815 	stw	r3,32(r2)
  8144d0:	e0bffc17 	ldw	r2,-16(fp)
  8144d4:	10800017 	ldw	r2,0(r2)
  8144d8:	10800104 	addi	r2,r2,4
  8144dc:	1007883a 	mov	r3,r2
  8144e0:	e0bffc17 	ldw	r2,-16(fp)
  8144e4:	10800817 	ldw	r2,32(r2)
  8144e8:	18800035 	stwio	r2,0(r3)
  8144ec:	e0bffa17 	ldw	r2,-24(fp)
  8144f0:	e0bff815 	stw	r2,-32(fp)
  8144f4:	e0bff817 	ldw	r2,-32(fp)
  8144f8:	1001703a 	wrctl	status,r2
  8144fc:	e0bffe17 	ldw	r2,-8(fp)
  814500:	0080100e 	bge	zero,r2,814544 <altera_avalon_jtag_uart_write+0x1c4>
  814504:	e0bfff17 	ldw	r2,-4(fp)
  814508:	1090000c 	andi	r2,r2,16384
  81450c:	1000101e 	bne	r2,zero,814550 <altera_avalon_jtag_uart_write+0x1d0>
  814510:	0001883a 	nop
  814514:	e0bffc17 	ldw	r2,-16(fp)
  814518:	10c00d17 	ldw	r3,52(r2)
  81451c:	e0bff517 	ldw	r2,-44(fp)
  814520:	1880051e 	bne	r3,r2,814538 <altera_avalon_jtag_uart_write+0x1b8>
  814524:	e0bffc17 	ldw	r2,-16(fp)
  814528:	10c00917 	ldw	r3,36(r2)
  81452c:	e0bffc17 	ldw	r2,-16(fp)
  814530:	10800117 	ldw	r2,4(r2)
  814534:	18bff736 	bltu	r3,r2,814514 <__alt_mem_onchip_mem+0xff80c514>
  814538:	e0bffc17 	ldw	r2,-16(fp)
  81453c:	10800917 	ldw	r2,36(r2)
  814540:	1000051e 	bne	r2,zero,814558 <altera_avalon_jtag_uart_write+0x1d8>
  814544:	e0bffe17 	ldw	r2,-8(fp)
  814548:	00bfd016 	blt	zero,r2,81448c <__alt_mem_onchip_mem+0xff80c48c>
  81454c:	00000306 	br	81455c <altera_avalon_jtag_uart_write+0x1dc>
  814550:	0001883a 	nop
  814554:	00000106 	br	81455c <altera_avalon_jtag_uart_write+0x1dc>
  814558:	0001883a 	nop
  81455c:	e0fffd17 	ldw	r3,-12(fp)
  814560:	e0bff717 	ldw	r2,-36(fp)
  814564:	18800426 	beq	r3,r2,814578 <altera_avalon_jtag_uart_write+0x1f8>
  814568:	e0fffd17 	ldw	r3,-12(fp)
  81456c:	e0bff717 	ldw	r2,-36(fp)
  814570:	1885c83a 	sub	r2,r3,r2
  814574:	00000606 	br	814590 <altera_avalon_jtag_uart_write+0x210>
  814578:	e0bfff17 	ldw	r2,-4(fp)
  81457c:	1090000c 	andi	r2,r2,16384
  814580:	10000226 	beq	r2,zero,81458c <altera_avalon_jtag_uart_write+0x20c>
  814584:	00bffd44 	movi	r2,-11
  814588:	00000106 	br	814590 <altera_avalon_jtag_uart_write+0x210>
  81458c:	00bffec4 	movi	r2,-5
  814590:	e037883a 	mov	sp,fp
  814594:	dfc00117 	ldw	ra,4(sp)
  814598:	df000017 	ldw	fp,0(sp)
  81459c:	dec00204 	addi	sp,sp,8
  8145a0:	f800283a 	ret

008145a4 <lcd_write_command>:
  8145a4:	defffa04 	addi	sp,sp,-24
  8145a8:	dfc00515 	stw	ra,20(sp)
  8145ac:	df000415 	stw	fp,16(sp)
  8145b0:	df000404 	addi	fp,sp,16
  8145b4:	e13ffe15 	stw	r4,-8(fp)
  8145b8:	2805883a 	mov	r2,r5
  8145bc:	e0bfff05 	stb	r2,-4(fp)
  8145c0:	e0bffe17 	ldw	r2,-8(fp)
  8145c4:	10800017 	ldw	r2,0(r2)
  8145c8:	e0bffd15 	stw	r2,-12(fp)
  8145cc:	008003f4 	movhi	r2,15
  8145d0:	10909004 	addi	r2,r2,16960
  8145d4:	e0bffc15 	stw	r2,-16(fp)
  8145d8:	e0bffe17 	ldw	r2,-8(fp)
  8145dc:	10800803 	ldbu	r2,32(r2)
  8145e0:	10803fcc 	andi	r2,r2,255
  8145e4:	1080201c 	xori	r2,r2,128
  8145e8:	10bfe004 	addi	r2,r2,-128
  8145ec:	1000151e 	bne	r2,zero,814644 <lcd_write_command+0xa0>
  8145f0:	00000906 	br	814618 <lcd_write_command+0x74>
  8145f4:	e0bffc17 	ldw	r2,-16(fp)
  8145f8:	10bfffc4 	addi	r2,r2,-1
  8145fc:	e0bffc15 	stw	r2,-16(fp)
  814600:	e0bffc17 	ldw	r2,-16(fp)
  814604:	1000041e 	bne	r2,zero,814618 <lcd_write_command+0x74>
  814608:	e0bffe17 	ldw	r2,-8(fp)
  81460c:	00c00044 	movi	r3,1
  814610:	10c00805 	stb	r3,32(r2)
  814614:	00000c06 	br	814648 <lcd_write_command+0xa4>
  814618:	e0bffd17 	ldw	r2,-12(fp)
  81461c:	10800104 	addi	r2,r2,4
  814620:	10800037 	ldwio	r2,0(r2)
  814624:	1080200c 	andi	r2,r2,128
  814628:	103ff21e 	bne	r2,zero,8145f4 <__alt_mem_onchip_mem+0xff80c5f4>
  81462c:	01001904 	movi	r4,100
  814630:	08166840 	call	816684 <usleep>
  814634:	e0bffd17 	ldw	r2,-12(fp)
  814638:	e0ffff03 	ldbu	r3,-4(fp)
  81463c:	10c00035 	stwio	r3,0(r2)
  814640:	00000106 	br	814648 <lcd_write_command+0xa4>
  814644:	0001883a 	nop
  814648:	e037883a 	mov	sp,fp
  81464c:	dfc00117 	ldw	ra,4(sp)
  814650:	df000017 	ldw	fp,0(sp)
  814654:	dec00204 	addi	sp,sp,8
  814658:	f800283a 	ret

0081465c <lcd_write_data>:
  81465c:	defffa04 	addi	sp,sp,-24
  814660:	dfc00515 	stw	ra,20(sp)
  814664:	df000415 	stw	fp,16(sp)
  814668:	df000404 	addi	fp,sp,16
  81466c:	e13ffe15 	stw	r4,-8(fp)
  814670:	2805883a 	mov	r2,r5
  814674:	e0bfff05 	stb	r2,-4(fp)
  814678:	e0bffe17 	ldw	r2,-8(fp)
  81467c:	10800017 	ldw	r2,0(r2)
  814680:	e0bffd15 	stw	r2,-12(fp)
  814684:	008003f4 	movhi	r2,15
  814688:	10909004 	addi	r2,r2,16960
  81468c:	e0bffc15 	stw	r2,-16(fp)
  814690:	e0bffe17 	ldw	r2,-8(fp)
  814694:	10800803 	ldbu	r2,32(r2)
  814698:	10803fcc 	andi	r2,r2,255
  81469c:	1080201c 	xori	r2,r2,128
  8146a0:	10bfe004 	addi	r2,r2,-128
  8146a4:	10001d1e 	bne	r2,zero,81471c <lcd_write_data+0xc0>
  8146a8:	00000906 	br	8146d0 <lcd_write_data+0x74>
  8146ac:	e0bffc17 	ldw	r2,-16(fp)
  8146b0:	10bfffc4 	addi	r2,r2,-1
  8146b4:	e0bffc15 	stw	r2,-16(fp)
  8146b8:	e0bffc17 	ldw	r2,-16(fp)
  8146bc:	1000041e 	bne	r2,zero,8146d0 <lcd_write_data+0x74>
  8146c0:	e0bffe17 	ldw	r2,-8(fp)
  8146c4:	00c00044 	movi	r3,1
  8146c8:	10c00805 	stb	r3,32(r2)
  8146cc:	00001406 	br	814720 <lcd_write_data+0xc4>
  8146d0:	e0bffd17 	ldw	r2,-12(fp)
  8146d4:	10800104 	addi	r2,r2,4
  8146d8:	10800037 	ldwio	r2,0(r2)
  8146dc:	1080200c 	andi	r2,r2,128
  8146e0:	103ff21e 	bne	r2,zero,8146ac <__alt_mem_onchip_mem+0xff80c6ac>
  8146e4:	01001904 	movi	r4,100
  8146e8:	08166840 	call	816684 <usleep>
  8146ec:	e0bffd17 	ldw	r2,-12(fp)
  8146f0:	10800204 	addi	r2,r2,8
  8146f4:	1007883a 	mov	r3,r2
  8146f8:	e0bfff03 	ldbu	r2,-4(fp)
  8146fc:	18800035 	stwio	r2,0(r3)
  814700:	e0bffe17 	ldw	r2,-8(fp)
  814704:	108008c3 	ldbu	r2,35(r2)
  814708:	10800044 	addi	r2,r2,1
  81470c:	1007883a 	mov	r3,r2
  814710:	e0bffe17 	ldw	r2,-8(fp)
  814714:	10c008c5 	stb	r3,35(r2)
  814718:	00000106 	br	814720 <lcd_write_data+0xc4>
  81471c:	0001883a 	nop
  814720:	e037883a 	mov	sp,fp
  814724:	dfc00117 	ldw	ra,4(sp)
  814728:	df000017 	ldw	fp,0(sp)
  81472c:	dec00204 	addi	sp,sp,8
  814730:	f800283a 	ret

00814734 <lcd_clear_screen>:
  814734:	defffc04 	addi	sp,sp,-16
  814738:	dfc00315 	stw	ra,12(sp)
  81473c:	df000215 	stw	fp,8(sp)
  814740:	df000204 	addi	fp,sp,8
  814744:	e13fff15 	stw	r4,-4(fp)
  814748:	01400044 	movi	r5,1
  81474c:	e13fff17 	ldw	r4,-4(fp)
  814750:	08145a40 	call	8145a4 <lcd_write_command>
  814754:	e0bfff17 	ldw	r2,-4(fp)
  814758:	10000845 	stb	zero,33(r2)
  81475c:	e0bfff17 	ldw	r2,-4(fp)
  814760:	10000885 	stb	zero,34(r2)
  814764:	e0bfff17 	ldw	r2,-4(fp)
  814768:	100008c5 	stb	zero,35(r2)
  81476c:	e03ffe15 	stw	zero,-8(fp)
  814770:	00001b06 	br	8147e0 <lcd_clear_screen+0xac>
  814774:	e0bffe17 	ldw	r2,-8(fp)
  814778:	108018e4 	muli	r2,r2,99
  81477c:	10801004 	addi	r2,r2,64
  814780:	e0ffff17 	ldw	r3,-4(fp)
  814784:	1885883a 	add	r2,r3,r2
  814788:	01801444 	movi	r6,81
  81478c:	01400804 	movi	r5,32
  814790:	1009883a 	mov	r4,r2
  814794:	08088ac0 	call	8088ac <memset>
  814798:	e0bffe17 	ldw	r2,-8(fp)
  81479c:	108018e4 	muli	r2,r2,99
  8147a0:	10800c04 	addi	r2,r2,48
  8147a4:	e0ffff17 	ldw	r3,-4(fp)
  8147a8:	1885883a 	add	r2,r3,r2
  8147ac:	01800404 	movi	r6,16
  8147b0:	01400804 	movi	r5,32
  8147b4:	1009883a 	mov	r4,r2
  8147b8:	08088ac0 	call	8088ac <memset>
  8147bc:	e0ffff17 	ldw	r3,-4(fp)
  8147c0:	e0bffe17 	ldw	r2,-8(fp)
  8147c4:	108018e4 	muli	r2,r2,99
  8147c8:	1885883a 	add	r2,r3,r2
  8147cc:	10802444 	addi	r2,r2,145
  8147d0:	10000005 	stb	zero,0(r2)
  8147d4:	e0bffe17 	ldw	r2,-8(fp)
  8147d8:	10800044 	addi	r2,r2,1
  8147dc:	e0bffe15 	stw	r2,-8(fp)
  8147e0:	e0bffe17 	ldw	r2,-8(fp)
  8147e4:	10800090 	cmplti	r2,r2,2
  8147e8:	103fe21e 	bne	r2,zero,814774 <__alt_mem_onchip_mem+0xff80c774>
  8147ec:	0001883a 	nop
  8147f0:	e037883a 	mov	sp,fp
  8147f4:	dfc00117 	ldw	ra,4(sp)
  8147f8:	df000017 	ldw	fp,0(sp)
  8147fc:	dec00204 	addi	sp,sp,8
  814800:	f800283a 	ret

00814804 <lcd_repaint_screen>:
  814804:	defff704 	addi	sp,sp,-36
  814808:	dfc00815 	stw	ra,32(sp)
  81480c:	df000715 	stw	fp,28(sp)
  814810:	df000704 	addi	fp,sp,28
  814814:	e13fff15 	stw	r4,-4(fp)
  814818:	e0bfff17 	ldw	r2,-4(fp)
  81481c:	10800943 	ldbu	r2,37(r2)
  814820:	10803fcc 	andi	r2,r2,255
  814824:	e0bffc15 	stw	r2,-16(fp)
  814828:	e03ff915 	stw	zero,-28(fp)
  81482c:	00006706 	br	8149cc <lcd_repaint_screen+0x1c8>
  814830:	e0ffff17 	ldw	r3,-4(fp)
  814834:	e0bff917 	ldw	r2,-28(fp)
  814838:	108018e4 	muli	r2,r2,99
  81483c:	1885883a 	add	r2,r3,r2
  814840:	10802444 	addi	r2,r2,145
  814844:	10800003 	ldbu	r2,0(r2)
  814848:	10803fcc 	andi	r2,r2,255
  81484c:	1080201c 	xori	r2,r2,128
  814850:	10bfe004 	addi	r2,r2,-128
  814854:	e0bffd15 	stw	r2,-12(fp)
  814858:	e0ffff17 	ldw	r3,-4(fp)
  81485c:	e0bff917 	ldw	r2,-28(fp)
  814860:	108018e4 	muli	r2,r2,99
  814864:	1885883a 	add	r2,r3,r2
  814868:	10802484 	addi	r2,r2,146
  81486c:	10800003 	ldbu	r2,0(r2)
  814870:	10c03fcc 	andi	r3,r2,255
  814874:	e0bffc17 	ldw	r2,-16(fp)
  814878:	1885383a 	mul	r2,r3,r2
  81487c:	1005d23a 	srai	r2,r2,8
  814880:	e0bffb15 	stw	r2,-20(fp)
  814884:	e0fffb17 	ldw	r3,-20(fp)
  814888:	e0bffd17 	ldw	r2,-12(fp)
  81488c:	18800116 	blt	r3,r2,814894 <lcd_repaint_screen+0x90>
  814890:	e03ffb15 	stw	zero,-20(fp)
  814894:	e03ffa15 	stw	zero,-24(fp)
  814898:	00004606 	br	8149b4 <lcd_repaint_screen+0x1b0>
  81489c:	e0fffa17 	ldw	r3,-24(fp)
  8148a0:	e0bffb17 	ldw	r2,-20(fp)
  8148a4:	1885883a 	add	r2,r3,r2
  8148a8:	e17ffd17 	ldw	r5,-12(fp)
  8148ac:	1009883a 	mov	r4,r2
  8148b0:	08117700 	call	811770 <__modsi3>
  8148b4:	1009883a 	mov	r4,r2
  8148b8:	e0ffff17 	ldw	r3,-4(fp)
  8148bc:	e0bff917 	ldw	r2,-28(fp)
  8148c0:	108018e4 	muli	r2,r2,99
  8148c4:	1885883a 	add	r2,r3,r2
  8148c8:	1105883a 	add	r2,r2,r4
  8148cc:	10801004 	addi	r2,r2,64
  8148d0:	10800003 	ldbu	r2,0(r2)
  8148d4:	e0bffe05 	stb	r2,-8(fp)
  8148d8:	e0ffff17 	ldw	r3,-4(fp)
  8148dc:	e0bff917 	ldw	r2,-28(fp)
  8148e0:	108018e4 	muli	r2,r2,99
  8148e4:	1887883a 	add	r3,r3,r2
  8148e8:	e0bffa17 	ldw	r2,-24(fp)
  8148ec:	1885883a 	add	r2,r3,r2
  8148f0:	10800c04 	addi	r2,r2,48
  8148f4:	10800003 	ldbu	r2,0(r2)
  8148f8:	10c03fcc 	andi	r3,r2,255
  8148fc:	18c0201c 	xori	r3,r3,128
  814900:	18ffe004 	addi	r3,r3,-128
  814904:	e0bffe07 	ldb	r2,-8(fp)
  814908:	18802726 	beq	r3,r2,8149a8 <lcd_repaint_screen+0x1a4>
  81490c:	e0fff917 	ldw	r3,-28(fp)
  814910:	d0a01004 	addi	r2,gp,-32704
  814914:	1885883a 	add	r2,r3,r2
  814918:	10800003 	ldbu	r2,0(r2)
  81491c:	1007883a 	mov	r3,r2
  814920:	e0bffa17 	ldw	r2,-24(fp)
  814924:	1885883a 	add	r2,r3,r2
  814928:	e0bffe45 	stb	r2,-7(fp)
  81492c:	e0fffe43 	ldbu	r3,-7(fp)
  814930:	e0bfff17 	ldw	r2,-4(fp)
  814934:	108008c3 	ldbu	r2,35(r2)
  814938:	10803fcc 	andi	r2,r2,255
  81493c:	1080201c 	xori	r2,r2,128
  814940:	10bfe004 	addi	r2,r2,-128
  814944:	18800a26 	beq	r3,r2,814970 <lcd_repaint_screen+0x16c>
  814948:	e0fffe43 	ldbu	r3,-7(fp)
  81494c:	00bfe004 	movi	r2,-128
  814950:	1884b03a 	or	r2,r3,r2
  814954:	10803fcc 	andi	r2,r2,255
  814958:	100b883a 	mov	r5,r2
  81495c:	e13fff17 	ldw	r4,-4(fp)
  814960:	08145a40 	call	8145a4 <lcd_write_command>
  814964:	e0fffe43 	ldbu	r3,-7(fp)
  814968:	e0bfff17 	ldw	r2,-4(fp)
  81496c:	10c008c5 	stb	r3,35(r2)
  814970:	e0bffe03 	ldbu	r2,-8(fp)
  814974:	10803fcc 	andi	r2,r2,255
  814978:	100b883a 	mov	r5,r2
  81497c:	e13fff17 	ldw	r4,-4(fp)
  814980:	081465c0 	call	81465c <lcd_write_data>
  814984:	e0ffff17 	ldw	r3,-4(fp)
  814988:	e0bff917 	ldw	r2,-28(fp)
  81498c:	108018e4 	muli	r2,r2,99
  814990:	1887883a 	add	r3,r3,r2
  814994:	e0bffa17 	ldw	r2,-24(fp)
  814998:	1885883a 	add	r2,r3,r2
  81499c:	10800c04 	addi	r2,r2,48
  8149a0:	e0fffe03 	ldbu	r3,-8(fp)
  8149a4:	10c00005 	stb	r3,0(r2)
  8149a8:	e0bffa17 	ldw	r2,-24(fp)
  8149ac:	10800044 	addi	r2,r2,1
  8149b0:	e0bffa15 	stw	r2,-24(fp)
  8149b4:	e0bffa17 	ldw	r2,-24(fp)
  8149b8:	10800410 	cmplti	r2,r2,16
  8149bc:	103fb71e 	bne	r2,zero,81489c <__alt_mem_onchip_mem+0xff80c89c>
  8149c0:	e0bff917 	ldw	r2,-28(fp)
  8149c4:	10800044 	addi	r2,r2,1
  8149c8:	e0bff915 	stw	r2,-28(fp)
  8149cc:	e0bff917 	ldw	r2,-28(fp)
  8149d0:	10800090 	cmplti	r2,r2,2
  8149d4:	103f961e 	bne	r2,zero,814830 <__alt_mem_onchip_mem+0xff80c830>
  8149d8:	0001883a 	nop
  8149dc:	e037883a 	mov	sp,fp
  8149e0:	dfc00117 	ldw	ra,4(sp)
  8149e4:	df000017 	ldw	fp,0(sp)
  8149e8:	dec00204 	addi	sp,sp,8
  8149ec:	f800283a 	ret

008149f0 <lcd_scroll_up>:
  8149f0:	defffc04 	addi	sp,sp,-16
  8149f4:	dfc00315 	stw	ra,12(sp)
  8149f8:	df000215 	stw	fp,8(sp)
  8149fc:	df000204 	addi	fp,sp,8
  814a00:	e13fff15 	stw	r4,-4(fp)
  814a04:	e03ffe15 	stw	zero,-8(fp)
  814a08:	00001d06 	br	814a80 <lcd_scroll_up+0x90>
  814a0c:	e0bffe17 	ldw	r2,-8(fp)
  814a10:	00800f16 	blt	zero,r2,814a50 <lcd_scroll_up+0x60>
  814a14:	e0bffe17 	ldw	r2,-8(fp)
  814a18:	108018e4 	muli	r2,r2,99
  814a1c:	10801004 	addi	r2,r2,64
  814a20:	e0ffff17 	ldw	r3,-4(fp)
  814a24:	1889883a 	add	r4,r3,r2
  814a28:	e0bffe17 	ldw	r2,-8(fp)
  814a2c:	10800044 	addi	r2,r2,1
  814a30:	108018e4 	muli	r2,r2,99
  814a34:	10801004 	addi	r2,r2,64
  814a38:	e0ffff17 	ldw	r3,-4(fp)
  814a3c:	1885883a 	add	r2,r3,r2
  814a40:	01801404 	movi	r6,80
  814a44:	100b883a 	mov	r5,r2
  814a48:	080d78c0 	call	80d78c <memcpy>
  814a4c:	00000906 	br	814a74 <lcd_scroll_up+0x84>
  814a50:	e0bffe17 	ldw	r2,-8(fp)
  814a54:	108018e4 	muli	r2,r2,99
  814a58:	10801004 	addi	r2,r2,64
  814a5c:	e0ffff17 	ldw	r3,-4(fp)
  814a60:	1885883a 	add	r2,r3,r2
  814a64:	01801404 	movi	r6,80
  814a68:	01400804 	movi	r5,32
  814a6c:	1009883a 	mov	r4,r2
  814a70:	08088ac0 	call	8088ac <memset>
  814a74:	e0bffe17 	ldw	r2,-8(fp)
  814a78:	10800044 	addi	r2,r2,1
  814a7c:	e0bffe15 	stw	r2,-8(fp)
  814a80:	e0bffe17 	ldw	r2,-8(fp)
  814a84:	10800090 	cmplti	r2,r2,2
  814a88:	103fe01e 	bne	r2,zero,814a0c <__alt_mem_onchip_mem+0xff80ca0c>
  814a8c:	e0bfff17 	ldw	r2,-4(fp)
  814a90:	10800883 	ldbu	r2,34(r2)
  814a94:	10bfffc4 	addi	r2,r2,-1
  814a98:	1007883a 	mov	r3,r2
  814a9c:	e0bfff17 	ldw	r2,-4(fp)
  814aa0:	10c00885 	stb	r3,34(r2)
  814aa4:	0001883a 	nop
  814aa8:	e037883a 	mov	sp,fp
  814aac:	dfc00117 	ldw	ra,4(sp)
  814ab0:	df000017 	ldw	fp,0(sp)
  814ab4:	dec00204 	addi	sp,sp,8
  814ab8:	f800283a 	ret

00814abc <lcd_handle_escape>:
  814abc:	defff904 	addi	sp,sp,-28
  814ac0:	dfc00615 	stw	ra,24(sp)
  814ac4:	df000515 	stw	fp,20(sp)
  814ac8:	df000504 	addi	fp,sp,20
  814acc:	e13ffe15 	stw	r4,-8(fp)
  814ad0:	2805883a 	mov	r2,r5
  814ad4:	e0bfff05 	stb	r2,-4(fp)
  814ad8:	e03ffb15 	stw	zero,-20(fp)
  814adc:	e03ffc15 	stw	zero,-16(fp)
  814ae0:	e0bffe17 	ldw	r2,-8(fp)
  814ae4:	10800a03 	ldbu	r2,40(r2)
  814ae8:	10803fcc 	andi	r2,r2,255
  814aec:	1080201c 	xori	r2,r2,128
  814af0:	10bfe004 	addi	r2,r2,-128
  814af4:	108016d8 	cmpnei	r2,r2,91
  814af8:	1000411e 	bne	r2,zero,814c00 <lcd_handle_escape+0x144>
  814afc:	e0bffe17 	ldw	r2,-8(fp)
  814b00:	10800a04 	addi	r2,r2,40
  814b04:	10800044 	addi	r2,r2,1
  814b08:	e0bffd15 	stw	r2,-12(fp)
  814b0c:	00000c06 	br	814b40 <lcd_handle_escape+0x84>
  814b10:	e0bffb17 	ldw	r2,-20(fp)
  814b14:	10c002a4 	muli	r3,r2,10
  814b18:	e0bffd17 	ldw	r2,-12(fp)
  814b1c:	11000044 	addi	r4,r2,1
  814b20:	e13ffd15 	stw	r4,-12(fp)
  814b24:	10800003 	ldbu	r2,0(r2)
  814b28:	10803fcc 	andi	r2,r2,255
  814b2c:	1080201c 	xori	r2,r2,128
  814b30:	10bfe004 	addi	r2,r2,-128
  814b34:	10bff404 	addi	r2,r2,-48
  814b38:	1885883a 	add	r2,r3,r2
  814b3c:	e0bffb15 	stw	r2,-20(fp)
  814b40:	d0e01117 	ldw	r3,-32700(gp)
  814b44:	e0bffd17 	ldw	r2,-12(fp)
  814b48:	10800003 	ldbu	r2,0(r2)
  814b4c:	10803fcc 	andi	r2,r2,255
  814b50:	1080201c 	xori	r2,r2,128
  814b54:	10bfe004 	addi	r2,r2,-128
  814b58:	10800044 	addi	r2,r2,1
  814b5c:	1885883a 	add	r2,r3,r2
  814b60:	10800003 	ldbu	r2,0(r2)
  814b64:	10803fcc 	andi	r2,r2,255
  814b68:	1080010c 	andi	r2,r2,4
  814b6c:	103fe81e 	bne	r2,zero,814b10 <__alt_mem_onchip_mem+0xff80cb10>
  814b70:	e0bffd17 	ldw	r2,-12(fp)
  814b74:	10800003 	ldbu	r2,0(r2)
  814b78:	10803fcc 	andi	r2,r2,255
  814b7c:	1080201c 	xori	r2,r2,128
  814b80:	10bfe004 	addi	r2,r2,-128
  814b84:	10800ed8 	cmpnei	r2,r2,59
  814b88:	10001f1e 	bne	r2,zero,814c08 <lcd_handle_escape+0x14c>
  814b8c:	e0bffd17 	ldw	r2,-12(fp)
  814b90:	10800044 	addi	r2,r2,1
  814b94:	e0bffd15 	stw	r2,-12(fp)
  814b98:	00000c06 	br	814bcc <lcd_handle_escape+0x110>
  814b9c:	e0bffc17 	ldw	r2,-16(fp)
  814ba0:	10c002a4 	muli	r3,r2,10
  814ba4:	e0bffd17 	ldw	r2,-12(fp)
  814ba8:	11000044 	addi	r4,r2,1
  814bac:	e13ffd15 	stw	r4,-12(fp)
  814bb0:	10800003 	ldbu	r2,0(r2)
  814bb4:	10803fcc 	andi	r2,r2,255
  814bb8:	1080201c 	xori	r2,r2,128
  814bbc:	10bfe004 	addi	r2,r2,-128
  814bc0:	10bff404 	addi	r2,r2,-48
  814bc4:	1885883a 	add	r2,r3,r2
  814bc8:	e0bffc15 	stw	r2,-16(fp)
  814bcc:	d0e01117 	ldw	r3,-32700(gp)
  814bd0:	e0bffd17 	ldw	r2,-12(fp)
  814bd4:	10800003 	ldbu	r2,0(r2)
  814bd8:	10803fcc 	andi	r2,r2,255
  814bdc:	1080201c 	xori	r2,r2,128
  814be0:	10bfe004 	addi	r2,r2,-128
  814be4:	10800044 	addi	r2,r2,1
  814be8:	1885883a 	add	r2,r3,r2
  814bec:	10800003 	ldbu	r2,0(r2)
  814bf0:	10803fcc 	andi	r2,r2,255
  814bf4:	1080010c 	andi	r2,r2,4
  814bf8:	103fe81e 	bne	r2,zero,814b9c <__alt_mem_onchip_mem+0xff80cb9c>
  814bfc:	00000206 	br	814c08 <lcd_handle_escape+0x14c>
  814c00:	00bfffc4 	movi	r2,-1
  814c04:	e0bffb15 	stw	r2,-20(fp)
  814c08:	e0bfff07 	ldb	r2,-4(fp)
  814c0c:	10c012a0 	cmpeqi	r3,r2,74
  814c10:	1800291e 	bne	r3,zero,814cb8 <lcd_handle_escape+0x1fc>
  814c14:	10c012c8 	cmpgei	r3,r2,75
  814c18:	1800031e 	bne	r3,zero,814c28 <lcd_handle_escape+0x16c>
  814c1c:	10801220 	cmpeqi	r2,r2,72
  814c20:	1000061e 	bne	r2,zero,814c3c <lcd_handle_escape+0x180>
  814c24:	00004a06 	br	814d50 <lcd_handle_escape+0x294>
  814c28:	10c012e0 	cmpeqi	r3,r2,75
  814c2c:	1800281e 	bne	r3,zero,814cd0 <lcd_handle_escape+0x214>
  814c30:	108019a0 	cmpeqi	r2,r2,102
  814c34:	1000011e 	bne	r2,zero,814c3c <lcd_handle_escape+0x180>
  814c38:	00004506 	br	814d50 <lcd_handle_escape+0x294>
  814c3c:	e0bffc17 	ldw	r2,-16(fp)
  814c40:	0080050e 	bge	zero,r2,814c58 <lcd_handle_escape+0x19c>
  814c44:	e0bffc17 	ldw	r2,-16(fp)
  814c48:	10bfffc4 	addi	r2,r2,-1
  814c4c:	1007883a 	mov	r3,r2
  814c50:	e0bffe17 	ldw	r2,-8(fp)
  814c54:	10c00845 	stb	r3,33(r2)
  814c58:	e0bffb17 	ldw	r2,-20(fp)
  814c5c:	0080370e 	bge	zero,r2,814d3c <lcd_handle_escape+0x280>
  814c60:	e0bffb17 	ldw	r2,-20(fp)
  814c64:	10bfffc4 	addi	r2,r2,-1
  814c68:	1007883a 	mov	r3,r2
  814c6c:	e0bffe17 	ldw	r2,-8(fp)
  814c70:	10c00885 	stb	r3,34(r2)
  814c74:	e0bffe17 	ldw	r2,-8(fp)
  814c78:	10800883 	ldbu	r2,34(r2)
  814c7c:	10803fcc 	andi	r2,r2,255
  814c80:	10800170 	cmpltui	r2,r2,5
  814c84:	1000061e 	bne	r2,zero,814ca0 <lcd_handle_escape+0x1e4>
  814c88:	e0bffe17 	ldw	r2,-8(fp)
  814c8c:	00c00104 	movi	r3,4
  814c90:	10c00885 	stb	r3,34(r2)
  814c94:	00000206 	br	814ca0 <lcd_handle_escape+0x1e4>
  814c98:	e13ffe17 	ldw	r4,-8(fp)
  814c9c:	08149f00 	call	8149f0 <lcd_scroll_up>
  814ca0:	e0bffe17 	ldw	r2,-8(fp)
  814ca4:	10800883 	ldbu	r2,34(r2)
  814ca8:	10803fcc 	andi	r2,r2,255
  814cac:	108000e8 	cmpgeui	r2,r2,3
  814cb0:	103ff91e 	bne	r2,zero,814c98 <__alt_mem_onchip_mem+0xff80cc98>
  814cb4:	00002106 	br	814d3c <lcd_handle_escape+0x280>
  814cb8:	e0bffb17 	ldw	r2,-20(fp)
  814cbc:	10800098 	cmpnei	r2,r2,2
  814cc0:	1000201e 	bne	r2,zero,814d44 <lcd_handle_escape+0x288>
  814cc4:	e13ffe17 	ldw	r4,-8(fp)
  814cc8:	08147340 	call	814734 <lcd_clear_screen>
  814ccc:	00001d06 	br	814d44 <lcd_handle_escape+0x288>
  814cd0:	e0bffb17 	ldw	r2,-20(fp)
  814cd4:	00801d16 	blt	zero,r2,814d4c <lcd_handle_escape+0x290>
  814cd8:	e0bffe17 	ldw	r2,-8(fp)
  814cdc:	10800843 	ldbu	r2,33(r2)
  814ce0:	10803fcc 	andi	r2,r2,255
  814ce4:	10801428 	cmpgeui	r2,r2,80
  814ce8:	1000181e 	bne	r2,zero,814d4c <lcd_handle_escape+0x290>
  814cec:	e0bffe17 	ldw	r2,-8(fp)
  814cf0:	10800883 	ldbu	r2,34(r2)
  814cf4:	10803fcc 	andi	r2,r2,255
  814cf8:	108018e4 	muli	r2,r2,99
  814cfc:	10801004 	addi	r2,r2,64
  814d00:	e0fffe17 	ldw	r3,-8(fp)
  814d04:	1887883a 	add	r3,r3,r2
  814d08:	e0bffe17 	ldw	r2,-8(fp)
  814d0c:	10800843 	ldbu	r2,33(r2)
  814d10:	10803fcc 	andi	r2,r2,255
  814d14:	1889883a 	add	r4,r3,r2
  814d18:	e0bffe17 	ldw	r2,-8(fp)
  814d1c:	10800843 	ldbu	r2,33(r2)
  814d20:	10803fcc 	andi	r2,r2,255
  814d24:	00c01404 	movi	r3,80
  814d28:	1885c83a 	sub	r2,r3,r2
  814d2c:	100d883a 	mov	r6,r2
  814d30:	01400804 	movi	r5,32
  814d34:	08088ac0 	call	8088ac <memset>
  814d38:	00000406 	br	814d4c <lcd_handle_escape+0x290>
  814d3c:	0001883a 	nop
  814d40:	00000306 	br	814d50 <lcd_handle_escape+0x294>
  814d44:	0001883a 	nop
  814d48:	00000106 	br	814d50 <lcd_handle_escape+0x294>
  814d4c:	0001883a 	nop
  814d50:	0001883a 	nop
  814d54:	e037883a 	mov	sp,fp
  814d58:	dfc00117 	ldw	ra,4(sp)
  814d5c:	df000017 	ldw	fp,0(sp)
  814d60:	dec00204 	addi	sp,sp,8
  814d64:	f800283a 	ret

00814d68 <altera_avalon_lcd_16207_write>:
  814d68:	defff304 	addi	sp,sp,-52
  814d6c:	dfc00c15 	stw	ra,48(sp)
  814d70:	df000b15 	stw	fp,44(sp)
  814d74:	df000b04 	addi	fp,sp,44
  814d78:	e13ffc15 	stw	r4,-16(fp)
  814d7c:	e17ffd15 	stw	r5,-12(fp)
  814d80:	e1bffe15 	stw	r6,-8(fp)
  814d84:	e1ffff15 	stw	r7,-4(fp)
  814d88:	e0bffe17 	ldw	r2,-8(fp)
  814d8c:	e0fffd17 	ldw	r3,-12(fp)
  814d90:	1885883a 	add	r2,r3,r2
  814d94:	e0bff815 	stw	r2,-32(fp)
  814d98:	e0bffc17 	ldw	r2,-16(fp)
  814d9c:	00c00044 	movi	r3,1
  814da0:	10c009c5 	stb	r3,39(r2)
  814da4:	00009906 	br	81500c <altera_avalon_lcd_16207_write+0x2a4>
  814da8:	e0bffd17 	ldw	r2,-12(fp)
  814dac:	10800003 	ldbu	r2,0(r2)
  814db0:	e0bff905 	stb	r2,-28(fp)
  814db4:	e0bffc17 	ldw	r2,-16(fp)
  814db8:	10800903 	ldbu	r2,36(r2)
  814dbc:	10803fcc 	andi	r2,r2,255
  814dc0:	1080201c 	xori	r2,r2,128
  814dc4:	10bfe004 	addi	r2,r2,-128
  814dc8:	10003716 	blt	r2,zero,814ea8 <altera_avalon_lcd_16207_write+0x140>
  814dcc:	e0bffc17 	ldw	r2,-16(fp)
  814dd0:	10800903 	ldbu	r2,36(r2)
  814dd4:	10803fcc 	andi	r2,r2,255
  814dd8:	1080201c 	xori	r2,r2,128
  814ddc:	10bfe004 	addi	r2,r2,-128
  814de0:	e0bffa15 	stw	r2,-24(fp)
  814de4:	e0bffa17 	ldw	r2,-24(fp)
  814de8:	1000031e 	bne	r2,zero,814df8 <altera_avalon_lcd_16207_write+0x90>
  814dec:	e0bff907 	ldb	r2,-28(fp)
  814df0:	108016d8 	cmpnei	r2,r2,91
  814df4:	10000d1e 	bne	r2,zero,814e2c <altera_avalon_lcd_16207_write+0xc4>
  814df8:	e0bffa17 	ldw	r2,-24(fp)
  814dfc:	10001826 	beq	r2,zero,814e60 <altera_avalon_lcd_16207_write+0xf8>
  814e00:	d0e01117 	ldw	r3,-32700(gp)
  814e04:	e0bff907 	ldb	r2,-28(fp)
  814e08:	10800044 	addi	r2,r2,1
  814e0c:	1885883a 	add	r2,r3,r2
  814e10:	10800003 	ldbu	r2,0(r2)
  814e14:	10803fcc 	andi	r2,r2,255
  814e18:	1080010c 	andi	r2,r2,4
  814e1c:	1000101e 	bne	r2,zero,814e60 <altera_avalon_lcd_16207_write+0xf8>
  814e20:	e0bff907 	ldb	r2,-28(fp)
  814e24:	10800ee0 	cmpeqi	r2,r2,59
  814e28:	10000d1e 	bne	r2,zero,814e60 <altera_avalon_lcd_16207_write+0xf8>
  814e2c:	e0fffc17 	ldw	r3,-16(fp)
  814e30:	e0bffa17 	ldw	r2,-24(fp)
  814e34:	1885883a 	add	r2,r3,r2
  814e38:	10800a04 	addi	r2,r2,40
  814e3c:	10000005 	stb	zero,0(r2)
  814e40:	e0bff907 	ldb	r2,-28(fp)
  814e44:	100b883a 	mov	r5,r2
  814e48:	e13ffc17 	ldw	r4,-16(fp)
  814e4c:	0814abc0 	call	814abc <lcd_handle_escape>
  814e50:	e0bffc17 	ldw	r2,-16(fp)
  814e54:	00ffffc4 	movi	r3,-1
  814e58:	10c00905 	stb	r3,36(r2)
  814e5c:	00006806 	br	815000 <altera_avalon_lcd_16207_write+0x298>
  814e60:	e0bffc17 	ldw	r2,-16(fp)
  814e64:	10800903 	ldbu	r2,36(r2)
  814e68:	10803fcc 	andi	r2,r2,255
  814e6c:	108001e8 	cmpgeui	r2,r2,7
  814e70:	1000631e 	bne	r2,zero,815000 <altera_avalon_lcd_16207_write+0x298>
  814e74:	e0fffc17 	ldw	r3,-16(fp)
  814e78:	e0bffa17 	ldw	r2,-24(fp)
  814e7c:	1885883a 	add	r2,r3,r2
  814e80:	10800a04 	addi	r2,r2,40
  814e84:	e0fff903 	ldbu	r3,-28(fp)
  814e88:	10c00005 	stb	r3,0(r2)
  814e8c:	e0bffc17 	ldw	r2,-16(fp)
  814e90:	10800903 	ldbu	r2,36(r2)
  814e94:	10800044 	addi	r2,r2,1
  814e98:	1007883a 	mov	r3,r2
  814e9c:	e0bffc17 	ldw	r2,-16(fp)
  814ea0:	10c00905 	stb	r3,36(r2)
  814ea4:	00005606 	br	815000 <altera_avalon_lcd_16207_write+0x298>
  814ea8:	e0bff907 	ldb	r2,-28(fp)
  814eac:	108006d8 	cmpnei	r2,r2,27
  814eb0:	1000031e 	bne	r2,zero,814ec0 <altera_avalon_lcd_16207_write+0x158>
  814eb4:	e0bffc17 	ldw	r2,-16(fp)
  814eb8:	10000905 	stb	zero,36(r2)
  814ebc:	00005006 	br	815000 <altera_avalon_lcd_16207_write+0x298>
  814ec0:	e0bff907 	ldb	r2,-28(fp)
  814ec4:	10800358 	cmpnei	r2,r2,13
  814ec8:	1000031e 	bne	r2,zero,814ed8 <altera_avalon_lcd_16207_write+0x170>
  814ecc:	e0bffc17 	ldw	r2,-16(fp)
  814ed0:	10000845 	stb	zero,33(r2)
  814ed4:	00004a06 	br	815000 <altera_avalon_lcd_16207_write+0x298>
  814ed8:	e0bff907 	ldb	r2,-28(fp)
  814edc:	10800298 	cmpnei	r2,r2,10
  814ee0:	1000101e 	bne	r2,zero,814f24 <altera_avalon_lcd_16207_write+0x1bc>
  814ee4:	e0bffc17 	ldw	r2,-16(fp)
  814ee8:	10000845 	stb	zero,33(r2)
  814eec:	e0bffc17 	ldw	r2,-16(fp)
  814ef0:	10800883 	ldbu	r2,34(r2)
  814ef4:	10800044 	addi	r2,r2,1
  814ef8:	1007883a 	mov	r3,r2
  814efc:	e0bffc17 	ldw	r2,-16(fp)
  814f00:	10c00885 	stb	r3,34(r2)
  814f04:	e0bffc17 	ldw	r2,-16(fp)
  814f08:	10800883 	ldbu	r2,34(r2)
  814f0c:	10803fcc 	andi	r2,r2,255
  814f10:	108000f0 	cmpltui	r2,r2,3
  814f14:	10003a1e 	bne	r2,zero,815000 <altera_avalon_lcd_16207_write+0x298>
  814f18:	e13ffc17 	ldw	r4,-16(fp)
  814f1c:	08149f00 	call	8149f0 <lcd_scroll_up>
  814f20:	00003706 	br	815000 <altera_avalon_lcd_16207_write+0x298>
  814f24:	e0bff907 	ldb	r2,-28(fp)
  814f28:	10800218 	cmpnei	r2,r2,8
  814f2c:	10000b1e 	bne	r2,zero,814f5c <altera_avalon_lcd_16207_write+0x1f4>
  814f30:	e0bffc17 	ldw	r2,-16(fp)
  814f34:	10800843 	ldbu	r2,33(r2)
  814f38:	10803fcc 	andi	r2,r2,255
  814f3c:	10003026 	beq	r2,zero,815000 <altera_avalon_lcd_16207_write+0x298>
  814f40:	e0bffc17 	ldw	r2,-16(fp)
  814f44:	10800843 	ldbu	r2,33(r2)
  814f48:	10bfffc4 	addi	r2,r2,-1
  814f4c:	1007883a 	mov	r3,r2
  814f50:	e0bffc17 	ldw	r2,-16(fp)
  814f54:	10c00845 	stb	r3,33(r2)
  814f58:	00002906 	br	815000 <altera_avalon_lcd_16207_write+0x298>
  814f5c:	d0e01117 	ldw	r3,-32700(gp)
  814f60:	e0bff907 	ldb	r2,-28(fp)
  814f64:	10800044 	addi	r2,r2,1
  814f68:	1885883a 	add	r2,r3,r2
  814f6c:	10800003 	ldbu	r2,0(r2)
  814f70:	10803fcc 	andi	r2,r2,255
  814f74:	1080201c 	xori	r2,r2,128
  814f78:	10bfe004 	addi	r2,r2,-128
  814f7c:	108025cc 	andi	r2,r2,151
  814f80:	10001f26 	beq	r2,zero,815000 <altera_avalon_lcd_16207_write+0x298>
  814f84:	e0bffc17 	ldw	r2,-16(fp)
  814f88:	10800883 	ldbu	r2,34(r2)
  814f8c:	10803fcc 	andi	r2,r2,255
  814f90:	108000b0 	cmpltui	r2,r2,2
  814f94:	1000021e 	bne	r2,zero,814fa0 <altera_avalon_lcd_16207_write+0x238>
  814f98:	e13ffc17 	ldw	r4,-16(fp)
  814f9c:	08149f00 	call	8149f0 <lcd_scroll_up>
  814fa0:	e0bffc17 	ldw	r2,-16(fp)
  814fa4:	10800843 	ldbu	r2,33(r2)
  814fa8:	10803fcc 	andi	r2,r2,255
  814fac:	10801428 	cmpgeui	r2,r2,80
  814fb0:	10000d1e 	bne	r2,zero,814fe8 <altera_avalon_lcd_16207_write+0x280>
  814fb4:	e0bffc17 	ldw	r2,-16(fp)
  814fb8:	10800883 	ldbu	r2,34(r2)
  814fbc:	10c03fcc 	andi	r3,r2,255
  814fc0:	e0bffc17 	ldw	r2,-16(fp)
  814fc4:	10800843 	ldbu	r2,33(r2)
  814fc8:	10803fcc 	andi	r2,r2,255
  814fcc:	e13ffc17 	ldw	r4,-16(fp)
  814fd0:	18c018e4 	muli	r3,r3,99
  814fd4:	20c7883a 	add	r3,r4,r3
  814fd8:	1885883a 	add	r2,r3,r2
  814fdc:	10801004 	addi	r2,r2,64
  814fe0:	e0fff903 	ldbu	r3,-28(fp)
  814fe4:	10c00005 	stb	r3,0(r2)
  814fe8:	e0bffc17 	ldw	r2,-16(fp)
  814fec:	10800843 	ldbu	r2,33(r2)
  814ff0:	10800044 	addi	r2,r2,1
  814ff4:	1007883a 	mov	r3,r2
  814ff8:	e0bffc17 	ldw	r2,-16(fp)
  814ffc:	10c00845 	stb	r3,33(r2)
  815000:	e0bffd17 	ldw	r2,-12(fp)
  815004:	10800044 	addi	r2,r2,1
  815008:	e0bffd15 	stw	r2,-12(fp)
  81500c:	e0fffd17 	ldw	r3,-12(fp)
  815010:	e0bff817 	ldw	r2,-32(fp)
  815014:	18bf6436 	bltu	r3,r2,814da8 <__alt_mem_onchip_mem+0xff80cda8>
  815018:	00800404 	movi	r2,16
  81501c:	e0bff615 	stw	r2,-40(fp)
  815020:	e03ff515 	stw	zero,-44(fp)
  815024:	00003706 	br	815104 <altera_avalon_lcd_16207_write+0x39c>
  815028:	00801404 	movi	r2,80
  81502c:	e0bff715 	stw	r2,-36(fp)
  815030:	00001106 	br	815078 <altera_avalon_lcd_16207_write+0x310>
  815034:	e0bff717 	ldw	r2,-36(fp)
  815038:	10bfffc4 	addi	r2,r2,-1
  81503c:	e13ffc17 	ldw	r4,-16(fp)
  815040:	e0fff517 	ldw	r3,-44(fp)
  815044:	18c018e4 	muli	r3,r3,99
  815048:	20c7883a 	add	r3,r4,r3
  81504c:	1885883a 	add	r2,r3,r2
  815050:	10801004 	addi	r2,r2,64
  815054:	10800003 	ldbu	r2,0(r2)
  815058:	10803fcc 	andi	r2,r2,255
  81505c:	1080201c 	xori	r2,r2,128
  815060:	10bfe004 	addi	r2,r2,-128
  815064:	10800820 	cmpeqi	r2,r2,32
  815068:	10000626 	beq	r2,zero,815084 <altera_avalon_lcd_16207_write+0x31c>
  81506c:	e0bff717 	ldw	r2,-36(fp)
  815070:	10bfffc4 	addi	r2,r2,-1
  815074:	e0bff715 	stw	r2,-36(fp)
  815078:	e0bff717 	ldw	r2,-36(fp)
  81507c:	00bfed16 	blt	zero,r2,815034 <__alt_mem_onchip_mem+0xff80d034>
  815080:	00000106 	br	815088 <altera_avalon_lcd_16207_write+0x320>
  815084:	0001883a 	nop
  815088:	e0bff717 	ldw	r2,-36(fp)
  81508c:	10800448 	cmpgei	r2,r2,17
  815090:	1000031e 	bne	r2,zero,8150a0 <altera_avalon_lcd_16207_write+0x338>
  815094:	00800404 	movi	r2,16
  815098:	e0bff715 	stw	r2,-36(fp)
  81509c:	00000306 	br	8150ac <altera_avalon_lcd_16207_write+0x344>
  8150a0:	e0bff717 	ldw	r2,-36(fp)
  8150a4:	10800044 	addi	r2,r2,1
  8150a8:	e0bff715 	stw	r2,-36(fp)
  8150ac:	e0bff717 	ldw	r2,-36(fp)
  8150b0:	1009883a 	mov	r4,r2
  8150b4:	e0fffc17 	ldw	r3,-16(fp)
  8150b8:	e0bff517 	ldw	r2,-44(fp)
  8150bc:	108018e4 	muli	r2,r2,99
  8150c0:	1885883a 	add	r2,r3,r2
  8150c4:	10802444 	addi	r2,r2,145
  8150c8:	11000005 	stb	r4,0(r2)
  8150cc:	e0fff617 	ldw	r3,-40(fp)
  8150d0:	e0bff717 	ldw	r2,-36(fp)
  8150d4:	1880020e 	bge	r3,r2,8150e0 <altera_avalon_lcd_16207_write+0x378>
  8150d8:	e0bff717 	ldw	r2,-36(fp)
  8150dc:	e0bff615 	stw	r2,-40(fp)
  8150e0:	e0fffc17 	ldw	r3,-16(fp)
  8150e4:	e0bff517 	ldw	r2,-44(fp)
  8150e8:	108018e4 	muli	r2,r2,99
  8150ec:	1885883a 	add	r2,r3,r2
  8150f0:	10802484 	addi	r2,r2,146
  8150f4:	10000005 	stb	zero,0(r2)
  8150f8:	e0bff517 	ldw	r2,-44(fp)
  8150fc:	10800044 	addi	r2,r2,1
  815100:	e0bff515 	stw	r2,-44(fp)
  815104:	e0bff517 	ldw	r2,-44(fp)
  815108:	10800090 	cmplti	r2,r2,2
  81510c:	103fc61e 	bne	r2,zero,815028 <__alt_mem_onchip_mem+0xff80d028>
  815110:	e0bff617 	ldw	r2,-40(fp)
  815114:	10800448 	cmpgei	r2,r2,17
  815118:	1000031e 	bne	r2,zero,815128 <altera_avalon_lcd_16207_write+0x3c0>
  81511c:	e0bffc17 	ldw	r2,-16(fp)
  815120:	10000985 	stb	zero,38(r2)
  815124:	00002e06 	br	8151e0 <altera_avalon_lcd_16207_write+0x478>
  815128:	e0bff617 	ldw	r2,-40(fp)
  81512c:	1085883a 	add	r2,r2,r2
  815130:	e0bff615 	stw	r2,-40(fp)
  815134:	e0bff617 	ldw	r2,-40(fp)
  815138:	1007883a 	mov	r3,r2
  81513c:	e0bffc17 	ldw	r2,-16(fp)
  815140:	10c00985 	stb	r3,38(r2)
  815144:	e03ff515 	stw	zero,-44(fp)
  815148:	00002206 	br	8151d4 <altera_avalon_lcd_16207_write+0x46c>
  81514c:	e0fffc17 	ldw	r3,-16(fp)
  815150:	e0bff517 	ldw	r2,-44(fp)
  815154:	108018e4 	muli	r2,r2,99
  815158:	1885883a 	add	r2,r3,r2
  81515c:	10802444 	addi	r2,r2,145
  815160:	10800003 	ldbu	r2,0(r2)
  815164:	10803fcc 	andi	r2,r2,255
  815168:	1080201c 	xori	r2,r2,128
  81516c:	10bfe004 	addi	r2,r2,-128
  815170:	10800450 	cmplti	r2,r2,17
  815174:	1000141e 	bne	r2,zero,8151c8 <altera_avalon_lcd_16207_write+0x460>
  815178:	e0fffc17 	ldw	r3,-16(fp)
  81517c:	e0bff517 	ldw	r2,-44(fp)
  815180:	108018e4 	muli	r2,r2,99
  815184:	1885883a 	add	r2,r3,r2
  815188:	10802444 	addi	r2,r2,145
  81518c:	10800003 	ldbu	r2,0(r2)
  815190:	10803fcc 	andi	r2,r2,255
  815194:	1080201c 	xori	r2,r2,128
  815198:	10bfe004 	addi	r2,r2,-128
  81519c:	1004923a 	slli	r2,r2,8
  8151a0:	e17ff617 	ldw	r5,-40(fp)
  8151a4:	1009883a 	mov	r4,r2
  8151a8:	08116ec0 	call	8116ec <__divsi3>
  8151ac:	1009883a 	mov	r4,r2
  8151b0:	e0fffc17 	ldw	r3,-16(fp)
  8151b4:	e0bff517 	ldw	r2,-44(fp)
  8151b8:	108018e4 	muli	r2,r2,99
  8151bc:	1885883a 	add	r2,r3,r2
  8151c0:	10802484 	addi	r2,r2,146
  8151c4:	11000005 	stb	r4,0(r2)
  8151c8:	e0bff517 	ldw	r2,-44(fp)
  8151cc:	10800044 	addi	r2,r2,1
  8151d0:	e0bff515 	stw	r2,-44(fp)
  8151d4:	e0bff517 	ldw	r2,-44(fp)
  8151d8:	10800090 	cmplti	r2,r2,2
  8151dc:	103fdb1e 	bne	r2,zero,81514c <__alt_mem_onchip_mem+0xff80d14c>
  8151e0:	e0bffc17 	ldw	r2,-16(fp)
  8151e4:	10800943 	ldbu	r2,37(r2)
  8151e8:	10803fcc 	andi	r2,r2,255
  8151ec:	e0bffb15 	stw	r2,-20(fp)
  8151f0:	e13ffc17 	ldw	r4,-16(fp)
  8151f4:	08148040 	call	814804 <lcd_repaint_screen>
  8151f8:	e0bffc17 	ldw	r2,-16(fp)
  8151fc:	100009c5 	stb	zero,39(r2)
  815200:	e0bffc17 	ldw	r2,-16(fp)
  815204:	10800943 	ldbu	r2,37(r2)
  815208:	10c03fcc 	andi	r3,r2,255
  81520c:	e0bffb17 	ldw	r2,-20(fp)
  815210:	18800426 	beq	r3,r2,815224 <altera_avalon_lcd_16207_write+0x4bc>
  815214:	e0bffc17 	ldw	r2,-16(fp)
  815218:	00c00044 	movi	r3,1
  81521c:	10c009c5 	stb	r3,39(r2)
  815220:	003fef06 	br	8151e0 <__alt_mem_onchip_mem+0xff80d1e0>
  815224:	0001883a 	nop
  815228:	e0bffe17 	ldw	r2,-8(fp)
  81522c:	e037883a 	mov	sp,fp
  815230:	dfc00117 	ldw	ra,4(sp)
  815234:	df000017 	ldw	fp,0(sp)
  815238:	dec00204 	addi	sp,sp,8
  81523c:	f800283a 	ret

00815240 <alt_lcd_16207_timeout>:
  815240:	defffc04 	addi	sp,sp,-16
  815244:	dfc00315 	stw	ra,12(sp)
  815248:	df000215 	stw	fp,8(sp)
  81524c:	df000204 	addi	fp,sp,8
  815250:	e13fff15 	stw	r4,-4(fp)
  815254:	e0bfff17 	ldw	r2,-4(fp)
  815258:	e0bffe15 	stw	r2,-8(fp)
  81525c:	e0bffe17 	ldw	r2,-8(fp)
  815260:	10800943 	ldbu	r2,37(r2)
  815264:	10803fcc 	andi	r2,r2,255
  815268:	10c00044 	addi	r3,r2,1
  81526c:	e0bffe17 	ldw	r2,-8(fp)
  815270:	10800983 	ldbu	r2,38(r2)
  815274:	10803fcc 	andi	r2,r2,255
  815278:	18800316 	blt	r3,r2,815288 <alt_lcd_16207_timeout+0x48>
  81527c:	e0bffe17 	ldw	r2,-8(fp)
  815280:	10000945 	stb	zero,37(r2)
  815284:	00000606 	br	8152a0 <alt_lcd_16207_timeout+0x60>
  815288:	e0bffe17 	ldw	r2,-8(fp)
  81528c:	10800943 	ldbu	r2,37(r2)
  815290:	10800044 	addi	r2,r2,1
  815294:	1007883a 	mov	r3,r2
  815298:	e0bffe17 	ldw	r2,-8(fp)
  81529c:	10c00945 	stb	r3,37(r2)
  8152a0:	e0bffe17 	ldw	r2,-8(fp)
  8152a4:	10800983 	ldbu	r2,38(r2)
  8152a8:	10803fcc 	andi	r2,r2,255
  8152ac:	10000826 	beq	r2,zero,8152d0 <alt_lcd_16207_timeout+0x90>
  8152b0:	e0bffe17 	ldw	r2,-8(fp)
  8152b4:	108009c3 	ldbu	r2,39(r2)
  8152b8:	10803fcc 	andi	r2,r2,255
  8152bc:	1080201c 	xori	r2,r2,128
  8152c0:	10bfe004 	addi	r2,r2,-128
  8152c4:	1000021e 	bne	r2,zero,8152d0 <alt_lcd_16207_timeout+0x90>
  8152c8:	e13ffe17 	ldw	r4,-8(fp)
  8152cc:	08148040 	call	814804 <lcd_repaint_screen>
  8152d0:	e0bffe17 	ldw	r2,-8(fp)
  8152d4:	10800717 	ldw	r2,28(r2)
  8152d8:	e037883a 	mov	sp,fp
  8152dc:	dfc00117 	ldw	ra,4(sp)
  8152e0:	df000017 	ldw	fp,0(sp)
  8152e4:	dec00204 	addi	sp,sp,8
  8152e8:	f800283a 	ret

008152ec <altera_avalon_lcd_16207_init>:
  8152ec:	defffc04 	addi	sp,sp,-16
  8152f0:	dfc00315 	stw	ra,12(sp)
  8152f4:	df000215 	stw	fp,8(sp)
  8152f8:	df000204 	addi	fp,sp,8
  8152fc:	e13fff15 	stw	r4,-4(fp)
  815300:	e0bfff17 	ldw	r2,-4(fp)
  815304:	10800017 	ldw	r2,0(r2)
  815308:	e0bffe15 	stw	r2,-8(fp)
  81530c:	e0bfff17 	ldw	r2,-4(fp)
  815310:	10000805 	stb	zero,32(r2)
  815314:	010ea604 	movi	r4,15000
  815318:	08166840 	call	816684 <usleep>
  81531c:	e0bffe17 	ldw	r2,-8(fp)
  815320:	00c00c04 	movi	r3,48
  815324:	10c00035 	stwio	r3,0(r2)
  815328:	01040104 	movi	r4,4100
  81532c:	08166840 	call	816684 <usleep>
  815330:	e0bffe17 	ldw	r2,-8(fp)
  815334:	00c00c04 	movi	r3,48
  815338:	10c00035 	stwio	r3,0(r2)
  81533c:	0100fa04 	movi	r4,1000
  815340:	08166840 	call	816684 <usleep>
  815344:	e0bffe17 	ldw	r2,-8(fp)
  815348:	00c00c04 	movi	r3,48
  81534c:	10c00035 	stwio	r3,0(r2)
  815350:	01400e04 	movi	r5,56
  815354:	e13fff17 	ldw	r4,-4(fp)
  815358:	08145a40 	call	8145a4 <lcd_write_command>
  81535c:	01400204 	movi	r5,8
  815360:	e13fff17 	ldw	r4,-4(fp)
  815364:	08145a40 	call	8145a4 <lcd_write_command>
  815368:	e13fff17 	ldw	r4,-4(fp)
  81536c:	08147340 	call	814734 <lcd_clear_screen>
  815370:	01400184 	movi	r5,6
  815374:	e13fff17 	ldw	r4,-4(fp)
  815378:	08145a40 	call	8145a4 <lcd_write_command>
  81537c:	01400304 	movi	r5,12
  815380:	e13fff17 	ldw	r4,-4(fp)
  815384:	08145a40 	call	8145a4 <lcd_write_command>
  815388:	e0bfff17 	ldw	r2,-4(fp)
  81538c:	00ffffc4 	movi	r3,-1
  815390:	10c00905 	stb	r3,36(r2)
  815394:	e0bfff17 	ldw	r2,-4(fp)
  815398:	10800a04 	addi	r2,r2,40
  81539c:	01800204 	movi	r6,8
  8153a0:	000b883a 	mov	r5,zero
  8153a4:	1009883a 	mov	r4,r2
  8153a8:	08088ac0 	call	8088ac <memset>
  8153ac:	e0bfff17 	ldw	r2,-4(fp)
  8153b0:	10000945 	stb	zero,37(r2)
  8153b4:	e0bfff17 	ldw	r2,-4(fp)
  8153b8:	10000985 	stb	zero,38(r2)
  8153bc:	e0bfff17 	ldw	r2,-4(fp)
  8153c0:	100009c5 	stb	zero,39(r2)
  8153c4:	d0a75817 	ldw	r2,-25248(gp)
  8153c8:	01400284 	movi	r5,10
  8153cc:	1009883a 	mov	r4,r2
  8153d0:	08117e40 	call	8117e4 <__udivsi3>
  8153d4:	1007883a 	mov	r3,r2
  8153d8:	e0bfff17 	ldw	r2,-4(fp)
  8153dc:	10c00715 	stw	r3,28(r2)
  8153e0:	e0bfff17 	ldw	r2,-4(fp)
  8153e4:	10c00104 	addi	r3,r2,4
  8153e8:	e0bfff17 	ldw	r2,-4(fp)
  8153ec:	10800717 	ldw	r2,28(r2)
  8153f0:	e1ffff17 	ldw	r7,-4(fp)
  8153f4:	01802074 	movhi	r6,129
  8153f8:	31949004 	addi	r6,r6,21056
  8153fc:	100b883a 	mov	r5,r2
  815400:	1809883a 	mov	r4,r3
  815404:	0812a500 	call	812a50 <alt_alarm_start>
  815408:	0001883a 	nop
  81540c:	e037883a 	mov	sp,fp
  815410:	dfc00117 	ldw	ra,4(sp)
  815414:	df000017 	ldw	fp,0(sp)
  815418:	dec00204 	addi	sp,sp,8
  81541c:	f800283a 	ret

00815420 <altera_avalon_lcd_16207_write_fd>:
  815420:	defffa04 	addi	sp,sp,-24
  815424:	dfc00515 	stw	ra,20(sp)
  815428:	df000415 	stw	fp,16(sp)
  81542c:	df000404 	addi	fp,sp,16
  815430:	e13ffd15 	stw	r4,-12(fp)
  815434:	e17ffe15 	stw	r5,-8(fp)
  815438:	e1bfff15 	stw	r6,-4(fp)
  81543c:	e0bffd17 	ldw	r2,-12(fp)
  815440:	10800017 	ldw	r2,0(r2)
  815444:	e0bffc15 	stw	r2,-16(fp)
  815448:	e0bffc17 	ldw	r2,-16(fp)
  81544c:	10c00a04 	addi	r3,r2,40
  815450:	e0bffd17 	ldw	r2,-12(fp)
  815454:	10800217 	ldw	r2,8(r2)
  815458:	100f883a 	mov	r7,r2
  81545c:	e1bfff17 	ldw	r6,-4(fp)
  815460:	e17ffe17 	ldw	r5,-8(fp)
  815464:	1809883a 	mov	r4,r3
  815468:	0814d680 	call	814d68 <altera_avalon_lcd_16207_write>
  81546c:	e037883a 	mov	sp,fp
  815470:	dfc00117 	ldw	ra,4(sp)
  815474:	df000017 	ldw	fp,0(sp)
  815478:	dec00204 	addi	sp,sp,8
  81547c:	f800283a 	ret

00815480 <alt_avalon_timer_sc_irq>:
  815480:	defffa04 	addi	sp,sp,-24
  815484:	dfc00515 	stw	ra,20(sp)
  815488:	df000415 	stw	fp,16(sp)
  81548c:	df000404 	addi	fp,sp,16
  815490:	e13fff15 	stw	r4,-4(fp)
  815494:	0007883a 	mov	r3,zero
  815498:	e0bfff17 	ldw	r2,-4(fp)
  81549c:	10c00035 	stwio	r3,0(r2)
  8154a0:	e0bfff17 	ldw	r2,-4(fp)
  8154a4:	10800104 	addi	r2,r2,4
  8154a8:	10800037 	ldwio	r2,0(r2)
  8154ac:	0005303a 	rdctl	r2,status
  8154b0:	e0bffd15 	stw	r2,-12(fp)
  8154b4:	e0fffd17 	ldw	r3,-12(fp)
  8154b8:	00bfff84 	movi	r2,-2
  8154bc:	1884703a 	and	r2,r3,r2
  8154c0:	1001703a 	wrctl	status,r2
  8154c4:	e0bffd17 	ldw	r2,-12(fp)
  8154c8:	e0bffc15 	stw	r2,-16(fp)
  8154cc:	08137fc0 	call	8137fc <alt_tick>
  8154d0:	e0bffc17 	ldw	r2,-16(fp)
  8154d4:	e0bffe15 	stw	r2,-8(fp)
  8154d8:	e0bffe17 	ldw	r2,-8(fp)
  8154dc:	1001703a 	wrctl	status,r2
  8154e0:	0001883a 	nop
  8154e4:	e037883a 	mov	sp,fp
  8154e8:	dfc00117 	ldw	ra,4(sp)
  8154ec:	df000017 	ldw	fp,0(sp)
  8154f0:	dec00204 	addi	sp,sp,8
  8154f4:	f800283a 	ret

008154f8 <alt_avalon_timer_sc_init>:
  8154f8:	defff804 	addi	sp,sp,-32
  8154fc:	dfc00715 	stw	ra,28(sp)
  815500:	df000615 	stw	fp,24(sp)
  815504:	df000604 	addi	fp,sp,24
  815508:	e13ffc15 	stw	r4,-16(fp)
  81550c:	e17ffd15 	stw	r5,-12(fp)
  815510:	e1bffe15 	stw	r6,-8(fp)
  815514:	e1ffff15 	stw	r7,-4(fp)
  815518:	e0bfff17 	ldw	r2,-4(fp)
  81551c:	e0bffb15 	stw	r2,-20(fp)
  815520:	d0a75817 	ldw	r2,-25248(gp)
  815524:	1000021e 	bne	r2,zero,815530 <alt_avalon_timer_sc_init+0x38>
  815528:	e0bffb17 	ldw	r2,-20(fp)
  81552c:	d0a75815 	stw	r2,-25248(gp)
  815530:	e0bffc17 	ldw	r2,-16(fp)
  815534:	10800104 	addi	r2,r2,4
  815538:	00c001c4 	movi	r3,7
  81553c:	10c00035 	stwio	r3,0(r2)
  815540:	d8000015 	stw	zero,0(sp)
  815544:	e1fffc17 	ldw	r7,-16(fp)
  815548:	01802074 	movhi	r6,129
  81554c:	31952004 	addi	r6,r6,21632
  815550:	e17ffe17 	ldw	r5,-8(fp)
  815554:	e13ffd17 	ldw	r4,-12(fp)
  815558:	08162a40 	call	8162a4 <alt_ic_isr_register>
  81555c:	0001883a 	nop
  815560:	e037883a 	mov	sp,fp
  815564:	dfc00117 	ldw	ra,4(sp)
  815568:	df000017 	ldw	fp,0(sp)
  81556c:	dec00204 	addi	sp,sp,8
  815570:	f800283a 	ret

00815574 <altera_avalon_uart_read_fd>:
  815574:	defffa04 	addi	sp,sp,-24
  815578:	dfc00515 	stw	ra,20(sp)
  81557c:	df000415 	stw	fp,16(sp)
  815580:	df000404 	addi	fp,sp,16
  815584:	e13ffd15 	stw	r4,-12(fp)
  815588:	e17ffe15 	stw	r5,-8(fp)
  81558c:	e1bfff15 	stw	r6,-4(fp)
  815590:	e0bffd17 	ldw	r2,-12(fp)
  815594:	10800017 	ldw	r2,0(r2)
  815598:	e0bffc15 	stw	r2,-16(fp)
  81559c:	e0bffc17 	ldw	r2,-16(fp)
  8155a0:	10c00a04 	addi	r3,r2,40
  8155a4:	e0bffd17 	ldw	r2,-12(fp)
  8155a8:	10800217 	ldw	r2,8(r2)
  8155ac:	100f883a 	mov	r7,r2
  8155b0:	e1bfff17 	ldw	r6,-4(fp)
  8155b4:	e17ffe17 	ldw	r5,-8(fp)
  8155b8:	1809883a 	mov	r4,r3
  8155bc:	0815a880 	call	815a88 <altera_avalon_uart_read>
  8155c0:	e037883a 	mov	sp,fp
  8155c4:	dfc00117 	ldw	ra,4(sp)
  8155c8:	df000017 	ldw	fp,0(sp)
  8155cc:	dec00204 	addi	sp,sp,8
  8155d0:	f800283a 	ret

008155d4 <altera_avalon_uart_write_fd>:
  8155d4:	defffa04 	addi	sp,sp,-24
  8155d8:	dfc00515 	stw	ra,20(sp)
  8155dc:	df000415 	stw	fp,16(sp)
  8155e0:	df000404 	addi	fp,sp,16
  8155e4:	e13ffd15 	stw	r4,-12(fp)
  8155e8:	e17ffe15 	stw	r5,-8(fp)
  8155ec:	e1bfff15 	stw	r6,-4(fp)
  8155f0:	e0bffd17 	ldw	r2,-12(fp)
  8155f4:	10800017 	ldw	r2,0(r2)
  8155f8:	e0bffc15 	stw	r2,-16(fp)
  8155fc:	e0bffc17 	ldw	r2,-16(fp)
  815600:	10c00a04 	addi	r3,r2,40
  815604:	e0bffd17 	ldw	r2,-12(fp)
  815608:	10800217 	ldw	r2,8(r2)
  81560c:	100f883a 	mov	r7,r2
  815610:	e1bfff17 	ldw	r6,-4(fp)
  815614:	e17ffe17 	ldw	r5,-8(fp)
  815618:	1809883a 	mov	r4,r3
  81561c:	0815ca00 	call	815ca0 <altera_avalon_uart_write>
  815620:	e037883a 	mov	sp,fp
  815624:	dfc00117 	ldw	ra,4(sp)
  815628:	df000017 	ldw	fp,0(sp)
  81562c:	dec00204 	addi	sp,sp,8
  815630:	f800283a 	ret

00815634 <altera_avalon_uart_close_fd>:
  815634:	defffc04 	addi	sp,sp,-16
  815638:	dfc00315 	stw	ra,12(sp)
  81563c:	df000215 	stw	fp,8(sp)
  815640:	df000204 	addi	fp,sp,8
  815644:	e13fff15 	stw	r4,-4(fp)
  815648:	e0bfff17 	ldw	r2,-4(fp)
  81564c:	10800017 	ldw	r2,0(r2)
  815650:	e0bffe15 	stw	r2,-8(fp)
  815654:	e0bffe17 	ldw	r2,-8(fp)
  815658:	10c00a04 	addi	r3,r2,40
  81565c:	e0bfff17 	ldw	r2,-4(fp)
  815660:	10800217 	ldw	r2,8(r2)
  815664:	100b883a 	mov	r5,r2
  815668:	1809883a 	mov	r4,r3
  81566c:	08159f80 	call	8159f8 <altera_avalon_uart_close>
  815670:	e037883a 	mov	sp,fp
  815674:	dfc00117 	ldw	ra,4(sp)
  815678:	df000017 	ldw	fp,0(sp)
  81567c:	dec00204 	addi	sp,sp,8
  815680:	f800283a 	ret

00815684 <altera_avalon_uart_init>:
  815684:	defff804 	addi	sp,sp,-32
  815688:	dfc00715 	stw	ra,28(sp)
  81568c:	df000615 	stw	fp,24(sp)
  815690:	df000604 	addi	fp,sp,24
  815694:	e13ffd15 	stw	r4,-12(fp)
  815698:	e17ffe15 	stw	r5,-8(fp)
  81569c:	e1bfff15 	stw	r6,-4(fp)
  8156a0:	e0bffd17 	ldw	r2,-12(fp)
  8156a4:	10800017 	ldw	r2,0(r2)
  8156a8:	e0bffb15 	stw	r2,-20(fp)
  8156ac:	0005883a 	mov	r2,zero
  8156b0:	1000041e 	bne	r2,zero,8156c4 <altera_avalon_uart_init+0x40>
  8156b4:	0005883a 	mov	r2,zero
  8156b8:	1000021e 	bne	r2,zero,8156c4 <altera_avalon_uart_init+0x40>
  8156bc:	0005883a 	mov	r2,zero
  8156c0:	10000226 	beq	r2,zero,8156cc <altera_avalon_uart_init+0x48>
  8156c4:	00800044 	movi	r2,1
  8156c8:	00000106 	br	8156d0 <altera_avalon_uart_init+0x4c>
  8156cc:	0005883a 	mov	r2,zero
  8156d0:	e0bffc15 	stw	r2,-16(fp)
  8156d4:	e0bffc17 	ldw	r2,-16(fp)
  8156d8:	10000f1e 	bne	r2,zero,815718 <altera_avalon_uart_init+0x94>
  8156dc:	e0bffd17 	ldw	r2,-12(fp)
  8156e0:	00c32004 	movi	r3,3200
  8156e4:	10c00115 	stw	r3,4(r2)
  8156e8:	e0bffb17 	ldw	r2,-20(fp)
  8156ec:	10800304 	addi	r2,r2,12
  8156f0:	e0fffd17 	ldw	r3,-12(fp)
  8156f4:	18c00117 	ldw	r3,4(r3)
  8156f8:	10c00035 	stwio	r3,0(r2)
  8156fc:	d8000015 	stw	zero,0(sp)
  815700:	e1fffd17 	ldw	r7,-12(fp)
  815704:	01802074 	movhi	r6,129
  815708:	3195cc04 	addi	r6,r6,22320
  81570c:	e17fff17 	ldw	r5,-4(fp)
  815710:	e13ffe17 	ldw	r4,-8(fp)
  815714:	08162a40 	call	8162a4 <alt_ic_isr_register>
  815718:	0001883a 	nop
  81571c:	e037883a 	mov	sp,fp
  815720:	dfc00117 	ldw	ra,4(sp)
  815724:	df000017 	ldw	fp,0(sp)
  815728:	dec00204 	addi	sp,sp,8
  81572c:	f800283a 	ret

00815730 <altera_avalon_uart_irq>:
  815730:	defffa04 	addi	sp,sp,-24
  815734:	dfc00515 	stw	ra,20(sp)
  815738:	df000415 	stw	fp,16(sp)
  81573c:	df000404 	addi	fp,sp,16
  815740:	e13fff15 	stw	r4,-4(fp)
  815744:	e0bfff17 	ldw	r2,-4(fp)
  815748:	e0bffc15 	stw	r2,-16(fp)
  81574c:	e0bffc17 	ldw	r2,-16(fp)
  815750:	10800017 	ldw	r2,0(r2)
  815754:	e0bffd15 	stw	r2,-12(fp)
  815758:	e0bffd17 	ldw	r2,-12(fp)
  81575c:	10800204 	addi	r2,r2,8
  815760:	10800037 	ldwio	r2,0(r2)
  815764:	e0bffe15 	stw	r2,-8(fp)
  815768:	e0bffd17 	ldw	r2,-12(fp)
  81576c:	10800204 	addi	r2,r2,8
  815770:	0007883a 	mov	r3,zero
  815774:	10c00035 	stwio	r3,0(r2)
  815778:	e0bffd17 	ldw	r2,-12(fp)
  81577c:	10800204 	addi	r2,r2,8
  815780:	10800037 	ldwio	r2,0(r2)
  815784:	e0bffe17 	ldw	r2,-8(fp)
  815788:	1080200c 	andi	r2,r2,128
  81578c:	10000326 	beq	r2,zero,81579c <altera_avalon_uart_irq+0x6c>
  815790:	e17ffe17 	ldw	r5,-8(fp)
  815794:	e13ffc17 	ldw	r4,-16(fp)
  815798:	08157cc0 	call	8157cc <altera_avalon_uart_rxirq>
  81579c:	e0bffe17 	ldw	r2,-8(fp)
  8157a0:	1081100c 	andi	r2,r2,1088
  8157a4:	10000326 	beq	r2,zero,8157b4 <altera_avalon_uart_irq+0x84>
  8157a8:	e17ffe17 	ldw	r5,-8(fp)
  8157ac:	e13ffc17 	ldw	r4,-16(fp)
  8157b0:	08158b00 	call	8158b0 <altera_avalon_uart_txirq>
  8157b4:	0001883a 	nop
  8157b8:	e037883a 	mov	sp,fp
  8157bc:	dfc00117 	ldw	ra,4(sp)
  8157c0:	df000017 	ldw	fp,0(sp)
  8157c4:	dec00204 	addi	sp,sp,8
  8157c8:	f800283a 	ret

008157cc <altera_avalon_uart_rxirq>:
  8157cc:	defffc04 	addi	sp,sp,-16
  8157d0:	df000315 	stw	fp,12(sp)
  8157d4:	df000304 	addi	fp,sp,12
  8157d8:	e13ffe15 	stw	r4,-8(fp)
  8157dc:	e17fff15 	stw	r5,-4(fp)
  8157e0:	e0bfff17 	ldw	r2,-4(fp)
  8157e4:	108000cc 	andi	r2,r2,3
  8157e8:	10002c1e 	bne	r2,zero,81589c <altera_avalon_uart_rxirq+0xd0>
  8157ec:	e0bffe17 	ldw	r2,-8(fp)
  8157f0:	10800317 	ldw	r2,12(r2)
  8157f4:	e0bffe17 	ldw	r2,-8(fp)
  8157f8:	10800217 	ldw	r2,8(r2)
  8157fc:	e0bffe17 	ldw	r2,-8(fp)
  815800:	10800317 	ldw	r2,12(r2)
  815804:	10800044 	addi	r2,r2,1
  815808:	10800fcc 	andi	r2,r2,63
  81580c:	e0bffd15 	stw	r2,-12(fp)
  815810:	e0bffe17 	ldw	r2,-8(fp)
  815814:	10800317 	ldw	r2,12(r2)
  815818:	e0fffe17 	ldw	r3,-8(fp)
  81581c:	18c00017 	ldw	r3,0(r3)
  815820:	18c00037 	ldwio	r3,0(r3)
  815824:	1809883a 	mov	r4,r3
  815828:	e0fffe17 	ldw	r3,-8(fp)
  81582c:	1885883a 	add	r2,r3,r2
  815830:	10800704 	addi	r2,r2,28
  815834:	11000005 	stb	r4,0(r2)
  815838:	e0bffe17 	ldw	r2,-8(fp)
  81583c:	e0fffd17 	ldw	r3,-12(fp)
  815840:	10c00315 	stw	r3,12(r2)
  815844:	e0bffe17 	ldw	r2,-8(fp)
  815848:	10800317 	ldw	r2,12(r2)
  81584c:	10800044 	addi	r2,r2,1
  815850:	10800fcc 	andi	r2,r2,63
  815854:	e0bffd15 	stw	r2,-12(fp)
  815858:	e0bffe17 	ldw	r2,-8(fp)
  81585c:	10c00217 	ldw	r3,8(r2)
  815860:	e0bffd17 	ldw	r2,-12(fp)
  815864:	18800e1e 	bne	r3,r2,8158a0 <altera_avalon_uart_rxirq+0xd4>
  815868:	e0bffe17 	ldw	r2,-8(fp)
  81586c:	10c00117 	ldw	r3,4(r2)
  815870:	00bfdfc4 	movi	r2,-129
  815874:	1886703a 	and	r3,r3,r2
  815878:	e0bffe17 	ldw	r2,-8(fp)
  81587c:	10c00115 	stw	r3,4(r2)
  815880:	e0bffe17 	ldw	r2,-8(fp)
  815884:	10800017 	ldw	r2,0(r2)
  815888:	10800304 	addi	r2,r2,12
  81588c:	e0fffe17 	ldw	r3,-8(fp)
  815890:	18c00117 	ldw	r3,4(r3)
  815894:	10c00035 	stwio	r3,0(r2)
  815898:	00000106 	br	8158a0 <altera_avalon_uart_rxirq+0xd4>
  81589c:	0001883a 	nop
  8158a0:	e037883a 	mov	sp,fp
  8158a4:	df000017 	ldw	fp,0(sp)
  8158a8:	dec00104 	addi	sp,sp,4
  8158ac:	f800283a 	ret

008158b0 <altera_avalon_uart_txirq>:
  8158b0:	defffb04 	addi	sp,sp,-20
  8158b4:	df000415 	stw	fp,16(sp)
  8158b8:	df000404 	addi	fp,sp,16
  8158bc:	e13ffc15 	stw	r4,-16(fp)
  8158c0:	e17ffd15 	stw	r5,-12(fp)
  8158c4:	e0bffc17 	ldw	r2,-16(fp)
  8158c8:	10c00417 	ldw	r3,16(r2)
  8158cc:	e0bffc17 	ldw	r2,-16(fp)
  8158d0:	10800517 	ldw	r2,20(r2)
  8158d4:	18803226 	beq	r3,r2,8159a0 <altera_avalon_uart_txirq+0xf0>
  8158d8:	e0bffc17 	ldw	r2,-16(fp)
  8158dc:	10800617 	ldw	r2,24(r2)
  8158e0:	1080008c 	andi	r2,r2,2
  8158e4:	10000326 	beq	r2,zero,8158f4 <altera_avalon_uart_txirq+0x44>
  8158e8:	e0bffd17 	ldw	r2,-12(fp)
  8158ec:	1082000c 	andi	r2,r2,2048
  8158f0:	10001d26 	beq	r2,zero,815968 <altera_avalon_uart_txirq+0xb8>
  8158f4:	e0bffc17 	ldw	r2,-16(fp)
  8158f8:	10800417 	ldw	r2,16(r2)
  8158fc:	e0bffc17 	ldw	r2,-16(fp)
  815900:	10800517 	ldw	r2,20(r2)
  815904:	e0bffc17 	ldw	r2,-16(fp)
  815908:	10800017 	ldw	r2,0(r2)
  81590c:	10800104 	addi	r2,r2,4
  815910:	e0fffc17 	ldw	r3,-16(fp)
  815914:	18c00417 	ldw	r3,16(r3)
  815918:	e13ffc17 	ldw	r4,-16(fp)
  81591c:	20c7883a 	add	r3,r4,r3
  815920:	18c01704 	addi	r3,r3,92
  815924:	18c00003 	ldbu	r3,0(r3)
  815928:	18c03fcc 	andi	r3,r3,255
  81592c:	10c00035 	stwio	r3,0(r2)
  815930:	e0bffc17 	ldw	r2,-16(fp)
  815934:	10800417 	ldw	r2,16(r2)
  815938:	10800044 	addi	r2,r2,1
  81593c:	e0fffc17 	ldw	r3,-16(fp)
  815940:	18800415 	stw	r2,16(r3)
  815944:	10c00fcc 	andi	r3,r2,63
  815948:	e0bffc17 	ldw	r2,-16(fp)
  81594c:	10c00415 	stw	r3,16(r2)
  815950:	e0bffc17 	ldw	r2,-16(fp)
  815954:	10800117 	ldw	r2,4(r2)
  815958:	10c01014 	ori	r3,r2,64
  81595c:	e0bffc17 	ldw	r2,-16(fp)
  815960:	10c00115 	stw	r3,4(r2)
  815964:	00000e06 	br	8159a0 <altera_avalon_uart_txirq+0xf0>
  815968:	e0bffc17 	ldw	r2,-16(fp)
  81596c:	10800017 	ldw	r2,0(r2)
  815970:	10800204 	addi	r2,r2,8
  815974:	10800037 	ldwio	r2,0(r2)
  815978:	e0bffd15 	stw	r2,-12(fp)
  81597c:	e0bffd17 	ldw	r2,-12(fp)
  815980:	1082000c 	andi	r2,r2,2048
  815984:	1000061e 	bne	r2,zero,8159a0 <altera_avalon_uart_txirq+0xf0>
  815988:	e0bffc17 	ldw	r2,-16(fp)
  81598c:	10c00117 	ldw	r3,4(r2)
  815990:	00bfefc4 	movi	r2,-65
  815994:	1886703a 	and	r3,r3,r2
  815998:	e0bffc17 	ldw	r2,-16(fp)
  81599c:	10c00115 	stw	r3,4(r2)
  8159a0:	e0bffc17 	ldw	r2,-16(fp)
  8159a4:	10c00417 	ldw	r3,16(r2)
  8159a8:	e0bffc17 	ldw	r2,-16(fp)
  8159ac:	10800517 	ldw	r2,20(r2)
  8159b0:	1880061e 	bne	r3,r2,8159cc <altera_avalon_uart_txirq+0x11c>
  8159b4:	e0bffc17 	ldw	r2,-16(fp)
  8159b8:	10c00117 	ldw	r3,4(r2)
  8159bc:	00beefc4 	movi	r2,-1089
  8159c0:	1886703a 	and	r3,r3,r2
  8159c4:	e0bffc17 	ldw	r2,-16(fp)
  8159c8:	10c00115 	stw	r3,4(r2)
  8159cc:	e0bffc17 	ldw	r2,-16(fp)
  8159d0:	10800017 	ldw	r2,0(r2)
  8159d4:	10800304 	addi	r2,r2,12
  8159d8:	e0fffc17 	ldw	r3,-16(fp)
  8159dc:	18c00117 	ldw	r3,4(r3)
  8159e0:	10c00035 	stwio	r3,0(r2)
  8159e4:	0001883a 	nop
  8159e8:	e037883a 	mov	sp,fp
  8159ec:	df000017 	ldw	fp,0(sp)
  8159f0:	dec00104 	addi	sp,sp,4
  8159f4:	f800283a 	ret

008159f8 <altera_avalon_uart_close>:
  8159f8:	defffd04 	addi	sp,sp,-12
  8159fc:	df000215 	stw	fp,8(sp)
  815a00:	df000204 	addi	fp,sp,8
  815a04:	e13ffe15 	stw	r4,-8(fp)
  815a08:	e17fff15 	stw	r5,-4(fp)
  815a0c:	00000506 	br	815a24 <altera_avalon_uart_close+0x2c>
  815a10:	e0bfff17 	ldw	r2,-4(fp)
  815a14:	1090000c 	andi	r2,r2,16384
  815a18:	10000226 	beq	r2,zero,815a24 <altera_avalon_uart_close+0x2c>
  815a1c:	00bffd44 	movi	r2,-11
  815a20:	00000606 	br	815a3c <altera_avalon_uart_close+0x44>
  815a24:	e0bffe17 	ldw	r2,-8(fp)
  815a28:	10c00417 	ldw	r3,16(r2)
  815a2c:	e0bffe17 	ldw	r2,-8(fp)
  815a30:	10800517 	ldw	r2,20(r2)
  815a34:	18bff61e 	bne	r3,r2,815a10 <__alt_mem_onchip_mem+0xff80da10>
  815a38:	0005883a 	mov	r2,zero
  815a3c:	e037883a 	mov	sp,fp
  815a40:	df000017 	ldw	fp,0(sp)
  815a44:	dec00104 	addi	sp,sp,4
  815a48:	f800283a 	ret

00815a4c <alt_get_errno>:
  815a4c:	defffe04 	addi	sp,sp,-8
  815a50:	dfc00115 	stw	ra,4(sp)
  815a54:	df000015 	stw	fp,0(sp)
  815a58:	d839883a 	mov	fp,sp
  815a5c:	d0a00b17 	ldw	r2,-32724(gp)
  815a60:	10000326 	beq	r2,zero,815a70 <alt_get_errno+0x24>
  815a64:	d0a00b17 	ldw	r2,-32724(gp)
  815a68:	103ee83a 	callr	r2
  815a6c:	00000106 	br	815a74 <alt_get_errno+0x28>
  815a70:	d0a74d04 	addi	r2,gp,-25292
  815a74:	e037883a 	mov	sp,fp
  815a78:	dfc00117 	ldw	ra,4(sp)
  815a7c:	df000017 	ldw	fp,0(sp)
  815a80:	dec00204 	addi	sp,sp,8
  815a84:	f800283a 	ret

00815a88 <altera_avalon_uart_read>:
  815a88:	defff204 	addi	sp,sp,-56
  815a8c:	dfc00d15 	stw	ra,52(sp)
  815a90:	df000c15 	stw	fp,48(sp)
  815a94:	df000c04 	addi	fp,sp,48
  815a98:	e13ffc15 	stw	r4,-16(fp)
  815a9c:	e17ffd15 	stw	r5,-12(fp)
  815aa0:	e1bffe15 	stw	r6,-8(fp)
  815aa4:	e1ffff15 	stw	r7,-4(fp)
  815aa8:	e03ff405 	stb	zero,-48(fp)
  815aac:	e03ff515 	stw	zero,-44(fp)
  815ab0:	e0bfff17 	ldw	r2,-4(fp)
  815ab4:	1090000c 	andi	r2,r2,16384
  815ab8:	1005003a 	cmpeq	r2,r2,zero
  815abc:	10803fcc 	andi	r2,r2,255
  815ac0:	e0bff615 	stw	r2,-40(fp)
  815ac4:	00001306 	br	815b14 <altera_avalon_uart_read+0x8c>
  815ac8:	e0bff517 	ldw	r2,-44(fp)
  815acc:	10800044 	addi	r2,r2,1
  815ad0:	e0bff515 	stw	r2,-44(fp)
  815ad4:	e0bffd17 	ldw	r2,-12(fp)
  815ad8:	10c00044 	addi	r3,r2,1
  815adc:	e0fffd15 	stw	r3,-12(fp)
  815ae0:	e0fffc17 	ldw	r3,-16(fp)
  815ae4:	18c00217 	ldw	r3,8(r3)
  815ae8:	e13ffc17 	ldw	r4,-16(fp)
  815aec:	20c7883a 	add	r3,r4,r3
  815af0:	18c00704 	addi	r3,r3,28
  815af4:	18c00003 	ldbu	r3,0(r3)
  815af8:	10c00005 	stb	r3,0(r2)
  815afc:	e0bffc17 	ldw	r2,-16(fp)
  815b00:	10800217 	ldw	r2,8(r2)
  815b04:	10800044 	addi	r2,r2,1
  815b08:	10c00fcc 	andi	r3,r2,63
  815b0c:	e0bffc17 	ldw	r2,-16(fp)
  815b10:	10c00215 	stw	r3,8(r2)
  815b14:	e0fff517 	ldw	r3,-44(fp)
  815b18:	e0bffe17 	ldw	r2,-8(fp)
  815b1c:	1880050e 	bge	r3,r2,815b34 <altera_avalon_uart_read+0xac>
  815b20:	e0bffc17 	ldw	r2,-16(fp)
  815b24:	10c00217 	ldw	r3,8(r2)
  815b28:	e0bffc17 	ldw	r2,-16(fp)
  815b2c:	10800317 	ldw	r2,12(r2)
  815b30:	18bfe51e 	bne	r3,r2,815ac8 <__alt_mem_onchip_mem+0xff80dac8>
  815b34:	e0bff517 	ldw	r2,-44(fp)
  815b38:	1000251e 	bne	r2,zero,815bd0 <altera_avalon_uart_read+0x148>
  815b3c:	e0bffc17 	ldw	r2,-16(fp)
  815b40:	10c00217 	ldw	r3,8(r2)
  815b44:	e0bffc17 	ldw	r2,-16(fp)
  815b48:	10800317 	ldw	r2,12(r2)
  815b4c:	1880201e 	bne	r3,r2,815bd0 <altera_avalon_uart_read+0x148>
  815b50:	e0bff617 	ldw	r2,-40(fp)
  815b54:	1000071e 	bne	r2,zero,815b74 <altera_avalon_uart_read+0xec>
  815b58:	0815a4c0 	call	815a4c <alt_get_errno>
  815b5c:	1007883a 	mov	r3,r2
  815b60:	008002c4 	movi	r2,11
  815b64:	18800015 	stw	r2,0(r3)
  815b68:	00800044 	movi	r2,1
  815b6c:	e0bff405 	stb	r2,-48(fp)
  815b70:	00001b06 	br	815be0 <altera_avalon_uart_read+0x158>
  815b74:	0005303a 	rdctl	r2,status
  815b78:	e0bff915 	stw	r2,-28(fp)
  815b7c:	e0fff917 	ldw	r3,-28(fp)
  815b80:	00bfff84 	movi	r2,-2
  815b84:	1884703a 	and	r2,r3,r2
  815b88:	1001703a 	wrctl	status,r2
  815b8c:	e0bff917 	ldw	r2,-28(fp)
  815b90:	e0bff815 	stw	r2,-32(fp)
  815b94:	e0bffc17 	ldw	r2,-16(fp)
  815b98:	10800117 	ldw	r2,4(r2)
  815b9c:	10c02014 	ori	r3,r2,128
  815ba0:	e0bffc17 	ldw	r2,-16(fp)
  815ba4:	10c00115 	stw	r3,4(r2)
  815ba8:	e0bffc17 	ldw	r2,-16(fp)
  815bac:	10800017 	ldw	r2,0(r2)
  815bb0:	10800304 	addi	r2,r2,12
  815bb4:	e0fffc17 	ldw	r3,-16(fp)
  815bb8:	18c00117 	ldw	r3,4(r3)
  815bbc:	10c00035 	stwio	r3,0(r2)
  815bc0:	e0bff817 	ldw	r2,-32(fp)
  815bc4:	e0bffa15 	stw	r2,-24(fp)
  815bc8:	e0bffa17 	ldw	r2,-24(fp)
  815bcc:	1001703a 	wrctl	status,r2
  815bd0:	e0bff517 	ldw	r2,-44(fp)
  815bd4:	1000021e 	bne	r2,zero,815be0 <altera_avalon_uart_read+0x158>
  815bd8:	e0bffe17 	ldw	r2,-8(fp)
  815bdc:	103fcd1e 	bne	r2,zero,815b14 <__alt_mem_onchip_mem+0xff80db14>
  815be0:	0005303a 	rdctl	r2,status
  815be4:	e0bffb15 	stw	r2,-20(fp)
  815be8:	e0fffb17 	ldw	r3,-20(fp)
  815bec:	00bfff84 	movi	r2,-2
  815bf0:	1884703a 	and	r2,r3,r2
  815bf4:	1001703a 	wrctl	status,r2
  815bf8:	e0bffb17 	ldw	r2,-20(fp)
  815bfc:	e0bff815 	stw	r2,-32(fp)
  815c00:	e0bffc17 	ldw	r2,-16(fp)
  815c04:	10800117 	ldw	r2,4(r2)
  815c08:	10c02014 	ori	r3,r2,128
  815c0c:	e0bffc17 	ldw	r2,-16(fp)
  815c10:	10c00115 	stw	r3,4(r2)
  815c14:	e0bffc17 	ldw	r2,-16(fp)
  815c18:	10800017 	ldw	r2,0(r2)
  815c1c:	10800304 	addi	r2,r2,12
  815c20:	e0fffc17 	ldw	r3,-16(fp)
  815c24:	18c00117 	ldw	r3,4(r3)
  815c28:	10c00035 	stwio	r3,0(r2)
  815c2c:	e0bff817 	ldw	r2,-32(fp)
  815c30:	e0bff715 	stw	r2,-36(fp)
  815c34:	e0bff717 	ldw	r2,-36(fp)
  815c38:	1001703a 	wrctl	status,r2
  815c3c:	e0bff403 	ldbu	r2,-48(fp)
  815c40:	10000226 	beq	r2,zero,815c4c <altera_avalon_uart_read+0x1c4>
  815c44:	00bffd44 	movi	r2,-11
  815c48:	00000106 	br	815c50 <altera_avalon_uart_read+0x1c8>
  815c4c:	e0bff517 	ldw	r2,-44(fp)
  815c50:	e037883a 	mov	sp,fp
  815c54:	dfc00117 	ldw	ra,4(sp)
  815c58:	df000017 	ldw	fp,0(sp)
  815c5c:	dec00204 	addi	sp,sp,8
  815c60:	f800283a 	ret

00815c64 <alt_get_errno>:
  815c64:	defffe04 	addi	sp,sp,-8
  815c68:	dfc00115 	stw	ra,4(sp)
  815c6c:	df000015 	stw	fp,0(sp)
  815c70:	d839883a 	mov	fp,sp
  815c74:	d0a00b17 	ldw	r2,-32724(gp)
  815c78:	10000326 	beq	r2,zero,815c88 <alt_get_errno+0x24>
  815c7c:	d0a00b17 	ldw	r2,-32724(gp)
  815c80:	103ee83a 	callr	r2
  815c84:	00000106 	br	815c8c <alt_get_errno+0x28>
  815c88:	d0a74d04 	addi	r2,gp,-25292
  815c8c:	e037883a 	mov	sp,fp
  815c90:	dfc00117 	ldw	ra,4(sp)
  815c94:	df000017 	ldw	fp,0(sp)
  815c98:	dec00204 	addi	sp,sp,8
  815c9c:	f800283a 	ret

00815ca0 <altera_avalon_uart_write>:
  815ca0:	defff204 	addi	sp,sp,-56
  815ca4:	dfc00d15 	stw	ra,52(sp)
  815ca8:	df000c15 	stw	fp,48(sp)
  815cac:	df000c04 	addi	fp,sp,48
  815cb0:	e13ffc15 	stw	r4,-16(fp)
  815cb4:	e17ffd15 	stw	r5,-12(fp)
  815cb8:	e1bffe15 	stw	r6,-8(fp)
  815cbc:	e1ffff15 	stw	r7,-4(fp)
  815cc0:	e0bffe17 	ldw	r2,-8(fp)
  815cc4:	e0bff415 	stw	r2,-48(fp)
  815cc8:	e0bfff17 	ldw	r2,-4(fp)
  815ccc:	1090000c 	andi	r2,r2,16384
  815cd0:	e0bff515 	stw	r2,-44(fp)
  815cd4:	00003c06 	br	815dc8 <altera_avalon_uart_write+0x128>
  815cd8:	e0bffc17 	ldw	r2,-16(fp)
  815cdc:	10800517 	ldw	r2,20(r2)
  815ce0:	10800044 	addi	r2,r2,1
  815ce4:	10800fcc 	andi	r2,r2,63
  815ce8:	e0bff715 	stw	r2,-36(fp)
  815cec:	e0bffc17 	ldw	r2,-16(fp)
  815cf0:	10c00417 	ldw	r3,16(r2)
  815cf4:	e0bff717 	ldw	r2,-36(fp)
  815cf8:	1880221e 	bne	r3,r2,815d84 <altera_avalon_uart_write+0xe4>
  815cfc:	e0bff517 	ldw	r2,-44(fp)
  815d00:	10000526 	beq	r2,zero,815d18 <altera_avalon_uart_write+0x78>
  815d04:	0815c640 	call	815c64 <alt_get_errno>
  815d08:	1007883a 	mov	r3,r2
  815d0c:	008002c4 	movi	r2,11
  815d10:	18800015 	stw	r2,0(r3)
  815d14:	00002e06 	br	815dd0 <altera_avalon_uart_write+0x130>
  815d18:	0005303a 	rdctl	r2,status
  815d1c:	e0bff915 	stw	r2,-28(fp)
  815d20:	e0fff917 	ldw	r3,-28(fp)
  815d24:	00bfff84 	movi	r2,-2
  815d28:	1884703a 	and	r2,r3,r2
  815d2c:	1001703a 	wrctl	status,r2
  815d30:	e0bff917 	ldw	r2,-28(fp)
  815d34:	e0bff815 	stw	r2,-32(fp)
  815d38:	e0bffc17 	ldw	r2,-16(fp)
  815d3c:	10800117 	ldw	r2,4(r2)
  815d40:	10c11014 	ori	r3,r2,1088
  815d44:	e0bffc17 	ldw	r2,-16(fp)
  815d48:	10c00115 	stw	r3,4(r2)
  815d4c:	e0bffc17 	ldw	r2,-16(fp)
  815d50:	10800017 	ldw	r2,0(r2)
  815d54:	10800304 	addi	r2,r2,12
  815d58:	e0fffc17 	ldw	r3,-16(fp)
  815d5c:	18c00117 	ldw	r3,4(r3)
  815d60:	10c00035 	stwio	r3,0(r2)
  815d64:	e0bff817 	ldw	r2,-32(fp)
  815d68:	e0bff615 	stw	r2,-40(fp)
  815d6c:	e0bff617 	ldw	r2,-40(fp)
  815d70:	1001703a 	wrctl	status,r2
  815d74:	e0bffc17 	ldw	r2,-16(fp)
  815d78:	10c00417 	ldw	r3,16(r2)
  815d7c:	e0bff717 	ldw	r2,-36(fp)
  815d80:	18bffc26 	beq	r3,r2,815d74 <__alt_mem_onchip_mem+0xff80dd74>
  815d84:	e0bff417 	ldw	r2,-48(fp)
  815d88:	10bfffc4 	addi	r2,r2,-1
  815d8c:	e0bff415 	stw	r2,-48(fp)
  815d90:	e0bffc17 	ldw	r2,-16(fp)
  815d94:	10c00517 	ldw	r3,20(r2)
  815d98:	e0bffd17 	ldw	r2,-12(fp)
  815d9c:	11000044 	addi	r4,r2,1
  815da0:	e13ffd15 	stw	r4,-12(fp)
  815da4:	10800003 	ldbu	r2,0(r2)
  815da8:	1009883a 	mov	r4,r2
  815dac:	e0bffc17 	ldw	r2,-16(fp)
  815db0:	10c5883a 	add	r2,r2,r3
  815db4:	10801704 	addi	r2,r2,92
  815db8:	11000005 	stb	r4,0(r2)
  815dbc:	e0bffc17 	ldw	r2,-16(fp)
  815dc0:	e0fff717 	ldw	r3,-36(fp)
  815dc4:	10c00515 	stw	r3,20(r2)
  815dc8:	e0bff417 	ldw	r2,-48(fp)
  815dcc:	103fc21e 	bne	r2,zero,815cd8 <__alt_mem_onchip_mem+0xff80dcd8>
  815dd0:	0005303a 	rdctl	r2,status
  815dd4:	e0bffb15 	stw	r2,-20(fp)
  815dd8:	e0fffb17 	ldw	r3,-20(fp)
  815ddc:	00bfff84 	movi	r2,-2
  815de0:	1884703a 	and	r2,r3,r2
  815de4:	1001703a 	wrctl	status,r2
  815de8:	e0bffb17 	ldw	r2,-20(fp)
  815dec:	e0bff815 	stw	r2,-32(fp)
  815df0:	e0bffc17 	ldw	r2,-16(fp)
  815df4:	10800117 	ldw	r2,4(r2)
  815df8:	10c11014 	ori	r3,r2,1088
  815dfc:	e0bffc17 	ldw	r2,-16(fp)
  815e00:	10c00115 	stw	r3,4(r2)
  815e04:	e0bffc17 	ldw	r2,-16(fp)
  815e08:	10800017 	ldw	r2,0(r2)
  815e0c:	10800304 	addi	r2,r2,12
  815e10:	e0fffc17 	ldw	r3,-16(fp)
  815e14:	18c00117 	ldw	r3,4(r3)
  815e18:	10c00035 	stwio	r3,0(r2)
  815e1c:	e0bff817 	ldw	r2,-32(fp)
  815e20:	e0bffa15 	stw	r2,-24(fp)
  815e24:	e0bffa17 	ldw	r2,-24(fp)
  815e28:	1001703a 	wrctl	status,r2
  815e2c:	e0fffe17 	ldw	r3,-8(fp)
  815e30:	e0bff417 	ldw	r2,-48(fp)
  815e34:	1885c83a 	sub	r2,r3,r2
  815e38:	e037883a 	mov	sp,fp
  815e3c:	dfc00117 	ldw	ra,4(sp)
  815e40:	df000017 	ldw	fp,0(sp)
  815e44:	dec00204 	addi	sp,sp,8
  815e48:	f800283a 	ret

00815e4c <alt_dcache_flush_all>:
  815e4c:	defffe04 	addi	sp,sp,-8
  815e50:	df000115 	stw	fp,4(sp)
  815e54:	df000104 	addi	fp,sp,4
  815e58:	e03fff15 	stw	zero,-4(fp)
  815e5c:	00000506 	br	815e74 <alt_dcache_flush_all+0x28>
  815e60:	e0bfff17 	ldw	r2,-4(fp)
  815e64:	1000003b 	flushd	0(r2)
  815e68:	e0bfff17 	ldw	r2,-4(fp)
  815e6c:	10800804 	addi	r2,r2,32
  815e70:	e0bfff15 	stw	r2,-4(fp)
  815e74:	e0bfff17 	ldw	r2,-4(fp)
  815e78:	10820030 	cmpltui	r2,r2,2048
  815e7c:	103ff81e 	bne	r2,zero,815e60 <__alt_mem_onchip_mem+0xff80de60>
  815e80:	0001883a 	nop
  815e84:	e037883a 	mov	sp,fp
  815e88:	df000017 	ldw	fp,0(sp)
  815e8c:	dec00104 	addi	sp,sp,4
  815e90:	f800283a 	ret

00815e94 <alt_get_errno>:
  815e94:	defffe04 	addi	sp,sp,-8
  815e98:	dfc00115 	stw	ra,4(sp)
  815e9c:	df000015 	stw	fp,0(sp)
  815ea0:	d839883a 	mov	fp,sp
  815ea4:	d0a00b17 	ldw	r2,-32724(gp)
  815ea8:	10000326 	beq	r2,zero,815eb8 <alt_get_errno+0x24>
  815eac:	d0a00b17 	ldw	r2,-32724(gp)
  815eb0:	103ee83a 	callr	r2
  815eb4:	00000106 	br	815ebc <alt_get_errno+0x28>
  815eb8:	d0a74d04 	addi	r2,gp,-25292
  815ebc:	e037883a 	mov	sp,fp
  815ec0:	dfc00117 	ldw	ra,4(sp)
  815ec4:	df000017 	ldw	fp,0(sp)
  815ec8:	dec00204 	addi	sp,sp,8
  815ecc:	f800283a 	ret

00815ed0 <alt_dev_llist_insert>:
  815ed0:	defffa04 	addi	sp,sp,-24
  815ed4:	dfc00515 	stw	ra,20(sp)
  815ed8:	df000415 	stw	fp,16(sp)
  815edc:	df000404 	addi	fp,sp,16
  815ee0:	e13ffe15 	stw	r4,-8(fp)
  815ee4:	e17fff15 	stw	r5,-4(fp)
  815ee8:	e0bffe17 	ldw	r2,-8(fp)
  815eec:	10000326 	beq	r2,zero,815efc <alt_dev_llist_insert+0x2c>
  815ef0:	e0bffe17 	ldw	r2,-8(fp)
  815ef4:	10800217 	ldw	r2,8(r2)
  815ef8:	1000061e 	bne	r2,zero,815f14 <alt_dev_llist_insert+0x44>
  815efc:	0815e940 	call	815e94 <alt_get_errno>
  815f00:	1007883a 	mov	r3,r2
  815f04:	00800584 	movi	r2,22
  815f08:	18800015 	stw	r2,0(r3)
  815f0c:	00bffa84 	movi	r2,-22
  815f10:	00001306 	br	815f60 <alt_dev_llist_insert+0x90>
  815f14:	e0bffe17 	ldw	r2,-8(fp)
  815f18:	e0ffff17 	ldw	r3,-4(fp)
  815f1c:	e0fffc15 	stw	r3,-16(fp)
  815f20:	e0bffd15 	stw	r2,-12(fp)
  815f24:	e0bffd17 	ldw	r2,-12(fp)
  815f28:	e0fffc17 	ldw	r3,-16(fp)
  815f2c:	10c00115 	stw	r3,4(r2)
  815f30:	e0bffc17 	ldw	r2,-16(fp)
  815f34:	10c00017 	ldw	r3,0(r2)
  815f38:	e0bffd17 	ldw	r2,-12(fp)
  815f3c:	10c00015 	stw	r3,0(r2)
  815f40:	e0bffc17 	ldw	r2,-16(fp)
  815f44:	10800017 	ldw	r2,0(r2)
  815f48:	e0fffd17 	ldw	r3,-12(fp)
  815f4c:	10c00115 	stw	r3,4(r2)
  815f50:	e0bffc17 	ldw	r2,-16(fp)
  815f54:	e0fffd17 	ldw	r3,-12(fp)
  815f58:	10c00015 	stw	r3,0(r2)
  815f5c:	0005883a 	mov	r2,zero
  815f60:	e037883a 	mov	sp,fp
  815f64:	dfc00117 	ldw	ra,4(sp)
  815f68:	df000017 	ldw	fp,0(sp)
  815f6c:	dec00204 	addi	sp,sp,8
  815f70:	f800283a 	ret

00815f74 <_do_ctors>:
  815f74:	defffd04 	addi	sp,sp,-12
  815f78:	dfc00215 	stw	ra,8(sp)
  815f7c:	df000115 	stw	fp,4(sp)
  815f80:	df000104 	addi	fp,sp,4
  815f84:	00802074 	movhi	r2,129
  815f88:	109b3b04 	addi	r2,r2,27884
  815f8c:	e0bfff15 	stw	r2,-4(fp)
  815f90:	00000606 	br	815fac <_do_ctors+0x38>
  815f94:	e0bfff17 	ldw	r2,-4(fp)
  815f98:	10800017 	ldw	r2,0(r2)
  815f9c:	103ee83a 	callr	r2
  815fa0:	e0bfff17 	ldw	r2,-4(fp)
  815fa4:	10bfff04 	addi	r2,r2,-4
  815fa8:	e0bfff15 	stw	r2,-4(fp)
  815fac:	e0ffff17 	ldw	r3,-4(fp)
  815fb0:	00802074 	movhi	r2,129
  815fb4:	109b3c04 	addi	r2,r2,27888
  815fb8:	18bff62e 	bgeu	r3,r2,815f94 <__alt_mem_onchip_mem+0xff80df94>
  815fbc:	0001883a 	nop
  815fc0:	e037883a 	mov	sp,fp
  815fc4:	dfc00117 	ldw	ra,4(sp)
  815fc8:	df000017 	ldw	fp,0(sp)
  815fcc:	dec00204 	addi	sp,sp,8
  815fd0:	f800283a 	ret

00815fd4 <_do_dtors>:
  815fd4:	defffd04 	addi	sp,sp,-12
  815fd8:	dfc00215 	stw	ra,8(sp)
  815fdc:	df000115 	stw	fp,4(sp)
  815fe0:	df000104 	addi	fp,sp,4
  815fe4:	00802074 	movhi	r2,129
  815fe8:	109b3b04 	addi	r2,r2,27884
  815fec:	e0bfff15 	stw	r2,-4(fp)
  815ff0:	00000606 	br	81600c <_do_dtors+0x38>
  815ff4:	e0bfff17 	ldw	r2,-4(fp)
  815ff8:	10800017 	ldw	r2,0(r2)
  815ffc:	103ee83a 	callr	r2
  816000:	e0bfff17 	ldw	r2,-4(fp)
  816004:	10bfff04 	addi	r2,r2,-4
  816008:	e0bfff15 	stw	r2,-4(fp)
  81600c:	e0ffff17 	ldw	r3,-4(fp)
  816010:	00802074 	movhi	r2,129
  816014:	109b3c04 	addi	r2,r2,27888
  816018:	18bff62e 	bgeu	r3,r2,815ff4 <__alt_mem_onchip_mem+0xff80dff4>
  81601c:	0001883a 	nop
  816020:	e037883a 	mov	sp,fp
  816024:	dfc00117 	ldw	ra,4(sp)
  816028:	df000017 	ldw	fp,0(sp)
  81602c:	dec00204 	addi	sp,sp,8
  816030:	f800283a 	ret

00816034 <alt_find_dev>:
  816034:	defffa04 	addi	sp,sp,-24
  816038:	dfc00515 	stw	ra,20(sp)
  81603c:	df000415 	stw	fp,16(sp)
  816040:	df000404 	addi	fp,sp,16
  816044:	e13ffe15 	stw	r4,-8(fp)
  816048:	e17fff15 	stw	r5,-4(fp)
  81604c:	e0bfff17 	ldw	r2,-4(fp)
  816050:	10800017 	ldw	r2,0(r2)
  816054:	e0bffc15 	stw	r2,-16(fp)
  816058:	e13ffe17 	ldw	r4,-8(fp)
  81605c:	080905c0 	call	80905c <strlen>
  816060:	10800044 	addi	r2,r2,1
  816064:	e0bffd15 	stw	r2,-12(fp)
  816068:	00000d06 	br	8160a0 <alt_find_dev+0x6c>
  81606c:	e0bffc17 	ldw	r2,-16(fp)
  816070:	10800217 	ldw	r2,8(r2)
  816074:	e0fffd17 	ldw	r3,-12(fp)
  816078:	180d883a 	mov	r6,r3
  81607c:	e17ffe17 	ldw	r5,-8(fp)
  816080:	1009883a 	mov	r4,r2
  816084:	08169a80 	call	8169a8 <memcmp>
  816088:	1000021e 	bne	r2,zero,816094 <alt_find_dev+0x60>
  81608c:	e0bffc17 	ldw	r2,-16(fp)
  816090:	00000706 	br	8160b0 <alt_find_dev+0x7c>
  816094:	e0bffc17 	ldw	r2,-16(fp)
  816098:	10800017 	ldw	r2,0(r2)
  81609c:	e0bffc15 	stw	r2,-16(fp)
  8160a0:	e0fffc17 	ldw	r3,-16(fp)
  8160a4:	e0bfff17 	ldw	r2,-4(fp)
  8160a8:	18bff01e 	bne	r3,r2,81606c <__alt_mem_onchip_mem+0xff80e06c>
  8160ac:	0005883a 	mov	r2,zero
  8160b0:	e037883a 	mov	sp,fp
  8160b4:	dfc00117 	ldw	ra,4(sp)
  8160b8:	df000017 	ldw	fp,0(sp)
  8160bc:	dec00204 	addi	sp,sp,8
  8160c0:	f800283a 	ret

008160c4 <alt_find_file>:
  8160c4:	defffb04 	addi	sp,sp,-20
  8160c8:	dfc00415 	stw	ra,16(sp)
  8160cc:	df000315 	stw	fp,12(sp)
  8160d0:	df000304 	addi	fp,sp,12
  8160d4:	e13fff15 	stw	r4,-4(fp)
  8160d8:	d0a00617 	ldw	r2,-32744(gp)
  8160dc:	e0bffd15 	stw	r2,-12(fp)
  8160e0:	00003106 	br	8161a8 <alt_find_file+0xe4>
  8160e4:	e0bffd17 	ldw	r2,-12(fp)
  8160e8:	10800217 	ldw	r2,8(r2)
  8160ec:	1009883a 	mov	r4,r2
  8160f0:	080905c0 	call	80905c <strlen>
  8160f4:	e0bffe15 	stw	r2,-8(fp)
  8160f8:	e0bffd17 	ldw	r2,-12(fp)
  8160fc:	10c00217 	ldw	r3,8(r2)
  816100:	e0bffe17 	ldw	r2,-8(fp)
  816104:	10bfffc4 	addi	r2,r2,-1
  816108:	1885883a 	add	r2,r3,r2
  81610c:	10800003 	ldbu	r2,0(r2)
  816110:	10803fcc 	andi	r2,r2,255
  816114:	1080201c 	xori	r2,r2,128
  816118:	10bfe004 	addi	r2,r2,-128
  81611c:	10800bd8 	cmpnei	r2,r2,47
  816120:	1000031e 	bne	r2,zero,816130 <alt_find_file+0x6c>
  816124:	e0bffe17 	ldw	r2,-8(fp)
  816128:	10bfffc4 	addi	r2,r2,-1
  81612c:	e0bffe15 	stw	r2,-8(fp)
  816130:	e0bffe17 	ldw	r2,-8(fp)
  816134:	e0ffff17 	ldw	r3,-4(fp)
  816138:	1885883a 	add	r2,r3,r2
  81613c:	10800003 	ldbu	r2,0(r2)
  816140:	10803fcc 	andi	r2,r2,255
  816144:	1080201c 	xori	r2,r2,128
  816148:	10bfe004 	addi	r2,r2,-128
  81614c:	10800be0 	cmpeqi	r2,r2,47
  816150:	1000081e 	bne	r2,zero,816174 <alt_find_file+0xb0>
  816154:	e0bffe17 	ldw	r2,-8(fp)
  816158:	e0ffff17 	ldw	r3,-4(fp)
  81615c:	1885883a 	add	r2,r3,r2
  816160:	10800003 	ldbu	r2,0(r2)
  816164:	10803fcc 	andi	r2,r2,255
  816168:	1080201c 	xori	r2,r2,128
  81616c:	10bfe004 	addi	r2,r2,-128
  816170:	10000a1e 	bne	r2,zero,81619c <alt_find_file+0xd8>
  816174:	e0bffd17 	ldw	r2,-12(fp)
  816178:	10800217 	ldw	r2,8(r2)
  81617c:	e0fffe17 	ldw	r3,-8(fp)
  816180:	180d883a 	mov	r6,r3
  816184:	e17fff17 	ldw	r5,-4(fp)
  816188:	1009883a 	mov	r4,r2
  81618c:	08169a80 	call	8169a8 <memcmp>
  816190:	1000021e 	bne	r2,zero,81619c <alt_find_file+0xd8>
  816194:	e0bffd17 	ldw	r2,-12(fp)
  816198:	00000706 	br	8161b8 <alt_find_file+0xf4>
  81619c:	e0bffd17 	ldw	r2,-12(fp)
  8161a0:	10800017 	ldw	r2,0(r2)
  8161a4:	e0bffd15 	stw	r2,-12(fp)
  8161a8:	e0fffd17 	ldw	r3,-12(fp)
  8161ac:	d0a00604 	addi	r2,gp,-32744
  8161b0:	18bfcc1e 	bne	r3,r2,8160e4 <__alt_mem_onchip_mem+0xff80e0e4>
  8161b4:	0005883a 	mov	r2,zero
  8161b8:	e037883a 	mov	sp,fp
  8161bc:	dfc00117 	ldw	ra,4(sp)
  8161c0:	df000017 	ldw	fp,0(sp)
  8161c4:	dec00204 	addi	sp,sp,8
  8161c8:	f800283a 	ret

008161cc <alt_get_fd>:
  8161cc:	defffc04 	addi	sp,sp,-16
  8161d0:	df000315 	stw	fp,12(sp)
  8161d4:	df000304 	addi	fp,sp,12
  8161d8:	e13fff15 	stw	r4,-4(fp)
  8161dc:	00bffa04 	movi	r2,-24
  8161e0:	e0bffe15 	stw	r2,-8(fp)
  8161e4:	e03ffd15 	stw	zero,-12(fp)
  8161e8:	00001906 	br	816250 <alt_get_fd+0x84>
  8161ec:	00802074 	movhi	r2,129
  8161f0:	109ef804 	addi	r2,r2,31712
  8161f4:	e0fffd17 	ldw	r3,-12(fp)
  8161f8:	18c00324 	muli	r3,r3,12
  8161fc:	10c5883a 	add	r2,r2,r3
  816200:	10800017 	ldw	r2,0(r2)
  816204:	10000f1e 	bne	r2,zero,816244 <alt_get_fd+0x78>
  816208:	00802074 	movhi	r2,129
  81620c:	109ef804 	addi	r2,r2,31712
  816210:	e0fffd17 	ldw	r3,-12(fp)
  816214:	18c00324 	muli	r3,r3,12
  816218:	10c5883a 	add	r2,r2,r3
  81621c:	e0ffff17 	ldw	r3,-4(fp)
  816220:	10c00015 	stw	r3,0(r2)
  816224:	d0e00a17 	ldw	r3,-32728(gp)
  816228:	e0bffd17 	ldw	r2,-12(fp)
  81622c:	1880020e 	bge	r3,r2,816238 <alt_get_fd+0x6c>
  816230:	e0bffd17 	ldw	r2,-12(fp)
  816234:	d0a00a15 	stw	r2,-32728(gp)
  816238:	e0bffd17 	ldw	r2,-12(fp)
  81623c:	e0bffe15 	stw	r2,-8(fp)
  816240:	00000606 	br	81625c <alt_get_fd+0x90>
  816244:	e0bffd17 	ldw	r2,-12(fp)
  816248:	10800044 	addi	r2,r2,1
  81624c:	e0bffd15 	stw	r2,-12(fp)
  816250:	e0bffd17 	ldw	r2,-12(fp)
  816254:	10800810 	cmplti	r2,r2,32
  816258:	103fe41e 	bne	r2,zero,8161ec <__alt_mem_onchip_mem+0xff80e1ec>
  81625c:	e0bffe17 	ldw	r2,-8(fp)
  816260:	e037883a 	mov	sp,fp
  816264:	df000017 	ldw	fp,0(sp)
  816268:	dec00104 	addi	sp,sp,4
  81626c:	f800283a 	ret

00816270 <alt_icache_flush_all>:
  816270:	defffe04 	addi	sp,sp,-8
  816274:	dfc00115 	stw	ra,4(sp)
  816278:	df000015 	stw	fp,0(sp)
  81627c:	d839883a 	mov	fp,sp
  816280:	01440004 	movi	r5,4096
  816284:	0009883a 	mov	r4,zero
  816288:	08168300 	call	816830 <alt_icache_flush>
  81628c:	0001883a 	nop
  816290:	e037883a 	mov	sp,fp
  816294:	dfc00117 	ldw	ra,4(sp)
  816298:	df000017 	ldw	fp,0(sp)
  81629c:	dec00204 	addi	sp,sp,8
  8162a0:	f800283a 	ret

008162a4 <alt_ic_isr_register>:
  8162a4:	defff904 	addi	sp,sp,-28
  8162a8:	dfc00615 	stw	ra,24(sp)
  8162ac:	df000515 	stw	fp,20(sp)
  8162b0:	df000504 	addi	fp,sp,20
  8162b4:	e13ffc15 	stw	r4,-16(fp)
  8162b8:	e17ffd15 	stw	r5,-12(fp)
  8162bc:	e1bffe15 	stw	r6,-8(fp)
  8162c0:	e1ffff15 	stw	r7,-4(fp)
  8162c4:	e0800217 	ldw	r2,8(fp)
  8162c8:	d8800015 	stw	r2,0(sp)
  8162cc:	e1ffff17 	ldw	r7,-4(fp)
  8162d0:	e1bffe17 	ldw	r6,-8(fp)
  8162d4:	e17ffd17 	ldw	r5,-12(fp)
  8162d8:	e13ffc17 	ldw	r4,-16(fp)
  8162dc:	08164540 	call	816454 <alt_iic_isr_register>
  8162e0:	e037883a 	mov	sp,fp
  8162e4:	dfc00117 	ldw	ra,4(sp)
  8162e8:	df000017 	ldw	fp,0(sp)
  8162ec:	dec00204 	addi	sp,sp,8
  8162f0:	f800283a 	ret

008162f4 <alt_ic_irq_enable>:
  8162f4:	defff904 	addi	sp,sp,-28
  8162f8:	df000615 	stw	fp,24(sp)
  8162fc:	df000604 	addi	fp,sp,24
  816300:	e13ffe15 	stw	r4,-8(fp)
  816304:	e17fff15 	stw	r5,-4(fp)
  816308:	e0bfff17 	ldw	r2,-4(fp)
  81630c:	e0bffa15 	stw	r2,-24(fp)
  816310:	0005303a 	rdctl	r2,status
  816314:	e0bffb15 	stw	r2,-20(fp)
  816318:	e0fffb17 	ldw	r3,-20(fp)
  81631c:	00bfff84 	movi	r2,-2
  816320:	1884703a 	and	r2,r3,r2
  816324:	1001703a 	wrctl	status,r2
  816328:	e0bffb17 	ldw	r2,-20(fp)
  81632c:	e0bffc15 	stw	r2,-16(fp)
  816330:	00c00044 	movi	r3,1
  816334:	e0bffa17 	ldw	r2,-24(fp)
  816338:	1884983a 	sll	r2,r3,r2
  81633c:	1007883a 	mov	r3,r2
  816340:	d0a75417 	ldw	r2,-25264(gp)
  816344:	1884b03a 	or	r2,r3,r2
  816348:	d0a75415 	stw	r2,-25264(gp)
  81634c:	d0a75417 	ldw	r2,-25264(gp)
  816350:	100170fa 	wrctl	ienable,r2
  816354:	e0bffc17 	ldw	r2,-16(fp)
  816358:	e0bffd15 	stw	r2,-12(fp)
  81635c:	e0bffd17 	ldw	r2,-12(fp)
  816360:	1001703a 	wrctl	status,r2
  816364:	0005883a 	mov	r2,zero
  816368:	0001883a 	nop
  81636c:	e037883a 	mov	sp,fp
  816370:	df000017 	ldw	fp,0(sp)
  816374:	dec00104 	addi	sp,sp,4
  816378:	f800283a 	ret

0081637c <alt_ic_irq_disable>:
  81637c:	defff904 	addi	sp,sp,-28
  816380:	df000615 	stw	fp,24(sp)
  816384:	df000604 	addi	fp,sp,24
  816388:	e13ffe15 	stw	r4,-8(fp)
  81638c:	e17fff15 	stw	r5,-4(fp)
  816390:	e0bfff17 	ldw	r2,-4(fp)
  816394:	e0bffa15 	stw	r2,-24(fp)
  816398:	0005303a 	rdctl	r2,status
  81639c:	e0bffb15 	stw	r2,-20(fp)
  8163a0:	e0fffb17 	ldw	r3,-20(fp)
  8163a4:	00bfff84 	movi	r2,-2
  8163a8:	1884703a 	and	r2,r3,r2
  8163ac:	1001703a 	wrctl	status,r2
  8163b0:	e0bffb17 	ldw	r2,-20(fp)
  8163b4:	e0bffc15 	stw	r2,-16(fp)
  8163b8:	00c00044 	movi	r3,1
  8163bc:	e0bffa17 	ldw	r2,-24(fp)
  8163c0:	1884983a 	sll	r2,r3,r2
  8163c4:	0084303a 	nor	r2,zero,r2
  8163c8:	1007883a 	mov	r3,r2
  8163cc:	d0a75417 	ldw	r2,-25264(gp)
  8163d0:	1884703a 	and	r2,r3,r2
  8163d4:	d0a75415 	stw	r2,-25264(gp)
  8163d8:	d0a75417 	ldw	r2,-25264(gp)
  8163dc:	100170fa 	wrctl	ienable,r2
  8163e0:	e0bffc17 	ldw	r2,-16(fp)
  8163e4:	e0bffd15 	stw	r2,-12(fp)
  8163e8:	e0bffd17 	ldw	r2,-12(fp)
  8163ec:	1001703a 	wrctl	status,r2
  8163f0:	0005883a 	mov	r2,zero
  8163f4:	0001883a 	nop
  8163f8:	e037883a 	mov	sp,fp
  8163fc:	df000017 	ldw	fp,0(sp)
  816400:	dec00104 	addi	sp,sp,4
  816404:	f800283a 	ret

00816408 <alt_ic_irq_enabled>:
  816408:	defffc04 	addi	sp,sp,-16
  81640c:	df000315 	stw	fp,12(sp)
  816410:	df000304 	addi	fp,sp,12
  816414:	e13ffe15 	stw	r4,-8(fp)
  816418:	e17fff15 	stw	r5,-4(fp)
  81641c:	000530fa 	rdctl	r2,ienable
  816420:	e0bffd15 	stw	r2,-12(fp)
  816424:	00c00044 	movi	r3,1
  816428:	e0bfff17 	ldw	r2,-4(fp)
  81642c:	1884983a 	sll	r2,r3,r2
  816430:	1007883a 	mov	r3,r2
  816434:	e0bffd17 	ldw	r2,-12(fp)
  816438:	1884703a 	and	r2,r3,r2
  81643c:	1004c03a 	cmpne	r2,r2,zero
  816440:	10803fcc 	andi	r2,r2,255
  816444:	e037883a 	mov	sp,fp
  816448:	df000017 	ldw	fp,0(sp)
  81644c:	dec00104 	addi	sp,sp,4
  816450:	f800283a 	ret

00816454 <alt_iic_isr_register>:
  816454:	defff504 	addi	sp,sp,-44
  816458:	dfc00a15 	stw	ra,40(sp)
  81645c:	df000915 	stw	fp,36(sp)
  816460:	df000904 	addi	fp,sp,36
  816464:	e13ffc15 	stw	r4,-16(fp)
  816468:	e17ffd15 	stw	r5,-12(fp)
  81646c:	e1bffe15 	stw	r6,-8(fp)
  816470:	e1ffff15 	stw	r7,-4(fp)
  816474:	00bffa84 	movi	r2,-22
  816478:	e0bff715 	stw	r2,-36(fp)
  81647c:	e0bffd17 	ldw	r2,-12(fp)
  816480:	e0bff815 	stw	r2,-32(fp)
  816484:	e0bff817 	ldw	r2,-32(fp)
  816488:	10800808 	cmpgei	r2,r2,32
  81648c:	1000271e 	bne	r2,zero,81652c <alt_iic_isr_register+0xd8>
  816490:	0005303a 	rdctl	r2,status
  816494:	e0bffb15 	stw	r2,-20(fp)
  816498:	e0fffb17 	ldw	r3,-20(fp)
  81649c:	00bfff84 	movi	r2,-2
  8164a0:	1884703a 	and	r2,r3,r2
  8164a4:	1001703a 	wrctl	status,r2
  8164a8:	e0bffb17 	ldw	r2,-20(fp)
  8164ac:	e0bffa15 	stw	r2,-24(fp)
  8164b0:	008020b4 	movhi	r2,130
  8164b4:	10abac04 	addi	r2,r2,-20816
  8164b8:	e0fff817 	ldw	r3,-32(fp)
  8164bc:	180690fa 	slli	r3,r3,3
  8164c0:	10c5883a 	add	r2,r2,r3
  8164c4:	e0fffe17 	ldw	r3,-8(fp)
  8164c8:	10c00015 	stw	r3,0(r2)
  8164cc:	008020b4 	movhi	r2,130
  8164d0:	10abac04 	addi	r2,r2,-20816
  8164d4:	e0fff817 	ldw	r3,-32(fp)
  8164d8:	180690fa 	slli	r3,r3,3
  8164dc:	10c5883a 	add	r2,r2,r3
  8164e0:	10800104 	addi	r2,r2,4
  8164e4:	e0ffff17 	ldw	r3,-4(fp)
  8164e8:	10c00015 	stw	r3,0(r2)
  8164ec:	e0bffe17 	ldw	r2,-8(fp)
  8164f0:	10000526 	beq	r2,zero,816508 <alt_iic_isr_register+0xb4>
  8164f4:	e0bff817 	ldw	r2,-32(fp)
  8164f8:	100b883a 	mov	r5,r2
  8164fc:	e13ffc17 	ldw	r4,-16(fp)
  816500:	08162f40 	call	8162f4 <alt_ic_irq_enable>
  816504:	00000406 	br	816518 <alt_iic_isr_register+0xc4>
  816508:	e0bff817 	ldw	r2,-32(fp)
  81650c:	100b883a 	mov	r5,r2
  816510:	e13ffc17 	ldw	r4,-16(fp)
  816514:	081637c0 	call	81637c <alt_ic_irq_disable>
  816518:	e0bff715 	stw	r2,-36(fp)
  81651c:	e0bffa17 	ldw	r2,-24(fp)
  816520:	e0bff915 	stw	r2,-28(fp)
  816524:	e0bff917 	ldw	r2,-28(fp)
  816528:	1001703a 	wrctl	status,r2
  81652c:	e0bff717 	ldw	r2,-36(fp)
  816530:	e037883a 	mov	sp,fp
  816534:	dfc00117 	ldw	ra,4(sp)
  816538:	df000017 	ldw	fp,0(sp)
  81653c:	dec00204 	addi	sp,sp,8
  816540:	f800283a 	ret

00816544 <alt_open_fd>:
  816544:	defff904 	addi	sp,sp,-28
  816548:	dfc00615 	stw	ra,24(sp)
  81654c:	df000515 	stw	fp,20(sp)
  816550:	df000504 	addi	fp,sp,20
  816554:	e13ffc15 	stw	r4,-16(fp)
  816558:	e17ffd15 	stw	r5,-12(fp)
  81655c:	e1bffe15 	stw	r6,-8(fp)
  816560:	e1ffff15 	stw	r7,-4(fp)
  816564:	e1bfff17 	ldw	r6,-4(fp)
  816568:	e17ffe17 	ldw	r5,-8(fp)
  81656c:	e13ffd17 	ldw	r4,-12(fp)
  816570:	08133c00 	call	8133c0 <open>
  816574:	e0bffb15 	stw	r2,-20(fp)
  816578:	e0bffb17 	ldw	r2,-20(fp)
  81657c:	10001c16 	blt	r2,zero,8165f0 <alt_open_fd+0xac>
  816580:	00802074 	movhi	r2,129
  816584:	109ef804 	addi	r2,r2,31712
  816588:	e0fffb17 	ldw	r3,-20(fp)
  81658c:	18c00324 	muli	r3,r3,12
  816590:	10c5883a 	add	r2,r2,r3
  816594:	10c00017 	ldw	r3,0(r2)
  816598:	e0bffc17 	ldw	r2,-16(fp)
  81659c:	10c00015 	stw	r3,0(r2)
  8165a0:	00802074 	movhi	r2,129
  8165a4:	109ef804 	addi	r2,r2,31712
  8165a8:	e0fffb17 	ldw	r3,-20(fp)
  8165ac:	18c00324 	muli	r3,r3,12
  8165b0:	10c5883a 	add	r2,r2,r3
  8165b4:	10800104 	addi	r2,r2,4
  8165b8:	10c00017 	ldw	r3,0(r2)
  8165bc:	e0bffc17 	ldw	r2,-16(fp)
  8165c0:	10c00115 	stw	r3,4(r2)
  8165c4:	00802074 	movhi	r2,129
  8165c8:	109ef804 	addi	r2,r2,31712
  8165cc:	e0fffb17 	ldw	r3,-20(fp)
  8165d0:	18c00324 	muli	r3,r3,12
  8165d4:	10c5883a 	add	r2,r2,r3
  8165d8:	10800204 	addi	r2,r2,8
  8165dc:	10c00017 	ldw	r3,0(r2)
  8165e0:	e0bffc17 	ldw	r2,-16(fp)
  8165e4:	10c00215 	stw	r3,8(r2)
  8165e8:	e13ffb17 	ldw	r4,-20(fp)
  8165ec:	081364c0 	call	81364c <alt_release_fd>
  8165f0:	0001883a 	nop
  8165f4:	e037883a 	mov	sp,fp
  8165f8:	dfc00117 	ldw	ra,4(sp)
  8165fc:	df000017 	ldw	fp,0(sp)
  816600:	dec00204 	addi	sp,sp,8
  816604:	f800283a 	ret

00816608 <alt_io_redirect>:
  816608:	defffb04 	addi	sp,sp,-20
  81660c:	dfc00415 	stw	ra,16(sp)
  816610:	df000315 	stw	fp,12(sp)
  816614:	df000304 	addi	fp,sp,12
  816618:	e13ffd15 	stw	r4,-12(fp)
  81661c:	e17ffe15 	stw	r5,-8(fp)
  816620:	e1bfff15 	stw	r6,-4(fp)
  816624:	01c07fc4 	movi	r7,511
  816628:	01800044 	movi	r6,1
  81662c:	e17ffd17 	ldw	r5,-12(fp)
  816630:	01002074 	movhi	r4,129
  816634:	211efb04 	addi	r4,r4,31724
  816638:	08165440 	call	816544 <alt_open_fd>
  81663c:	01c07fc4 	movi	r7,511
  816640:	000d883a 	mov	r6,zero
  816644:	e17ffe17 	ldw	r5,-8(fp)
  816648:	01002074 	movhi	r4,129
  81664c:	211ef804 	addi	r4,r4,31712
  816650:	08165440 	call	816544 <alt_open_fd>
  816654:	01c07fc4 	movi	r7,511
  816658:	01800044 	movi	r6,1
  81665c:	e17fff17 	ldw	r5,-4(fp)
  816660:	01002074 	movhi	r4,129
  816664:	211efe04 	addi	r4,r4,31736
  816668:	08165440 	call	816544 <alt_open_fd>
  81666c:	0001883a 	nop
  816670:	e037883a 	mov	sp,fp
  816674:	dfc00117 	ldw	ra,4(sp)
  816678:	df000017 	ldw	fp,0(sp)
  81667c:	dec00204 	addi	sp,sp,8
  816680:	f800283a 	ret

00816684 <usleep>:
  816684:	defffd04 	addi	sp,sp,-12
  816688:	dfc00215 	stw	ra,8(sp)
  81668c:	df000115 	stw	fp,4(sp)
  816690:	df000104 	addi	fp,sp,4
  816694:	e13fff15 	stw	r4,-4(fp)
  816698:	e13fff17 	ldw	r4,-4(fp)
  81669c:	08166d80 	call	8166d8 <alt_busy_sleep>
  8166a0:	e037883a 	mov	sp,fp
  8166a4:	dfc00117 	ldw	ra,4(sp)
  8166a8:	df000017 	ldw	fp,0(sp)
  8166ac:	dec00204 	addi	sp,sp,8
  8166b0:	f800283a 	ret

008166b4 <altera_nios2_gen2_irq_init>:
  8166b4:	deffff04 	addi	sp,sp,-4
  8166b8:	df000015 	stw	fp,0(sp)
  8166bc:	d839883a 	mov	fp,sp
  8166c0:	000170fa 	wrctl	ienable,zero
  8166c4:	0001883a 	nop
  8166c8:	e037883a 	mov	sp,fp
  8166cc:	df000017 	ldw	fp,0(sp)
  8166d0:	dec00104 	addi	sp,sp,4
  8166d4:	f800283a 	ret

008166d8 <alt_busy_sleep>:
  8166d8:	defffa04 	addi	sp,sp,-24
  8166dc:	dfc00515 	stw	ra,20(sp)
  8166e0:	df000415 	stw	fp,16(sp)
  8166e4:	df000404 	addi	fp,sp,16
  8166e8:	e13fff15 	stw	r4,-4(fp)
  8166ec:	008000c4 	movi	r2,3
  8166f0:	e0bffd15 	stw	r2,-12(fp)
  8166f4:	e0fffd17 	ldw	r3,-12(fp)
  8166f8:	008003f4 	movhi	r2,15
  8166fc:	10909004 	addi	r2,r2,16960
  816700:	1885383a 	mul	r2,r3,r2
  816704:	100b883a 	mov	r5,r2
  816708:	0100bef4 	movhi	r4,763
  81670c:	213c2004 	addi	r4,r4,-3968
  816710:	08117e40 	call	8117e4 <__udivsi3>
  816714:	100b883a 	mov	r5,r2
  816718:	01200034 	movhi	r4,32768
  81671c:	213fffc4 	addi	r4,r4,-1
  816720:	08117e40 	call	8117e4 <__udivsi3>
  816724:	100b883a 	mov	r5,r2
  816728:	e13fff17 	ldw	r4,-4(fp)
  81672c:	08117e40 	call	8117e4 <__udivsi3>
  816730:	e0bffe15 	stw	r2,-8(fp)
  816734:	e0bffe17 	ldw	r2,-8(fp)
  816738:	10002a26 	beq	r2,zero,8167e4 <alt_busy_sleep+0x10c>
  81673c:	e03ffc15 	stw	zero,-16(fp)
  816740:	00001706 	br	8167a0 <alt_busy_sleep+0xc8>
  816744:	00a00034 	movhi	r2,32768
  816748:	10bfffc4 	addi	r2,r2,-1
  81674c:	10bfffc4 	addi	r2,r2,-1
  816750:	103ffe1e 	bne	r2,zero,81674c <__alt_mem_onchip_mem+0xff80e74c>
  816754:	e0fffd17 	ldw	r3,-12(fp)
  816758:	008003f4 	movhi	r2,15
  81675c:	10909004 	addi	r2,r2,16960
  816760:	1885383a 	mul	r2,r3,r2
  816764:	100b883a 	mov	r5,r2
  816768:	0100bef4 	movhi	r4,763
  81676c:	213c2004 	addi	r4,r4,-3968
  816770:	08117e40 	call	8117e4 <__udivsi3>
  816774:	100b883a 	mov	r5,r2
  816778:	01200034 	movhi	r4,32768
  81677c:	213fffc4 	addi	r4,r4,-1
  816780:	08117e40 	call	8117e4 <__udivsi3>
  816784:	1007883a 	mov	r3,r2
  816788:	e0bfff17 	ldw	r2,-4(fp)
  81678c:	10c5c83a 	sub	r2,r2,r3
  816790:	e0bfff15 	stw	r2,-4(fp)
  816794:	e0bffc17 	ldw	r2,-16(fp)
  816798:	10800044 	addi	r2,r2,1
  81679c:	e0bffc15 	stw	r2,-16(fp)
  8167a0:	e0fffc17 	ldw	r3,-16(fp)
  8167a4:	e0bffe17 	ldw	r2,-8(fp)
  8167a8:	18bfe616 	blt	r3,r2,816744 <__alt_mem_onchip_mem+0xff80e744>
  8167ac:	e0fffd17 	ldw	r3,-12(fp)
  8167b0:	008003f4 	movhi	r2,15
  8167b4:	10909004 	addi	r2,r2,16960
  8167b8:	1885383a 	mul	r2,r3,r2
  8167bc:	100b883a 	mov	r5,r2
  8167c0:	0100bef4 	movhi	r4,763
  8167c4:	213c2004 	addi	r4,r4,-3968
  8167c8:	08117e40 	call	8117e4 <__udivsi3>
  8167cc:	1007883a 	mov	r3,r2
  8167d0:	e0bfff17 	ldw	r2,-4(fp)
  8167d4:	1885383a 	mul	r2,r3,r2
  8167d8:	10bfffc4 	addi	r2,r2,-1
  8167dc:	103ffe1e 	bne	r2,zero,8167d8 <__alt_mem_onchip_mem+0xff80e7d8>
  8167e0:	00000d06 	br	816818 <alt_busy_sleep+0x140>
  8167e4:	e0fffd17 	ldw	r3,-12(fp)
  8167e8:	008003f4 	movhi	r2,15
  8167ec:	10909004 	addi	r2,r2,16960
  8167f0:	1885383a 	mul	r2,r3,r2
  8167f4:	100b883a 	mov	r5,r2
  8167f8:	0100bef4 	movhi	r4,763
  8167fc:	213c2004 	addi	r4,r4,-3968
  816800:	08117e40 	call	8117e4 <__udivsi3>
  816804:	1007883a 	mov	r3,r2
  816808:	e0bfff17 	ldw	r2,-4(fp)
  81680c:	1885383a 	mul	r2,r3,r2
  816810:	10bfffc4 	addi	r2,r2,-1
  816814:	00bffe16 	blt	zero,r2,816810 <__alt_mem_onchip_mem+0xff80e810>
  816818:	0005883a 	mov	r2,zero
  81681c:	e037883a 	mov	sp,fp
  816820:	dfc00117 	ldw	ra,4(sp)
  816824:	df000017 	ldw	fp,0(sp)
  816828:	dec00204 	addi	sp,sp,8
  81682c:	f800283a 	ret

00816830 <alt_icache_flush>:
  816830:	defffb04 	addi	sp,sp,-20
  816834:	df000415 	stw	fp,16(sp)
  816838:	df000404 	addi	fp,sp,16
  81683c:	e13ffe15 	stw	r4,-8(fp)
  816840:	e17fff15 	stw	r5,-4(fp)
  816844:	e0bfff17 	ldw	r2,-4(fp)
  816848:	10840070 	cmpltui	r2,r2,4097
  81684c:	1000021e 	bne	r2,zero,816858 <alt_icache_flush+0x28>
  816850:	00840004 	movi	r2,4096
  816854:	e0bfff15 	stw	r2,-4(fp)
  816858:	e0fffe17 	ldw	r3,-8(fp)
  81685c:	e0bfff17 	ldw	r2,-4(fp)
  816860:	1885883a 	add	r2,r3,r2
  816864:	e0bffd15 	stw	r2,-12(fp)
  816868:	e0bffe17 	ldw	r2,-8(fp)
  81686c:	e0bffc15 	stw	r2,-16(fp)
  816870:	00000506 	br	816888 <alt_icache_flush+0x58>
  816874:	e0bffc17 	ldw	r2,-16(fp)
  816878:	1000603a 	flushi	r2
  81687c:	e0bffc17 	ldw	r2,-16(fp)
  816880:	10800804 	addi	r2,r2,32
  816884:	e0bffc15 	stw	r2,-16(fp)
  816888:	e0fffc17 	ldw	r3,-16(fp)
  81688c:	e0bffd17 	ldw	r2,-12(fp)
  816890:	18bff836 	bltu	r3,r2,816874 <__alt_mem_onchip_mem+0xff80e874>
  816894:	e0bffe17 	ldw	r2,-8(fp)
  816898:	108007cc 	andi	r2,r2,31
  81689c:	10000226 	beq	r2,zero,8168a8 <alt_icache_flush+0x78>
  8168a0:	e0bffc17 	ldw	r2,-16(fp)
  8168a4:	1000603a 	flushi	r2
  8168a8:	0000203a 	flushp
  8168ac:	0001883a 	nop
  8168b0:	e037883a 	mov	sp,fp
  8168b4:	df000017 	ldw	fp,0(sp)
  8168b8:	dec00104 	addi	sp,sp,4
  8168bc:	f800283a 	ret

008168c0 <alt_exception_cause_generated_bad_addr>:
  8168c0:	defffe04 	addi	sp,sp,-8
  8168c4:	df000115 	stw	fp,4(sp)
  8168c8:	df000104 	addi	fp,sp,4
  8168cc:	e13fff15 	stw	r4,-4(fp)
  8168d0:	e0bfff17 	ldw	r2,-4(fp)
  8168d4:	10bffe84 	addi	r2,r2,-6
  8168d8:	10c00428 	cmpgeui	r3,r2,16
  8168dc:	18001a1e 	bne	r3,zero,816948 <alt_exception_cause_generated_bad_addr+0x88>
  8168e0:	100690ba 	slli	r3,r2,2
  8168e4:	00802074 	movhi	r2,129
  8168e8:	109a3e04 	addi	r2,r2,26872
  8168ec:	1885883a 	add	r2,r3,r2
  8168f0:	10800017 	ldw	r2,0(r2)
  8168f4:	1000683a 	jmp	r2
  8168f8:	00816938 	rdprs	r2,zero,1444
  8168fc:	00816938 	rdprs	r2,zero,1444
  816900:	00816948 	cmpgei	r2,zero,1445
  816904:	00816948 	cmpgei	r2,zero,1445
  816908:	00816948 	cmpgei	r2,zero,1445
  81690c:	00816938 	rdprs	r2,zero,1444
  816910:	00816940 	call	81694 <__alt_mem_sdram-0x77e96c>
  816914:	00816948 	cmpgei	r2,zero,1445
  816918:	00816938 	rdprs	r2,zero,1444
  81691c:	00816938 	rdprs	r2,zero,1444
  816920:	00816948 	cmpgei	r2,zero,1445
  816924:	00816938 	rdprs	r2,zero,1444
  816928:	00816940 	call	81694 <__alt_mem_sdram-0x77e96c>
  81692c:	00816948 	cmpgei	r2,zero,1445
  816930:	00816948 	cmpgei	r2,zero,1445
  816934:	00816938 	rdprs	r2,zero,1444
  816938:	00800044 	movi	r2,1
  81693c:	00000306 	br	81694c <alt_exception_cause_generated_bad_addr+0x8c>
  816940:	0005883a 	mov	r2,zero
  816944:	00000106 	br	81694c <alt_exception_cause_generated_bad_addr+0x8c>
  816948:	0005883a 	mov	r2,zero
  81694c:	e037883a 	mov	sp,fp
  816950:	df000017 	ldw	fp,0(sp)
  816954:	dec00104 	addi	sp,sp,4
  816958:	f800283a 	ret

0081695c <atexit>:
  81695c:	200b883a 	mov	r5,r4
  816960:	000f883a 	mov	r7,zero
  816964:	000d883a 	mov	r6,zero
  816968:	0009883a 	mov	r4,zero
  81696c:	0816a241 	jmpi	816a24 <__register_exitproc>

00816970 <exit>:
  816970:	defffe04 	addi	sp,sp,-8
  816974:	000b883a 	mov	r5,zero
  816978:	dc000015 	stw	r16,0(sp)
  81697c:	dfc00115 	stw	ra,4(sp)
  816980:	2021883a 	mov	r16,r4
  816984:	0816b3c0 	call	816b3c <__call_exitprocs>
  816988:	008020b4 	movhi	r2,130
  81698c:	10a3e904 	addi	r2,r2,-28764
  816990:	11000017 	ldw	r4,0(r2)
  816994:	20800f17 	ldw	r2,60(r4)
  816998:	10000126 	beq	r2,zero,8169a0 <exit+0x30>
  81699c:	103ee83a 	callr	r2
  8169a0:	8009883a 	mov	r4,r16
  8169a4:	0816cbc0 	call	816cbc <_exit>

008169a8 <memcmp>:
  8169a8:	01c000c4 	movi	r7,3
  8169ac:	3980192e 	bgeu	r7,r6,816a14 <memcmp+0x6c>
  8169b0:	2144b03a 	or	r2,r4,r5
  8169b4:	11c4703a 	and	r2,r2,r7
  8169b8:	10000f26 	beq	r2,zero,8169f8 <memcmp+0x50>
  8169bc:	20800003 	ldbu	r2,0(r4)
  8169c0:	28c00003 	ldbu	r3,0(r5)
  8169c4:	10c0151e 	bne	r2,r3,816a1c <memcmp+0x74>
  8169c8:	31bfff84 	addi	r6,r6,-2
  8169cc:	01ffffc4 	movi	r7,-1
  8169d0:	00000406 	br	8169e4 <memcmp+0x3c>
  8169d4:	20800003 	ldbu	r2,0(r4)
  8169d8:	28c00003 	ldbu	r3,0(r5)
  8169dc:	31bfffc4 	addi	r6,r6,-1
  8169e0:	10c00e1e 	bne	r2,r3,816a1c <memcmp+0x74>
  8169e4:	21000044 	addi	r4,r4,1
  8169e8:	29400044 	addi	r5,r5,1
  8169ec:	31fff91e 	bne	r6,r7,8169d4 <__alt_mem_onchip_mem+0xff80e9d4>
  8169f0:	0005883a 	mov	r2,zero
  8169f4:	f800283a 	ret
  8169f8:	20c00017 	ldw	r3,0(r4)
  8169fc:	28800017 	ldw	r2,0(r5)
  816a00:	18bfee1e 	bne	r3,r2,8169bc <__alt_mem_onchip_mem+0xff80e9bc>
  816a04:	31bfff04 	addi	r6,r6,-4
  816a08:	21000104 	addi	r4,r4,4
  816a0c:	29400104 	addi	r5,r5,4
  816a10:	39bff936 	bltu	r7,r6,8169f8 <__alt_mem_onchip_mem+0xff80e9f8>
  816a14:	303fe91e 	bne	r6,zero,8169bc <__alt_mem_onchip_mem+0xff80e9bc>
  816a18:	003ff506 	br	8169f0 <__alt_mem_onchip_mem+0xff80e9f0>
  816a1c:	10c5c83a 	sub	r2,r2,r3
  816a20:	f800283a 	ret

00816a24 <__register_exitproc>:
  816a24:	defffa04 	addi	sp,sp,-24
  816a28:	dc000315 	stw	r16,12(sp)
  816a2c:	040020b4 	movhi	r16,130
  816a30:	8423e904 	addi	r16,r16,-28764
  816a34:	80c00017 	ldw	r3,0(r16)
  816a38:	dc400415 	stw	r17,16(sp)
  816a3c:	dfc00515 	stw	ra,20(sp)
  816a40:	18805217 	ldw	r2,328(r3)
  816a44:	2023883a 	mov	r17,r4
  816a48:	10003726 	beq	r2,zero,816b28 <__register_exitproc+0x104>
  816a4c:	10c00117 	ldw	r3,4(r2)
  816a50:	010007c4 	movi	r4,31
  816a54:	20c00e16 	blt	r4,r3,816a90 <__register_exitproc+0x6c>
  816a58:	1a000044 	addi	r8,r3,1
  816a5c:	8800221e 	bne	r17,zero,816ae8 <__register_exitproc+0xc4>
  816a60:	18c00084 	addi	r3,r3,2
  816a64:	18c7883a 	add	r3,r3,r3
  816a68:	18c7883a 	add	r3,r3,r3
  816a6c:	12000115 	stw	r8,4(r2)
  816a70:	10c7883a 	add	r3,r2,r3
  816a74:	19400015 	stw	r5,0(r3)
  816a78:	0005883a 	mov	r2,zero
  816a7c:	dfc00517 	ldw	ra,20(sp)
  816a80:	dc400417 	ldw	r17,16(sp)
  816a84:	dc000317 	ldw	r16,12(sp)
  816a88:	dec00604 	addi	sp,sp,24
  816a8c:	f800283a 	ret
  816a90:	00800034 	movhi	r2,0
  816a94:	10800004 	addi	r2,r2,0
  816a98:	10002626 	beq	r2,zero,816b34 <__register_exitproc+0x110>
  816a9c:	01006404 	movi	r4,400
  816aa0:	d9400015 	stw	r5,0(sp)
  816aa4:	d9800115 	stw	r6,4(sp)
  816aa8:	d9c00215 	stw	r7,8(sp)
  816aac:	00000000 	call	0 <__alt_mem_sdram-0x800000>
  816ab0:	d9400017 	ldw	r5,0(sp)
  816ab4:	d9800117 	ldw	r6,4(sp)
  816ab8:	d9c00217 	ldw	r7,8(sp)
  816abc:	10001d26 	beq	r2,zero,816b34 <__register_exitproc+0x110>
  816ac0:	81000017 	ldw	r4,0(r16)
  816ac4:	10000115 	stw	zero,4(r2)
  816ac8:	02000044 	movi	r8,1
  816acc:	22405217 	ldw	r9,328(r4)
  816ad0:	0007883a 	mov	r3,zero
  816ad4:	12400015 	stw	r9,0(r2)
  816ad8:	20805215 	stw	r2,328(r4)
  816adc:	10006215 	stw	zero,392(r2)
  816ae0:	10006315 	stw	zero,396(r2)
  816ae4:	883fde26 	beq	r17,zero,816a60 <__alt_mem_onchip_mem+0xff80ea60>
  816ae8:	18c9883a 	add	r4,r3,r3
  816aec:	2109883a 	add	r4,r4,r4
  816af0:	1109883a 	add	r4,r2,r4
  816af4:	21802215 	stw	r6,136(r4)
  816af8:	01800044 	movi	r6,1
  816afc:	12406217 	ldw	r9,392(r2)
  816b00:	30cc983a 	sll	r6,r6,r3
  816b04:	4992b03a 	or	r9,r9,r6
  816b08:	12406215 	stw	r9,392(r2)
  816b0c:	21c04215 	stw	r7,264(r4)
  816b10:	01000084 	movi	r4,2
  816b14:	893fd21e 	bne	r17,r4,816a60 <__alt_mem_onchip_mem+0xff80ea60>
  816b18:	11006317 	ldw	r4,396(r2)
  816b1c:	218cb03a 	or	r6,r4,r6
  816b20:	11806315 	stw	r6,396(r2)
  816b24:	003fce06 	br	816a60 <__alt_mem_onchip_mem+0xff80ea60>
  816b28:	18805304 	addi	r2,r3,332
  816b2c:	18805215 	stw	r2,328(r3)
  816b30:	003fc606 	br	816a4c <__alt_mem_onchip_mem+0xff80ea4c>
  816b34:	00bfffc4 	movi	r2,-1
  816b38:	003fd006 	br	816a7c <__alt_mem_onchip_mem+0xff80ea7c>

00816b3c <__call_exitprocs>:
  816b3c:	defff504 	addi	sp,sp,-44
  816b40:	df000915 	stw	fp,36(sp)
  816b44:	dd400615 	stw	r21,24(sp)
  816b48:	dc800315 	stw	r18,12(sp)
  816b4c:	dfc00a15 	stw	ra,40(sp)
  816b50:	ddc00815 	stw	r23,32(sp)
  816b54:	dd800715 	stw	r22,28(sp)
  816b58:	dd000515 	stw	r20,20(sp)
  816b5c:	dcc00415 	stw	r19,16(sp)
  816b60:	dc400215 	stw	r17,8(sp)
  816b64:	dc000115 	stw	r16,4(sp)
  816b68:	d9000015 	stw	r4,0(sp)
  816b6c:	2839883a 	mov	fp,r5
  816b70:	04800044 	movi	r18,1
  816b74:	057fffc4 	movi	r21,-1
  816b78:	008020b4 	movhi	r2,130
  816b7c:	10a3e904 	addi	r2,r2,-28764
  816b80:	12000017 	ldw	r8,0(r2)
  816b84:	45005217 	ldw	r20,328(r8)
  816b88:	44c05204 	addi	r19,r8,328
  816b8c:	a0001c26 	beq	r20,zero,816c00 <__call_exitprocs+0xc4>
  816b90:	a0800117 	ldw	r2,4(r20)
  816b94:	15ffffc4 	addi	r23,r2,-1
  816b98:	b8000d16 	blt	r23,zero,816bd0 <__call_exitprocs+0x94>
  816b9c:	14000044 	addi	r16,r2,1
  816ba0:	8421883a 	add	r16,r16,r16
  816ba4:	8421883a 	add	r16,r16,r16
  816ba8:	84402004 	addi	r17,r16,128
  816bac:	a463883a 	add	r17,r20,r17
  816bb0:	a421883a 	add	r16,r20,r16
  816bb4:	e0001e26 	beq	fp,zero,816c30 <__call_exitprocs+0xf4>
  816bb8:	80804017 	ldw	r2,256(r16)
  816bbc:	e0801c26 	beq	fp,r2,816c30 <__call_exitprocs+0xf4>
  816bc0:	bdffffc4 	addi	r23,r23,-1
  816bc4:	843fff04 	addi	r16,r16,-4
  816bc8:	8c7fff04 	addi	r17,r17,-4
  816bcc:	bd7ff91e 	bne	r23,r21,816bb4 <__alt_mem_onchip_mem+0xff80ebb4>
  816bd0:	00800034 	movhi	r2,0
  816bd4:	10800004 	addi	r2,r2,0
  816bd8:	10000926 	beq	r2,zero,816c00 <__call_exitprocs+0xc4>
  816bdc:	a0800117 	ldw	r2,4(r20)
  816be0:	1000301e 	bne	r2,zero,816ca4 <__call_exitprocs+0x168>
  816be4:	a0800017 	ldw	r2,0(r20)
  816be8:	10003226 	beq	r2,zero,816cb4 <__call_exitprocs+0x178>
  816bec:	a009883a 	mov	r4,r20
  816bf0:	98800015 	stw	r2,0(r19)
  816bf4:	00000000 	call	0 <__alt_mem_sdram-0x800000>
  816bf8:	9d000017 	ldw	r20,0(r19)
  816bfc:	a03fe41e 	bne	r20,zero,816b90 <__alt_mem_onchip_mem+0xff80eb90>
  816c00:	dfc00a17 	ldw	ra,40(sp)
  816c04:	df000917 	ldw	fp,36(sp)
  816c08:	ddc00817 	ldw	r23,32(sp)
  816c0c:	dd800717 	ldw	r22,28(sp)
  816c10:	dd400617 	ldw	r21,24(sp)
  816c14:	dd000517 	ldw	r20,20(sp)
  816c18:	dcc00417 	ldw	r19,16(sp)
  816c1c:	dc800317 	ldw	r18,12(sp)
  816c20:	dc400217 	ldw	r17,8(sp)
  816c24:	dc000117 	ldw	r16,4(sp)
  816c28:	dec00b04 	addi	sp,sp,44
  816c2c:	f800283a 	ret
  816c30:	a0800117 	ldw	r2,4(r20)
  816c34:	80c00017 	ldw	r3,0(r16)
  816c38:	10bfffc4 	addi	r2,r2,-1
  816c3c:	15c01426 	beq	r2,r23,816c90 <__call_exitprocs+0x154>
  816c40:	80000015 	stw	zero,0(r16)
  816c44:	183fde26 	beq	r3,zero,816bc0 <__alt_mem_onchip_mem+0xff80ebc0>
  816c48:	95c8983a 	sll	r4,r18,r23
  816c4c:	a0806217 	ldw	r2,392(r20)
  816c50:	a5800117 	ldw	r22,4(r20)
  816c54:	2084703a 	and	r2,r4,r2
  816c58:	10000b26 	beq	r2,zero,816c88 <__call_exitprocs+0x14c>
  816c5c:	a0806317 	ldw	r2,396(r20)
  816c60:	2088703a 	and	r4,r4,r2
  816c64:	20000c1e 	bne	r4,zero,816c98 <__call_exitprocs+0x15c>
  816c68:	89400017 	ldw	r5,0(r17)
  816c6c:	d9000017 	ldw	r4,0(sp)
  816c70:	183ee83a 	callr	r3
  816c74:	a0800117 	ldw	r2,4(r20)
  816c78:	15bfbf1e 	bne	r2,r22,816b78 <__alt_mem_onchip_mem+0xff80eb78>
  816c7c:	98800017 	ldw	r2,0(r19)
  816c80:	153fcf26 	beq	r2,r20,816bc0 <__alt_mem_onchip_mem+0xff80ebc0>
  816c84:	003fbc06 	br	816b78 <__alt_mem_onchip_mem+0xff80eb78>
  816c88:	183ee83a 	callr	r3
  816c8c:	003ff906 	br	816c74 <__alt_mem_onchip_mem+0xff80ec74>
  816c90:	a5c00115 	stw	r23,4(r20)
  816c94:	003feb06 	br	816c44 <__alt_mem_onchip_mem+0xff80ec44>
  816c98:	89000017 	ldw	r4,0(r17)
  816c9c:	183ee83a 	callr	r3
  816ca0:	003ff406 	br	816c74 <__alt_mem_onchip_mem+0xff80ec74>
  816ca4:	a0800017 	ldw	r2,0(r20)
  816ca8:	a027883a 	mov	r19,r20
  816cac:	1029883a 	mov	r20,r2
  816cb0:	003fb606 	br	816b8c <__alt_mem_onchip_mem+0xff80eb8c>
  816cb4:	0005883a 	mov	r2,zero
  816cb8:	003ffb06 	br	816ca8 <__alt_mem_onchip_mem+0xff80eca8>

00816cbc <_exit>:
  816cbc:	defffd04 	addi	sp,sp,-12
  816cc0:	df000215 	stw	fp,8(sp)
  816cc4:	df000204 	addi	fp,sp,8
  816cc8:	e13fff15 	stw	r4,-4(fp)
  816ccc:	0001883a 	nop
  816cd0:	e0bfff17 	ldw	r2,-4(fp)
  816cd4:	e0bffe15 	stw	r2,-8(fp)
  816cd8:	e0bffe17 	ldw	r2,-8(fp)
  816cdc:	10000226 	beq	r2,zero,816ce8 <_exit+0x2c>
  816ce0:	002af070 	cmpltui	zero,zero,43969
  816ce4:	00000106 	br	816cec <_exit+0x30>
  816ce8:	002af0b0 	cmpltui	zero,zero,43970
  816cec:	003fff06 	br	816cec <__alt_mem_onchip_mem+0xff80ecec>
